Archive member included to satisfy reference by file (symbol)

c:/ti/gcc-arm-none-eabi-6-2017-q1-update/bin/../lib/gcc/arm-none-eabi/6.3.1/../../../../arm-none-eabi/lib/hard\libc.a(lib_a-exit.o)
                              c:/ti/gcc-arm-none-eabi-6-2017-q1-update/bin/../lib/gcc/arm-none-eabi/6.3.1/../../../../arm-none-eabi/lib/hard/crt0.o (exit)
c:/ti/gcc-arm-none-eabi-6-2017-q1-update/bin/../lib/gcc/arm-none-eabi/6.3.1/../../../../arm-none-eabi/lib/hard\libc.a(lib_a-impure.o)
                              c:/ti/gcc-arm-none-eabi-6-2017-q1-update/bin/../lib/gcc/arm-none-eabi/6.3.1/../../../../arm-none-eabi/lib/hard\libc.a(lib_a-exit.o) (_global_impure_ptr)
c:/ti/gcc-arm-none-eabi-6-2017-q1-update/bin/../lib/gcc/arm-none-eabi/6.3.1/../../../../arm-none-eabi/lib/hard\libc.a(lib_a-init.o)
                              c:/ti/gcc-arm-none-eabi-6-2017-q1-update/bin/../lib/gcc/arm-none-eabi/6.3.1/../../../../arm-none-eabi/lib/hard/crt0.o (__libc_init_array)
c:/ti/gcc-arm-none-eabi-6-2017-q1-update/bin/../lib/gcc/arm-none-eabi/6.3.1/../../../../arm-none-eabi/lib/hard\libc.a(lib_a-memset.o)
                              c:/ti/gcc-arm-none-eabi-6-2017-q1-update/bin/../lib/gcc/arm-none-eabi/6.3.1/../../../../arm-none-eabi/lib/hard/crt0.o (memset)
c:/ti/gcc-arm-none-eabi-6-2017-q1-update/bin/../lib/gcc/arm-none-eabi/6.3.1/../../../../arm-none-eabi/lib/hard\libc.a(lib_a-__call_atexit.o)
                              c:/ti/gcc-arm-none-eabi-6-2017-q1-update/bin/../lib/gcc/arm-none-eabi/6.3.1/../../../../arm-none-eabi/lib/hard\libc.a(lib_a-exit.o) (__call_exitprocs)
c:/ti/gcc-arm-none-eabi-6-2017-q1-update/bin/../lib/gcc/arm-none-eabi/6.3.1/../../../../arm-none-eabi/lib/hard\libc.a(lib_a-atexit.o)
                              c:/ti/gcc-arm-none-eabi-6-2017-q1-update/bin/../lib/gcc/arm-none-eabi/6.3.1/../../../../arm-none-eabi/lib/hard\libc.a(lib_a-__call_atexit.o) (atexit)
c:/ti/gcc-arm-none-eabi-6-2017-q1-update/bin/../lib/gcc/arm-none-eabi/6.3.1/../../../../arm-none-eabi/lib/hard\libc.a(lib_a-fini.o)
                              c:/ti/gcc-arm-none-eabi-6-2017-q1-update/bin/../lib/gcc/arm-none-eabi/6.3.1/../../../../arm-none-eabi/lib/hard\libc.a(lib_a-__call_atexit.o) (__libc_fini_array)
c:/ti/gcc-arm-none-eabi-6-2017-q1-update/bin/../lib/gcc/arm-none-eabi/6.3.1/../../../../arm-none-eabi/lib/hard\libc.a(lib_a-lock.o)
                              c:/ti/gcc-arm-none-eabi-6-2017-q1-update/bin/../lib/gcc/arm-none-eabi/6.3.1/../../../../arm-none-eabi/lib/hard\libc.a(lib_a-__call_atexit.o) (__retarget_lock_acquire_recursive)
c:/ti/gcc-arm-none-eabi-6-2017-q1-update/bin/../lib/gcc/arm-none-eabi/6.3.1/../../../../arm-none-eabi/lib/hard\libc.a(lib_a-__atexit.o)
                              c:/ti/gcc-arm-none-eabi-6-2017-q1-update/bin/../lib/gcc/arm-none-eabi/6.3.1/../../../../arm-none-eabi/lib/hard\libc.a(lib_a-atexit.o) (__register_exitproc)
../libboard.a(board.o)        ./flash_writer/flash_writer_app_main.o (BOARDInit)
../libboard.a(dcard.o)        ../libboard.a(board.o) (DCARDIsDevPresent)
../libboard.a(platform.o)     ../libboard.a(board.o) (PLATFORMGetId)
../libboard.a(pinmux.o)       ./qspi_app.o (PINMUXModuleConfig)
../libboard.a(board_am43xx.o)
                              ../libboard.a(board.o) (BoardAm43xxInit)
../libboard.a(dcard_am43xx.o)
                              ../libboard.a(dcard.o) (DCardAm43xxInit)
../libboard.a(am43xx_gpevm.o)
                              ../libboard.a(board_am43xx.o) (gBoardAm43xxGpevmData)
../libboard.a(am43xx_evmsk.o)
                              ../libboard.a(board_am43xx.o) (gBoardAm43xxEvmskData)
../libboard.a(am43xx_idkevm.o)
                              ../libboard.a(board_am43xx.o) (gBoardAm43xxIdkevmData)
../libboard.a(am43xx_eposevm.o)
                              ../libboard.a(board_am43xx.o) (gBoardAm43xxEposevmData)
../libboard.a(am43xx_custom.o)
                              ../libboard.a(board_am43xx.o) (gBoardAm43xxCustomData)
../libboard.a(am43xx_gpevm_pinmux_data.o)
                              ../libboard.a(am43xx_gpevm.o) (gGpevmPinmuxData)
../libboard.a(am43xx_evmsk_pinmux_data.o)
                              ../libboard.a(am43xx_evmsk.o) (gEvmskPinmuxData)
../libboard.a(am43xx_idkevm_pinmux_data.o)
                              ../libboard.a(am43xx_idkevm.o) (gIdkevmPinmuxData)
../libboard.a(am43xx_eposevm_pinmux_data.o)
                              ../libboard.a(am43xx_eposevm.o) (gEposevmPinmuxData)
../libdal.a(gpio.o)           ../libboard.a(am43xx_gpevm.o) (GPIOModuleEnable)
../libdevice.a(qspi_flash.o)  ./flash_writer/flash_writer_app_main.o (QSPIFlashGetDeviceData)
../libexample_utils.a(example_utils_mmu.o)
                              ./flash_writer/flash_writer_app_main.o (MMUConfigAndEnable)
../libqspi_lib.a(qspi_lib.o)  ./flash_writer/flash_writer_app_main.o (QSPILibInit)
../libsoc.a(soc.o)            ../libboard.a(board.o) (SOCGetSocFamilyId)
../libsoc.a(startup.o)        ./startup_ARMCA9.o (start_boot)
../libsoc.a(am43xx_chipdb.o)  ./qspi_app.o (CHIPDBIsResourcePresent)
../libsoc.a(hw_am43xx_chipdb.o)
                              ../libsoc.a(am43xx_chipdb.o) (CHIPDBSpeedGradeProcID)
../libsoc.a(hw_am43xx_chipdb_baseaddr.o)
                              ../libsoc.a(am43xx_chipdb.o) (gChipDBBaseAddrTable)
../libsoc.a(hw_am43xx_chipdb_interrupt.o)
                              ../libsoc.a(am43xx_chipdb.o) (gChipDBInterruptTables)
../libsoc.a(am43xx_prcm.o)    ./qspi_app.o (PRCMModuleEnable)
../libsoc.a(hw_prcm_data.o)   ../libsoc.a(am43xx_prcm.o) (PRCMGetModuleId)
../libsoc.a(cache_arm.o)      ./flash_writer/flash_writer_app_main.o (CACHEEnable)
../libsoc.a(mmu_arm.o)        ../libexample_utils.a(example_utils_mmu.o) (MMUInit)
../libsoc.a(cp15.o)           ../libsoc.a(cache_arm.o) (CP15ICacheDisable)
../libsoc.a(exceptionhandler.o)
                              ../libsoc.a(startup.o) (IRQHandler)
../libsoc.a(cpu.o)            ../libsoc.a(exceptionhandler.o) (CPUAbortHandler)
../libsoc.a(gic.o)            ../libsoc.a(exceptionhandler.o) (INTCCommonIntrHandler)
../libutils.a(console_utils.o)
                              ./flash_writer/flash_writer_app_main.o (CONSOLEUtilsInit)
../libutils.a(agraph.o)       ../libsoc.a(am43xx_prcm.o) (ag_get_prop_ptr)
../libutils.a(i2c_utils.o)    ../libboard.a(board_am43xx.o) (I2CUtilsRead)
../libutils.a(console_utils_uart.o)
                              ../libutils.a(console_utils.o) (CONSOLEUtilsUartInit)
../libutils.a(ascii_utils.o)  ../libutils.a(console_utils_uart.o) (ASCIIUtilsCharToDigit)
c:/ti/gcc-arm-none-eabi-6-2017-q1-update/bin/../lib/gcc/arm-none-eabi/6.3.1/hard\libgcc.a(_udivsi3.o)
                              ./i2c.o (__aeabi_uidiv)
c:/ti/gcc-arm-none-eabi-6-2017-q1-update/bin/../lib/gcc/arm-none-eabi/6.3.1/hard\libgcc.a(_dvmd_tls.o)
                              c:/ti/gcc-arm-none-eabi-6-2017-q1-update/bin/../lib/gcc/arm-none-eabi/6.3.1/hard\libgcc.a(_udivsi3.o) (__aeabi_idiv0)
c:/ti/gcc-arm-none-eabi-6-2017-q1-update/bin/../lib/gcc/arm-none-eabi/6.3.1/hard\libgcc.a(_aeabi_uldivmod.o)
                              ../libutils.a(console_utils_uart.o) (__aeabi_uldivmod)
c:/ti/gcc-arm-none-eabi-6-2017-q1-update/bin/../lib/gcc/arm-none-eabi/6.3.1/hard\libgcc.a(_fixunsdfdi.o)
                              ../libutils.a(console_utils_uart.o) (__aeabi_d2ulz)
c:/ti/gcc-arm-none-eabi-6-2017-q1-update/bin/../lib/gcc/arm-none-eabi/6.3.1/hard\libgcc.a(_udivmoddi4.o)
                              c:/ti/gcc-arm-none-eabi-6-2017-q1-update/bin/../lib/gcc/arm-none-eabi/6.3.1/hard\libgcc.a(_aeabi_uldivmod.o) (__udivmoddi4)
c:/ti/gcc-arm-none-eabi-6-2017-q1-update/bin/../lib/gcc/arm-none-eabi/6.3.1/hard\libgcc.a(_clzdi2.o)
                              c:/ti/gcc-arm-none-eabi-6-2017-q1-update/bin/../lib/gcc/arm-none-eabi/6.3.1/hard\libgcc.a(_udivmoddi4.o) (__clzdi2)
c:/ti/gcc-arm-none-eabi-6-2017-q1-update/bin/../lib/gcc/arm-none-eabi/6.3.1/hard\libgcc.a(_clzsi2.o)
                              c:/ti/gcc-arm-none-eabi-6-2017-q1-update/bin/../lib/gcc/arm-none-eabi/6.3.1/hard\libgcc.a(_clzdi2.o) (__clzsi2)
c:/ti/gcc-arm-none-eabi-6-2017-q1-update/bin/../lib/gcc/arm-none-eabi/6.3.1/../../../../arm-none-eabi/lib/hard\libg.a(lib_a-assert.o)
                              ../libutils.a(agraph.o) (__assert_func)
c:/ti/gcc-arm-none-eabi-6-2017-q1-update/bin/../lib/gcc/arm-none-eabi/6.3.1/../../../../arm-none-eabi/lib/hard\libg.a(lib_a-fiprintf.o)
                              c:/ti/gcc-arm-none-eabi-6-2017-q1-update/bin/../lib/gcc/arm-none-eabi/6.3.1/../../../../arm-none-eabi/lib/hard\libg.a(lib_a-assert.o) (fiprintf)
c:/ti/gcc-arm-none-eabi-6-2017-q1-update/bin/../lib/gcc/arm-none-eabi/6.3.1/../../../../arm-none-eabi/lib/hard\libg.a(lib_a-memcpy-stub.o)
                              ../libutils.a(i2c_utils.o) (memcpy)
c:/ti/gcc-arm-none-eabi-6-2017-q1-update/bin/../lib/gcc/arm-none-eabi/6.3.1/../../../../arm-none-eabi/lib/hard\libg.a(lib_a-strncmp.o)
                              ../libboard.a(board_am43xx.o) (strncmp)
c:/ti/gcc-arm-none-eabi-6-2017-q1-update/bin/../lib/gcc/arm-none-eabi/6.3.1/../../../../arm-none-eabi/lib/hard\libg.a(lib_a-vfiprintf.o)
                              c:/ti/gcc-arm-none-eabi-6-2017-q1-update/bin/../lib/gcc/arm-none-eabi/6.3.1/../../../../arm-none-eabi/lib/hard\libg.a(lib_a-fiprintf.o) (_vfiprintf_r)
c:/ti/gcc-arm-none-eabi-6-2017-q1-update/bin/../lib/gcc/arm-none-eabi/6.3.1/../../../../arm-none-eabi/lib/hard\libg.a(lib_a-wsetup.o)
                              c:/ti/gcc-arm-none-eabi-6-2017-q1-update/bin/../lib/gcc/arm-none-eabi/6.3.1/../../../../arm-none-eabi/lib/hard\libg.a(lib_a-vfiprintf.o) (__swsetup_r)
c:/ti/gcc-arm-none-eabi-6-2017-q1-update/bin/../lib/gcc/arm-none-eabi/6.3.1/../../../../arm-none-eabi/lib/hard\libg.a(lib_a-abort.o)
                              c:/ti/gcc-arm-none-eabi-6-2017-q1-update/bin/../lib/gcc/arm-none-eabi/6.3.1/../../../../arm-none-eabi/lib/hard\libg.a(lib_a-assert.o) (abort)
c:/ti/gcc-arm-none-eabi-6-2017-q1-update/bin/../lib/gcc/arm-none-eabi/6.3.1/../../../../arm-none-eabi/lib/hard\libg.a(lib_a-fflush.o)
                              c:/ti/gcc-arm-none-eabi-6-2017-q1-update/bin/../lib/gcc/arm-none-eabi/6.3.1/../../../../arm-none-eabi/lib/hard\libg.a(lib_a-vfiprintf.o) (_fflush_r)
c:/ti/gcc-arm-none-eabi-6-2017-q1-update/bin/../lib/gcc/arm-none-eabi/6.3.1/../../../../arm-none-eabi/lib/hard\libg.a(lib_a-findfp.o)
                              c:/ti/gcc-arm-none-eabi-6-2017-q1-update/bin/../lib/gcc/arm-none-eabi/6.3.1/../../../../arm-none-eabi/lib/hard\libg.a(lib_a-vfiprintf.o) (__sinit)
c:/ti/gcc-arm-none-eabi-6-2017-q1-update/bin/../lib/gcc/arm-none-eabi/6.3.1/../../../../arm-none-eabi/lib/hard\libg.a(lib_a-fputwc.o)
                              c:/ti/gcc-arm-none-eabi-6-2017-q1-update/bin/../lib/gcc/arm-none-eabi/6.3.1/../../../../arm-none-eabi/lib/hard\libg.a(lib_a-vfiprintf.o) (_fputwc_r)
c:/ti/gcc-arm-none-eabi-6-2017-q1-update/bin/../lib/gcc/arm-none-eabi/6.3.1/../../../../arm-none-eabi/lib/hard\libg.a(lib_a-freer.o)
                              c:/ti/gcc-arm-none-eabi-6-2017-q1-update/bin/../lib/gcc/arm-none-eabi/6.3.1/../../../../arm-none-eabi/lib/hard\libg.a(lib_a-wsetup.o) (_free_r)
c:/ti/gcc-arm-none-eabi-6-2017-q1-update/bin/../lib/gcc/arm-none-eabi/6.3.1/../../../../arm-none-eabi/lib/hard\libg.a(lib_a-fvwrite.o)
                              c:/ti/gcc-arm-none-eabi-6-2017-q1-update/bin/../lib/gcc/arm-none-eabi/6.3.1/../../../../arm-none-eabi/lib/hard\libg.a(lib_a-vfiprintf.o) (__sfvwrite_r)
c:/ti/gcc-arm-none-eabi-6-2017-q1-update/bin/../lib/gcc/arm-none-eabi/6.3.1/../../../../arm-none-eabi/lib/hard\libg.a(lib_a-fwalk.o)
                              c:/ti/gcc-arm-none-eabi-6-2017-q1-update/bin/../lib/gcc/arm-none-eabi/6.3.1/../../../../arm-none-eabi/lib/hard\libg.a(lib_a-findfp.o) (_fwalk)
c:/ti/gcc-arm-none-eabi-6-2017-q1-update/bin/../lib/gcc/arm-none-eabi/6.3.1/../../../../arm-none-eabi/lib/hard\libg.a(lib_a-locale.o)
                              c:/ti/gcc-arm-none-eabi-6-2017-q1-update/bin/../lib/gcc/arm-none-eabi/6.3.1/../../../../arm-none-eabi/lib/hard\libg.a(lib_a-fputwc.o) (__locale_mb_cur_max)
c:/ti/gcc-arm-none-eabi-6-2017-q1-update/bin/../lib/gcc/arm-none-eabi/6.3.1/../../../../arm-none-eabi/lib/hard\libg.a(lib_a-makebuf.o)
                              c:/ti/gcc-arm-none-eabi-6-2017-q1-update/bin/../lib/gcc/arm-none-eabi/6.3.1/../../../../arm-none-eabi/lib/hard\libg.a(lib_a-wsetup.o) (__smakebuf_r)
c:/ti/gcc-arm-none-eabi-6-2017-q1-update/bin/../lib/gcc/arm-none-eabi/6.3.1/../../../../arm-none-eabi/lib/hard\libg.a(lib_a-mallocr.o)
                              c:/ti/gcc-arm-none-eabi-6-2017-q1-update/bin/../lib/gcc/arm-none-eabi/6.3.1/../../../../arm-none-eabi/lib/hard\libg.a(lib_a-findfp.o) (_malloc_r)
c:/ti/gcc-arm-none-eabi-6-2017-q1-update/bin/../lib/gcc/arm-none-eabi/6.3.1/../../../../arm-none-eabi/lib/hard\libg.a(lib_a-mbtowc_r.o)
                              c:/ti/gcc-arm-none-eabi-6-2017-q1-update/bin/../lib/gcc/arm-none-eabi/6.3.1/../../../../arm-none-eabi/lib/hard\libg.a(lib_a-locale.o) (__ascii_mbtowc)
c:/ti/gcc-arm-none-eabi-6-2017-q1-update/bin/../lib/gcc/arm-none-eabi/6.3.1/../../../../arm-none-eabi/lib/hard\libg.a(lib_a-memchr-stub.o)
                              c:/ti/gcc-arm-none-eabi-6-2017-q1-update/bin/../lib/gcc/arm-none-eabi/6.3.1/../../../../arm-none-eabi/lib/hard\libg.a(lib_a-vfiprintf.o) (memchr)
c:/ti/gcc-arm-none-eabi-6-2017-q1-update/bin/../lib/gcc/arm-none-eabi/6.3.1/../../../../arm-none-eabi/lib/hard\libg.a(lib_a-memmove.o)
                              c:/ti/gcc-arm-none-eabi-6-2017-q1-update/bin/../lib/gcc/arm-none-eabi/6.3.1/../../../../arm-none-eabi/lib/hard\libg.a(lib_a-fvwrite.o) (memmove)
c:/ti/gcc-arm-none-eabi-6-2017-q1-update/bin/../lib/gcc/arm-none-eabi/6.3.1/../../../../arm-none-eabi/lib/hard\libg.a(lib_a-mlock.o)
                              c:/ti/gcc-arm-none-eabi-6-2017-q1-update/bin/../lib/gcc/arm-none-eabi/6.3.1/../../../../arm-none-eabi/lib/hard\libg.a(lib_a-freer.o) (__malloc_lock)
c:/ti/gcc-arm-none-eabi-6-2017-q1-update/bin/../lib/gcc/arm-none-eabi/6.3.1/../../../../arm-none-eabi/lib/hard\libg.a(lib_a-reallocr.o)
                              c:/ti/gcc-arm-none-eabi-6-2017-q1-update/bin/../lib/gcc/arm-none-eabi/6.3.1/../../../../arm-none-eabi/lib/hard\libg.a(lib_a-fvwrite.o) (_realloc_r)
c:/ti/gcc-arm-none-eabi-6-2017-q1-update/bin/../lib/gcc/arm-none-eabi/6.3.1/../../../../arm-none-eabi/lib/hard\libg.a(lib_a-sbrkr.o)
                              c:/ti/gcc-arm-none-eabi-6-2017-q1-update/bin/../lib/gcc/arm-none-eabi/6.3.1/../../../../arm-none-eabi/lib/hard\libg.a(lib_a-freer.o) (_sbrk_r)
c:/ti/gcc-arm-none-eabi-6-2017-q1-update/bin/../lib/gcc/arm-none-eabi/6.3.1/../../../../arm-none-eabi/lib/hard\libg.a(lib_a-signal.o)
                              c:/ti/gcc-arm-none-eabi-6-2017-q1-update/bin/../lib/gcc/arm-none-eabi/6.3.1/../../../../arm-none-eabi/lib/hard\libg.a(lib_a-abort.o) (raise)
c:/ti/gcc-arm-none-eabi-6-2017-q1-update/bin/../lib/gcc/arm-none-eabi/6.3.1/../../../../arm-none-eabi/lib/hard\libg.a(lib_a-signalr.o)
                              c:/ti/gcc-arm-none-eabi-6-2017-q1-update/bin/../lib/gcc/arm-none-eabi/6.3.1/../../../../arm-none-eabi/lib/hard\libg.a(lib_a-signal.o) (_kill_r)
c:/ti/gcc-arm-none-eabi-6-2017-q1-update/bin/../lib/gcc/arm-none-eabi/6.3.1/../../../../arm-none-eabi/lib/hard\libg.a(lib_a-stdio.o)
                              c:/ti/gcc-arm-none-eabi-6-2017-q1-update/bin/../lib/gcc/arm-none-eabi/6.3.1/../../../../arm-none-eabi/lib/hard\libg.a(lib_a-findfp.o) (__sread)
c:/ti/gcc-arm-none-eabi-6-2017-q1-update/bin/../lib/gcc/arm-none-eabi/6.3.1/../../../../arm-none-eabi/lib/hard\libg.a(lib_a-strcmp.o)
                              c:/ti/gcc-arm-none-eabi-6-2017-q1-update/bin/../lib/gcc/arm-none-eabi/6.3.1/../../../../arm-none-eabi/lib/hard\libg.a(lib_a-locale.o) (strcmp)
c:/ti/gcc-arm-none-eabi-6-2017-q1-update/bin/../lib/gcc/arm-none-eabi/6.3.1/../../../../arm-none-eabi/lib/hard\libg.a(lib_a-strlen-stub.o)
                              c:/ti/gcc-arm-none-eabi-6-2017-q1-update/bin/../lib/gcc/arm-none-eabi/6.3.1/../../../../arm-none-eabi/lib/hard\libg.a(lib_a-vfiprintf.o) (strlen)
c:/ti/gcc-arm-none-eabi-6-2017-q1-update/bin/../lib/gcc/arm-none-eabi/6.3.1/../../../../arm-none-eabi/lib/hard\libg.a(lib_a-wbuf.o)
                              c:/ti/gcc-arm-none-eabi-6-2017-q1-update/bin/../lib/gcc/arm-none-eabi/6.3.1/../../../../arm-none-eabi/lib/hard\libg.a(lib_a-fputwc.o) (__swbuf_r)
c:/ti/gcc-arm-none-eabi-6-2017-q1-update/bin/../lib/gcc/arm-none-eabi/6.3.1/../../../../arm-none-eabi/lib/hard\libg.a(lib_a-wcrtomb.o)
                              c:/ti/gcc-arm-none-eabi-6-2017-q1-update/bin/../lib/gcc/arm-none-eabi/6.3.1/../../../../arm-none-eabi/lib/hard\libg.a(lib_a-fputwc.o) (_wcrtomb_r)
c:/ti/gcc-arm-none-eabi-6-2017-q1-update/bin/../lib/gcc/arm-none-eabi/6.3.1/../../../../arm-none-eabi/lib/hard\libg.a(lib_a-wctomb_r.o)
                              c:/ti/gcc-arm-none-eabi-6-2017-q1-update/bin/../lib/gcc/arm-none-eabi/6.3.1/../../../../arm-none-eabi/lib/hard\libg.a(lib_a-locale.o) (__ascii_wctomb)
c:/ti/gcc-arm-none-eabi-6-2017-q1-update/bin/../lib/gcc/arm-none-eabi/6.3.1/../../../../arm-none-eabi/lib/hard\libg.a(lib_a-writer.o)
                              c:/ti/gcc-arm-none-eabi-6-2017-q1-update/bin/../lib/gcc/arm-none-eabi/6.3.1/../../../../arm-none-eabi/lib/hard\libg.a(lib_a-stdio.o) (_write_r)
c:/ti/gcc-arm-none-eabi-6-2017-q1-update/bin/../lib/gcc/arm-none-eabi/6.3.1/../../../../arm-none-eabi/lib/hard\libg.a(lib_a-closer.o)
                              c:/ti/gcc-arm-none-eabi-6-2017-q1-update/bin/../lib/gcc/arm-none-eabi/6.3.1/../../../../arm-none-eabi/lib/hard\libg.a(lib_a-stdio.o) (_close_r)
c:/ti/gcc-arm-none-eabi-6-2017-q1-update/bin/../lib/gcc/arm-none-eabi/6.3.1/../../../../arm-none-eabi/lib/hard\libg.a(lib_a-ctype_.o)
                              c:/ti/gcc-arm-none-eabi-6-2017-q1-update/bin/../lib/gcc/arm-none-eabi/6.3.1/../../../../arm-none-eabi/lib/hard\libg.a(lib_a-locale.o) (_ctype_)
c:/ti/gcc-arm-none-eabi-6-2017-q1-update/bin/../lib/gcc/arm-none-eabi/6.3.1/../../../../arm-none-eabi/lib/hard\libg.a(lib_a-fclose.o)
                              c:/ti/gcc-arm-none-eabi-6-2017-q1-update/bin/../lib/gcc/arm-none-eabi/6.3.1/../../../../arm-none-eabi/lib/hard\libg.a(lib_a-findfp.o) (_fclose_r)
c:/ti/gcc-arm-none-eabi-6-2017-q1-update/bin/../lib/gcc/arm-none-eabi/6.3.1/../../../../arm-none-eabi/lib/hard\libg.a(lib_a-fstatr.o)
                              c:/ti/gcc-arm-none-eabi-6-2017-q1-update/bin/../lib/gcc/arm-none-eabi/6.3.1/../../../../arm-none-eabi/lib/hard\libg.a(lib_a-makebuf.o) (_fstat_r)
c:/ti/gcc-arm-none-eabi-6-2017-q1-update/bin/../lib/gcc/arm-none-eabi/6.3.1/../../../../arm-none-eabi/lib/hard\libg.a(lib_a-isattyr.o)
                              c:/ti/gcc-arm-none-eabi-6-2017-q1-update/bin/../lib/gcc/arm-none-eabi/6.3.1/../../../../arm-none-eabi/lib/hard\libg.a(lib_a-makebuf.o) (_isatty_r)
c:/ti/gcc-arm-none-eabi-6-2017-q1-update/bin/../lib/gcc/arm-none-eabi/6.3.1/../../../../arm-none-eabi/lib/hard\libg.a(lib_a-lseekr.o)
                              c:/ti/gcc-arm-none-eabi-6-2017-q1-update/bin/../lib/gcc/arm-none-eabi/6.3.1/../../../../arm-none-eabi/lib/hard\libg.a(lib_a-stdio.o) (_lseek_r)
c:/ti/gcc-arm-none-eabi-6-2017-q1-update/bin/../lib/gcc/arm-none-eabi/6.3.1/../../../../arm-none-eabi/lib/hard\libg.a(lib_a-readr.o)
                              c:/ti/gcc-arm-none-eabi-6-2017-q1-update/bin/../lib/gcc/arm-none-eabi/6.3.1/../../../../arm-none-eabi/lib/hard\libg.a(lib_a-stdio.o) (_read_r)
c:/ti/gcc-arm-none-eabi-6-2017-q1-update/bin/../lib/gcc/arm-none-eabi/6.3.1/../../../../arm-none-eabi/lib/hard\libg.a(lib_a-reent.o)
                              c:/ti/gcc-arm-none-eabi-6-2017-q1-update/bin/../lib/gcc/arm-none-eabi/6.3.1/../../../../arm-none-eabi/lib/hard\libg.a(lib_a-sbrkr.o) (errno)
c:/ti/gcc-arm-none-eabi-6-2017-q1-update/bin/../lib/gcc/arm-none-eabi/6.3.1/hard\libgcc.a(_divsi3.o)
                              c:/ti/gcc-arm-none-eabi-6-2017-q1-update/bin/../lib/gcc/arm-none-eabi/6.3.1/../../../../arm-none-eabi/lib/hard\libg.a(lib_a-fvwrite.o) (__aeabi_idiv)
c:/ti/gcc-arm-none-eabi-6-2017-q1-update/bin/../lib/gcc/arm-none-eabi/6.3.1/../../../../arm-none-eabi/lib/hard\libnosys.a(close.o)
                              c:/ti/gcc-arm-none-eabi-6-2017-q1-update/bin/../lib/gcc/arm-none-eabi/6.3.1/../../../../arm-none-eabi/lib/hard\libg.a(lib_a-closer.o) (_close)
c:/ti/gcc-arm-none-eabi-6-2017-q1-update/bin/../lib/gcc/arm-none-eabi/6.3.1/../../../../arm-none-eabi/lib/hard\libnosys.a(fstat.o)
                              c:/ti/gcc-arm-none-eabi-6-2017-q1-update/bin/../lib/gcc/arm-none-eabi/6.3.1/../../../../arm-none-eabi/lib/hard\libg.a(lib_a-fstatr.o) (_fstat)
c:/ti/gcc-arm-none-eabi-6-2017-q1-update/bin/../lib/gcc/arm-none-eabi/6.3.1/../../../../arm-none-eabi/lib/hard\libnosys.a(getpid.o)
                              c:/ti/gcc-arm-none-eabi-6-2017-q1-update/bin/../lib/gcc/arm-none-eabi/6.3.1/../../../../arm-none-eabi/lib/hard\libg.a(lib_a-signalr.o) (_getpid)
c:/ti/gcc-arm-none-eabi-6-2017-q1-update/bin/../lib/gcc/arm-none-eabi/6.3.1/../../../../arm-none-eabi/lib/hard\libnosys.a(isatty.o)
                              c:/ti/gcc-arm-none-eabi-6-2017-q1-update/bin/../lib/gcc/arm-none-eabi/6.3.1/../../../../arm-none-eabi/lib/hard\libg.a(lib_a-isattyr.o) (_isatty)
c:/ti/gcc-arm-none-eabi-6-2017-q1-update/bin/../lib/gcc/arm-none-eabi/6.3.1/../../../../arm-none-eabi/lib/hard\libnosys.a(kill.o)
                              c:/ti/gcc-arm-none-eabi-6-2017-q1-update/bin/../lib/gcc/arm-none-eabi/6.3.1/../../../../arm-none-eabi/lib/hard\libg.a(lib_a-signalr.o) (_kill)
c:/ti/gcc-arm-none-eabi-6-2017-q1-update/bin/../lib/gcc/arm-none-eabi/6.3.1/../../../../arm-none-eabi/lib/hard\libnosys.a(lseek.o)
                              c:/ti/gcc-arm-none-eabi-6-2017-q1-update/bin/../lib/gcc/arm-none-eabi/6.3.1/../../../../arm-none-eabi/lib/hard\libg.a(lib_a-lseekr.o) (_lseek)
c:/ti/gcc-arm-none-eabi-6-2017-q1-update/bin/../lib/gcc/arm-none-eabi/6.3.1/../../../../arm-none-eabi/lib/hard\libnosys.a(read.o)
                              c:/ti/gcc-arm-none-eabi-6-2017-q1-update/bin/../lib/gcc/arm-none-eabi/6.3.1/../../../../arm-none-eabi/lib/hard\libg.a(lib_a-readr.o) (_read)
c:/ti/gcc-arm-none-eabi-6-2017-q1-update/bin/../lib/gcc/arm-none-eabi/6.3.1/../../../../arm-none-eabi/lib/hard\libnosys.a(sbrk.o)
                              c:/ti/gcc-arm-none-eabi-6-2017-q1-update/bin/../lib/gcc/arm-none-eabi/6.3.1/../../../../arm-none-eabi/lib/hard\libg.a(lib_a-sbrkr.o) (_sbrk)
c:/ti/gcc-arm-none-eabi-6-2017-q1-update/bin/../lib/gcc/arm-none-eabi/6.3.1/../../../../arm-none-eabi/lib/hard\libnosys.a(write.o)
                              c:/ti/gcc-arm-none-eabi-6-2017-q1-update/bin/../lib/gcc/arm-none-eabi/6.3.1/../../../../arm-none-eabi/lib/hard\libg.a(lib_a-writer.o) (_write)
c:/ti/gcc-arm-none-eabi-6-2017-q1-update/bin/../lib/gcc/arm-none-eabi/6.3.1/../../../../arm-none-eabi/lib/hard\libnosys.a(_exit.o)
                              c:/ti/gcc-arm-none-eabi-6-2017-q1-update/bin/../lib/gcc/arm-none-eabi/6.3.1/../../../../arm-none-eabi/lib/hard\libc.a(lib_a-exit.o) (_exit)

Allocating common symbols
Common symbol       size              file

sdCard              0x48              ./flash_writer/flash_writer_app_main.o
__lock___atexit_recursive_mutex
                    0x1               c:/ti/gcc-arm-none-eabi-6-2017-q1-update/bin/../lib/gcc/arm-none-eabi/6.3.1/../../../../arm-none-eabi/lib/hard\libc.a(lib_a-lock.o)
__lock___arc4random_mutex
                    0x1               c:/ti/gcc-arm-none-eabi-6-2017-q1-update/bin/../lib/gcc/arm-none-eabi/6.3.1/../../../../arm-none-eabi/lib/hard\libc.a(lib_a-lock.o)
errno               0x4               c:/ti/gcc-arm-none-eabi-6-2017-q1-update/bin/../lib/gcc/arm-none-eabi/6.3.1/../../../../arm-none-eabi/lib/hard\libg.a(lib_a-reent.o)
__lock___env_recursive_mutex
                    0x1               c:/ti/gcc-arm-none-eabi-6-2017-q1-update/bin/../lib/gcc/arm-none-eabi/6.3.1/../../../../arm-none-eabi/lib/hard\libc.a(lib_a-lock.o)
__lock___sinit_recursive_mutex
                    0x1               c:/ti/gcc-arm-none-eabi-6-2017-q1-update/bin/../lib/gcc/arm-none-eabi/6.3.1/../../../../arm-none-eabi/lib/hard\libc.a(lib_a-lock.o)
__lock___malloc_recursive_mutex
                    0x1               c:/ti/gcc-arm-none-eabi-6-2017-q1-update/bin/../lib/gcc/arm-none-eabi/6.3.1/../../../../arm-none-eabi/lib/hard\libc.a(lib_a-lock.o)
ctrlInfo            0x50              ./flash_writer/flash_writer_app_main.o
gDevice             0x10              ./flash_writer/flash_writer_app_main.o
pageTable           0x4000            ../libexample_utils.a(example_utils_mmu.o)
gDrive              0xc               ./flash_writer/flash_writer_app_main.o
__lock___at_quick_exit_mutex
                    0x1               c:/ti/gcc-arm-none-eabi-6-2017-q1-update/bin/../lib/gcc/arm-none-eabi/6.3.1/../../../../arm-none-eabi/lib/hard\libc.a(lib_a-lock.o)
__lock___dd_hash_mutex
                    0x1               c:/ti/gcc-arm-none-eabi-6-2017-q1-update/bin/../lib/gcc/arm-none-eabi/6.3.1/../../../../arm-none-eabi/lib/hard\libc.a(lib_a-lock.o)
__lock___tz_mutex   0x1               c:/ti/gcc-arm-none-eabi-6-2017-q1-update/bin/../lib/gcc/arm-none-eabi/6.3.1/../../../../arm-none-eabi/lib/hard\libc.a(lib_a-lock.o)
__lock___sfp_recursive_mutex
                    0x1               c:/ti/gcc-arm-none-eabi-6-2017-q1-update/bin/../lib/gcc/arm-none-eabi/6.3.1/../../../../arm-none-eabi/lib/hard\libc.a(lib_a-lock.o)

Memory Configuration

Name             Origin             Length             Attributes
SRAM             0x402f0000         0x00010000
L3OCMC0          0x40300000         0x00010000
M3SHUMEM         0x44d00000         0x00004000
M3SHDMEM         0x44d80000         0x00002000
DDR0             0x80000000         0x80000000
*default*        0x00000000         0xffffffff

Linker script and memory map

LOAD c:/ti/gcc-arm-none-eabi-6-2017-q1-update/bin/../lib/gcc/arm-none-eabi/6.3.1/hard/crti.o
LOAD c:/ti/gcc-arm-none-eabi-6-2017-q1-update/bin/../lib/gcc/arm-none-eabi/6.3.1/hard/crtbegin.o
LOAD c:/ti/gcc-arm-none-eabi-6-2017-q1-update/bin/../lib/gcc/arm-none-eabi/6.3.1/../../../../arm-none-eabi/lib/hard/crt0.o
                0x00018000                STACKSIZE = 0x18000
                0x00000400                HEAPSIZE = 0x400
LOAD ./i2c.o
LOAD ./qspi.o
LOAD ./qspi_app.o
LOAD ./startup_ARMCA9.o
LOAD ./uart.o
LOAD ./flash_writer/crc16.o
LOAD ./flash_writer/flash_writer_app_main.o

.rsthand        0x80000000       0x8c
                0x80000000                . = ALIGN (0x10000)
 *(.isr_vector)
 .isr_vector    0x80000000       0x50 ./startup_ARMCA9.o
                0x80000000                __isr_vector
                0x8000004e                DEF_IRQHandler
 *startup_ARMCA9.o(.text)
 .text          0x80000050       0x3c ./startup_ARMCA9.o
                0x80000050                Entry
                0x8000008c                . = ALIGN (0x4)

.text           0x80000090   0x5d26f8
 *(.text*)
 .text          0x80000090        0x0 c:/ti/gcc-arm-none-eabi-6-2017-q1-update/bin/../lib/gcc/arm-none-eabi/6.3.1/hard/crti.o
 .text          0x80000090       0xbc c:/ti/gcc-arm-none-eabi-6-2017-q1-update/bin/../lib/gcc/arm-none-eabi/6.3.1/hard/crtbegin.o
 .text          0x8000014c      0x114 c:/ti/gcc-arm-none-eabi-6-2017-q1-update/bin/../lib/gcc/arm-none-eabi/6.3.1/../../../../arm-none-eabi/lib/hard/crt0.o
                0x8000014c                _start
                0x8000014c                _mainCRTStartup
 .text          0x80000260     0x12a4 ./i2c.o
                0x80000398                I2CClkConfig
                0x80000454                I2CModuleEnable
                0x800004b4                I2CBusBusyStatus
                0x80000504                I2CErrStatus
                0x8000054c                I2CSetMode
                0x80000604                I2CStartByteModeEnable
                0x8000067c                I2CStart
                0x800006b0                I2CStop
                0x800006e4                I2CIntrEnable
                0x8000073c                I2CIntrDisable
                0x80000770                I2CIntrStatus
                0x800007a0                I2CIntrRawStatus
                0x800007d0                I2CIntrClear
                0x80000804                I2CIntrTrigger
                0x80000838                I2CMasterSetSlaveAddr
                0x800008b0                I2CMasterGetSlaveAddr
                0x800008e8                I2CSetDataCount
                0x80000920                I2CGetDataCount
                0x80000958                I2CFifoThresholdConfig
                0x800009bc                I2CFifoFlush
                0x80000a5c                I2CDmaTxEventEnable
                0x80000aec                I2CDmaRxEventEnable
                0x80000b7c                I2CBufStatus
                0x80000c14                I2CSlaveGetActiveOwnAddr
                0x80000c7c                I2CSlaveSetOwnAddr
                0x80000e38                I2CSlaveClockBlockingEnable
                0x80000ef0                I2CSoftReset
                0x80000f24                I2CAutoIdleEnable
                0x80000f84                I2CIdleModeSelect
                0x80000fbc                I2CClockActivitySelect
                0x80000ff4                I2CWakeupEnable
                0x800010f0                I2CWakeupDisable
                0x800011ec                I2CSystemStatus
                0x80001240                I2CPutTxData
                0x8000127c                I2CGetRxData
                0x800012b4                I2CFreeRunEnable
                0x80001314                I2CContextSave
                0x800013a4                I2CContextRestore
                0x800014c8                I2CMasterBusy
 .text          0x80001504      0xb5c ./qspi.o
                0x8000163c                QSPISetIdleMode
                0x80001674                QSPISetPreScaler
                0x800016fc                QSPISetClkMode
                0x800017a0                QSPISetCsPol
                0x8000184c                QSPISetDataDelay
                0x800018f8                QSPISetMemMapNumAddrBytes
                0x80001948                QSPISetMemMapNumDummyBits
                0x800019ec                QSPISetMemMapReadType
                0x80001a3c                QSPISetMemMapWriteCmd
                0x80001a8c                QSPISetMemMapReadCmd
                0x80001adc                QSPIWriteData
                0x80001bdc                QSPIReadData
                0x80001cdc                QSPIIsBusy
                0x80001d40                QSPIGetStatusWordCount
                0x80001d7c                QSPIIntrEnable
                0x80001dd4                QSPIIntrDisable
                0x80001e2c                QSPIIntrStatus
                0x80001e5c                QSPIIntrClear
                0x80001eb4                QSPIIntrRawStatus
                0x80001ee4                QSPISetMemAddrSpace
                0x80001f20                QSPISetCfgModeTxCmd
 .text          0x80002060      0x2ac ./qspi_app.o
                0x80002060                QSPIAppInit
                0x800020f4                QSPIAppBoardInfoGet
                0x80002298                QSPIAppSocInfoGet
 .text          0x8000230c     0x2df8 ./uart.o
                0x80002584                UARTGetRevision
                0x800025b4                UARTModuleReset
                0x80002610                UARTSetRegAccessMode
                0x800026c4                UARTSetBaudRate
                0x80002988                UARTIntrEnable
                0x80002b04                UARTIntrDisable
                0x80002c74                UARTIntrStatus
                0x80002cf0                UARTIsIntrPending
                0x80002d6c                UARTTxEmptyIntrEnable
                0x80002dcc                UARTLineStatus
                0x80002e40                UARTLineCharacteristicConfig
                0x80002f8c                UARTFifoConfig
                0x80003340                UARTIsFifoEnabled
                0x800033c8                UARTWakeupEventEnable
                0x80003470                UARTWakeupEventDisable
                0x80003520                UARTWakeupIntrEnable
                0x80003580                UARTAutoIdleEnable
                0x800035e0                UARTSetIdleMode
                0x8000361c                UARTLoopbackEnable
                0x8000367c                UARTBreakCtrlEnable
                0x800036dc                UARTGetFifoLevel
                0x80003748                UARTIsTxFifoFull
                0x8000379c                UARTIsCharAvail
                0x80003834                UARTIsSpaceAvail
                0x800038c8                UARTGetChar
                0x80003a48                UARTPutChar
                0x80003bc0                UARTFifoWrite
                0x80003c30                UARTFifoRead
                0x80003c68                UARTDmaEnable
                0x80003cec                UARTDmaDisable
                0x80003d38                UARTDmaTxThresholdEnable
                0x80003d98                UARTSetDmaTxThreshold
                0x80003dd0                UARTDmaCounterResetEnable
                0x80003e30                UARTAutoRtsEnable
                0x80003ec4                UARTAutoCtsEnable
                0x80003f58                UARTSetFlowCtrlTriggerLvl
                0x80004098                UARTSwFlowCtrlConfig
                0x80004108                UARTSetXon1Xoff1Char
                0x80004270                UARTSetXon2Xoff2Char
                0x800043d8                UARTXonAnyFeatureEnable
                0x800044c4                UARTSpecialCharDetectEnable
                0x80004558                UARTPulseShapingEnable
                0x800045b8                UARTResumeOper
                0x800045e4                UARTModemCtrlEnable
                0x8000473c                UARTModemStatus
                0x80004820                UARTDsrPinIntrEnable
                0x80004880                UARTRxCtsDsrTransitionStatus
                0x800048e4                UARTEnableAutobaudMode
                0x80004944                UARTGetAutoBaudParity
                0x800049c0                UARTGetAutoBaudWordLen
                0x80004a3c                UARTGetAutoBaudSpeed
                0x80004ab8                UARTSetScratchPadValue
                0x80004b98                UARTGetScratchPadValue
                0x80004c84                UARTSubConfigMSRSPRModeEn
                0x80004d94                UARTSubConfigTCRTLRModeEn
                0x80004eac                UARTSubConfigXOFFModeEn
                0x80004fc4                UARTTCRTLRBitValRestore
                0x800050b8                UARTParityModeGet
 .text          0x80005104       0xb4 ./flash_writer/crc16.o
                0x80005104                crc16_ccitt
 .text          0x800051b8      0x760 ./flash_writer/flash_writer_app_main.o
                0x80005220                crc16
                0x80005304                main
 .text          0x80005918        0x0 c:/ti/gcc-arm-none-eabi-6-2017-q1-update/bin/../lib/gcc/arm-none-eabi/6.3.1/../../../../arm-none-eabi/lib/hard\libc.a(lib_a-exit.o)
 .text.exit     0x80005918       0x34 c:/ti/gcc-arm-none-eabi-6-2017-q1-update/bin/../lib/gcc/arm-none-eabi/6.3.1/../../../../arm-none-eabi/lib/hard\libc.a(lib_a-exit.o)
                0x80005918                exit
 .text          0x8000594c        0x0 c:/ti/gcc-arm-none-eabi-6-2017-q1-update/bin/../lib/gcc/arm-none-eabi/6.3.1/../../../../arm-none-eabi/lib/hard\libc.a(lib_a-impure.o)
 .text          0x8000594c        0x0 c:/ti/gcc-arm-none-eabi-6-2017-q1-update/bin/../lib/gcc/arm-none-eabi/6.3.1/../../../../arm-none-eabi/lib/hard\libc.a(lib_a-init.o)
 .text.__libc_init_array
                0x8000594c       0x80 c:/ti/gcc-arm-none-eabi-6-2017-q1-update/bin/../lib/gcc/arm-none-eabi/6.3.1/../../../../arm-none-eabi/lib/hard\libc.a(lib_a-init.o)
                0x8000594c                __libc_init_array
 .text          0x800059cc        0x0 c:/ti/gcc-arm-none-eabi-6-2017-q1-update/bin/../lib/gcc/arm-none-eabi/6.3.1/../../../../arm-none-eabi/lib/hard\libc.a(lib_a-memset.o)
 .text.memset   0x800059cc      0x114 c:/ti/gcc-arm-none-eabi-6-2017-q1-update/bin/../lib/gcc/arm-none-eabi/6.3.1/../../../../arm-none-eabi/lib/hard\libc.a(lib_a-memset.o)
                0x800059cc                memset
 .text          0x80005ae0        0x0 c:/ti/gcc-arm-none-eabi-6-2017-q1-update/bin/../lib/gcc/arm-none-eabi/6.3.1/../../../../arm-none-eabi/lib/hard\libc.a(lib_a-__call_atexit.o)
 .text.startup.register_fini
                0x80005ae0       0x28 c:/ti/gcc-arm-none-eabi-6-2017-q1-update/bin/../lib/gcc/arm-none-eabi/6.3.1/../../../../arm-none-eabi/lib/hard\libc.a(lib_a-__call_atexit.o)
 .text.__call_exitprocs
                0x80005b08      0x18c c:/ti/gcc-arm-none-eabi-6-2017-q1-update/bin/../lib/gcc/arm-none-eabi/6.3.1/../../../../arm-none-eabi/lib/hard\libc.a(lib_a-__call_atexit.o)
                0x80005b08                __call_exitprocs
 .text          0x80005c94        0x0 c:/ti/gcc-arm-none-eabi-6-2017-q1-update/bin/../lib/gcc/arm-none-eabi/6.3.1/../../../../arm-none-eabi/lib/hard\libc.a(lib_a-atexit.o)
 .text.atexit   0x80005c94       0x20 c:/ti/gcc-arm-none-eabi-6-2017-q1-update/bin/../lib/gcc/arm-none-eabi/6.3.1/../../../../arm-none-eabi/lib/hard\libc.a(lib_a-atexit.o)
                0x80005c94                atexit
 .text          0x80005cb4        0x0 c:/ti/gcc-arm-none-eabi-6-2017-q1-update/bin/../lib/gcc/arm-none-eabi/6.3.1/../../../../arm-none-eabi/lib/hard\libc.a(lib_a-fini.o)
 .text.__libc_fini_array
                0x80005cb4       0x48 c:/ti/gcc-arm-none-eabi-6-2017-q1-update/bin/../lib/gcc/arm-none-eabi/6.3.1/../../../../arm-none-eabi/lib/hard\libc.a(lib_a-fini.o)
                0x80005cb4                __libc_fini_array
 .text          0x80005cfc        0x0 c:/ti/gcc-arm-none-eabi-6-2017-q1-update/bin/../lib/gcc/arm-none-eabi/6.3.1/../../../../arm-none-eabi/lib/hard\libc.a(lib_a-lock.o)
 .text.__retarget_lock_init
                0x80005cfc        0x4 c:/ti/gcc-arm-none-eabi-6-2017-q1-update/bin/../lib/gcc/arm-none-eabi/6.3.1/../../../../arm-none-eabi/lib/hard\libc.a(lib_a-lock.o)
                0x80005cfc                __retarget_lock_init
 .text.__retarget_lock_init_recursive
                0x80005d00        0x4 c:/ti/gcc-arm-none-eabi-6-2017-q1-update/bin/../lib/gcc/arm-none-eabi/6.3.1/../../../../arm-none-eabi/lib/hard\libc.a(lib_a-lock.o)
                0x80005d00                __retarget_lock_init_recursive
 .text.__retarget_lock_close
                0x80005d04        0x4 c:/ti/gcc-arm-none-eabi-6-2017-q1-update/bin/../lib/gcc/arm-none-eabi/6.3.1/../../../../arm-none-eabi/lib/hard\libc.a(lib_a-lock.o)
                0x80005d04                __retarget_lock_close
 .text.__retarget_lock_close_recursive
                0x80005d08        0x4 c:/ti/gcc-arm-none-eabi-6-2017-q1-update/bin/../lib/gcc/arm-none-eabi/6.3.1/../../../../arm-none-eabi/lib/hard\libc.a(lib_a-lock.o)
                0x80005d08                __retarget_lock_close_recursive
 .text.__retarget_lock_acquire
                0x80005d0c        0x4 c:/ti/gcc-arm-none-eabi-6-2017-q1-update/bin/../lib/gcc/arm-none-eabi/6.3.1/../../../../arm-none-eabi/lib/hard\libc.a(lib_a-lock.o)
                0x80005d0c                __retarget_lock_acquire
 .text.__retarget_lock_acquire_recursive
                0x80005d10        0x4 c:/ti/gcc-arm-none-eabi-6-2017-q1-update/bin/../lib/gcc/arm-none-eabi/6.3.1/../../../../arm-none-eabi/lib/hard\libc.a(lib_a-lock.o)
                0x80005d10                __retarget_lock_acquire_recursive
 .text.__retarget_lock_try_acquire
                0x80005d14        0x8 c:/ti/gcc-arm-none-eabi-6-2017-q1-update/bin/../lib/gcc/arm-none-eabi/6.3.1/../../../../arm-none-eabi/lib/hard\libc.a(lib_a-lock.o)
                0x80005d14                __retarget_lock_try_acquire
 .text.__retarget_lock_try_acquire_recursive
                0x80005d1c        0x8 c:/ti/gcc-arm-none-eabi-6-2017-q1-update/bin/../lib/gcc/arm-none-eabi/6.3.1/../../../../arm-none-eabi/lib/hard\libc.a(lib_a-lock.o)
                0x80005d1c                __retarget_lock_try_acquire_recursive
 .text.__retarget_lock_release
                0x80005d24        0x4 c:/ti/gcc-arm-none-eabi-6-2017-q1-update/bin/../lib/gcc/arm-none-eabi/6.3.1/../../../../arm-none-eabi/lib/hard\libc.a(lib_a-lock.o)
                0x80005d24                __retarget_lock_release
 .text.__retarget_lock_release_recursive
                0x80005d28        0x4 c:/ti/gcc-arm-none-eabi-6-2017-q1-update/bin/../lib/gcc/arm-none-eabi/6.3.1/../../../../arm-none-eabi/lib/hard\libc.a(lib_a-lock.o)
                0x80005d28                __retarget_lock_release_recursive
 .text          0x80005d2c        0x0 c:/ti/gcc-arm-none-eabi-6-2017-q1-update/bin/../lib/gcc/arm-none-eabi/6.3.1/../../../../arm-none-eabi/lib/hard\libc.a(lib_a-__atexit.o)
 .text.__register_exitproc
                0x80005d2c      0x100 c:/ti/gcc-arm-none-eabi-6-2017-q1-update/bin/../lib/gcc/arm-none-eabi/6.3.1/../../../../arm-none-eabi/lib/hard\libc.a(lib_a-__atexit.o)
                0x80005d2c                __register_exitproc
 .text          0x80005e2c        0x0 ../libboard.a(board.o)
 .text.BOARDInit
                0x80005e2c       0x9c ../libboard.a(board.o)
                0x80005e2c                BOARDInit
 .text.BOARDDeInit
                0x80005ec8        0x8 ../libboard.a(board.o)
                0x80005ec8                BOARDDeInit
 .text.BOARDGetId
                0x80005ed0       0x70 ../libboard.a(board.o)
                0x80005ed0                BOARDGetId
 .text.BOARDGetBoardName
                0x80005f40       0x60 ../libboard.a(board.o)
                0x80005f40                BOARDGetBoardName
 .text.BOARDGetBaseBoardRev
                0x80005fa0       0x70 ../libboard.a(board.o)
                0x80005fa0                BOARDGetBaseBoardRev
 .text.BOARDGetBaseBoardRevName
                0x80006010       0x30 ../libboard.a(board.o)
                0x80006010                BOARDGetBaseBoardRevName
 .text.BOARDGetDcRev
                0x80006040       0x44 ../libboard.a(board.o)
                0x80006040                BOARDGetDcRev
 .text.BOARDGetDcRevName
                0x80006084       0x30 ../libboard.a(board.o)
                0x80006084                BOARDGetDcRevName
 .text.BOARDGetI2cData
                0x800060b4       0x30 ../libboard.a(board.o)
                0x800060b4                BOARDGetI2cData
 .text.BOARDGetData
                0x800060e4       0x30 ../libboard.a(board.o)
                0x800060e4                BOARDGetData
 .text.BOARDIsDevicePresent
                0x80006114       0xf8 ../libboard.a(board.o)
                0x80006114                BOARDIsDevicePresent
 .text.BOARDGetNumDevices
                0x8000620c       0x74 ../libboard.a(board.o)
                0x8000620c                BOARDGetNumDevices
 .text.BOARDGetDeviceCtrlModId
                0x80006280      0x134 ../libboard.a(board.o)
                0x80006280                BOARDGetDeviceCtrlModId
 .text.BOARDGetDeviceCtrlModInstNum
                0x800063b4       0xa0 ../libboard.a(board.o)
                0x800063b4                BOARDGetDeviceCtrlModInstNum
 .text.BOARDGetDeviceCtrlInfo
                0x80006454       0x88 ../libboard.a(board.o)
                0x80006454                BOARDGetDeviceCtrlInfo
 .text.BOARDGetDeviceDataModId
                0x800064dc       0x88 ../libboard.a(board.o)
                0x800064dc                BOARDGetDeviceDataModId
 .text.BOARDGetDeviceDataModInstNum
                0x80006564       0x88 ../libboard.a(board.o)
                0x80006564                BOARDGetDeviceDataModInstNum
 .text.BOARDPowerOnDevice
                0x800065ec      0x13c ../libboard.a(board.o)
                0x800065ec                BOARDPowerOnDevice
 .text.BOARDSelectDevice
                0x80006728       0xbc ../libboard.a(board.o)
                0x80006728                BOARDSelectDevice
 .text.BOARDResetDevice
                0x800067e4       0xbc ../libboard.a(board.o)
                0x800067e4                BOARDResetDevice
 .text.BOARDPrintInfo
                0x800068a0       0x98 ../libboard.a(board.o)
                0x800068a0                BOARDPrintInfo
 .text.BOARDGetDCardsData
                0x80006938       0x34 ../libboard.a(board.o)
                0x80006938                BOARDGetDCardsData
 .text.BOARDIsDCardPresent
                0x8000696c       0x54 ../libboard.a(board.o)
                0x8000696c                BOARDIsDCardPresent
 .text.BOARDGetLcdDevData
                0x800069c0       0x60 ../libboard.a(board.o)
                0x800069c0                BOARDGetLcdDevData
 .text          0x80006a20        0x0 ../libboard.a(dcard.o)
 .text.DCARDInit
                0x80006a20       0x28 ../libboard.a(dcard.o)
                0x80006a20                DCARDInit
 .text.DCARDGetDCardList
                0x80006a48       0x30 ../libboard.a(dcard.o)
                0x80006a48                DCARDGetDCardList
 .text.DCARDGetData
                0x80006a78       0x40 ../libboard.a(dcard.o)
                0x80006a78                DCARDGetData
 .text.DCARDIsDevPresent
                0x80006ab8       0x68 ../libboard.a(dcard.o)
                0x80006ab8                DCARDIsDevPresent
 .text.DCARDGetDevDCardId
                0x80006b20       0x70 ../libboard.a(dcard.o)
                0x80006b20                DCARDGetDevDCardId
 .text.DCARDGetDeviceCtrlModId
                0x80006b90       0x80 ../libboard.a(dcard.o)
                0x80006b90                DCARDGetDeviceCtrlModId
 .text.DCARDGetRevStr
                0x80006c10       0x18 ../libboard.a(dcard.o)
                0x80006c10                DCARDGetRevStr
 .text.DCARDGetRevTable
                0x80006c28       0x18 ../libboard.a(dcard.o)
                0x80006c28                DCARDGetRevTable
 .text          0x80006c40        0x0 ../libboard.a(platform.o)
 .text.PLATFORMGetId
                0x80006c40        0x8 ../libboard.a(platform.o)
                0x80006c40                PLATFORMGetId
 .text.PLATFORMGetString
                0x80006c48        0xc ../libboard.a(platform.o)
                0x80006c48                PLATFORMGetString
 .text.PLATFORMPrintInfo
                0x80006c54       0x1c ../libboard.a(platform.o)
                0x80006c54                PLATFORMPrintInfo
 .text          0x80006c70        0x0 ../libboard.a(pinmux.o)
 .text.PINMUXModuleConfig
                0x80006c70      0x140 ../libboard.a(pinmux.o)
                0x80006c70                PINMUXModuleConfig
 .text          0x80006db0        0x0 ../libboard.a(board_am43xx.o)
 .text.BoardAm43xxInit
                0x80006db0       0x80 ../libboard.a(board_am43xx.o)
                0x80006db0                BoardAm43xxInit
 .text.BoardGetIdAm43xx
                0x80006e30      0x1dc ../libboard.a(board_am43xx.o)
                0x80006e30                BoardGetIdAm43xx
 .text.BoardGetBaseBoardRevAm43xx
                0x8000700c       0xa8 ../libboard.a(board_am43xx.o)
                0x8000700c                BoardGetBaseBoardRevAm43xx
 .text.BoardGetBaseBoardRevNameAm43xx
                0x800070b4       0x34 ../libboard.a(board_am43xx.o)
                0x800070b4                BoardGetBaseBoardRevNameAm43xx
 .text.BoardGetDcRevAm43xx
                0x800070e8       0x1c ../libboard.a(board_am43xx.o)
                0x800070e8                BoardGetDcRevAm43xx
 .text.BoardGetDcRevNameAm43xx
                0x80007104       0x3c ../libboard.a(board_am43xx.o)
                0x80007104                BoardGetDcRevNameAm43xx
 .text.BoardGetI2cDataAm43xx
                0x80007140        0xc ../libboard.a(board_am43xx.o)
                0x80007140                BoardGetI2cDataAm43xx
 .text.BoardGetDataAm43xx
                0x8000714c       0x20 ../libboard.a(board_am43xx.o)
                0x8000714c                BoardGetDataAm43xx
 .text          0x8000716c        0x0 ../libboard.a(dcard_am43xx.o)
 .text.DCardAm43xxInit
                0x8000716c        0x4 ../libboard.a(dcard_am43xx.o)
                0x8000716c                DCardAm43xxInit
 .text.DCardAm43xxGetDCardList
                0x80007170        0x8 ../libboard.a(dcard_am43xx.o)
                0x80007170                DCardAm43xxGetDCardList
 .text          0x80007178        0x0 ../libboard.a(am43xx_gpevm.o)
 .text.BoardAm43xxGpevmInit
                0x80007178        0x8 ../libboard.a(am43xx_gpevm.o)
                0x80007178                BoardAm43xxGpevmInit
 .text.BoardAm43xxGpevmGpioCfg
                0x80007180       0x98 ../libboard.a(am43xx_gpevm.o)
                0x80007180                BoardAm43xxGpevmGpioCfg
 .text.BoardAm43xxGpevmLcdDeviceSelect
                0x80007218       0xd4 ../libboard.a(am43xx_gpevm.o)
                0x80007218                BoardAm43xxGpevmLcdDeviceSelect
 .text.BoardAm43xxGpevmLcdDevicePowerOn
                0x800072ec       0xcc ../libboard.a(am43xx_gpevm.o)
                0x800072ec                BoardAm43xxGpevmLcdDevicePowerOn
 .text          0x800073b8        0x0 ../libboard.a(am43xx_evmsk.o)
 .text          0x800073b8        0x0 ../libboard.a(am43xx_idkevm.o)
 .text          0x800073b8        0x0 ../libboard.a(am43xx_eposevm.o)
 .text          0x800073b8        0x0 ../libboard.a(am43xx_custom.o)
 .text          0x800073b8        0x0 ../libboard.a(am43xx_gpevm_pinmux_data.o)
 .text          0x800073b8        0x0 ../libboard.a(am43xx_evmsk_pinmux_data.o)
 .text          0x800073b8        0x0 ../libboard.a(am43xx_idkevm_pinmux_data.o)
 .text          0x800073b8        0x0 ../libboard.a(am43xx_eposevm_pinmux_data.o)
 .text          0x800073b8        0x0 ../libdal.a(gpio.o)
 .text.GPIOModuleReset
                0x800073b8       0x30 ../libdal.a(gpio.o)
                0x800073b8                GPIOModuleReset
 .text.GPIOModuleEnable
                0x800073e8       0x24 ../libdal.a(gpio.o)
                0x800073e8                GPIOModuleEnable
 .text.GPIOSetDirMode
                0x8000740c       0x24 ../libdal.a(gpio.o)
                0x8000740c                GPIOSetDirMode
 .text.GPIOPinWrite
                0x80007430       0x20 ../libdal.a(gpio.o)
                0x80007430                GPIOPinWrite
 .text.GPIOPinRead
                0x80007450       0x14 ../libdal.a(gpio.o)
                0x80007450                GPIOPinRead
 .text.GPIOMultiplePinsWrite
                0x80007464       0x14 ../libdal.a(gpio.o)
                0x80007464                GPIOMultiplePinsWrite
 .text.GPIOMultiplePinsRead
                0x80007478       0x10 ../libdal.a(gpio.o)
                0x80007478                GPIOMultiplePinsRead
 .text.GPIOSetIntrType
                0x80007488      0x278 ../libdal.a(gpio.o)
                0x80007488                GPIOSetIntrType
 .text.GPIOIntrEnable
                0x80007700       0x18 ../libdal.a(gpio.o)
                0x80007700                GPIOIntrEnable
 .text.GPIOIntrDisable
                0x80007718       0x18 ../libdal.a(gpio.o)
                0x80007718                GPIOIntrDisable
 .text.GPIOIntrStatus
                0x80007730       0x18 ../libdal.a(gpio.o)
                0x80007730                GPIOIntrStatus
 .text.GPIOIntrClear
                0x80007748       0x18 ../libdal.a(gpio.o)
                0x80007748                GPIOIntrClear
 .text.GPIOIntrRawStatus
                0x80007760       0x18 ../libdal.a(gpio.o)
                0x80007760                GPIOIntrRawStatus
 .text.GPIOIntrTrigger
                0x80007778       0x18 ../libdal.a(gpio.o)
                0x80007778                GPIOIntrTrigger
 .text.GPIOWakeupIntrEnable
                0x80007790       0x48 ../libdal.a(gpio.o)
                0x80007790                GPIOWakeupIntrEnable
 .text.GPIOWakeupIntrDisable
                0x800077d8       0x20 ../libdal.a(gpio.o)
                0x800077d8                GPIOWakeupIntrDisable
 .text.GPIOGlobalWakeupEnable
                0x800077f8       0x1c ../libdal.a(gpio.o)
                0x800077f8                GPIOGlobalWakeupEnable
 .text.GPIOGlobalWakeupDisable
                0x80007814       0x14 ../libdal.a(gpio.o)
                0x80007814                GPIOGlobalWakeupDisable
 .text.GPIOAutoIdleModeEnable
                0x80007828       0x24 ../libdal.a(gpio.o)
                0x80007828                GPIOAutoIdleModeEnable
 .text.GPIOSetIdleMode
                0x8000784c       0x1c ../libdal.a(gpio.o)
                0x8000784c                GPIOSetIdleMode
 .text.GPIOSetGatingRatio
                0x80007868       0x1c ../libdal.a(gpio.o)
                0x80007868                GPIOSetGatingRatio
 .text.GPIODebounceFuncEnable
                0x80007884       0x24 ../libdal.a(gpio.o)
                0x80007884                GPIODebounceFuncEnable
 .text.GPIOSetDebounceTime
                0x800078a8       0x1c ../libdal.a(gpio.o)
                0x800078a8                GPIOSetDebounceTime
 .text.GPIOGetRevision
                0x800078c4        0xc ../libdal.a(gpio.o)
                0x800078c4                GPIOGetRevision
 .text.GPIOContextSave
                0x800078d0       0x28 ../libdal.a(gpio.o)
                0x800078d0                GPIOContextSave
 .text.GPIOContextRestore
                0x800078f8       0x28 ../libdal.a(gpio.o)
                0x800078f8                GPIOContextRestore
 .text.GPIOGetDirMode
                0x80007920       0x1c ../libdal.a(gpio.o)
                0x80007920                GPIOGetDirMode
 .text.GPIOGetIntrType
                0x8000793c       0x60 ../libdal.a(gpio.o)
                0x8000793c                GPIOGetIntrType
 .text          0x8000799c        0x0 ../libdevice.a(qspi_flash.o)
 .text.QSPIFlashGetDeviceData
                0x8000799c       0x1c ../libdevice.a(qspi_flash.o)
                0x8000799c                QSPIFlashGetDeviceData
 .text.QSPIFlashGetDeviceIdList
                0x800079b8        0xc ../libdevice.a(qspi_flash.o)
                0x800079b8                QSPIFlashGetDeviceIdList
 .text          0x800079c4        0x0 ../libexample_utils.a(example_utils_mmu.o)
 .text.MMUConfigAndEnable
                0x800079c4       0x98 ../libexample_utils.a(example_utils_mmu.o)
                0x800079c4                MMUConfigAndEnable
 .text          0x80007a5c        0x0 ../libqspi_lib.a(qspi_lib.o)
 .text.QSPILibInit
                0x80007a5c       0xec ../libqspi_lib.a(qspi_lib.o)
                0x80007a5c                QSPILibInit
 .text.QSPILibRead
                0x80007b48       0x9c ../libqspi_lib.a(qspi_lib.o)
                0x80007b48                QSPILibRead
 .text.QSPILibWrite
                0x80007be4       0xf8 ../libqspi_lib.a(qspi_lib.o)
                0x80007be4                QSPILibWrite
 .text.QSPILibBlockErase
                0x80007cdc      0x200 ../libqspi_lib.a(qspi_lib.o)
                0x80007cdc                QSPILibBlockErase
 .text.QSPILibChipErase
                0x80007edc      0x178 ../libqspi_lib.a(qspi_lib.o)
                0x80007edc                QSPILibChipErase
 .text.QSPILibPrintId
                0x80008054      0x270 ../libqspi_lib.a(qspi_lib.o)
                0x80008054                QSPILibPrintId
 .text.QSPILibQuadEnable
                0x800082c4      0x2c8 ../libqspi_lib.a(qspi_lib.o)
                0x800082c4                QSPILibQuadEnable
 .text.QspiLibMemMapWrite
                0x8000858c      0x1c8 ../libqspi_lib.a(qspi_lib.o)
                0x8000858c                QspiLibMemMapWrite
 .text.QspiLibCfgModeWrite
                0x80008754      0x348 ../libqspi_lib.a(qspi_lib.o)
                0x80008754                QspiLibCfgModeWrite
 .text.QspiLibMemMapRead
                0x80008a9c      0x264 ../libqspi_lib.a(qspi_lib.o)
                0x80008a9c                QspiLibMemMapRead
 .text.QspiLibCfgModeRead
                0x80008d00      0x474 ../libqspi_lib.a(qspi_lib.o)
                0x80008d00                QspiLibCfgModeRead
 .text.QspiLibFlashStatus
                0x80009174      0x158 ../libqspi_lib.a(qspi_lib.o)
                0x80009174                QspiLibFlashStatus
 .text.QspiLibWriteEnable
                0x800092cc       0xe0 ../libqspi_lib.a(qspi_lib.o)
                0x800092cc                QspiLibWriteEnable
 .text.QspiLibEnable4ByteAddrMode
                0x800093ac      0x108 ../libqspi_lib.a(qspi_lib.o)
                0x800093ac                QspiLibEnable4ByteAddrMode
 .text          0x800094b4        0x0 ../libsoc.a(soc.o)
 .text.SOCGetSocFamilyId
                0x800094b4        0x8 ../libsoc.a(soc.o)
                0x800094b4                SOCGetSocFamilyId
 .text.SOCGetCoreId
                0x800094bc        0x8 ../libsoc.a(soc.o)
                0x800094bc                SOCGetCoreId
 .text.SOCGetSocFamilyName
                0x800094c4        0xc ../libsoc.a(soc.o)
                0x800094c4                SOCGetSocFamilyName
 .text.SOCGetCoreName
                0x800094d0        0xc ../libsoc.a(soc.o)
                0x800094d0                SOCGetCoreName
 .text.SOCPrintInfo
                0x800094dc       0x3c ../libsoc.a(soc.o)
                0x800094dc                SOCPrintInfo
 .text          0x80009518        0x0 ../libsoc.a(startup.o)
 .text.start_boot
                0x80009518       0x70 ../libsoc.a(startup.o)
                0x80009518                start_boot
 .text          0x80009588        0x0 ../libsoc.a(am43xx_chipdb.o)
 .text.CHIPDBEnable
                0x80009588       0x14 ../libsoc.a(am43xx_chipdb.o)
                0x80009588                CHIPDBEnable
 .text.CHIPDBDisable
                0x8000959c       0x14 ../libsoc.a(am43xx_chipdb.o)
                0x8000959c                CHIPDBDisable
 .text.CHIPDBModuleMaxInstanceNumber
                0x800095b0       0x24 ../libsoc.a(am43xx_chipdb.o)
                0x800095b0                CHIPDBModuleMaxInstanceNumber
 .text.CHIPDBIsResourcePresent
                0x800095d4       0xa4 ../libsoc.a(am43xx_chipdb.o)
                0x800095d4                CHIPDBIsResourcePresent
 .text.CHIPDBResourceMaxFrequency
                0x80009678       0x4c ../libsoc.a(am43xx_chipdb.o)
                0x80009678                CHIPDBResourceMaxFrequency
 .text.CHIPDBMaxJunctionTemperature
                0x800096c4        0x8 ../libsoc.a(am43xx_chipdb.o)
                0x800096c4                CHIPDBMaxJunctionTemperature
 .text.CHIPDBMinJunctionTemperature
                0x800096cc        0x8 ../libsoc.a(am43xx_chipdb.o)
                0x800096cc                CHIPDBMinJunctionTemperature
 .text.CHIPDBPackageType
                0x800096d4        0x8 ../libsoc.a(am43xx_chipdb.o)
                0x800096d4                CHIPDBPackageType
 .text.CHIPDBDeviceRevision
                0x800096dc       0x34 ../libsoc.a(am43xx_chipdb.o)
                0x800096dc                CHIPDBDeviceRevision
 .text.CHIPDBSecurityLevel
                0x80009710       0x2c ../libsoc.a(am43xx_chipdb.o)
                0x80009710                CHIPDBSecurityLevel
 .text.CHIPDBBaseAddress
                0x8000973c       0x38 ../libsoc.a(am43xx_chipdb.o)
                0x8000973c                CHIPDBBaseAddress
 .text.ChipDBInterruptNum
                0x80009774       0x48 ../libsoc.a(am43xx_chipdb.o)
                0x80009774                ChipDBInterruptNum
 .text          0x800097bc        0x0 ../libsoc.a(hw_am43xx_chipdb.o)
 .text.CHIPDBSpeedGradeProcID
                0x800097bc        0x4 ../libsoc.a(hw_am43xx_chipdb.o)
                0x800097bc                CHIPDBSpeedGradeProcID
 .text.CHIPDBIsSecureModule
                0x800097c0       0x44 ../libsoc.a(hw_am43xx_chipdb.o)
                0x800097c0                CHIPDBIsSecureModule
 .text          0x80009804        0x0 ../libsoc.a(hw_am43xx_chipdb_baseaddr.o)
 .text          0x80009804        0x0 ../libsoc.a(hw_am43xx_chipdb_interrupt.o)
 .text          0x80009804        0x0 ../libsoc.a(am43xx_prcm.o)
 .text.PRCMModuleIdxEnable
                0x80009804       0xe4 ../libsoc.a(am43xx_prcm.o)
                0x80009804                PRCMModuleIdxEnable
 .text.PRCMModuleEnable
                0x800098e8       0x4c ../libsoc.a(am43xx_prcm.o)
                0x800098e8                PRCMModuleEnable
 .text.PRCMMultiModuleEnable
                0x80009934       0x60 ../libsoc.a(am43xx_prcm.o)
                0x80009934                PRCMMultiModuleEnable
 .text.PRCMModuleIdxDisable
                0x80009994       0xf0 ../libsoc.a(am43xx_prcm.o)
                0x80009994                PRCMModuleIdxDisable
 .text.PRCMModuleDisable
                0x80009a84       0x4c ../libsoc.a(am43xx_prcm.o)
                0x80009a84                PRCMModuleDisable
 .text.PRCMMultiModuleDisable
                0x80009ad0       0x60 ../libsoc.a(am43xx_prcm.o)
                0x80009ad0                PRCMMultiModuleDisable
 .text.PRCMIsModuleEnabled
                0x80009b30       0x74 ../libsoc.a(am43xx_prcm.o)
                0x80009b30                PRCMIsModuleEnabled
 .text.PRCMOptClockEnable
                0x80009ba4       0x1c ../libsoc.a(am43xx_prcm.o)
                0x80009ba4                PRCMOptClockEnable
 .text.PRCMOptClockDisable
                0x80009bc0       0x1c ../libsoc.a(am43xx_prcm.o)
                0x80009bc0                PRCMOptClockDisable
 .text.PRCMIsOptClockEnabled
                0x80009bdc       0x1c ../libsoc.a(am43xx_prcm.o)
                0x80009bdc                PRCMIsOptClockEnabled
 .text.PRCMGetClockRate
                0x80009bf8       0x38 ../libsoc.a(am43xx_prcm.o)
                0x80009bf8                PRCMGetClockRate
 .text.PRCMSetMuxParent
                0x80009c30       0xa4 ../libsoc.a(am43xx_prcm.o)
                0x80009c30                PRCMSetMuxParent
 .text.PRCMGetMuxParent
                0x80009cd4       0x74 ../libsoc.a(am43xx_prcm.o)
                0x80009cd4                PRCMGetMuxParent
 .text.PRCMSetDivider
                0x80009d48       0xb0 ../libsoc.a(am43xx_prcm.o)
                0x80009d48                PRCMSetDivider
 .text.PRCMGetDivider
                0x80009df8       0x98 ../libsoc.a(am43xx_prcm.o)
                0x80009df8                PRCMGetDivider
 .text.PRCMDpllBypass
                0x80009e90      0x144 ../libsoc.a(am43xx_prcm.o)
                0x80009e90                PRCMDpllBypass
 .text.PRCMDpllLock
                0x80009fd4      0x1fc ../libsoc.a(am43xx_prcm.o)
                0x80009fd4                PRCMDpllLock
 .text.PRCMDpllRampConfig
                0x8000a1d0       0xb0 ../libsoc.a(am43xx_prcm.o)
                0x8000a1d0                PRCMDpllRampConfig
 .text.PRCMDpllDutyCycleCorrEnable
                0x8000a280       0x88 ../libsoc.a(am43xx_prcm.o)
                0x8000a280                PRCMDpllDutyCycleCorrEnable
 .text.PRCMDpllClkDcoLdoEnable
                0x8000a308        0x8 ../libsoc.a(am43xx_prcm.o)
                0x8000a308                PRCMDpllClkDcoLdoEnable
 .text.PRCMDpllRecalibEnable
                0x8000a310       0x70 ../libsoc.a(am43xx_prcm.o)
                0x8000a310                PRCMDpllRecalibEnable
 .text.PRCMSetRootClockRate
                0x8000a380       0x24 ../libsoc.a(am43xx_prcm.o)
                0x8000a380                PRCMSetRootClockRate
 .text.PRCMGetRootClockRate
                0x8000a3a4       0x7c ../libsoc.a(am43xx_prcm.o)
                0x8000a3a4                PRCMGetRootClockRate
 .text          0x8000a420        0x0 ../libsoc.a(hw_prcm_data.o)
 .text.PRCMGetModuleId
                0x8000a420       0x64 ../libsoc.a(hw_prcm_data.o)
                0x8000a420                PRCMGetModuleId
 .text          0x8000a484        0x0 ../libsoc.a(cache_arm.o)
 .text.CACHERegisterOuterCache
                0x8000a484       0x10 ../libsoc.a(cache_arm.o)
                0x8000a484                CACHERegisterOuterCache
 .text.CACHEEnable
                0x8000a494       0x94 ../libsoc.a(cache_arm.o)
                0x8000a494                CACHEEnable
 .text.CACHEDisable
                0x8000a528       0x98 ../libsoc.a(cache_arm.o)
                0x8000a528                CACHEDisable
 .text.CACHEDataCleanAll
                0x8000a5c0       0x38 ../libsoc.a(cache_arm.o)
                0x8000a5c0                CACHEDataCleanAll
 .text.CACHEDataCleanRange
                0x8000a5f8       0x48 ../libsoc.a(cache_arm.o)
                0x8000a5f8                CACHEDataCleanRange
 .text.CACHEInstInvAll
                0x8000a640       0x38 ../libsoc.a(cache_arm.o)
                0x8000a640                CACHEInstInvAll
 .text.CACHEDataInvAll
                0x8000a678       0x38 ../libsoc.a(cache_arm.o)
                0x8000a678                CACHEDataInvAll
 .text.CACHEDataInvRange
                0x8000a6b0       0x48 ../libsoc.a(cache_arm.o)
                0x8000a6b0                CACHEDataInvRange
 .text.CACHEDataCleanInvAll
                0x8000a6f8       0x38 ../libsoc.a(cache_arm.o)
                0x8000a6f8                CACHEDataCleanInvAll
 .text.CACHEDataCleanInvRange
                0x8000a730       0x48 ../libsoc.a(cache_arm.o)
                0x8000a730                CACHEDataCleanInvRange
 .text.CACHELockByWay
                0x8000a778       0x9c ../libsoc.a(cache_arm.o)
                0x8000a778                CACHELockByWay
 .text.CACHEUnlockByWay
                0x8000a814       0x34 ../libsoc.a(cache_arm.o)
                0x8000a814                CACHEUnlockByWay
 .text.CacheInstInvalidateAll
                0x8000a848        0xc ../libsoc.a(cache_arm.o)
                0x8000a848                CacheInstInvalidateAll
 .text.CacheDataCleanInvalidateAll
                0x8000a854        0xc ../libsoc.a(cache_arm.o)
                0x8000a854                CacheDataCleanInvalidateAll
 .text.CacheDataCleanAll
                0x8000a860        0xc ../libsoc.a(cache_arm.o)
                0x8000a860                CacheDataCleanAll
 .text.CacheDataInvalidateAll
                0x8000a86c        0xc ../libsoc.a(cache_arm.o)
                0x8000a86c                CacheDataInvalidateAll
 .text.CacheDataCleanBuff
                0x8000a878        0xc ../libsoc.a(cache_arm.o)
                0x8000a878                CacheDataCleanBuff
 .text.CacheDataInvalidateBuff
                0x8000a884        0xc ../libsoc.a(cache_arm.o)
                0x8000a884                CacheDataInvalidateBuff
 .text.CacheDataCleanInvalidateBuff
                0x8000a890        0xc ../libsoc.a(cache_arm.o)
                0x8000a890                CacheDataCleanInvalidateBuff
 .text          0x8000a89c        0x0 ../libsoc.a(mmu_arm.o)
 .text.MMUInit  0x8000a89c       0x5c ../libsoc.a(mmu_arm.o)
                0x8000a89c                MMUInit
 .text.MMUMemRegionMap
                0x8000a8f8      0x108 ../libsoc.a(mmu_arm.o)
                0x8000a8f8                MMUMemRegionMap
 .text.MMUEnable
                0x8000aa00       0x20 ../libsoc.a(mmu_arm.o)
                0x8000aa00                MMUEnable
 .text.MMUDisable
                0x8000aa20        0xc ../libsoc.a(mmu_arm.o)
                0x8000aa20                MMUDisable
 .text          0x8000aa2c      0x488 ../libsoc.a(cp15.o)
                0x8000aa2c                CP15ICacheDisable
                0x8000aa48                CP15DCacheDisable
                0x8000aa64                CP15ICacheEnable
                0x8000aa74                CP15DCacheEnable
                0x8000aa84                CP15DCacheFlush
                0x8000ab18                CP15DCacheClean
                0x8000abac                CP15DCacheCleanFlush
                0x8000ac40                CP15ICacheFlush
                0x8000ac50                CP15DCacheCleanBuff
                0x8000aca4                CP15DCacheCleanFlushBuff
                0x8000acf8                CP15DCacheFlushBuff
                0x8000ad5c                CP15ICacheFlushBuff
                0x8000adb0                CP15Ttb0Set
                0x8000adbc                CP15TlbInvalidate
                0x8000adc8                CP15MMUDisable
                0x8000ade0                CP15MMUEnable
                0x8000adf4                CP15VectorBaseAddrSet
                0x8000ae00                CP15BranchPredictorInvalidate
                0x8000ae0c                CP15BranchPredictionEnable
                0x8000ae1c                CP15BranchPredictionDisable
                0x8000ae2c                CP15DomainAccessClientSet
                0x8000ae3c                CP15ControlFeatureDisable
                0x8000ae50                CP15ControlFeatureEnable
                0x8000ae64                CP15TtbCtlTtb0Config
                0x8000ae74                CP15AuxControlFeatureEnable
                0x8000ae88                CP15AuxControlFeatureDisable
                0x8000ae9c                CP15MainIdPrimPartNumGet
 .text          0x8000aeb4       0x70 ../libsoc.a(exceptionhandler.o)
                0x8000aeb4                SVC_Handler
                0x8000aedc                IRQHandler
                0x8000af1c                FIQHandler
                0x8000af20                AbortHandler
                0x8000af20                UndefInstHandler
 .text          0x8000af24        0x0 ../libsoc.a(cpu.o)
 .text.CPUSwitchToPrivilegedMode
                0x8000af24        0x8 ../libsoc.a(cpu.o)
                0x8000af24                CPUSwitchToPrivilegedMode
 .text.CPUSwitchToUserMode
                0x8000af2c       0x14 ../libsoc.a(cpu.o)
                0x8000af2c                CPUSwitchToUserMode
 .text.CPUAbortHandler
                0x8000af40        0x4 ../libsoc.a(cpu.o)
                0x8000af40                CPUAbortHandler
 .text.CPUIntrStatus
                0x8000af44        0xc ../libsoc.a(cpu.o)
                0x8000af44                CPUIntrStatus
 .text.CPUIntrDisable
                0x8000af50       0x38 ../libsoc.a(cpu.o)
                0x8000af50                CPUIntrDisable
 .text.CPUIntrEnable
                0x8000af88       0x2c ../libsoc.a(cpu.o)
                0x8000af88                CPUIntrEnable
 .text          0x8000afb4        0x0 ../libsoc.a(gic.o)
 .text.isIntrSupported
                0x8000afb4       0xc8 ../libsoc.a(gic.o)
 .text.IntDefaultHandler
                0x8000b07c       0x30 ../libsoc.a(gic.o)
 .text.INTCInit
                0x8000b0ac      0x2d4 ../libsoc.a(gic.o)
                0x8000b0ac                INTCInit
 .text.INTCConfigIntr
                0x8000b380      0x170 ../libsoc.a(gic.o)
                0x8000b380                INTCConfigIntr
 .text.INTCEnableIntr
                0x8000b4f0       0x4c ../libsoc.a(gic.o)
                0x8000b4f0                INTCEnableIntr
 .text.INTCDisableIntr
                0x8000b53c       0x4c ../libsoc.a(gic.o)
                0x8000b53c                INTCDisableIntr
 .text.INTCEnableCpuIntr
                0x8000b588       0x30 ../libsoc.a(gic.o)
                0x8000b588                INTCEnableCpuIntr
 .text.INTCDisableCpuIntr
                0x8000b5b8        0xc ../libsoc.a(gic.o)
                0x8000b5b8                INTCDisableCpuIntr
 .text.INTCClearIntr
                0x8000b5c4       0x4c ../libsoc.a(gic.o)
                0x8000b5c4                INTCClearIntr
 .text.INTCTriggerSWIntr
                0x8000b610       0x4c ../libsoc.a(gic.o)
                0x8000b610                INTCTriggerSWIntr
 .text.INTCTriggerIpcIntr
                0x8000b65c       0x2c ../libsoc.a(gic.o)
                0x8000b65c                INTCTriggerIpcIntr
 .text.INTCSaveContext
                0x8000b688        0x8 ../libsoc.a(gic.o)
                0x8000b688                INTCSaveContext
 .text.INTCRestoreContext
                0x8000b690        0x8 ../libsoc.a(gic.o)
                0x8000b690                INTCRestoreContext
 .text.INTCCommonIntrHandler
                0x8000b698       0x90 ../libsoc.a(gic.o)
                0x8000b698                INTCCommonIntrHandler
 .text          0x8000b728        0x0 ../libutils.a(console_utils.o)
 .text.CONSOLEUtilsInit
                0x8000b728        0xc ../libutils.a(console_utils.o)
                0x8000b728                CONSOLEUtilsInit
 .text.CONSOLEUtilsGetType
                0x8000b734       0x10 ../libutils.a(console_utils.o)
                0x8000b734                CONSOLEUtilsGetType
 .text.CONSOLEUtilsSetType
                0x8000b744       0x40 ../libutils.a(console_utils.o)
                0x8000b744                CONSOLEUtilsSetType
 .text.CONSOLEUtilsGetc
                0x8000b784       0x40 ../libutils.a(console_utils.o)
                0x8000b784                CONSOLEUtilsGetc
 .text.CONSOLEUtilsPutc
                0x8000b7c4       0x40 ../libutils.a(console_utils.o)
                0x8000b7c4                CONSOLEUtilsPutc
 .text.CONSOLEUtilsGets
                0x8000b804       0x50 ../libutils.a(console_utils.o)
                0x8000b804                CONSOLEUtilsGets
 .text.CONSOLEUtilsPuts
                0x8000b854       0x40 ../libutils.a(console_utils.o)
                0x8000b854                CONSOLEUtilsPuts
 .text.CONSOLEUtilsPrintf
                0x8000b894       0x64 ../libutils.a(console_utils.o)
                0x8000b894                CONSOLEUtilsPrintf
 .text.CONSOLEUtilsScanf
                0x8000b8f8       0x64 ../libutils.a(console_utils.o)
                0x8000b8f8                CONSOLEUtilsScanf
 .text.CONSOLEUtilsGetNonBlockingInput
                0x8000b95c       0x5c ../libutils.a(console_utils.o)
                0x8000b95c                CONSOLEUtilsGetNonBlockingInput
 .text.ConsoleUtilsInit
                0x8000b9b8        0xc ../libutils.a(console_utils.o)
                0x8000b9b8                ConsoleUtilsInit
 .text.ConsoleUtilsSetType
                0x8000b9c4       0x2c ../libutils.a(console_utils.o)
                0x8000b9c4                ConsoleUtilsSetType
 .text.ConsoleUtilsPrintf
                0x8000b9f0       0x6c ../libutils.a(console_utils.o)
                0x8000b9f0                ConsoleUtilsPrintf
 .text.ConsoleUtilsScanf
                0x8000ba5c       0x64 ../libutils.a(console_utils.o)
                0x8000ba5c                ConsoleUtilsScanf
 .text.ConsoleUtilsGets
                0x8000bac0       0x40 ../libutils.a(console_utils.o)
                0x8000bac0                ConsoleUtilsGets
 .text.ConsoleUtilsPuts
                0x8000bb00       0x34 ../libutils.a(console_utils.o)
                0x8000bb00                ConsoleUtilsPuts
 .text.ConsoleUtilsGetChar
                0x8000bb34       0x48 ../libutils.a(console_utils.o)
                0x8000bb34                ConsoleUtilsGetChar
 .text.ConsoleUtilsPutChar
                0x8000bb7c       0x34 ../libutils.a(console_utils.o)
                0x8000bb7c                ConsoleUtilsPutChar
 .text          0x8000bbb0        0x0 ../libutils.a(agraph.o)
 .text.ag_valid_node
                0x8000bbb0       0x1c ../libutils.a(agraph.o)
                0x8000bbb0                ag_valid_node
 .text.ag_get_node
                0x8000bbcc       0x24 ../libutils.a(agraph.o)
                0x8000bbcc                ag_get_node
 .text.ag_get_node_prop
                0x8000bbf0        0xc ../libutils.a(agraph.o)
                0x8000bbf0                ag_get_node_prop
 .text.ag_get_predecessors
                0x8000bbfc       0x7c ../libutils.a(agraph.o)
                0x8000bbfc                ag_get_predecessors
 .text.ag_get_edge_prop
                0x8000bc78        0xc ../libutils.a(agraph.o)
                0x8000bc78                ag_get_edge_prop
 .text.ag_get_prop_type
                0x8000bc84       0x10 ../libutils.a(agraph.o)
                0x8000bc84                ag_get_prop_type
 .text.ag_get_prop_ptr
                0x8000bc94       0x10 ../libutils.a(agraph.o)
                0x8000bc94                ag_get_prop_ptr
 .text          0x8000bca4        0x0 ../libutils.a(i2c_utils.o)
 .text.I2cUtilsStatusCheck.isra.1
                0x8000bca4       0xb8 ../libutils.a(i2c_utils.o)
 .text.I2cUtilsTransceive
                0x8000bd5c      0x5b4 ../libutils.a(i2c_utils.o)
 .text.I2CUtilsWrite
                0x8000c310       0xc0 ../libutils.a(i2c_utils.o)
                0x8000c310                I2CUtilsWrite
 .text.I2CUtilsRead
                0x8000c3d0       0xb0 ../libutils.a(i2c_utils.o)
                0x8000c3d0                I2CUtilsRead
 .text.I2C1ModuleClkConfig
                0x8000c480       0x64 ../libutils.a(i2c_utils.o)
                0x8000c480                I2C1ModuleClkConfig
 .text.I2C0ModuleClkConfig
                0x8000c4e4       0x64 ../libutils.a(i2c_utils.o)
                0x8000c4e4                I2C0ModuleClkConfig
 .text.I2C2ModuleClkConfig
                0x8000c548       0x64 ../libutils.a(i2c_utils.o)
                0x8000c548                I2C2ModuleClkConfig
 .text.I2CUtilsInit
                0x8000c5ac      0x278 ../libutils.a(i2c_utils.o)
                0x8000c5ac                I2CUtilsInit
 .text          0x8000c824        0x0 ../libutils.a(console_utils_uart.o)
 .text.ConsoleUtilsUartClearBuf
                0x8000c824       0x68 ../libutils.a(console_utils_uart.o)
 .text.ConsoleUtilsUartDecode
                0x8000c88c      0x470 ../libutils.a(console_utils_uart.o)
 .text.CONSOLEUtilsUartInit
                0x8000ccfc      0x11c ../libutils.a(console_utils_uart.o)
                0x8000ccfc                CONSOLEUtilsUartInit
 .text.CONSOLEUtilsUartPutChar
                0x8000ce18       0xdc ../libutils.a(console_utils_uart.o)
                0x8000ce18                CONSOLEUtilsUartPutChar
 .text.ConsoleUtilsUartBlockingRead
                0x8000cef4      0x1ec ../libutils.a(console_utils_uart.o)
 .text.CONSOLEUtilsUartGetChar
                0x8000d0e0       0x54 ../libutils.a(console_utils_uart.o)
                0x8000d0e0                CONSOLEUtilsUartGetChar
 .text.CONSOLEUtilsUartGetStr
                0x8000d134       0xb4 ../libutils.a(console_utils_uart.o)
                0x8000d134                CONSOLEUtilsUartGetStr
 .text.CONSOLEUtilsUartPutStr
                0x8000d1e8       0x40 ../libutils.a(console_utils_uart.o)
                0x8000d1e8                CONSOLEUtilsUartPutStr
 .text.CONSOLEUtilsUartPrintFmt
                0x8000d228      0xca0 ../libutils.a(console_utils_uart.o)
                0x8000d228                CONSOLEUtilsUartPrintFmt
 .text.CONSOLEUtilsUartScanFmt
                0x8000dec8      0x188 ../libutils.a(console_utils_uart.o)
                0x8000dec8                CONSOLEUtilsUartScanFmt
 .text.CONSOLEUtilsUartGetNonBlockingInput
                0x8000e050      0x31c ../libutils.a(console_utils_uart.o)
                0x8000e050                CONSOLEUtilsUartGetNonBlockingInput
 .text.CONSOLEUtilsUartGetBlockingInput
                0x8000e36c       0xb8 ../libutils.a(console_utils_uart.o)
                0x8000e36c                CONSOLEUtilsUartGetBlockingInput
 .text          0x8000e424        0x0 ../libutils.a(ascii_utils.o)
 .text.ASCIIUtilsCharToDigit
                0x8000e424       0x78 ../libutils.a(ascii_utils.o)
                0x8000e424                ASCIIUtilsCharToDigit
 .text.ASCIIUtilsDigitToChar
                0x8000e49c       0x38 ../libutils.a(ascii_utils.o)
                0x8000e49c                ASCIIUtilsDigitToChar
 .text.ASCIIUtilsStrToEthrAddr
                0x8000e4d4      0x1b8 ../libutils.a(ascii_utils.o)
                0x8000e4d4                ASCIIUtilsStrToEthrAddr
 .text.ASCIIUtilsEthrAddrToStr
                0x8000e68c       0x8c ../libutils.a(ascii_utils.o)
                0x8000e68c                ASCIIUtilsEthrAddrToStr
 .text.ASCIIUtilsTimeToStr
                0x8000e718       0xf0 ../libutils.a(ascii_utils.o)
                0x8000e718                ASCIIUtilsTimeToStr
 .text.ASCIIUtilsDateToStr
                0x8000e808       0xf0 ../libutils.a(ascii_utils.o)
                0x8000e808                ASCIIUtilsDateToStr
 .text.ASCIIToDigit
                0x8000e8f8        0xc ../libutils.a(ascii_utils.o)
                0x8000e8f8                ASCIIToDigit
 .text.DigitToASCII
                0x8000e904       0x38 ../libutils.a(ascii_utils.o)
                0x8000e904                DigitToASCII
 .text.StrToEthrAddr
                0x8000e93c        0xc ../libutils.a(ascii_utils.o)
                0x8000e93c                StrToEthrAddr
 .text.EthrAddrToStr
                0x8000e948        0xc ../libutils.a(ascii_utils.o)
                0x8000e948                EthrAddrToStr
 .text.TimeToStr
                0x8000e954        0xc ../libutils.a(ascii_utils.o)
                0x8000e954                TimeToStr
 .text.DateToStr
                0x8000e960        0xc ../libutils.a(ascii_utils.o)
                0x8000e960                DateToStr
 .text          0x8000e96c      0x114 c:/ti/gcc-arm-none-eabi-6-2017-q1-update/bin/../lib/gcc/arm-none-eabi/6.3.1/hard\libgcc.a(_udivsi3.o)
                0x8000e96c                __aeabi_uidiv
                0x8000e96c                __udivsi3
                0x8000ea60                __aeabi_uidivmod
 .text          0x8000ea80        0x4 c:/ti/gcc-arm-none-eabi-6-2017-q1-update/bin/../lib/gcc/arm-none-eabi/6.3.1/hard\libgcc.a(_dvmd_tls.o)
                0x8000ea80                __aeabi_idiv0
                0x8000ea80                __aeabi_ldiv0
 .text          0x8000ea84       0x3c c:/ti/gcc-arm-none-eabi-6-2017-q1-update/bin/../lib/gcc/arm-none-eabi/6.3.1/hard\libgcc.a(_aeabi_uldivmod.o)
                0x8000ea84                __aeabi_uldivmod
 .text          0x8000eac0       0x48 c:/ti/gcc-arm-none-eabi-6-2017-q1-update/bin/../lib/gcc/arm-none-eabi/6.3.1/hard\libgcc.a(_fixunsdfdi.o)
                0x8000eac0                __fixunsdfdi
                0x8000eac0                __aeabi_d2ulz
 .text          0x8000eb08      0x12c c:/ti/gcc-arm-none-eabi-6-2017-q1-update/bin/../lib/gcc/arm-none-eabi/6.3.1/hard\libgcc.a(_udivmoddi4.o)
                0x8000eb08                __udivmoddi4
 .text          0x8000ec34       0x28 c:/ti/gcc-arm-none-eabi-6-2017-q1-update/bin/../lib/gcc/arm-none-eabi/6.3.1/hard\libgcc.a(_clzdi2.o)
                0x8000ec34                __clzdi2
 .text          0x8000ec5c       0x48 c:/ti/gcc-arm-none-eabi-6-2017-q1-update/bin/../lib/gcc/arm-none-eabi/6.3.1/hard\libgcc.a(_clzsi2.o)
                0x8000ec5c                __clzsi2
 .text          0x8000eca4        0x0 c:/ti/gcc-arm-none-eabi-6-2017-q1-update/bin/../lib/gcc/arm-none-eabi/6.3.1/../../../../arm-none-eabi/lib/hard\libg.a(lib_a-assert.o)
 .text.__assert_func
                0x8000eca4       0x50 c:/ti/gcc-arm-none-eabi-6-2017-q1-update/bin/../lib/gcc/arm-none-eabi/6.3.1/../../../../arm-none-eabi/lib/hard\libg.a(lib_a-assert.o)
                0x8000eca4                __assert_func
 .text.__assert
                0x8000ecf4       0x10 c:/ti/gcc-arm-none-eabi-6-2017-q1-update/bin/../lib/gcc/arm-none-eabi/6.3.1/../../../../arm-none-eabi/lib/hard\libg.a(lib_a-assert.o)
                0x8000ecf4                __assert
 .text          0x8000ed04        0x0 c:/ti/gcc-arm-none-eabi-6-2017-q1-update/bin/../lib/gcc/arm-none-eabi/6.3.1/../../../../arm-none-eabi/lib/hard\libg.a(lib_a-fiprintf.o)
 .text._fiprintf_r
                0x8000ed04       0x30 c:/ti/gcc-arm-none-eabi-6-2017-q1-update/bin/../lib/gcc/arm-none-eabi/6.3.1/../../../../arm-none-eabi/lib/hard\libg.a(lib_a-fiprintf.o)
                0x8000ed04                _fiprintf_r
 .text.fiprintf
                0x8000ed34       0x40 c:/ti/gcc-arm-none-eabi-6-2017-q1-update/bin/../lib/gcc/arm-none-eabi/6.3.1/../../../../arm-none-eabi/lib/hard\libg.a(lib_a-fiprintf.o)
                0x8000ed34                fiprintf
 .text          0x8000ed74        0x0 c:/ti/gcc-arm-none-eabi-6-2017-q1-update/bin/../lib/gcc/arm-none-eabi/6.3.1/../../../../arm-none-eabi/lib/hard\libg.a(lib_a-memcpy-stub.o)
 .text.memcpy   0x8000ed74      0x114 c:/ti/gcc-arm-none-eabi-6-2017-q1-update/bin/../lib/gcc/arm-none-eabi/6.3.1/../../../../arm-none-eabi/lib/hard\libg.a(lib_a-memcpy-stub.o)
                0x8000ed74                memcpy
 .text          0x8000ee88        0x0 c:/ti/gcc-arm-none-eabi-6-2017-q1-update/bin/../lib/gcc/arm-none-eabi/6.3.1/../../../../arm-none-eabi/lib/hard\libg.a(lib_a-strncmp.o)
 .text.strncmp  0x8000ee88      0x110 c:/ti/gcc-arm-none-eabi-6-2017-q1-update/bin/../lib/gcc/arm-none-eabi/6.3.1/../../../../arm-none-eabi/lib/hard\libg.a(lib_a-strncmp.o)
                0x8000ee88                strncmp
 .text          0x8000ef98        0x0 c:/ti/gcc-arm-none-eabi-6-2017-q1-update/bin/../lib/gcc/arm-none-eabi/6.3.1/../../../../arm-none-eabi/lib/hard\libg.a(lib_a-vfiprintf.o)
 .text.__sprint_r.part.0
                0x8000ef98       0xb0 c:/ti/gcc-arm-none-eabi-6-2017-q1-update/bin/../lib/gcc/arm-none-eabi/6.3.1/../../../../arm-none-eabi/lib/hard\libg.a(lib_a-vfiprintf.o)
 .text.__sprint_r
                0x8000f048       0x18 c:/ti/gcc-arm-none-eabi-6-2017-q1-update/bin/../lib/gcc/arm-none-eabi/6.3.1/../../../../arm-none-eabi/lib/hard\libg.a(lib_a-vfiprintf.o)
                0x8000f048                __sprint_r
 .text._vfiprintf_r
                0x8000f060     0x1304 c:/ti/gcc-arm-none-eabi-6-2017-q1-update/bin/../lib/gcc/arm-none-eabi/6.3.1/../../../../arm-none-eabi/lib/hard\libg.a(lib_a-vfiprintf.o)
                0x8000f060                _vfiprintf_r
 .text.vfiprintf
                0x80010364       0x1c c:/ti/gcc-arm-none-eabi-6-2017-q1-update/bin/../lib/gcc/arm-none-eabi/6.3.1/../../../../arm-none-eabi/lib/hard\libg.a(lib_a-vfiprintf.o)
                0x80010364                vfiprintf
 .text.__sbprintf
                0x80010380       0xd0 c:/ti/gcc-arm-none-eabi-6-2017-q1-update/bin/../lib/gcc/arm-none-eabi/6.3.1/../../../../arm-none-eabi/lib/hard\libg.a(lib_a-vfiprintf.o)
 .text          0x80010450        0x0 c:/ti/gcc-arm-none-eabi-6-2017-q1-update/bin/../lib/gcc/arm-none-eabi/6.3.1/../../../../arm-none-eabi/lib/hard\libg.a(lib_a-wsetup.o)
 .text.__swsetup_r
                0x80010450      0x164 c:/ti/gcc-arm-none-eabi-6-2017-q1-update/bin/../lib/gcc/arm-none-eabi/6.3.1/../../../../arm-none-eabi/lib/hard\libg.a(lib_a-wsetup.o)
                0x80010450                __swsetup_r
 .text          0x800105b4        0x0 c:/ti/gcc-arm-none-eabi-6-2017-q1-update/bin/../lib/gcc/arm-none-eabi/6.3.1/../../../../arm-none-eabi/lib/hard\libg.a(lib_a-abort.o)
 .text.abort    0x800105b4       0x14 c:/ti/gcc-arm-none-eabi-6-2017-q1-update/bin/../lib/gcc/arm-none-eabi/6.3.1/../../../../arm-none-eabi/lib/hard\libg.a(lib_a-abort.o)
                0x800105b4                abort
 .text          0x800105c8        0x0 c:/ti/gcc-arm-none-eabi-6-2017-q1-update/bin/../lib/gcc/arm-none-eabi/6.3.1/../../../../arm-none-eabi/lib/hard\libg.a(lib_a-fflush.o)
 .text.__sflush_r
                0x800105c8      0x23c c:/ti/gcc-arm-none-eabi-6-2017-q1-update/bin/../lib/gcc/arm-none-eabi/6.3.1/../../../../arm-none-eabi/lib/hard\libg.a(lib_a-fflush.o)
                0x800105c8                __sflush_r
 .text._fflush_r
                0x80010804       0x9c c:/ti/gcc-arm-none-eabi-6-2017-q1-update/bin/../lib/gcc/arm-none-eabi/6.3.1/../../../../arm-none-eabi/lib/hard\libg.a(lib_a-fflush.o)
                0x80010804                _fflush_r
 .text.fflush   0x800108a0       0x38 c:/ti/gcc-arm-none-eabi-6-2017-q1-update/bin/../lib/gcc/arm-none-eabi/6.3.1/../../../../arm-none-eabi/lib/hard\libg.a(lib_a-fflush.o)
                0x800108a0                fflush
 .text          0x800108d8        0x0 c:/ti/gcc-arm-none-eabi-6-2017-q1-update/bin/../lib/gcc/arm-none-eabi/6.3.1/../../../../arm-none-eabi/lib/hard\libg.a(lib_a-findfp.o)
 .text._cleanup_r
                0x800108d8       0x18 c:/ti/gcc-arm-none-eabi-6-2017-q1-update/bin/../lib/gcc/arm-none-eabi/6.3.1/../../../../arm-none-eabi/lib/hard\libg.a(lib_a-findfp.o)
                0x800108d8                _cleanup_r
 .text.std.isra.0
                0x800108f0       0x84 c:/ti/gcc-arm-none-eabi-6-2017-q1-update/bin/../lib/gcc/arm-none-eabi/6.3.1/../../../../arm-none-eabi/lib/hard\libg.a(lib_a-findfp.o)
 .text.__fp_lock
                0x80010974       0x38 c:/ti/gcc-arm-none-eabi-6-2017-q1-update/bin/../lib/gcc/arm-none-eabi/6.3.1/../../../../arm-none-eabi/lib/hard\libg.a(lib_a-findfp.o)
 .text.__fp_unlock
                0x800109ac       0x38 c:/ti/gcc-arm-none-eabi-6-2017-q1-update/bin/../lib/gcc/arm-none-eabi/6.3.1/../../../../arm-none-eabi/lib/hard\libg.a(lib_a-findfp.o)
 .text.__sfmoreglue
                0x800109e4       0x50 c:/ti/gcc-arm-none-eabi-6-2017-q1-update/bin/../lib/gcc/arm-none-eabi/6.3.1/../../../../arm-none-eabi/lib/hard\libg.a(lib_a-findfp.o)
                0x800109e4                __sfmoreglue
 .text._cleanup
                0x80010a34       0x24 c:/ti/gcc-arm-none-eabi-6-2017-q1-update/bin/../lib/gcc/arm-none-eabi/6.3.1/../../../../arm-none-eabi/lib/hard\libg.a(lib_a-findfp.o)
                0x80010a34                _cleanup
 .text.__sinit  0x80010a58       0x94 c:/ti/gcc-arm-none-eabi-6-2017-q1-update/bin/../lib/gcc/arm-none-eabi/6.3.1/../../../../arm-none-eabi/lib/hard\libg.a(lib_a-findfp.o)
                0x80010a58                __sinit
 .text.__sfp    0x80010aec      0x120 c:/ti/gcc-arm-none-eabi-6-2017-q1-update/bin/../lib/gcc/arm-none-eabi/6.3.1/../../../../arm-none-eabi/lib/hard\libg.a(lib_a-findfp.o)
                0x80010aec                __sfp
 .text.__sfp_lock_acquire
                0x80010c0c       0x18 c:/ti/gcc-arm-none-eabi-6-2017-q1-update/bin/../lib/gcc/arm-none-eabi/6.3.1/../../../../arm-none-eabi/lib/hard\libg.a(lib_a-findfp.o)
                0x80010c0c                __sfp_lock_acquire
 .text.__sfp_lock_release
                0x80010c24       0x18 c:/ti/gcc-arm-none-eabi-6-2017-q1-update/bin/../lib/gcc/arm-none-eabi/6.3.1/../../../../arm-none-eabi/lib/hard\libg.a(lib_a-findfp.o)
                0x80010c24                __sfp_lock_release
 .text.__sinit_lock_acquire
                0x80010c3c       0x18 c:/ti/gcc-arm-none-eabi-6-2017-q1-update/bin/../lib/gcc/arm-none-eabi/6.3.1/../../../../arm-none-eabi/lib/hard\libg.a(lib_a-findfp.o)
                0x80010c3c                __sinit_lock_acquire
 .text.__sinit_lock_release
                0x80010c54       0x18 c:/ti/gcc-arm-none-eabi-6-2017-q1-update/bin/../lib/gcc/arm-none-eabi/6.3.1/../../../../arm-none-eabi/lib/hard\libg.a(lib_a-findfp.o)
                0x80010c54                __sinit_lock_release
 .text.__fp_lock_all
                0x80010c6c       0x30 c:/ti/gcc-arm-none-eabi-6-2017-q1-update/bin/../lib/gcc/arm-none-eabi/6.3.1/../../../../arm-none-eabi/lib/hard\libg.a(lib_a-findfp.o)
                0x80010c6c                __fp_lock_all
 .text.__fp_unlock_all
                0x80010c9c       0x30 c:/ti/gcc-arm-none-eabi-6-2017-q1-update/bin/../lib/gcc/arm-none-eabi/6.3.1/../../../../arm-none-eabi/lib/hard\libg.a(lib_a-findfp.o)
                0x80010c9c                __fp_unlock_all
 .text          0x80010ccc        0x0 c:/ti/gcc-arm-none-eabi-6-2017-q1-update/bin/../lib/gcc/arm-none-eabi/6.3.1/../../../../arm-none-eabi/lib/hard\libg.a(lib_a-fputwc.o)
 .text.__fputwc
                0x80010ccc      0x110 c:/ti/gcc-arm-none-eabi-6-2017-q1-update/bin/../lib/gcc/arm-none-eabi/6.3.1/../../../../arm-none-eabi/lib/hard\libg.a(lib_a-fputwc.o)
                0x80010ccc                __fputwc
 .text._fputwc_r
                0x80010ddc       0xbc c:/ti/gcc-arm-none-eabi-6-2017-q1-update/bin/../lib/gcc/arm-none-eabi/6.3.1/../../../../arm-none-eabi/lib/hard\libg.a(lib_a-fputwc.o)
                0x80010ddc                _fputwc_r
 .text.fputwc   0x80010e98       0x44 c:/ti/gcc-arm-none-eabi-6-2017-q1-update/bin/../lib/gcc/arm-none-eabi/6.3.1/../../../../arm-none-eabi/lib/hard\libg.a(lib_a-fputwc.o)
                0x80010e98                fputwc
 .text          0x80010edc        0x0 c:/ti/gcc-arm-none-eabi-6-2017-q1-update/bin/../lib/gcc/arm-none-eabi/6.3.1/../../../../arm-none-eabi/lib/hard\libg.a(lib_a-freer.o)
 .text._malloc_trim_r
                0x80010edc      0x100 c:/ti/gcc-arm-none-eabi-6-2017-q1-update/bin/../lib/gcc/arm-none-eabi/6.3.1/../../../../arm-none-eabi/lib/hard\libg.a(lib_a-freer.o)
                0x80010edc                _malloc_trim_r
 .text._free_r  0x80010fdc      0x2e0 c:/ti/gcc-arm-none-eabi-6-2017-q1-update/bin/../lib/gcc/arm-none-eabi/6.3.1/../../../../arm-none-eabi/lib/hard\libg.a(lib_a-freer.o)
                0x80010fdc                _free_r
 .text          0x800112bc        0x0 c:/ti/gcc-arm-none-eabi-6-2017-q1-update/bin/../lib/gcc/arm-none-eabi/6.3.1/../../../../arm-none-eabi/lib/hard\libg.a(lib_a-fvwrite.o)
 .text.__sfvwrite_r
                0x800112bc      0x4dc c:/ti/gcc-arm-none-eabi-6-2017-q1-update/bin/../lib/gcc/arm-none-eabi/6.3.1/../../../../arm-none-eabi/lib/hard\libg.a(lib_a-fvwrite.o)
                0x800112bc                __sfvwrite_r
 .text          0x80011798        0x0 c:/ti/gcc-arm-none-eabi-6-2017-q1-update/bin/../lib/gcc/arm-none-eabi/6.3.1/../../../../arm-none-eabi/lib/hard\libg.a(lib_a-fwalk.o)
 .text._fwalk   0x80011798       0x84 c:/ti/gcc-arm-none-eabi-6-2017-q1-update/bin/../lib/gcc/arm-none-eabi/6.3.1/../../../../arm-none-eabi/lib/hard\libg.a(lib_a-fwalk.o)
                0x80011798                _fwalk
 .text._fwalk_reent
                0x8001181c       0x8c c:/ti/gcc-arm-none-eabi-6-2017-q1-update/bin/../lib/gcc/arm-none-eabi/6.3.1/../../../../arm-none-eabi/lib/hard\libg.a(lib_a-fwalk.o)
                0x8001181c                _fwalk_reent
 .text          0x800118a8        0x0 c:/ti/gcc-arm-none-eabi-6-2017-q1-update/bin/../lib/gcc/arm-none-eabi/6.3.1/../../../../arm-none-eabi/lib/hard\libg.a(lib_a-locale.o)
 .text._setlocale_r
                0x800118a8       0x68 c:/ti/gcc-arm-none-eabi-6-2017-q1-update/bin/../lib/gcc/arm-none-eabi/6.3.1/../../../../arm-none-eabi/lib/hard\libg.a(lib_a-locale.o)
                0x800118a8                _setlocale_r
 .text.__locale_mb_cur_max
                0x80011910       0x28 c:/ti/gcc-arm-none-eabi-6-2017-q1-update/bin/../lib/gcc/arm-none-eabi/6.3.1/../../../../arm-none-eabi/lib/hard\libg.a(lib_a-locale.o)
                0x80011910                __locale_mb_cur_max
 .text.__locale_ctype_ptr_l
                0x80011938        0x8 c:/ti/gcc-arm-none-eabi-6-2017-q1-update/bin/../lib/gcc/arm-none-eabi/6.3.1/../../../../arm-none-eabi/lib/hard\libg.a(lib_a-locale.o)
                0x80011938                __locale_ctype_ptr_l
 .text.__locale_ctype_ptr
                0x80011940       0x28 c:/ti/gcc-arm-none-eabi-6-2017-q1-update/bin/../lib/gcc/arm-none-eabi/6.3.1/../../../../arm-none-eabi/lib/hard\libg.a(lib_a-locale.o)
                0x80011940                __locale_ctype_ptr
 .text.setlocale
                0x80011968       0x18 c:/ti/gcc-arm-none-eabi-6-2017-q1-update/bin/../lib/gcc/arm-none-eabi/6.3.1/../../../../arm-none-eabi/lib/hard\libg.a(lib_a-locale.o)
                0x80011968                setlocale
 .text          0x80011980        0x0 c:/ti/gcc-arm-none-eabi-6-2017-q1-update/bin/../lib/gcc/arm-none-eabi/6.3.1/../../../../arm-none-eabi/lib/hard\libg.a(lib_a-makebuf.o)
 .text.__swhatbuf_r
                0x80011980       0xa0 c:/ti/gcc-arm-none-eabi-6-2017-q1-update/bin/../lib/gcc/arm-none-eabi/6.3.1/../../../../arm-none-eabi/lib/hard\libg.a(lib_a-makebuf.o)
                0x80011980                __swhatbuf_r
 .text.__smakebuf_r
                0x80011a20      0x100 c:/ti/gcc-arm-none-eabi-6-2017-q1-update/bin/../lib/gcc/arm-none-eabi/6.3.1/../../../../arm-none-eabi/lib/hard\libg.a(lib_a-makebuf.o)
                0x80011a20                __smakebuf_r
 .text          0x80011b20        0x0 c:/ti/gcc-arm-none-eabi-6-2017-q1-update/bin/../lib/gcc/arm-none-eabi/6.3.1/../../../../arm-none-eabi/lib/hard\libg.a(lib_a-mallocr.o)
 .text._malloc_r
                0x80011b20      0x78c c:/ti/gcc-arm-none-eabi-6-2017-q1-update/bin/../lib/gcc/arm-none-eabi/6.3.1/../../../../arm-none-eabi/lib/hard\libg.a(lib_a-mallocr.o)
                0x80011b20                _malloc_r
 .text          0x800122ac        0x0 c:/ti/gcc-arm-none-eabi-6-2017-q1-update/bin/../lib/gcc/arm-none-eabi/6.3.1/../../../../arm-none-eabi/lib/hard\libg.a(lib_a-mbtowc_r.o)
 .text._mbtowc_r
                0x800122ac       0x34 c:/ti/gcc-arm-none-eabi-6-2017-q1-update/bin/../lib/gcc/arm-none-eabi/6.3.1/../../../../arm-none-eabi/lib/hard\libg.a(lib_a-mbtowc_r.o)
                0x800122ac                _mbtowc_r
 .text.__ascii_mbtowc
                0x800122e0       0x4c c:/ti/gcc-arm-none-eabi-6-2017-q1-update/bin/../lib/gcc/arm-none-eabi/6.3.1/../../../../arm-none-eabi/lib/hard\libg.a(lib_a-mbtowc_r.o)
                0x800122e0                __ascii_mbtowc
 .text          0x8001232c        0x0 c:/ti/gcc-arm-none-eabi-6-2017-q1-update/bin/../lib/gcc/arm-none-eabi/6.3.1/../../../../arm-none-eabi/lib/hard\libg.a(lib_a-memchr-stub.o)
 .text.memchr   0x8001232c      0x110 c:/ti/gcc-arm-none-eabi-6-2017-q1-update/bin/../lib/gcc/arm-none-eabi/6.3.1/../../../../arm-none-eabi/lib/hard\libg.a(lib_a-memchr-stub.o)
                0x8001232c                memchr
 .text          0x8001243c        0x0 c:/ti/gcc-arm-none-eabi-6-2017-q1-update/bin/../lib/gcc/arm-none-eabi/6.3.1/../../../../arm-none-eabi/lib/hard\libg.a(lib_a-memmove.o)
 .text.memmove  0x8001243c      0x148 c:/ti/gcc-arm-none-eabi-6-2017-q1-update/bin/../lib/gcc/arm-none-eabi/6.3.1/../../../../arm-none-eabi/lib/hard\libg.a(lib_a-memmove.o)
                0x8001243c                memmove
 .text          0x80012584        0x0 c:/ti/gcc-arm-none-eabi-6-2017-q1-update/bin/../lib/gcc/arm-none-eabi/6.3.1/../../../../arm-none-eabi/lib/hard\libg.a(lib_a-mlock.o)
 .text.__malloc_lock
                0x80012584       0x18 c:/ti/gcc-arm-none-eabi-6-2017-q1-update/bin/../lib/gcc/arm-none-eabi/6.3.1/../../../../arm-none-eabi/lib/hard\libg.a(lib_a-mlock.o)
                0x80012584                __malloc_lock
 .text.__malloc_unlock
                0x8001259c       0x18 c:/ti/gcc-arm-none-eabi-6-2017-q1-update/bin/../lib/gcc/arm-none-eabi/6.3.1/../../../../arm-none-eabi/lib/hard\libg.a(lib_a-mlock.o)
                0x8001259c                __malloc_unlock
 .text          0x800125b4        0x0 c:/ti/gcc-arm-none-eabi-6-2017-q1-update/bin/../lib/gcc/arm-none-eabi/6.3.1/../../../../arm-none-eabi/lib/hard\libg.a(lib_a-reallocr.o)
 .text._realloc_r
                0x800125b4      0x4d4 c:/ti/gcc-arm-none-eabi-6-2017-q1-update/bin/../lib/gcc/arm-none-eabi/6.3.1/../../../../arm-none-eabi/lib/hard\libg.a(lib_a-reallocr.o)
                0x800125b4                _realloc_r
 .text          0x80012a88        0x0 c:/ti/gcc-arm-none-eabi-6-2017-q1-update/bin/../lib/gcc/arm-none-eabi/6.3.1/../../../../arm-none-eabi/lib/hard\libg.a(lib_a-sbrkr.o)
 .text._sbrk_r  0x80012a88       0x44 c:/ti/gcc-arm-none-eabi-6-2017-q1-update/bin/../lib/gcc/arm-none-eabi/6.3.1/../../../../arm-none-eabi/lib/hard\libg.a(lib_a-sbrkr.o)
                0x80012a88                _sbrk_r
 .text          0x80012acc        0x0 c:/ti/gcc-arm-none-eabi-6-2017-q1-update/bin/../lib/gcc/arm-none-eabi/6.3.1/../../../../arm-none-eabi/lib/hard\libg.a(lib_a-signal.o)
 .text._init_signal_r.part.0
                0x80012acc       0x48 c:/ti/gcc-arm-none-eabi-6-2017-q1-update/bin/../lib/gcc/arm-none-eabi/6.3.1/../../../../arm-none-eabi/lib/hard\libg.a(lib_a-signal.o)
 .text._init_signal_r
                0x80012b14       0x18 c:/ti/gcc-arm-none-eabi-6-2017-q1-update/bin/../lib/gcc/arm-none-eabi/6.3.1/../../../../arm-none-eabi/lib/hard\libg.a(lib_a-signal.o)
                0x80012b14                _init_signal_r
 .text._signal_r
                0x80012b2c       0x6c c:/ti/gcc-arm-none-eabi-6-2017-q1-update/bin/../lib/gcc/arm-none-eabi/6.3.1/../../../../arm-none-eabi/lib/hard\libg.a(lib_a-signal.o)
                0x80012b2c                _signal_r
 .text._raise_r
                0x80012b98       0xa4 c:/ti/gcc-arm-none-eabi-6-2017-q1-update/bin/../lib/gcc/arm-none-eabi/6.3.1/../../../../arm-none-eabi/lib/hard\libg.a(lib_a-signal.o)
                0x80012b98                _raise_r
 .text.__sigtramp_r
                0x80012c3c       0x9c c:/ti/gcc-arm-none-eabi-6-2017-q1-update/bin/../lib/gcc/arm-none-eabi/6.3.1/../../../../arm-none-eabi/lib/hard\libg.a(lib_a-signal.o)
                0x80012c3c                __sigtramp_r
 .text.raise    0x80012cd8       0x14 c:/ti/gcc-arm-none-eabi-6-2017-q1-update/bin/../lib/gcc/arm-none-eabi/6.3.1/../../../../arm-none-eabi/lib/hard\libg.a(lib_a-signal.o)
                0x80012cd8                raise
 .text.signal   0x80012cec       0x18 c:/ti/gcc-arm-none-eabi-6-2017-q1-update/bin/../lib/gcc/arm-none-eabi/6.3.1/../../../../arm-none-eabi/lib/hard\libg.a(lib_a-signal.o)
                0x80012cec                signal
 .text._init_signal
                0x80012d04       0x24 c:/ti/gcc-arm-none-eabi-6-2017-q1-update/bin/../lib/gcc/arm-none-eabi/6.3.1/../../../../arm-none-eabi/lib/hard\libg.a(lib_a-signal.o)
                0x80012d04                _init_signal
 .text.__sigtramp
                0x80012d28       0x14 c:/ti/gcc-arm-none-eabi-6-2017-q1-update/bin/../lib/gcc/arm-none-eabi/6.3.1/../../../../arm-none-eabi/lib/hard\libg.a(lib_a-signal.o)
                0x80012d28                __sigtramp
 .text          0x80012d3c        0x0 c:/ti/gcc-arm-none-eabi-6-2017-q1-update/bin/../lib/gcc/arm-none-eabi/6.3.1/../../../../arm-none-eabi/lib/hard\libg.a(lib_a-signalr.o)
 .text._kill_r  0x80012d3c       0x44 c:/ti/gcc-arm-none-eabi-6-2017-q1-update/bin/../lib/gcc/arm-none-eabi/6.3.1/../../../../arm-none-eabi/lib/hard\libg.a(lib_a-signalr.o)
                0x80012d3c                _kill_r
 .text._getpid_r
                0x80012d80       0x10 c:/ti/gcc-arm-none-eabi-6-2017-q1-update/bin/../lib/gcc/arm-none-eabi/6.3.1/../../../../arm-none-eabi/lib/hard\libg.a(lib_a-signalr.o)
                0x80012d80                _getpid_r
 .text          0x80012d90        0x0 c:/ti/gcc-arm-none-eabi-6-2017-q1-update/bin/../lib/gcc/arm-none-eabi/6.3.1/../../../../arm-none-eabi/lib/hard\libg.a(lib_a-stdio.o)
 .text.__sread  0x80012d90       0x34 c:/ti/gcc-arm-none-eabi-6-2017-q1-update/bin/../lib/gcc/arm-none-eabi/6.3.1/../../../../arm-none-eabi/lib/hard\libg.a(lib_a-stdio.o)
                0x80012d90                __sread
 .text.__seofread
                0x80012dc4        0x8 c:/ti/gcc-arm-none-eabi-6-2017-q1-update/bin/../lib/gcc/arm-none-eabi/6.3.1/../../../../arm-none-eabi/lib/hard\libg.a(lib_a-stdio.o)
                0x80012dc4                __seofread
 .text.__swrite
                0x80012dcc       0x58 c:/ti/gcc-arm-none-eabi-6-2017-q1-update/bin/../lib/gcc/arm-none-eabi/6.3.1/../../../../arm-none-eabi/lib/hard\libg.a(lib_a-stdio.o)
                0x80012dcc                __swrite
 .text.__sseek  0x80012e24       0x30 c:/ti/gcc-arm-none-eabi-6-2017-q1-update/bin/../lib/gcc/arm-none-eabi/6.3.1/../../../../arm-none-eabi/lib/hard\libg.a(lib_a-stdio.o)
                0x80012e24                __sseek
 .text.__sclose
                0x80012e54       0x14 c:/ti/gcc-arm-none-eabi-6-2017-q1-update/bin/../lib/gcc/arm-none-eabi/6.3.1/../../../../arm-none-eabi/lib/hard\libg.a(lib_a-stdio.o)
                0x80012e54                __sclose
 .text          0x80012e68      0x224 c:/ti/gcc-arm-none-eabi-6-2017-q1-update/bin/../lib/gcc/arm-none-eabi/6.3.1/../../../../arm-none-eabi/lib/hard\libg.a(lib_a-strcmp.o)
                0x80012e68                strcmp
 .text          0x8001308c        0x0 c:/ti/gcc-arm-none-eabi-6-2017-q1-update/bin/../lib/gcc/arm-none-eabi/6.3.1/../../../../arm-none-eabi/lib/hard\libg.a(lib_a-strlen-stub.o)
 .text.strlen   0x8001308c       0x60 c:/ti/gcc-arm-none-eabi-6-2017-q1-update/bin/../lib/gcc/arm-none-eabi/6.3.1/../../../../arm-none-eabi/lib/hard\libg.a(lib_a-strlen-stub.o)
                0x8001308c                strlen
 .text          0x800130ec        0x0 c:/ti/gcc-arm-none-eabi-6-2017-q1-update/bin/../lib/gcc/arm-none-eabi/6.3.1/../../../../arm-none-eabi/lib/hard\libg.a(lib_a-wbuf.o)
 .text.__swbuf_r
                0x800130ec      0x134 c:/ti/gcc-arm-none-eabi-6-2017-q1-update/bin/../lib/gcc/arm-none-eabi/6.3.1/../../../../arm-none-eabi/lib/hard\libg.a(lib_a-wbuf.o)
                0x800130ec                __swbuf_r
 .text.__swbuf  0x80013220       0x18 c:/ti/gcc-arm-none-eabi-6-2017-q1-update/bin/../lib/gcc/arm-none-eabi/6.3.1/../../../../arm-none-eabi/lib/hard\libg.a(lib_a-wbuf.o)
                0x80013220                __swbuf
 .text          0x80013238        0x0 c:/ti/gcc-arm-none-eabi-6-2017-q1-update/bin/../lib/gcc/arm-none-eabi/6.3.1/../../../../arm-none-eabi/lib/hard\libg.a(lib_a-wcrtomb.o)
 .text._wcrtomb_r
                0x80013238       0x94 c:/ti/gcc-arm-none-eabi-6-2017-q1-update/bin/../lib/gcc/arm-none-eabi/6.3.1/../../../../arm-none-eabi/lib/hard\libg.a(lib_a-wcrtomb.o)
                0x80013238                _wcrtomb_r
 .text.wcrtomb  0x800132cc       0x98 c:/ti/gcc-arm-none-eabi-6-2017-q1-update/bin/../lib/gcc/arm-none-eabi/6.3.1/../../../../arm-none-eabi/lib/hard\libg.a(lib_a-wcrtomb.o)
                0x800132cc                wcrtomb
 .text          0x80013364        0x0 c:/ti/gcc-arm-none-eabi-6-2017-q1-update/bin/../lib/gcc/arm-none-eabi/6.3.1/../../../../arm-none-eabi/lib/hard\libg.a(lib_a-wctomb_r.o)
 .text._wctomb_r
                0x80013364       0x34 c:/ti/gcc-arm-none-eabi-6-2017-q1-update/bin/../lib/gcc/arm-none-eabi/6.3.1/../../../../arm-none-eabi/lib/hard\libg.a(lib_a-wctomb_r.o)
                0x80013364                _wctomb_r
 .text.__ascii_wctomb
                0x80013398       0x28 c:/ti/gcc-arm-none-eabi-6-2017-q1-update/bin/../lib/gcc/arm-none-eabi/6.3.1/../../../../arm-none-eabi/lib/hard\libg.a(lib_a-wctomb_r.o)
                0x80013398                __ascii_wctomb
 .text          0x800133c0        0x0 c:/ti/gcc-arm-none-eabi-6-2017-q1-update/bin/../lib/gcc/arm-none-eabi/6.3.1/../../../../arm-none-eabi/lib/hard\libg.a(lib_a-writer.o)
 .text._write_r
                0x800133c0       0x48 c:/ti/gcc-arm-none-eabi-6-2017-q1-update/bin/../lib/gcc/arm-none-eabi/6.3.1/../../../../arm-none-eabi/lib/hard\libg.a(lib_a-writer.o)
                0x800133c0                _write_r
 .text          0x80013408        0x0 c:/ti/gcc-arm-none-eabi-6-2017-q1-update/bin/../lib/gcc/arm-none-eabi/6.3.1/../../../../arm-none-eabi/lib/hard\libg.a(lib_a-closer.o)
 .text._close_r
                0x80013408       0x3c c:/ti/gcc-arm-none-eabi-6-2017-q1-update/bin/../lib/gcc/arm-none-eabi/6.3.1/../../../../arm-none-eabi/lib/hard\libg.a(lib_a-closer.o)
                0x80013408                _close_r
 .text          0x80013444        0x0 c:/ti/gcc-arm-none-eabi-6-2017-q1-update/bin/../lib/gcc/arm-none-eabi/6.3.1/../../../../arm-none-eabi/lib/hard\libg.a(lib_a-ctype_.o)
 .text          0x80013444        0x0 c:/ti/gcc-arm-none-eabi-6-2017-q1-update/bin/../lib/gcc/arm-none-eabi/6.3.1/../../../../arm-none-eabi/lib/hard\libg.a(lib_a-fclose.o)
 .text._fclose_r
                0x80013444      0x160 c:/ti/gcc-arm-none-eabi-6-2017-q1-update/bin/../lib/gcc/arm-none-eabi/6.3.1/../../../../arm-none-eabi/lib/hard\libg.a(lib_a-fclose.o)
                0x80013444                _fclose_r
 .text.fclose   0x800135a4       0x14 c:/ti/gcc-arm-none-eabi-6-2017-q1-update/bin/../lib/gcc/arm-none-eabi/6.3.1/../../../../arm-none-eabi/lib/hard\libg.a(lib_a-fclose.o)
                0x800135a4                fclose
 .text          0x800135b8        0x0 c:/ti/gcc-arm-none-eabi-6-2017-q1-update/bin/../lib/gcc/arm-none-eabi/6.3.1/../../../../arm-none-eabi/lib/hard\libg.a(lib_a-fstatr.o)
 .text._fstat_r
                0x800135b8       0x44 c:/ti/gcc-arm-none-eabi-6-2017-q1-update/bin/../lib/gcc/arm-none-eabi/6.3.1/../../../../arm-none-eabi/lib/hard\libg.a(lib_a-fstatr.o)
                0x800135b8                _fstat_r
 .text          0x800135fc        0x0 c:/ti/gcc-arm-none-eabi-6-2017-q1-update/bin/../lib/gcc/arm-none-eabi/6.3.1/../../../../arm-none-eabi/lib/hard\libg.a(lib_a-isattyr.o)
 .text._isatty_r
                0x800135fc       0x3c c:/ti/gcc-arm-none-eabi-6-2017-q1-update/bin/../lib/gcc/arm-none-eabi/6.3.1/../../../../arm-none-eabi/lib/hard\libg.a(lib_a-isattyr.o)
                0x800135fc                _isatty_r
 .text          0x80013638        0x0 c:/ti/gcc-arm-none-eabi-6-2017-q1-update/bin/../lib/gcc/arm-none-eabi/6.3.1/../../../../arm-none-eabi/lib/hard\libg.a(lib_a-lseekr.o)
 .text._lseek_r
                0x80013638       0x48 c:/ti/gcc-arm-none-eabi-6-2017-q1-update/bin/../lib/gcc/arm-none-eabi/6.3.1/../../../../arm-none-eabi/lib/hard\libg.a(lib_a-lseekr.o)
                0x80013638                _lseek_r
 .text          0x80013680        0x0 c:/ti/gcc-arm-none-eabi-6-2017-q1-update/bin/../lib/gcc/arm-none-eabi/6.3.1/../../../../arm-none-eabi/lib/hard\libg.a(lib_a-readr.o)
 .text._read_r  0x80013680       0x48 c:/ti/gcc-arm-none-eabi-6-2017-q1-update/bin/../lib/gcc/arm-none-eabi/6.3.1/../../../../arm-none-eabi/lib/hard\libg.a(lib_a-readr.o)
                0x80013680                _read_r
 .text          0x800136c8        0x0 c:/ti/gcc-arm-none-eabi-6-2017-q1-update/bin/../lib/gcc/arm-none-eabi/6.3.1/../../../../arm-none-eabi/lib/hard\libg.a(lib_a-reent.o)
 .text.cleanup_glue
                0x800136c8       0x2c c:/ti/gcc-arm-none-eabi-6-2017-q1-update/bin/../lib/gcc/arm-none-eabi/6.3.1/../../../../arm-none-eabi/lib/hard\libg.a(lib_a-reent.o)
                0x800136c8                cleanup_glue
 .text._reclaim_reent
                0x800136f4       0xf4 c:/ti/gcc-arm-none-eabi-6-2017-q1-update/bin/../lib/gcc/arm-none-eabi/6.3.1/../../../../arm-none-eabi/lib/hard\libg.a(lib_a-reent.o)
                0x800136f4                _reclaim_reent
 .text          0x800137e8      0x148 c:/ti/gcc-arm-none-eabi-6-2017-q1-update/bin/../lib/gcc/arm-none-eabi/6.3.1/hard\libgcc.a(_divsi3.o)
                0x800137e8                __divsi3
                0x800137e8                __aeabi_idiv
                0x80013910                __aeabi_idivmod
 .text          0x80013930        0x0 c:/ti/gcc-arm-none-eabi-6-2017-q1-update/bin/../lib/gcc/arm-none-eabi/6.3.1/../../../../arm-none-eabi/lib/hard\libnosys.a(close.o)
 .text._close   0x80013930       0x18 c:/ti/gcc-arm-none-eabi-6-2017-q1-update/bin/../lib/gcc/arm-none-eabi/6.3.1/../../../../arm-none-eabi/lib/hard\libnosys.a(close.o)
                0x80013930                _close
 .text          0x80013948        0x0 c:/ti/gcc-arm-none-eabi-6-2017-q1-update/bin/../lib/gcc/arm-none-eabi/6.3.1/../../../../arm-none-eabi/lib/hard\libnosys.a(fstat.o)
 .text._fstat   0x80013948       0x18 c:/ti/gcc-arm-none-eabi-6-2017-q1-update/bin/../lib/gcc/arm-none-eabi/6.3.1/../../../../arm-none-eabi/lib/hard\libnosys.a(fstat.o)
                0x80013948                _fstat
 .text          0x80013960        0x0 c:/ti/gcc-arm-none-eabi-6-2017-q1-update/bin/../lib/gcc/arm-none-eabi/6.3.1/../../../../arm-none-eabi/lib/hard\libnosys.a(getpid.o)
 .text._getpid  0x80013960       0x18 c:/ti/gcc-arm-none-eabi-6-2017-q1-update/bin/../lib/gcc/arm-none-eabi/6.3.1/../../../../arm-none-eabi/lib/hard\libnosys.a(getpid.o)
                0x80013960                _getpid
 .text          0x80013978        0x0 c:/ti/gcc-arm-none-eabi-6-2017-q1-update/bin/../lib/gcc/arm-none-eabi/6.3.1/../../../../arm-none-eabi/lib/hard\libnosys.a(isatty.o)
 .text._isatty  0x80013978       0x18 c:/ti/gcc-arm-none-eabi-6-2017-q1-update/bin/../lib/gcc/arm-none-eabi/6.3.1/../../../../arm-none-eabi/lib/hard\libnosys.a(isatty.o)
                0x80013978                _isatty
 .text          0x80013990        0x0 c:/ti/gcc-arm-none-eabi-6-2017-q1-update/bin/../lib/gcc/arm-none-eabi/6.3.1/../../../../arm-none-eabi/lib/hard\libnosys.a(kill.o)
 .text._kill    0x80013990       0x18 c:/ti/gcc-arm-none-eabi-6-2017-q1-update/bin/../lib/gcc/arm-none-eabi/6.3.1/../../../../arm-none-eabi/lib/hard\libnosys.a(kill.o)
                0x80013990                _kill
 .text          0x800139a8        0x0 c:/ti/gcc-arm-none-eabi-6-2017-q1-update/bin/../lib/gcc/arm-none-eabi/6.3.1/../../../../arm-none-eabi/lib/hard\libnosys.a(lseek.o)
 .text._lseek   0x800139a8       0x18 c:/ti/gcc-arm-none-eabi-6-2017-q1-update/bin/../lib/gcc/arm-none-eabi/6.3.1/../../../../arm-none-eabi/lib/hard\libnosys.a(lseek.o)
                0x800139a8                _lseek
 .text          0x800139c0        0x0 c:/ti/gcc-arm-none-eabi-6-2017-q1-update/bin/../lib/gcc/arm-none-eabi/6.3.1/../../../../arm-none-eabi/lib/hard\libnosys.a(read.o)
 .text._read    0x800139c0       0x18 c:/ti/gcc-arm-none-eabi-6-2017-q1-update/bin/../lib/gcc/arm-none-eabi/6.3.1/../../../../arm-none-eabi/lib/hard\libnosys.a(read.o)
                0x800139c0                _read
 .text          0x800139d8        0x0 c:/ti/gcc-arm-none-eabi-6-2017-q1-update/bin/../lib/gcc/arm-none-eabi/6.3.1/../../../../arm-none-eabi/lib/hard\libnosys.a(sbrk.o)
 .text._sbrk    0x800139d8       0x2c c:/ti/gcc-arm-none-eabi-6-2017-q1-update/bin/../lib/gcc/arm-none-eabi/6.3.1/../../../../arm-none-eabi/lib/hard\libnosys.a(sbrk.o)
                0x800139d8                _sbrk
 .text          0x80013a04        0x0 c:/ti/gcc-arm-none-eabi-6-2017-q1-update/bin/../lib/gcc/arm-none-eabi/6.3.1/../../../../arm-none-eabi/lib/hard\libnosys.a(write.o)
 .text._write   0x80013a04       0x18 c:/ti/gcc-arm-none-eabi-6-2017-q1-update/bin/../lib/gcc/arm-none-eabi/6.3.1/../../../../arm-none-eabi/lib/hard\libnosys.a(write.o)
                0x80013a04                _write
 .text          0x80013a1c        0x0 c:/ti/gcc-arm-none-eabi-6-2017-q1-update/bin/../lib/gcc/arm-none-eabi/6.3.1/../../../../arm-none-eabi/lib/hard\libnosys.a(_exit.o)
 .text._exit    0x80013a1c        0x4 c:/ti/gcc-arm-none-eabi-6-2017-q1-update/bin/../lib/gcc/arm-none-eabi/6.3.1/../../../../arm-none-eabi/lib/hard\libnosys.a(_exit.o)
                0x80013a1c                _exit
 .text          0x80013a20        0x0 c:/ti/gcc-arm-none-eabi-6-2017-q1-update/bin/../lib/gcc/arm-none-eabi/6.3.1/hard/crtend.o
 .text          0x80013a20        0x0 c:/ti/gcc-arm-none-eabi-6-2017-q1-update/bin/../lib/gcc/arm-none-eabi/6.3.1/hard/crtn.o
 *(.init)
 .init          0x80013a20        0xc c:/ti/gcc-arm-none-eabi-6-2017-q1-update/bin/../lib/gcc/arm-none-eabi/6.3.1/hard/crti.o
                0x80013a20                _init
 .init          0x80013a2c        0xc c:/ti/gcc-arm-none-eabi-6-2017-q1-update/bin/../lib/gcc/arm-none-eabi/6.3.1/hard/crtn.o
 *(.fini)
 .fini          0x80013a38        0xc c:/ti/gcc-arm-none-eabi-6-2017-q1-update/bin/../lib/gcc/arm-none-eabi/6.3.1/hard/crti.o
                0x80013a38                _fini
 .fini          0x80013a44        0xc c:/ti/gcc-arm-none-eabi-6-2017-q1-update/bin/../lib/gcc/arm-none-eabi/6.3.1/hard/crtn.o
 *crtbegin.o(.ctors)
 *crtbegin?.o(.ctors)
 *(EXCLUDE_FILE(*crtend.o *crtend?.o) .ctors)
 *(SORT(.ctors.*))
 *(.ctors)
 *crtbegin.o(.dtors)
 *crtbegin?.o(.dtors)
 *(EXCLUDE_FILE(*crtend.o *crtend?.o) .dtors)
 *(SORT(.dtors.*))
 *(.dtors)
 *(.rodata*)
 .rodata        0x80013a50       0xe4 ./qspi_app.o
 .rodata        0x80013b34      0x200 ./flash_writer/crc16.o
 .rodata        0x80013d34   0x5bd6a0 ./flash_writer/flash_writer_app_main.o
 .rodata._global_impure_ptr
                0x805d13d4        0x4 c:/ti/gcc-arm-none-eabi-6-2017-q1-update/bin/../lib/gcc/arm-none-eabi/6.3.1/../../../../arm-none-eabi/lib/hard\libc.a(lib_a-impure.o)
                0x805d13d4                _global_impure_ptr
 .rodata.BOARDGetDeviceCtrlModId.str1.4
                0x805d13d8       0x15 ../libboard.a(board.o)
 *fill*         0x805d13ed        0x3 
 .rodata.BOARDINITPARAMS_DEFAULT
                0x805d13f0        0xc ../libboard.a(board.o)
                0x805d13f0                BOARDINITPARAMS_DEFAULT
 .rodata.BOARDPowerOnDevice.str1.4
                0x805d13fc       0x4f ../libboard.a(board.o)
 *fill*         0x805d144b        0x1 
 .rodata.BOARDPrintInfo.str1.4
                0x805d144c       0x60 ../libboard.a(board.o)
 .rodata.BOARDResetDevice.str1.4
                0x805d14ac       0x17 ../libboard.a(board.o)
 *fill*         0x805d14c3        0x1 
 .rodata.BOARDSelectDevice.str1.4
                0x805d14c4       0x18 ../libboard.a(board.o)
 .rodata.gBoardIdStrTable
                0x805d14dc       0x58 ../libboard.a(board.o)
 .rodata.str1.4
                0x805d1534       0x6b ../libboard.a(board.o)
 .rodata.DCARDGetDeviceCtrlModId.str1.4
                0x805d159f       0x15 ../libboard.a(dcard.o)
 .rodata.PLATFORMGetString.str1.4
                0x805d159f       0x6b ../libboard.a(platform.o)
                                  0x4 (size before relaxing)
 *fill*         0x805d159f        0x1 
 .rodata.PLATFORMPrintInfo.str1.4
                0x805d15a0       0x20 ../libboard.a(platform.o)
 .rodata.BoardGetIdAm43xx.str1.4
                0x805d15c0       0x39 ../libboard.a(board_am43xx.o)
 *fill*         0x805d15f9        0x3 
 .rodata.gpBoardAm43xxData
                0x805d15fc       0x44 ../libboard.a(board_am43xx.o)
 .rodata.BoardAm43xxGpevmLcdDeviceSelect.str1.4
                0x805d1640       0x40 ../libboard.a(am43xx_gpevm.o)
 .rodata.gBoardAm43xxGpevmData
                0x805d1680       0x20 ../libboard.a(am43xx_gpevm.o)
                0x805d1680                gBoardAm43xxGpevmData
 .rodata.gBoardAm43xxGpevmDevData
                0x805d16a0      0x2a8 ../libboard.a(am43xx_gpevm.o)
                0x805d16a0                gBoardAm43xxGpevmDevData
 .rodata.str1.4
                0x805d1948       0x18 ../libboard.a(am43xx_gpevm.o)
                                 0x20 (size before relaxing)
 .rodata.gBoardAm43xxEvmskData
                0x805d1960       0x20 ../libboard.a(am43xx_evmsk.o)
                0x805d1960                gBoardAm43xxEvmskData
 .rodata.gBoardAm43xxEvmskDevData
                0x805d1980      0x168 ../libboard.a(am43xx_evmsk.o)
                0x805d1980                gBoardAm43xxEvmskDevData
 .rodata.str1.4
                0x805d1ae8        0x7 ../libboard.a(am43xx_evmsk.o)
                                  0xf (size before relaxing)
 *fill*         0x805d1aef        0x1 
 .rodata.gBoardAm43xxIdkevmData
                0x805d1af0       0x20 ../libboard.a(am43xx_idkevm.o)
                0x805d1af0                gBoardAm43xxIdkevmData
 .rodata.gBoardAm43xxIdkevmDevData
                0x805d1b10      0x2a8 ../libboard.a(am43xx_idkevm.o)
                0x805d1b10                gBoardAm43xxIdkevmDevData
 .rodata.str1.4
                0x805d1db8        0xd ../libboard.a(am43xx_idkevm.o)
 .rodata.gBoardAm43xxEposevmData
                0x805d1db8       0x20 ../libboard.a(am43xx_eposevm.o)
                0x805d1db8                gBoardAm43xxEposevmData
 .rodata.gBoardAm43xxEposevmDevData
                0x805d1dd8       0x50 ../libboard.a(am43xx_eposevm.o)
                0x805d1dd8                gBoardAm43xxEposevmDevData
 .rodata.str1.4
                0x805d1e28        0x5 ../libboard.a(am43xx_eposevm.o)
                                 0x15 (size before relaxing)
 *fill*         0x805d1e2d        0x3 
 .rodata.gBoardAm43xxCustomData
                0x805d1e30       0x20 ../libboard.a(am43xx_custom.o)
                0x805d1e30                gBoardAm43xxCustomData
 .rodata.str1.4
                0x805d1e50        0x5 ../libboard.a(am43xx_custom.o)
                                  0x1 (size before relaxing)
 .rodata        0x805d1e50       0x38 ../libqspi_lib.a(qspi_lib.o)
 .rodata.SOCGetCoreName.str1.4
                0x805d1e88        0x3 ../libsoc.a(soc.o)
 *fill*         0x805d1e8b        0x1 
 .rodata.SOCGetSocFamilyName.str1.4
                0x805d1e8c        0x7 ../libsoc.a(soc.o)
 *fill*         0x805d1e93        0x1 
 .rodata.SOCPrintInfo.str1.4
                0x805d1e94       0x40 ../libsoc.a(soc.o)
 .rodata.vecTbl
                0x805d1ed4       0x38 ../libsoc.a(startup.o)
 .rodata.gChipDBResourceIDMap
                0x805d1f0c      0x23c ../libsoc.a(hw_am43xx_chipdb.o)
                0x805d1f0c                gChipDBResourceIDMap
 .rodata.gChipDBResourceTable
                0x805d2148       0x78 ../libsoc.a(hw_am43xx_chipdb.o)
                0x805d2148                gChipDBResourceTable
 .rodata.gChipDBSpeedGrade
                0x805d21c0        0x4 ../libsoc.a(hw_am43xx_chipdb.o)
                0x805d21c0                gChipDBSpeedGrade
 .rodata.gChipDBBaseAddrTable
                0x805d21c4      0x290 ../libsoc.a(hw_am43xx_chipdb_baseaddr.o)
                0x805d21c4                gChipDBBaseAddrTable
 .rodata.gChipDBDMTIMER0InterruptMap
                0x805d2454        0x2 ../libsoc.a(hw_am43xx_chipdb_interrupt.o)
 *fill*         0x805d2456        0x2 
 .rodata.gChipDBDMTIMER10InterruptMap
                0x805d2458        0x2 ../libsoc.a(hw_am43xx_chipdb_interrupt.o)
 *fill*         0x805d245a        0x2 
 .rodata.gChipDBDMTIMER11InterruptMap
                0x805d245c        0x2 ../libsoc.a(hw_am43xx_chipdb_interrupt.o)
 *fill*         0x805d245e        0x2 
 .rodata.gChipDBDMTIMER2InterruptMap
                0x805d2460        0x2 ../libsoc.a(hw_am43xx_chipdb_interrupt.o)
 *fill*         0x805d2462        0x2 
 .rodata.gChipDBDMTIMER3InterruptMap
                0x805d2464        0x2 ../libsoc.a(hw_am43xx_chipdb_interrupt.o)
 *fill*         0x805d2466        0x2 
 .rodata.gChipDBDMTIMER4InterruptMap
                0x805d2468        0x2 ../libsoc.a(hw_am43xx_chipdb_interrupt.o)
 *fill*         0x805d246a        0x2 
 .rodata.gChipDBDMTIMER5InterruptMap
                0x805d246c        0x2 ../libsoc.a(hw_am43xx_chipdb_interrupt.o)
 *fill*         0x805d246e        0x2 
 .rodata.gChipDBDMTIMER6InterruptMap
                0x805d2470        0x2 ../libsoc.a(hw_am43xx_chipdb_interrupt.o)
 *fill*         0x805d2472        0x2 
 .rodata.gChipDBDMTIMER7InterruptMap
                0x805d2474        0x2 ../libsoc.a(hw_am43xx_chipdb_interrupt.o)
 *fill*         0x805d2476        0x2 
 .rodata.gChipDBDMTIMER8InterruptMap
                0x805d2478        0x2 ../libsoc.a(hw_am43xx_chipdb_interrupt.o)
 *fill*         0x805d247a        0x2 
 .rodata.gChipDBDMTIMER9InterruptMap
                0x805d247c        0x2 ../libsoc.a(hw_am43xx_chipdb_interrupt.o)
 *fill*         0x805d247e        0x2 
 .rodata.gChipDBUSB0InterruptMap
                0x805d2480        0xe ../libsoc.a(hw_am43xx_chipdb_interrupt.o)
 *fill*         0x805d248e        0x2 
 .rodata.gChipDBUSB1InterruptMap
                0x805d2490        0xe ../libsoc.a(hw_am43xx_chipdb_interrupt.o)
 *fill*         0x805d249e        0x2 
 .rodata.gChipDBUSB2InterruptMap
                0x805d24a0        0xe ../libsoc.a(hw_am43xx_chipdb_interrupt.o)
 *fill*         0x805d24ae        0x2 
 .rodata.gMmuAccessCtrl
                0x805d24b0       0x1c ../libsoc.a(mmu_arm.o)
 .rodata.gMmuMemAttr
                0x805d24cc       0x14 ../libsoc.a(mmu_arm.o)
 .rodata.IntDefaultHandler.str1.4
                0x805d24e0       0x3d ../libsoc.a(gic.o)
 *fill*         0x805d251d        0x3 
 .rodata.CONSOLEUtilsGetc.str1.4
                0x805d2520       0x2c ../libutils.a(console_utils.o)
 .rodata.CONSOLEUtilsSetType.str1.4
                0x805d254c       0x23 ../libutils.a(console_utils.o)
 *fill*         0x805d256f        0x1 
 .rodata.__func__.5753
                0x805d2570       0x14 ../libutils.a(agraph.o)
 .rodata.ag_get_predecessors.str1.4
                0x805d2584       0x29 ../libutils.a(agraph.o)
 *fill*         0x805d25ad        0x3 
 .rodata.I2CUTILSINITPARAMS_DEFAULT
                0x805d25b0       0x10 ../libutils.a(i2c_utils.o)
                0x805d25b0                I2CUTILSINITPARAMS_DEFAULT
 .rodata.CONSOLEUtilsUartPrintFmt.str1.4
                0x805d25c0       0x19 ../libutils.a(console_utils_uart.o)
 *fill*         0x805d25d9        0x3 
 .rodata.UART_CONSOLE_DEFAULT
                0x805d25dc       0x18 ../libutils.a(console_utils_uart.o)
 .rodata.__assert_func.str1.4
                0x805d25f4       0x3f c:/ti/gcc-arm-none-eabi-6-2017-q1-update/bin/../lib/gcc/arm-none-eabi/6.3.1/../../../../arm-none-eabi/lib/hard\libg.a(lib_a-assert.o)
                                 0x43 (size before relaxing)
 *fill*         0x805d2633        0x1 
 .rodata._vfiprintf_r.str1.4
                0x805d2634       0x1b c:/ti/gcc-arm-none-eabi-6-2017-q1-update/bin/../lib/gcc/arm-none-eabi/6.3.1/../../../../arm-none-eabi/lib/hard\libg.a(lib_a-vfiprintf.o)
                                 0x2f (size before relaxing)
 *fill*         0x805d264f        0x1 
 .rodata.blanks.8345
                0x805d2650       0x10 c:/ti/gcc-arm-none-eabi-6-2017-q1-update/bin/../lib/gcc/arm-none-eabi/6.3.1/../../../../arm-none-eabi/lib/hard\libg.a(lib_a-vfiprintf.o)
 .rodata.zeroes.8346
                0x805d2660       0x10 c:/ti/gcc-arm-none-eabi-6-2017-q1-update/bin/../lib/gcc/arm-none-eabi/6.3.1/../../../../arm-none-eabi/lib/hard\libg.a(lib_a-vfiprintf.o)
 .rodata._setlocale_r.str1.4
                0x805d2670        0xa c:/ti/gcc-arm-none-eabi-6-2017-q1-update/bin/../lib/gcc/arm-none-eabi/6.3.1/../../../../arm-none-eabi/lib/hard\libg.a(lib_a-locale.o)
                                  0xd (size before relaxing)
 *fill*         0x805d267a        0x2 
 .rodata.str1.4
                0x805d267c        0x4 c:/ti/gcc-arm-none-eabi-6-2017-q1-update/bin/../lib/gcc/arm-none-eabi/6.3.1/../../../../arm-none-eabi/lib/hard\libg.a(lib_a-locale.o)
                                  0x2 (size before relaxing)
 .rodata._ctype_
                0x805d2680      0x101 c:/ti/gcc-arm-none-eabi-6-2017-q1-update/bin/../lib/gcc/arm-none-eabi/6.3.1/../../../../arm-none-eabi/lib/hard\libg.a(lib_a-ctype_.o)
                0x805d2680                _ctype_
 *(.eh_frame*)
 *fill*         0x805d2781        0x3 
 .eh_frame      0x805d2784        0x0 c:/ti/gcc-arm-none-eabi-6-2017-q1-update/bin/../lib/gcc/arm-none-eabi/6.3.1/hard/crtbegin.o
 .eh_frame      0x805d2784        0x4 c:/ti/gcc-arm-none-eabi-6-2017-q1-update/bin/../lib/gcc/arm-none-eabi/6.3.1/hard/crtend.o

.glue_7         0x805d2788        0x0
 .glue_7        0x805d2788        0x0 linker stubs

.glue_7t        0x805d2788        0x0
 .glue_7t       0x805d2788        0x0 linker stubs

.vfp11_veneer   0x805d2788        0x0
 .vfp11_veneer  0x805d2788        0x0 linker stubs

.v4_bx          0x805d2788        0x0
 .v4_bx         0x805d2788        0x0 linker stubs

.iplt           0x805d2788        0x0
 .iplt          0x805d2788        0x0 c:/ti/gcc-arm-none-eabi-6-2017-q1-update/bin/../lib/gcc/arm-none-eabi/6.3.1/hard/crtbegin.o

.ARM.extab      0x805d2788        0x0
 *(.ARM.extab* .gnu.linkonce.armextab.*)
 .ARM.extab     0x805d2788        0x0 c:/ti/gcc-arm-none-eabi-6-2017-q1-update/bin/../lib/gcc/arm-none-eabi/6.3.1/../../../../arm-none-eabi/lib/hard/crt0.o
 .ARM.extab     0x805d2788        0x0 c:/ti/gcc-arm-none-eabi-6-2017-q1-update/bin/../lib/gcc/arm-none-eabi/6.3.1/hard\libgcc.a(_udivmoddi4.o)
                0x805d2788                __exidx_start = .

.const:clkFreqKHzList
                0x805d2788       0x40
 .const:clkFreqKHzList
                0x805d2788       0x40 ../libsoc.a(hw_prcm_data.o)
                0x805d2788                PRCM_ROOT_CLK_32K_TPM_clkFreqKHzList
                0x805d2790                PRCM_ROOT_CLK_32K_RTC_clkFreqKHzList
                0x805d2798                PRCM_ROOT_CLK_32K_RC_clkFreqKHzList
                0x805d27a0                PRCM_ROOT_CLK_32K_PER_clkFreqKHzList
                0x805d27a8                PRCM_ROOT_CLK_32K_MOSC_clkFreqKHzList
                0x805d27b0                PRCM_ROOT_CLK_TCLKIN_clkFreqKHzList
                0x805d27b8                PRCM_ROOT_CLK_SYS_CLKIN_clkFreqKHzList
                0x805d27c0                PRCM_ROOT_CLK_MPU_PLL_clkFreqKHzList

.const:clockDomainModuleList
                0x805d27c8      0x1b8
 .const:clockDomainModuleList
                0x805d27c8      0x1b8 ../libsoc.a(hw_prcm_data.o)
                0x805d27c8                PRCM_CD_WKUP_modules
                0x805d27f0                PRCM_CD_L3_AON_modules
                0x805d27f4                PRCM_CD_L3S_TSC_modules
                0x805d27f8                PRCM_CD_L4_WKUP_AON_modules
                0x805d2810                PRCM_CD_TAMPER_modules
                0x805d2814                PRCM_CD_STD_EFUSE_modules
                0x805d2818                PRCM_CD_RTC_modules
                0x805d281c                PRCM_CD_PER_OCPWP_L3_modules
                0x805d2820                PRCM_CD_PER_LCDC_modules
                0x805d2824                PRCM_CD_PER_L4LS_modules
                0x805d28f4                PRCM_CD_PER_L3S_modules
                0x805d2918                PRCM_CD_PER_ICSS_modules
                0x805d291c                PRCM_CD_PER_DSS_modules
                0x805d2920                PRCM_CD_PER_CPSW_modules
                0x805d2924                PRCM_CD_PER_L3_modules
                0x805d2974                PRCM_CD_MPU_modules
                0x805d2978                PRCM_CD_GFX_L3_modules
                0x805d297c                PRCM_CD_CEFUSE_modules

.const:funcClkMandatory
                0x805d2980       0xdc
 .const:funcClkMandatory
                0x805d2980       0xdc ../libsoc.a(hw_prcm_data.o)
                0x805d2980                PRCM_MOD_EFUSE_funcClkMandatory
                0x805d2984                PRCM_MOD_UART0_funcClkMandatory
                0x805d2988                PRCM_MOD_TIMER1_funcClkMandatory
                0x805d298c                PRCM_MOD_TIMER0_funcClkMandatory
                0x805d2990                PRCM_MOD_I2C0_funcClkMandatory
                0x805d2994                PRCM_MOD_ADC_TSC_funcClkMandatory
                0x805d2998                PRCM_MOD_WDT1_funcClkMandatory
                0x805d299c                PRCM_MOD_WDT0_funcClkMandatory
                0x805d29a0                PRCM_MOD_SMARTREFLEX1_funcClkMandatory
                0x805d29a4                PRCM_MOD_SMARTREFLEX0_funcClkMandatory
                0x805d29a8                PRCM_MOD_RTC_funcClkMandatory
                0x805d29ac                PRCM_MOD_MPU_funcClkMandatory
                0x805d29b0                PRCM_MOD_MCASP1_funcClkMandatory
                0x805d29b4                PRCM_MOD_CPGMAC0_funcClkMandatory
                0x805d29c4                PRCM_MOD_UART5_funcClkMandatory
                0x805d29c8                PRCM_MOD_UART4_funcClkMandatory
                0x805d29cc                PRCM_MOD_UART3_funcClkMandatory
                0x805d29d0                PRCM_MOD_UART2_funcClkMandatory
                0x805d29d4                PRCM_MOD_UART1_funcClkMandatory
                0x805d29d8                PRCM_MOD_TIMER9_funcClkMandatory
                0x805d29dc                PRCM_MOD_TIMER8_funcClkMandatory
                0x805d29e0                PRCM_MOD_TIMER7_funcClkMandatory
                0x805d29e4                PRCM_MOD_TIMER6_funcClkMandatory
                0x805d29e8                PRCM_MOD_TIMER5_funcClkMandatory
                0x805d29ec                PRCM_MOD_TIMER4_funcClkMandatory
                0x805d29f0                PRCM_MOD_TIMER3_funcClkMandatory
                0x805d29f4                PRCM_MOD_TIMER2_funcClkMandatory
                0x805d29f8                PRCM_MOD_TIMER11_funcClkMandatory
                0x805d29fc                PRCM_MOD_TIMER10_funcClkMandatory
                0x805d2a00                PRCM_MOD_SPI4_funcClkMandatory
                0x805d2a04                PRCM_MOD_SPI3_funcClkMandatory
                0x805d2a08                PRCM_MOD_SPI2_funcClkMandatory
                0x805d2a0c                PRCM_MOD_SPI1_funcClkMandatory
                0x805d2a10                PRCM_MOD_SPI0_funcClkMandatory
                0x805d2a14                PRCM_MOD_QSPI_funcClkMandatory
                0x805d2a18                PRCM_MOD_MCASP0_funcClkMandatory
                0x805d2a1c                PRCM_MOD_I2C2_funcClkMandatory
                0x805d2a20                PRCM_MOD_I2C1_funcClkMandatory
                0x805d2a24                PRCM_MOD_HDQ1W_funcClkMandatory
                0x805d2a28                PRCM_MOD_DCAN1_funcClkMandatory
                0x805d2a2c                PRCM_MOD_DCAN0_funcClkMandatory
                0x805d2a30                PRCM_MOD_LCDC_funcClkMandatory
                0x805d2a34                PRCM_MOD_ICSS_funcClkMandatory
                0x805d2a3c                PRCM_MOD_MAG_CARD_funcClkMandatory
                0x805d2a40                PRCM_MOD_GFX_funcClkMandatory
                0x805d2a44                PRCM_MOD_MMC2_funcClkMandatory
                0x805d2a48                PRCM_MOD_MMC1_funcClkMandatory
                0x805d2a4c                PRCM_MOD_MMC0_funcClkMandatory
                0x805d2a50                PRCM_MOD_DSS_funcClkMandatory
                0x805d2a58                PRCM_MOD_CEFUSE_funcClkMandatory

.const:funcClkOptional
                0x805d2a5c       0x50
 .const:funcClkOptional
                0x805d2a5c       0x50 ../libsoc.a(hw_prcm_data.o)
                0x805d2a5c                PRCM_MOD_SYNCTIMER_funcClkOptional
                0x805d2a60                PRCM_MOD_GPIO0_funcClkOptional
                0x805d2a64                PRCM_MOD_CLKDIV32K_funcClkOptional
                0x805d2a68                PRCM_MOD_USIM1_funcClkOptional
                0x805d2a70                PRCM_MOD_USIM0_funcClkOptional
                0x805d2a78                PRCM_MOD_USB_OTG_SS1_funcClkOptional
                0x805d2a7c                PRCM_MOD_USB_OTG_SS0_funcClkOptional
                0x805d2a80                PRCM_MOD_USB_PHY1_ALWAYS_ON_funcClkOptional
                0x805d2a84                PRCM_MOD_USB_PHY0_ALWAYS_ON_funcClkOptional
                0x805d2a88                PRCM_MOD_GPIO5_funcClkOptional
                0x805d2a8c                PRCM_MOD_GPIO4_funcClkOptional
                0x805d2a90                PRCM_MOD_GPIO3_funcClkOptional
                0x805d2a94                PRCM_MOD_GPIO2_funcClkOptional
                0x805d2a98                PRCM_MOD_GPIO1_funcClkOptional
                0x805d2a9c                PRCM_MOD_DEBUGSS_funcClkOptional

.const:inNodes  0x805d2aac      0x2b2
 .const:inNodes
                0x805d2aac      0x2b2 ../libsoc.a(hw_prcm_data.o)
                0x805d2aac                PRCM_MOD_EFUSE_inNodes
                0x805d2ab0                PRCM_MOD_WKUP_M3_inNodes
                0x805d2ab4                PRCM_MOD_UART0_inNodes
                0x805d2ab8                PRCM_MOD_TIMER1_inNodes
                0x805d2abc                PRCM_MOD_TIMER0_inNodes
                0x805d2ac0                PRCM_MOD_SYNCTIMER_inNodes
                0x805d2ac4                PRCM_MOD_L4WKUP_inNodes
                0x805d2ac8                PRCM_MOD_I2C0_inNodes
                0x805d2acc                PRCM_MOD_GPIO0_inNodes
                0x805d2ad0                PRCM_MOD_CONTROL_inNodes
                0x805d2ad4                PRCM_MOD_CLKDIV32K_inNodes
                0x805d2ad8                PRCM_MOD_ADC_TSC_inNodes
                0x805d2adc                PRCM_MOD_VPFE1_inNodes
                0x805d2ae0                PRCM_MOD_VPFE0_inNodes
                0x805d2ae4                PRCM_MOD_USIM1_inNodes
                0x805d2ae8                PRCM_MOD_USIM0_inNodes
                0x805d2aec                PRCM_MOD_USB_OTG_SS1_inNodes
                0x805d2af0                PRCM_MOD_USB_OTG_SS0_inNodes
                0x805d2af4                PRCM_MOD_USBPHYOCP2SCP1_inNodes
                0x805d2af8                PRCM_MOD_USBPHYOCP2SCP0_inNodes
                0x805d2afc                PRCM_MOD_TPMSS_inNodes
                0x805d2b00                PRCM_MOD_WDT1_inNodes
                0x805d2b04                PRCM_MOD_WDT0_inNodes
                0x805d2b08                PRCM_MOD_USB_PHY1_ALWAYS_ON_inNodes
                0x805d2b0c                PRCM_MOD_USB_PHY0_ALWAYS_ON_inNodes
                0x805d2b10                PRCM_MOD_SMARTREFLEX1_inNodes
                0x805d2b14                PRCM_MOD_SMARTREFLEX0_inNodes
                0x805d2b18                PRCM_MOD_SHA0_inNodes
                0x805d2b1c                PRCM_MOD_RNG_inNodes
                0x805d2b20                PRCM_MOD_PKA_inNodes
                0x805d2b24                PRCM_MOD_DES_inNodes
                0x805d2b28                PRCM_MOD_CRYPTODMA_inNodes
                0x805d2b2c                PRCM_MOD_AES0_inNodes
                0x805d2b30                PRCM_MOD_RTC_inNodes
                0x805d2b34                PRCM_MOD_OCP_WP_NOC_inNodes
                0x805d2b38                PRCM_MOD_MPU_inNodes
                0x805d2b3c                PRCM_MOD_SPINLOCK_inNodes
                0x805d2b40                PRCM_MOD_SPARE1_inNodes
                0x805d2b44                PRCM_MOD_SPARE0_inNodes
                0x805d2b48                PRCM_MOD_MCASP1_inNodes
                0x805d2b4c                PRCM_MOD_MAILBOX0_inNodes
                0x805d2b50                PRCM_MOD_CPGMAC0_inNodes
                0x805d2b58                PRCM_MOD_UART5_inNodes
                0x805d2b5c                PRCM_MOD_UART4_inNodes
                0x805d2b60                PRCM_MOD_UART3_inNodes
                0x805d2b64                PRCM_MOD_UART2_inNodes
                0x805d2b68                PRCM_MOD_UART1_inNodes
                0x805d2b6c                PRCM_MOD_TIMER9_inNodes
                0x805d2b70                PRCM_MOD_TIMER8_inNodes
                0x805d2b74                PRCM_MOD_TIMER7_inNodes
                0x805d2b78                PRCM_MOD_TIMER6_inNodes
                0x805d2b7c                PRCM_MOD_TIMER5_inNodes
                0x805d2b80                PRCM_MOD_TIMER4_inNodes
                0x805d2b84                PRCM_MOD_TIMER3_inNodes
                0x805d2b88                PRCM_MOD_TIMER2_inNodes
                0x805d2b8c                PRCM_MOD_TIMER11_inNodes
                0x805d2b90                PRCM_MOD_TIMER10_inNodes
                0x805d2b94                PRCM_MOD_SPI4_inNodes
                0x805d2b98                PRCM_MOD_SPI3_inNodes
                0x805d2b9c                PRCM_MOD_SPI2_inNodes
                0x805d2ba0                PRCM_MOD_SPI1_inNodes
                0x805d2ba4                PRCM_MOD_SPI0_inNodes
                0x805d2ba8                PRCM_MOD_QSPI_inNodes
                0x805d2bac                PRCM_MOD_MCASP0_inNodes
                0x805d2bb0                PRCM_MOD_I2C2_inNodes
                0x805d2bb4                PRCM_MOD_I2C1_inNodes
                0x805d2bb8                PRCM_MOD_HDQ1W_inNodes
                0x805d2bbc                PRCM_MOD_ERMC_inNodes
                0x805d2bc0                PRCM_MOD_EPWMSS5_inNodes
                0x805d2bc4                PRCM_MOD_EPWMSS4_inNodes
                0x805d2bc8                PRCM_MOD_EPWMSS3_inNodes
                0x805d2bcc                PRCM_MOD_EPWMSS2_inNodes
                0x805d2bd0                PRCM_MOD_EPWMSS1_inNodes
                0x805d2bd4                PRCM_MOD_EPWMSS0_inNodes
                0x805d2bd8                PRCM_MOD_ELM_inNodes
                0x805d2bdc                PRCM_MOD_DCAN1_inNodes
                0x805d2be0                PRCM_MOD_DCAN0_inNodes
                0x805d2be4                PRCM_MOD_TPTC2_inNodes
                0x805d2be8                PRCM_MOD_TPTC1_inNodes
                0x805d2bec                PRCM_MOD_TPTC0_inNodes
                0x805d2bf0                PRCM_MOD_TPCC_inNodes
                0x805d2bf4                PRCM_MOD_SLV_EXPS_inNodes
                0x805d2bf8                PRCM_MOD_MSTR_EXPS_inNodes
                0x805d2bfc                PRCM_MOD_LCDC_inNodes
                0x805d2c00                PRCM_MOD_IEEE5000_inNodes
                0x805d2c04                PRCM_MOD_ICSS_inNodes
                0x805d2c08                PRCM_MOD_L4_HS_inNodes
                0x805d2c0c                PRCM_MOD_L4LS_inNodes
                0x805d2c10                PRCM_MOD_L4FW_inNodes
                0x805d2c14                PRCM_MOD_L3_INSTR_inNodes
                0x805d2c18                PRCM_MOD_L3_inNodes
                0x805d2c1c                PRCM_MOD_MAG_CARD_inNodes
                0x805d2c20                PRCM_MOD_GPIO5_inNodes
                0x805d2c24                PRCM_MOD_GPIO4_inNodes
                0x805d2c28                PRCM_MOD_GPIO3_inNodes
                0x805d2c2c                PRCM_MOD_GPIO2_inNodes
                0x805d2c30                PRCM_MOD_GPIO1_inNodes
                0x805d2c34                PRCM_MOD_GFX_inNodes
                0x805d2c38                PRCM_MOD_OTFA_EMIF_inNodes
                0x805d2c3c                PRCM_MOD_OCMCRAM_inNodes
                0x805d2c40                PRCM_MOD_MMC2_inNodes
                0x805d2c44                PRCM_MOD_MMC1_inNodes
                0x805d2c48                PRCM_MOD_MMC0_inNodes
                0x805d2c4c                PRCM_MOD_GPMC_inNodes
                0x805d2c50                PRCM_MOD_EMIF_inNodes
                0x805d2c54                PRCM_MOD_DLL_AGING_inNodes
                0x805d2c58                PRCM_MOD_DLL_inNodes
                0x805d2c5c                PRCM_MOD_DDRPHY_inNodes
                0x805d2c60                PRCM_MOD_EMIF_FW_inNodes
                0x805d2c64                PRCM_MOD_DSS_inNodes
                0x805d2c68                PRCM_MOD_DEBUGSS_inNodes
                0x805d2c6c                PRCM_MOD_CEFUSE_inNodes
                0x805d2c70                PRCM_DPLL_PER_inNodes
                0x805d2c74                PRCM_DPLL_MPU_inNodes
                0x805d2c78                PRCM_DPLL_EXTDEV_inNodes
                0x805d2c7c                PRCM_DPLL_DISP_inNodes
                0x805d2c80                PRCM_DPLL_DDR_inNodes
                0x805d2c84                PRCM_DPLL_CORE_inNodes
                0x805d2c88                PRCM_DIV_UART5_inNodes
                0x805d2c8c                PRCM_DIV_CLK_DIV_24_inNodes
                0x805d2c90                PRCM_DIV_VTP_CLK_inNodes
                0x805d2c94                PRCM_DIV_USIM_FCLK_inNodes
                0x805d2c98                PRCM_DIV_CPSW_5M_inNodes
                0x805d2c9c                PRCM_DIV_CPSW_50M_inNodes
                0x805d2ca0                PRCM_DIV_CPSW_125MHZ_OCP_inNodes
                0x805d2ca4                PRCM_DIV_PDA2CAD8896B3447FD_inNodes
                0x805d2ca8                PRCM_DIV_MMC_inNodes
                0x805d2cac                PRCM_DIV_PERS_CLK_inNodes
                0x805d2cb0                PRCM_DIV_GFX_FCLK_inNodes
                0x805d2cb4                PRCM_DIV_DLL_AGING_CLK_inNodes
                0x805d2cb8                PRCM_DIV_CLKOUT2_DIV2_inNodes
                0x805d2cbc                PRCM_DIV_CLKOUT2_DIV1_inNodes
                0x805d2cc0                PRCM_DIV_CLKOUT1SEL2DIV2_inNodes
                0x805d2cc4                PRCM_DIV_CLKOUT1SEL2DIV1_inNodes
                0x805d2cc8                PRCM_DIV_CLKOUT1SEL0DIV_inNodes
                0x805d2ccc                PRCM_DIV_SYSCLK_inNodes
                0x805d2cd0                PRCM_DIV_CORE_25M_inNodes
                0x805d2cd4                PRCM_DIV_CORE_L4_inNodes
                0x805d2cd8                PRCM_MUX_TIMER1_inNodes
                0x805d2ce0                PRCM_MUX_TIMER0_inNodes
                0x805d2ce4                PRCM_MUX_SYNCTIMER32K_inNodes
                0x805d2ce8                PRCM_MUX_GPIO_DBCLK_inNodes
                0x805d2cf0                PRCM_MUX_USIM_DBCLKMUX_inNodes
                0x805d2cf4                PRCM_MUX_USIM1_FCLK_inNodes
                0x805d2cf8                PRCM_MUX_USIM0_FCLK_inNodes
                0x805d2cfc                PRCM_MUX_WDT1_inNodes
                0x805d2d00                PRCM_MUX_WDT0_inNodes
                0x805d2d04                PRCM_MUX_USBPHY_32KHZ_inNodes
                0x805d2d08                PRCM_MUX_CPTS_RFT_inNodes
                0x805d2d0c                PRCM_MUX_TIMER9_CLK_inNodes
                0x805d2d10                PRCM_MUX_TIMER8_CLK_inNodes
                0x805d2d14                PRCM_MUX_TIMER6_CLK_inNodes
                0x805d2d18                PRCM_MUX_TIMER5_CLK_inNodes
                0x805d2d1c                PRCM_MUX_TIMER4_CLK_inNodes
                0x805d2d20                PRCM_MUX_TIMER3_CLK_inNodes
                0x805d2d24                PRCM_MUX_TIMER2_CLK_inNodes
                0x805d2d28                PRCM_MUX_TIMER1_CLK_inNodes
                0x805d2d2c                PRCM_MUX_TIMER11_CLK_inNodes
                0x805d2d30                PRCM_MUX_TIMER10_CLK_inNodes
                0x805d2d34                PRCM_MUX_LCD_CLK_inNodes
                0x805d2d38                PRCM_MUX_ICSS_OCP_CLK_inNodes
                0x805d2d3c                PRCM_MUX_MAG_FCLK_inNodes
                0x805d2d40                PRCM_MUX_SGX_CLKSEL_inNodes
                0x805d2d44                PRCM_MUX_CLKOUT1_MUX3_inNodes
                0x805d2d48                PRCM_MUX_CLKOUT1_MUX2_inNodes
                0x805d2d4c                PRCM_MUX_CLKOUT1_MUX1_inNodes
                0x805d2d50                PRCM_MUX_CLKOUT_32K_inNodes
                0x805d2d54                PRCM_MUX_CLKOUT1_inNodes
                0x805d2d58                PRCM_MUX_CLKOUT1SEL2_inNodes

.const:phyMemIdList
                0x805d2d60       0x9c
 .const:phyMemIdList
                0x805d2d60       0x9c ../libsoc.a(hw_prcm_data.o)
                0x805d2d60                PRCM_PD_WKUP_phyMemIdList
                0x805d2d64                PRCM_PD_PER_phyMemIdList
                0x805d2dec                PRCM_PD_MPU_phyMemIdList
                0x805d2df8                PRCM_PD_GFX_phyMemIdList

.const:prcmClockDomainElems
                0x805d2dfc      0x1c8
 .const:prcmClockDomainElems
                0x805d2dfc      0x1c8 ../libsoc.a(hw_prcm_data.o)
                0x805d2dfc                prcmClockDomainElems

.const:prcmDividerElems
                0x805d2fc4      0x190
 .const:prcmDividerElems
                0x805d2fc4      0x190 ../libsoc.a(hw_prcm_data.o)
                0x805d2fc4                prcmDividerElems

.const:prcmDpllElems
                0x805d3154      0x138
 .const:prcmDpllElems
                0x805d3154      0x138 ../libsoc.a(hw_prcm_data.o)
                0x805d3154                prcmDpllElems

.const:prcmModuleElems
                0x805d328c      0xc40
 .const:prcmModuleElems
                0x805d328c      0xc40 ../libsoc.a(hw_prcm_data.o)
                0x805d328c                prcmModuleElems

.const:prcmMultiplexerElems
                0x805d3ecc      0x174
 .const:prcmMultiplexerElems
                0x805d3ecc      0x174 ../libsoc.a(hw_prcm_data.o)
                0x805d3ecc                prcmMultiplexerElems

.const:prcmNodes
                0x805d4040      0x84c
 .const:prcmNodes
                0x805d4040      0x84c ../libsoc.a(hw_prcm_data.o)
                0x805d4040                prcmNodes

.const:prcmPhysicalMemoryElems
                0x805d488c      0x270
 .const:prcmPhysicalMemoryElems
                0x805d488c      0x270 ../libsoc.a(hw_prcm_data.o)
                0x805d488c                prcmPhysicalMemoryElems

.const:prcmPowerDomainElems
                0x805d4afc       0xe0
 .const:prcmPowerDomainElems
                0x805d4afc       0xe0 ../libsoc.a(hw_prcm_data.o)
                0x805d4afc                prcmPowerDomainElems

.const:prcmVoltageDomainElems
                0x805d4bdc       0x10
 .const:prcmVoltageDomainElems
                0x805d4bdc       0x10 ../libsoc.a(hw_prcm_data.o)
                0x805d4bdc                prcmVoltageDomainElems

.const:prop     0x805d4bec      0x588
 .const:prop    0x805d4bec      0x588 ../libsoc.a(hw_prcm_data.o)
                0x805d4bec                PRCM_MOD_EFUSE_prop
                0x805d4bf4                PRCM_MOD_WKUP_M3_prop
                0x805d4bfc                PRCM_MOD_UART0_prop
                0x805d4c04                PRCM_MOD_TIMER1_prop
                0x805d4c0c                PRCM_MOD_TIMER0_prop
                0x805d4c14                PRCM_MOD_SYNCTIMER_prop
                0x805d4c1c                PRCM_MOD_L4WKUP_prop
                0x805d4c24                PRCM_MOD_I2C0_prop
                0x805d4c2c                PRCM_MOD_GPIO0_prop
                0x805d4c34                PRCM_MOD_CONTROL_prop
                0x805d4c3c                PRCM_MOD_CLKDIV32K_prop
                0x805d4c44                PRCM_MOD_ADC_TSC_prop
                0x805d4c4c                PRCM_MOD_VPFE1_prop
                0x805d4c54                PRCM_MOD_VPFE0_prop
                0x805d4c5c                PRCM_MOD_USIM1_prop
                0x805d4c64                PRCM_MOD_USIM0_prop
                0x805d4c6c                PRCM_MOD_USB_OTG_SS1_prop
                0x805d4c74                PRCM_MOD_USB_OTG_SS0_prop
                0x805d4c7c                PRCM_MOD_USBPHYOCP2SCP1_prop
                0x805d4c84                PRCM_MOD_USBPHYOCP2SCP0_prop
                0x805d4c8c                PRCM_MOD_TPMSS_prop
                0x805d4c94                PRCM_MOD_WDT1_prop
                0x805d4c9c                PRCM_MOD_WDT0_prop
                0x805d4ca4                PRCM_MOD_USB_PHY1_ALWAYS_ON_prop
                0x805d4cac                PRCM_MOD_USB_PHY0_ALWAYS_ON_prop
                0x805d4cb4                PRCM_MOD_SMARTREFLEX1_prop
                0x805d4cbc                PRCM_MOD_SMARTREFLEX0_prop
                0x805d4cc4                PRCM_MOD_SHA0_prop
                0x805d4ccc                PRCM_MOD_RNG_prop
                0x805d4cd4                PRCM_MOD_PKA_prop
                0x805d4cdc                PRCM_MOD_DES_prop
                0x805d4ce4                PRCM_MOD_CRYPTODMA_prop
                0x805d4cec                PRCM_MOD_AES0_prop
                0x805d4cf4                PRCM_MOD_RTC_prop
                0x805d4cfc                PRCM_MOD_OCP_WP_NOC_prop
                0x805d4d04                PRCM_MOD_MPU_prop
                0x805d4d0c                PRCM_MOD_SPINLOCK_prop
                0x805d4d14                PRCM_MOD_SPARE1_prop
                0x805d4d1c                PRCM_MOD_SPARE0_prop
                0x805d4d24                PRCM_MOD_MCASP1_prop
                0x805d4d2c                PRCM_MOD_MAILBOX0_prop
                0x805d4d34                PRCM_MOD_CPGMAC0_prop
                0x805d4d3c                PRCM_MOD_UART5_prop
                0x805d4d44                PRCM_MOD_UART4_prop
                0x805d4d4c                PRCM_MOD_UART3_prop
                0x805d4d54                PRCM_MOD_UART2_prop
                0x805d4d5c                PRCM_MOD_UART1_prop
                0x805d4d64                PRCM_MOD_TIMER9_prop
                0x805d4d6c                PRCM_MOD_TIMER8_prop
                0x805d4d74                PRCM_MOD_TIMER7_prop
                0x805d4d7c                PRCM_MOD_TIMER6_prop
                0x805d4d84                PRCM_MOD_TIMER5_prop
                0x805d4d8c                PRCM_MOD_TIMER4_prop
                0x805d4d94                PRCM_MOD_TIMER3_prop
                0x805d4d9c                PRCM_MOD_TIMER2_prop
                0x805d4da4                PRCM_MOD_TIMER11_prop
                0x805d4dac                PRCM_MOD_TIMER10_prop
                0x805d4db4                PRCM_MOD_SPI4_prop
                0x805d4dbc                PRCM_MOD_SPI3_prop
                0x805d4dc4                PRCM_MOD_SPI2_prop
                0x805d4dcc                PRCM_MOD_SPI1_prop
                0x805d4dd4                PRCM_MOD_SPI0_prop
                0x805d4ddc                PRCM_MOD_QSPI_prop
                0x805d4de4                PRCM_MOD_MCASP0_prop
                0x805d4dec                PRCM_MOD_I2C2_prop
                0x805d4df4                PRCM_MOD_I2C1_prop
                0x805d4dfc                PRCM_MOD_HDQ1W_prop
                0x805d4e04                PRCM_MOD_ERMC_prop
                0x805d4e0c                PRCM_MOD_EPWMSS5_prop
                0x805d4e14                PRCM_MOD_EPWMSS4_prop
                0x805d4e1c                PRCM_MOD_EPWMSS3_prop
                0x805d4e24                PRCM_MOD_EPWMSS2_prop
                0x805d4e2c                PRCM_MOD_EPWMSS1_prop
                0x805d4e34                PRCM_MOD_EPWMSS0_prop
                0x805d4e3c                PRCM_MOD_ELM_prop
                0x805d4e44                PRCM_MOD_DCAN1_prop
                0x805d4e4c                PRCM_MOD_DCAN0_prop
                0x805d4e54                PRCM_MOD_TPTC2_prop
                0x805d4e5c                PRCM_MOD_TPTC1_prop
                0x805d4e64                PRCM_MOD_TPTC0_prop
                0x805d4e6c                PRCM_MOD_TPCC_prop
                0x805d4e74                PRCM_MOD_SLV_EXPS_prop
                0x805d4e7c                PRCM_MOD_MSTR_EXPS_prop
                0x805d4e84                PRCM_MOD_LCDC_prop
                0x805d4e8c                PRCM_MOD_IEEE5000_prop
                0x805d4e94                PRCM_MOD_ICSS_prop
                0x805d4e9c                PRCM_MOD_L4_HS_prop
                0x805d4ea4                PRCM_MOD_L4LS_prop
                0x805d4eac                PRCM_MOD_L4FW_prop
                0x805d4eb4                PRCM_MOD_L3_INSTR_prop
                0x805d4ebc                PRCM_MOD_L3_prop
                0x805d4ec4                PRCM_MOD_MAG_CARD_prop
                0x805d4ecc                PRCM_MOD_GPIO5_prop
                0x805d4ed4                PRCM_MOD_GPIO4_prop
                0x805d4edc                PRCM_MOD_GPIO3_prop
                0x805d4ee4                PRCM_MOD_GPIO2_prop
                0x805d4eec                PRCM_MOD_GPIO1_prop
                0x805d4ef4                PRCM_MOD_GFX_prop
                0x805d4efc                PRCM_MOD_OTFA_EMIF_prop
                0x805d4f04                PRCM_MOD_OCMCRAM_prop
                0x805d4f0c                PRCM_MOD_MMC2_prop
                0x805d4f14                PRCM_MOD_MMC1_prop
                0x805d4f1c                PRCM_MOD_MMC0_prop
                0x805d4f24                PRCM_MOD_GPMC_prop
                0x805d4f2c                PRCM_MOD_EMIF_prop
                0x805d4f34                PRCM_MOD_DLL_AGING_prop
                0x805d4f3c                PRCM_MOD_DLL_prop
                0x805d4f44                PRCM_MOD_DDRPHY_prop
                0x805d4f4c                PRCM_MOD_EMIF_FW_prop
                0x805d4f54                PRCM_MOD_DSS_prop
                0x805d4f5c                PRCM_MOD_DEBUGSS_prop
                0x805d4f64                PRCM_MOD_CEFUSE_prop
                0x805d4f6c                PRCM_DPLL_PER_prop
                0x805d4f74                PRCM_DPLL_MPU_prop
                0x805d4f7c                PRCM_DPLL_EXTDEV_prop
                0x805d4f84                PRCM_DPLL_DISP_prop
                0x805d4f8c                PRCM_DPLL_DDR_prop
                0x805d4f94                PRCM_DPLL_CORE_prop
                0x805d4f9c                PRCM_DIV_UART5_prop
                0x805d4fa4                PRCM_DIV_CLK_DIV_24_prop
                0x805d4fac                PRCM_DIV_VTP_CLK_prop
                0x805d4fb4                PRCM_DIV_USIM_FCLK_prop
                0x805d4fbc                PRCM_DIV_CPSW_5M_prop
                0x805d4fc4                PRCM_DIV_CPSW_50M_prop
                0x805d4fcc                PRCM_DIV_CPSW_125MHZ_OCP_prop
                0x805d4fd4                PRCM_DIV_PDA2CAD8896B3447FD_prop
                0x805d4fdc                PRCM_DIV_MMC_prop
                0x805d4fe4                PRCM_DIV_PERS_CLK_prop
                0x805d4fec                PRCM_DIV_GFX_FCLK_prop
                0x805d4ff4                PRCM_DIV_DLL_AGING_CLK_prop
                0x805d4ffc                PRCM_DIV_CLKOUT2_DIV2_prop
                0x805d5004                PRCM_DIV_CLKOUT2_DIV1_prop
                0x805d500c                PRCM_DIV_CLKOUT1SEL2DIV2_prop
                0x805d5014                PRCM_DIV_CLKOUT1SEL2DIV1_prop
                0x805d501c                PRCM_DIV_CLKOUT1SEL0DIV_prop
                0x805d5024                PRCM_DIV_SYSCLK_prop
                0x805d502c                PRCM_DIV_CORE_25M_prop
                0x805d5034                PRCM_DIV_CORE_L4_prop
                0x805d503c                PRCM_MUX_TIMER1_prop
                0x805d5044                PRCM_MUX_TIMER0_prop
                0x805d504c                PRCM_MUX_SYNCTIMER32K_prop
                0x805d5054                PRCM_MUX_GPIO_DBCLK_prop
                0x805d505c                PRCM_MUX_USIM_DBCLKMUX_prop
                0x805d5064                PRCM_MUX_USIM1_FCLK_prop
                0x805d506c                PRCM_MUX_USIM0_FCLK_prop
                0x805d5074                PRCM_MUX_WDT1_prop
                0x805d507c                PRCM_MUX_WDT0_prop
                0x805d5084                PRCM_MUX_USBPHY_32KHZ_prop
                0x805d508c                PRCM_MUX_CPTS_RFT_prop
                0x805d5094                PRCM_MUX_TIMER9_CLK_prop
                0x805d509c                PRCM_MUX_TIMER8_CLK_prop
                0x805d50a4                PRCM_MUX_TIMER6_CLK_prop
                0x805d50ac                PRCM_MUX_TIMER5_CLK_prop
                0x805d50b4                PRCM_MUX_TIMER4_CLK_prop
                0x805d50bc                PRCM_MUX_TIMER3_CLK_prop
                0x805d50c4                PRCM_MUX_TIMER2_CLK_prop
                0x805d50cc                PRCM_MUX_TIMER1_CLK_prop
                0x805d50d4                PRCM_MUX_TIMER11_CLK_prop
                0x805d50dc                PRCM_MUX_TIMER10_CLK_prop
                0x805d50e4                PRCM_MUX_LCD_CLK_prop
                0x805d50ec                PRCM_MUX_ICSS_OCP_CLK_prop
                0x805d50f4                PRCM_MUX_MAG_FCLK_prop
                0x805d50fc                PRCM_MUX_SGX_CLKSEL_prop
                0x805d5104                PRCM_MUX_CLKOUT1_MUX3_prop
                0x805d510c                PRCM_MUX_CLKOUT1_MUX2_prop
                0x805d5114                PRCM_MUX_CLKOUT1_MUX1_prop
                0x805d511c                PRCM_MUX_CLKOUT_32K_prop
                0x805d5124                PRCM_MUX_CLKOUT1_prop
                0x805d512c                PRCM_MUX_CLKOUT1SEL2_prop
                0x805d5134                PRCM_ROOT_CLK_32K_TPM_prop
                0x805d513c                PRCM_ROOT_CLK_32K_RTC_prop
                0x805d5144                PRCM_ROOT_CLK_32K_RC_prop
                0x805d514c                PRCM_ROOT_CLK_32K_PER_prop
                0x805d5154                PRCM_ROOT_CLK_32K_MOSC_prop
                0x805d515c                PRCM_ROOT_CLK_TCLKIN_prop
                0x805d5164                PRCM_ROOT_CLK_SYS_CLKIN_prop
                0x805d516c                PRCM_ROOT_CLK_MPU_PLL_prop

.const:resourceIdModuleIdInstMap
                0x805d5174      0x380
 .const:resourceIdModuleIdInstMap
                0x805d5174      0x380 ../libsoc.a(hw_prcm_data.o)
                0x805d5174                resourceIdModuleIdInstMap

.const:resourceIdModuleIdPairElems
                0x805d54f4      0x2c8
 .const:resourceIdModuleIdPairElems
                0x805d54f4      0x2c8 ../libsoc.a(hw_prcm_data.o)
                0x805d54f4                resourceIdModuleIdPairElems

.const:rootClockElems
                0x805d57bc       0x60
 .const:rootClockElems
                0x805d57bc       0x60 ../libsoc.a(hw_prcm_data.o)
                0x805d57bc                rootClockElems

.ARM.exidx      0x805d581c        0x8
 *(.ARM.exidx* .gnu.linkonce.armexidx.*)
 .ARM.exidx     0x805d581c        0x8 c:/ti/gcc-arm-none-eabi-6-2017-q1-update/bin/../lib/gcc/arm-none-eabi/6.3.1/../../../../arm-none-eabi/lib/hard/crt0.o
 .ARM.exidx     0x805d5824        0x0 c:/ti/gcc-arm-none-eabi-6-2017-q1-update/bin/../lib/gcc/arm-none-eabi/6.3.1/hard\libgcc.a(_udivmoddi4.o)
                                  0x8 (size before relaxing)
                0x805d5824                __exidx_end = .

.rel.dyn        0x805d5824        0x0
 .rel.iplt      0x805d5824        0x0 c:/ti/gcc-arm-none-eabi-6-2017-q1-update/bin/../lib/gcc/arm-none-eabi/6.3.1/hard/crtbegin.o

.data           0x805d5828     0x1e88
                0x805d5828                . = ALIGN (0x4)
                0x805d5828                __data_start__ = .
 *(vtable)
 *(.data*)
 .data          0x805d5828        0x0 c:/ti/gcc-arm-none-eabi-6-2017-q1-update/bin/../lib/gcc/arm-none-eabi/6.3.1/hard/crti.o
 .data          0x805d5828        0x4 c:/ti/gcc-arm-none-eabi-6-2017-q1-update/bin/../lib/gcc/arm-none-eabi/6.3.1/hard/crtbegin.o
                0x805d5828                __dso_handle
 .data          0x805d582c        0x0 c:/ti/gcc-arm-none-eabi-6-2017-q1-update/bin/../lib/gcc/arm-none-eabi/6.3.1/../../../../arm-none-eabi/lib/hard/crt0.o
 .data          0x805d582c        0x0 ./i2c.o
 .data          0x805d582c        0x0 ./qspi.o
 .data          0x805d582c        0x0 ./qspi_app.o
 .data          0x805d582c        0x0 ./startup_ARMCA9.o
 .data          0x805d582c        0x0 ./uart.o
 .data          0x805d582c        0x0 ./flash_writer/crc16.o
 .data          0x805d582c        0x0 ./flash_writer/flash_writer_app_main.o
 .data          0x805d582c        0x0 c:/ti/gcc-arm-none-eabi-6-2017-q1-update/bin/../lib/gcc/arm-none-eabi/6.3.1/../../../../arm-none-eabi/lib/hard\libc.a(lib_a-exit.o)
 .data          0x805d582c        0x0 c:/ti/gcc-arm-none-eabi-6-2017-q1-update/bin/../lib/gcc/arm-none-eabi/6.3.1/../../../../arm-none-eabi/lib/hard\libc.a(lib_a-impure.o)
 .data._impure_ptr
                0x805d582c        0x4 c:/ti/gcc-arm-none-eabi-6-2017-q1-update/bin/../lib/gcc/arm-none-eabi/6.3.1/../../../../arm-none-eabi/lib/hard\libc.a(lib_a-impure.o)
                0x805d582c                _impure_ptr
 .data.impure_data
                0x805d5830      0x428 c:/ti/gcc-arm-none-eabi-6-2017-q1-update/bin/../lib/gcc/arm-none-eabi/6.3.1/../../../../arm-none-eabi/lib/hard\libc.a(lib_a-impure.o)
 .data          0x805d5c58        0x0 c:/ti/gcc-arm-none-eabi-6-2017-q1-update/bin/../lib/gcc/arm-none-eabi/6.3.1/../../../../arm-none-eabi/lib/hard\libc.a(lib_a-init.o)
 .data          0x805d5c58        0x0 c:/ti/gcc-arm-none-eabi-6-2017-q1-update/bin/../lib/gcc/arm-none-eabi/6.3.1/../../../../arm-none-eabi/lib/hard\libc.a(lib_a-memset.o)
 .data          0x805d5c58        0x0 c:/ti/gcc-arm-none-eabi-6-2017-q1-update/bin/../lib/gcc/arm-none-eabi/6.3.1/../../../../arm-none-eabi/lib/hard\libc.a(lib_a-__call_atexit.o)
 .data.__atexit_recursive_mutex
                0x805d5c58        0x4 c:/ti/gcc-arm-none-eabi-6-2017-q1-update/bin/../lib/gcc/arm-none-eabi/6.3.1/../../../../arm-none-eabi/lib/hard\libc.a(lib_a-__call_atexit.o)
                0x805d5c58                __atexit_recursive_mutex
 .data          0x805d5c5c        0x0 c:/ti/gcc-arm-none-eabi-6-2017-q1-update/bin/../lib/gcc/arm-none-eabi/6.3.1/../../../../arm-none-eabi/lib/hard\libc.a(lib_a-atexit.o)
 .data          0x805d5c5c        0x0 c:/ti/gcc-arm-none-eabi-6-2017-q1-update/bin/../lib/gcc/arm-none-eabi/6.3.1/../../../../arm-none-eabi/lib/hard\libc.a(lib_a-fini.o)
 .data          0x805d5c5c        0x0 c:/ti/gcc-arm-none-eabi-6-2017-q1-update/bin/../lib/gcc/arm-none-eabi/6.3.1/../../../../arm-none-eabi/lib/hard\libc.a(lib_a-lock.o)
 .data          0x805d5c5c        0x0 c:/ti/gcc-arm-none-eabi-6-2017-q1-update/bin/../lib/gcc/arm-none-eabi/6.3.1/../../../../arm-none-eabi/lib/hard\libc.a(lib_a-__atexit.o)
 .data          0x805d5c5c        0x0 ../libboard.a(board.o)
 .data          0x805d5c5c        0x0 ../libboard.a(dcard.o)
 .data          0x805d5c5c        0x0 ../libboard.a(platform.o)
 .data          0x805d5c5c        0x0 ../libboard.a(pinmux.o)
 .data          0x805d5c5c        0x0 ../libboard.a(board_am43xx.o)
 .data.gBoardAm43xxI2cData
                0x805d5c5c        0xc ../libboard.a(board_am43xx.o)
 .data.gBoardAm43xxI2cInstData
                0x805d5c68       0x20 ../libboard.a(board_am43xx.o)
 .data          0x805d5c88        0x0 ../libboard.a(dcard_am43xx.o)
 .data          0x805d5c88        0x0 ../libboard.a(am43xx_gpevm.o)
 .data.gpBoardAm43xxGpevmRevStrTable
                0x805d5c88       0x14 ../libboard.a(am43xx_gpevm.o)
                0x805d5c88                gpBoardAm43xxGpevmRevStrTable
 .data          0x805d5c9c        0x0 ../libboard.a(am43xx_evmsk.o)
 .data.gpBoardAm43xxEvmskRevStrTable
                0x805d5c9c        0x8 ../libboard.a(am43xx_evmsk.o)
                0x805d5c9c                gpBoardAm43xxEvmskRevStrTable
 .data          0x805d5ca4        0x0 ../libboard.a(am43xx_idkevm.o)
 .data.gpBoardAm43xxIdkevmRevStrTable
                0x805d5ca4        0x8 ../libboard.a(am43xx_idkevm.o)
                0x805d5ca4                gpBoardAm43xxIdkevmRevStrTable
 .data          0x805d5cac        0x0 ../libboard.a(am43xx_eposevm.o)
 .data.gpBoardAm43xxEposevmRevStrTable
                0x805d5cac        0xc ../libboard.a(am43xx_eposevm.o)
                0x805d5cac                gpBoardAm43xxEposevmRevStrTable
 .data          0x805d5cb8        0x0 ../libboard.a(am43xx_custom.o)
 .data.gpBoardAm43xxCustomRevStrTable
                0x805d5cb8        0x4 ../libboard.a(am43xx_custom.o)
                0x805d5cb8                gpBoardAm43xxCustomRevStrTable
 .data          0x805d5cbc        0x0 ../libboard.a(am43xx_gpevm_pinmux_data.o)
 .data.gCpsw0PinCfg
                0x805d5cbc       0x78 ../libboard.a(am43xx_gpevm_pinmux_data.o)
 .data.gCpswPinCfg
                0x805d5d34       0x10 ../libboard.a(am43xx_gpevm_pinmux_data.o)
 .data.gDcan0PinCfg
                0x805d5d44       0x18 ../libboard.a(am43xx_gpevm_pinmux_data.o)
 .data.gDcanPinCfg
                0x805d5d5c       0x10 ../libboard.a(am43xx_gpevm_pinmux_data.o)
 .data.gDss0PinCfg
                0x805d5d6c       0xe8 ../libboard.a(am43xx_gpevm_pinmux_data.o)
 .data.gDssPinCfg
                0x805d5e54       0x10 ../libboard.a(am43xx_gpevm_pinmux_data.o)
 .data.gGpevmPinmuxData
                0x805d5e64       0x68 ../libboard.a(am43xx_gpevm_pinmux_data.o)
                0x805d5e64                gGpevmPinmuxData
 .data.gGpio0PinCfg
                0x805d5ecc       0x28 ../libboard.a(am43xx_gpevm_pinmux_data.o)
 .data.gGpio3PinCfg
                0x805d5ef4       0x30 ../libboard.a(am43xx_gpevm_pinmux_data.o)
 .data.gGpio4PinCfg
                0x805d5f24       0x20 ../libboard.a(am43xx_gpevm_pinmux_data.o)
 .data.gGpio5PinCfg
                0x805d5f44       0x30 ../libboard.a(am43xx_gpevm_pinmux_data.o)
 .data.gGpioPinCfg
                0x805d5f74       0x28 ../libboard.a(am43xx_gpevm_pinmux_data.o)
 .data.gGpmc0PinCfg
                0x805d5f9c       0x80 ../libboard.a(am43xx_gpevm_pinmux_data.o)
 .data.gGpmcPinCfg
                0x805d601c       0x10 ../libboard.a(am43xx_gpevm_pinmux_data.o)
 .data.gI2c0PinCfg
                0x805d602c       0x18 ../libboard.a(am43xx_gpevm_pinmux_data.o)
 .data.gI2c1PinCfg
                0x805d6044       0x18 ../libboard.a(am43xx_gpevm_pinmux_data.o)
 .data.gI2cPinCfg
                0x805d605c       0x18 ../libboard.a(am43xx_gpevm_pinmux_data.o)
 .data.gMcasp0PinCfg
                0x805d6074       0x40 ../libboard.a(am43xx_gpevm_pinmux_data.o)
 .data.gMcasp1PinCfg
                0x805d60b4       0x28 ../libboard.a(am43xx_gpevm_pinmux_data.o)
 .data.gMcaspPinCfg
                0x805d60dc       0x18 ../libboard.a(am43xx_gpevm_pinmux_data.o)
 .data.gMmcsd0PinCfg
                0x805d60f4       0x40 ../libboard.a(am43xx_gpevm_pinmux_data.o)
 .data.gMmcsd1PinCfg
                0x805d6134       0x58 ../libboard.a(am43xx_gpevm_pinmux_data.o)
 .data.gMmcsdPinCfg
                0x805d618c       0x18 ../libboard.a(am43xx_gpevm_pinmux_data.o)
 .data.gPwmss0PinCfg
                0x805d61a4       0x10 ../libboard.a(am43xx_gpevm_pinmux_data.o)
 .data.gPwmssPinCfg
                0x805d61b4       0x10 ../libboard.a(am43xx_gpevm_pinmux_data.o)
 .data.gUart0PinCfg
                0x805d61c4       0x28 ../libboard.a(am43xx_gpevm_pinmux_data.o)
 .data.gUartPinCfg
                0x805d61ec       0x10 ../libboard.a(am43xx_gpevm_pinmux_data.o)
 .data.gUsb0PinCfg
                0x805d61fc       0x10 ../libboard.a(am43xx_gpevm_pinmux_data.o)
 .data.gUsb1PinCfg
                0x805d620c       0x10 ../libboard.a(am43xx_gpevm_pinmux_data.o)
 .data.gUsbPinCfg
                0x805d621c       0x18 ../libboard.a(am43xx_gpevm_pinmux_data.o)
 .data.gVpfe0PinCfg
                0x805d6234       0x70 ../libboard.a(am43xx_gpevm_pinmux_data.o)
 .data.gVpfe1PinCfg
                0x805d62a4       0x70 ../libboard.a(am43xx_gpevm_pinmux_data.o)
 .data.gVpfePinCfg
                0x805d6314       0x18 ../libboard.a(am43xx_gpevm_pinmux_data.o)
 .data          0x805d632c        0x0 ../libboard.a(am43xx_evmsk_pinmux_data.o)
 .data.gCpsw0PinCfg
                0x805d632c       0xd8 ../libboard.a(am43xx_evmsk_pinmux_data.o)
 .data.gCpswPinCfg
                0x805d6404       0x10 ../libboard.a(am43xx_evmsk_pinmux_data.o)
 .data.gEvmskPinmuxData
                0x805d6414       0x38 ../libboard.a(am43xx_evmsk_pinmux_data.o)
                0x805d6414                gEvmskPinmuxData
 .data.gGpio0PinCfg
                0x805d644c       0x10 ../libboard.a(am43xx_evmsk_pinmux_data.o)
 .data.gGpio5PinCfg
                0x805d645c       0x48 ../libboard.a(am43xx_evmsk_pinmux_data.o)
 .data.gGpioPinCfg
                0x805d64a4       0x18 ../libboard.a(am43xx_evmsk_pinmux_data.o)
 .data.gI2c0PinCfg
                0x805d64bc       0x18 ../libboard.a(am43xx_evmsk_pinmux_data.o)
 .data.gI2c1PinCfg
                0x805d64d4       0x18 ../libboard.a(am43xx_evmsk_pinmux_data.o)
 .data.gI2cPinCfg
                0x805d64ec       0x18 ../libboard.a(am43xx_evmsk_pinmux_data.o)
 .data.gMmcsd0PinCfg
                0x805d6504       0x38 ../libboard.a(am43xx_evmsk_pinmux_data.o)
 .data.gMmcsdPinCfg
                0x805d653c       0x10 ../libboard.a(am43xx_evmsk_pinmux_data.o)
 .data.gQspi0PinCfg
                0x805d654c       0x38 ../libboard.a(am43xx_evmsk_pinmux_data.o)
 .data.gQspiPinCfg
                0x805d6584       0x10 ../libboard.a(am43xx_evmsk_pinmux_data.o)
 .data.gUart0PinCfg
                0x805d6594       0x28 ../libboard.a(am43xx_evmsk_pinmux_data.o)
 .data.gUartPinCfg
                0x805d65bc       0x10 ../libboard.a(am43xx_evmsk_pinmux_data.o)
 .data          0x805d65cc        0x0 ../libboard.a(am43xx_idkevm_pinmux_data.o)
 .data.gAdc0PinCfg
                0x805d65cc       0x10 ../libboard.a(am43xx_idkevm_pinmux_data.o)
 .data.gAdcPinCfg
                0x805d65dc       0x10 ../libboard.a(am43xx_idkevm_pinmux_data.o)
 .data.gCpsw0PinCfg
                0x805d65ec       0x78 ../libboard.a(am43xx_idkevm_pinmux_data.o)
 .data.gCpswPinCfg
                0x805d6664       0x10 ../libboard.a(am43xx_idkevm_pinmux_data.o)
 .data.gGpio0PinCfg
                0x805d6674       0x38 ../libboard.a(am43xx_idkevm_pinmux_data.o)
 .data.gGpio2PinCfg
                0x805d66ac       0x28 ../libboard.a(am43xx_idkevm_pinmux_data.o)
 .data.gGpio3PinCfg
                0x805d66d4       0x10 ../libboard.a(am43xx_idkevm_pinmux_data.o)
 .data.gGpio4PinCfg
                0x805d66e4       0x48 ../libboard.a(am43xx_idkevm_pinmux_data.o)
 .data.gGpio5PinCfg
                0x805d672c       0x20 ../libboard.a(am43xx_idkevm_pinmux_data.o)
 .data.gGpioPinCfg
                0x805d674c       0x30 ../libboard.a(am43xx_idkevm_pinmux_data.o)
 .data.gI2c0PinCfg
                0x805d677c       0x18 ../libboard.a(am43xx_idkevm_pinmux_data.o)
 .data.gI2c2PinCfg
                0x805d6794       0x18 ../libboard.a(am43xx_idkevm_pinmux_data.o)
 .data.gI2cPinCfg
                0x805d67ac       0x18 ../libboard.a(am43xx_idkevm_pinmux_data.o)
 .data.gIdkevmPinmuxData
                0x805d67c4       0x70 ../libboard.a(am43xx_idkevm_pinmux_data.o)
                0x805d67c4                gIdkevmPinmuxData
 .data.gMcasp0PinCfg
                0x805d6834       0x40 ../libboard.a(am43xx_idkevm_pinmux_data.o)
 .data.gMcaspPinCfg
                0x805d6874       0x10 ../libboard.a(am43xx_idkevm_pinmux_data.o)
 .data.gMcspi0PinCfg
                0x805d6884       0x28 ../libboard.a(am43xx_idkevm_pinmux_data.o)
 .data.gMcspi1PinCfg
                0x805d68ac       0x20 ../libboard.a(am43xx_idkevm_pinmux_data.o)
 .data.gMcspiPinCfg
                0x805d68cc       0x18 ../libboard.a(am43xx_idkevm_pinmux_data.o)
 .data.gMmcsd0PinCfg
                0x805d68e4       0x48 ../libboard.a(am43xx_idkevm_pinmux_data.o)
 .data.gMmcsdPinCfg
                0x805d692c       0x10 ../libboard.a(am43xx_idkevm_pinmux_data.o)
 .data.gPru_icss0PinCfg
                0x805d693c       0x80 ../libboard.a(am43xx_idkevm_pinmux_data.o)
 .data.gPru_icss1PinCfg
                0x805d69bc      0x1a0 ../libboard.a(am43xx_idkevm_pinmux_data.o)
 .data.gPru_icssPinCfg
                0x805d6b5c       0x18 ../libboard.a(am43xx_idkevm_pinmux_data.o)
 .data.gPwmss0PinCfg
                0x805d6b74       0x10 ../libboard.a(am43xx_idkevm_pinmux_data.o)
 .data.gPwmss2PinCfg
                0x805d6b84       0x28 ../libboard.a(am43xx_idkevm_pinmux_data.o)
 .data.gPwmss3PinCfg
                0x805d6bac       0x28 ../libboard.a(am43xx_idkevm_pinmux_data.o)
 .data.gPwmss4PinCfg
                0x805d6bd4       0x18 ../libboard.a(am43xx_idkevm_pinmux_data.o)
 .data.gPwmss5PinCfg
                0x805d6bec       0x18 ../libboard.a(am43xx_idkevm_pinmux_data.o)
 .data.gPwmssPinCfg
                0x805d6c04       0x30 ../libboard.a(am43xx_idkevm_pinmux_data.o)
 .data.gQspi0PinCfg
                0x805d6c34       0x38 ../libboard.a(am43xx_idkevm_pinmux_data.o)
 .data.gQspiPinCfg
                0x805d6c6c       0x10 ../libboard.a(am43xx_idkevm_pinmux_data.o)
 .data.gUart0PinCfg
                0x805d6c7c       0x18 ../libboard.a(am43xx_idkevm_pinmux_data.o)
 .data.gUartPinCfg
                0x805d6c94       0x10 ../libboard.a(am43xx_idkevm_pinmux_data.o)
 .data.gUsb0PinCfg
                0x805d6ca4       0x10 ../libboard.a(am43xx_idkevm_pinmux_data.o)
 .data.gUsb1PinCfg
                0x805d6cb4       0x10 ../libboard.a(am43xx_idkevm_pinmux_data.o)
 .data.gUsbPinCfg
                0x805d6cc4       0x18 ../libboard.a(am43xx_idkevm_pinmux_data.o)
 .data.gVpfe0PinCfg
                0x805d6cdc       0x70 ../libboard.a(am43xx_idkevm_pinmux_data.o)
 .data.gVpfe1PinCfg
                0x805d6d4c       0x70 ../libboard.a(am43xx_idkevm_pinmux_data.o)
 .data.gVpfePinCfg
                0x805d6dbc       0x18 ../libboard.a(am43xx_idkevm_pinmux_data.o)
 .data          0x805d6dd4        0x0 ../libboard.a(am43xx_eposevm_pinmux_data.o)
 .data.gEposevmPinmuxData
                0x805d6dd4       0x10 ../libboard.a(am43xx_eposevm_pinmux_data.o)
                0x805d6dd4                gEposevmPinmuxData
 .data.gMmcsd0PinCfg
                0x805d6de4        0x8 ../libboard.a(am43xx_eposevm_pinmux_data.o)
 .data.gMmcsdPinCfg
                0x805d6dec       0x10 ../libboard.a(am43xx_eposevm_pinmux_data.o)
 .data          0x805d6dfc        0x0 ../libdal.a(gpio.o)
 .data          0x805d6dfc        0x0 ../libdevice.a(qspi_flash.o)
 .data.gQspiFlashDeviceData
                0x805d6dfc       0x28 ../libdevice.a(qspi_flash.o)
                0x805d6dfc                gQspiFlashDeviceData
 .data.gQspiFlashDeviceIdList
                0x805d6e24        0xc ../libdevice.a(qspi_flash.o)
                0x805d6e24                gQspiFlashDeviceIdList
 .data          0x805d6e30        0x0 ../libexample_utils.a(example_utils_mmu.o)
 .data.regionDdr
                0x805d6e30       0x14 ../libexample_utils.a(example_utils_mmu.o)
                0x805d6e30                regionDdr
 .data.regionDev
                0x805d6e44       0x14 ../libexample_utils.a(example_utils_mmu.o)
                0x805d6e44                regionDev
 .data.regionOcmc
                0x805d6e58       0x14 ../libexample_utils.a(example_utils_mmu.o)
                0x805d6e58                regionOcmc
 .data.regionQspi
                0x805d6e6c       0x14 ../libexample_utils.a(example_utils_mmu.o)
                0x805d6e6c                regionQspi
 .data          0x805d6e80        0x0 ../libqspi_lib.a(qspi_lib.o)
 .data          0x805d6e80        0x0 ../libsoc.a(soc.o)
 .data          0x805d6e80        0x0 ../libsoc.a(startup.o)
 .data          0x805d6e80        0x0 ../libsoc.a(am43xx_chipdb.o)
 .data.gChipDBEnabled
                0x805d6e80        0x4 ../libsoc.a(am43xx_chipdb.o)
 .data          0x805d6e84        0x0 ../libsoc.a(hw_am43xx_chipdb.o)
 .data          0x805d6e84        0x0 ../libsoc.a(hw_am43xx_chipdb_baseaddr.o)
 .data          0x805d6e84        0x0 ../libsoc.a(hw_am43xx_chipdb_interrupt.o)
 .data.gChipDBInterruptTables
                0x805d6e84      0x290 ../libsoc.a(hw_am43xx_chipdb_interrupt.o)
                0x805d6e84                gChipDBInterruptTables
 .data          0x805d7114        0x0 ../libsoc.a(am43xx_prcm.o)
 .data          0x805d7114        0x0 ../libsoc.a(hw_prcm_data.o)
 .data.prcmGraph
                0x805d7114       0x14 ../libsoc.a(hw_prcm_data.o)
                0x805d7114                prcmGraph
 .data          0x805d7128        0x0 ../libsoc.a(cache_arm.o)
 .data          0x805d7128        0x0 ../libsoc.a(mmu_arm.o)
 .data          0x805d7128        0x0 ../libsoc.a(cp15.o)
 .data          0x805d7128        0x0 ../libsoc.a(exceptionhandler.o)
 .data          0x805d7128        0x0 ../libsoc.a(cpu.o)
 .data          0x805d7128        0x0 ../libsoc.a(gic.o)
 .data          0x805d7128        0x0 ../libutils.a(console_utils.o)
 .data          0x805d7128        0x0 ../libutils.a(agraph.o)
 .data          0x805d7128        0x0 ../libutils.a(i2c_utils.o)
 .data          0x805d7128        0x0 ../libutils.a(console_utils_uart.o)
 .data          0x805d7128        0x0 ../libutils.a(ascii_utils.o)
 .data          0x805d7128        0x0 c:/ti/gcc-arm-none-eabi-6-2017-q1-update/bin/../lib/gcc/arm-none-eabi/6.3.1/hard\libgcc.a(_udivsi3.o)
 .data          0x805d7128        0x0 c:/ti/gcc-arm-none-eabi-6-2017-q1-update/bin/../lib/gcc/arm-none-eabi/6.3.1/hard\libgcc.a(_dvmd_tls.o)
 .data          0x805d7128        0x0 c:/ti/gcc-arm-none-eabi-6-2017-q1-update/bin/../lib/gcc/arm-none-eabi/6.3.1/hard\libgcc.a(_aeabi_uldivmod.o)
 .data          0x805d7128        0x0 c:/ti/gcc-arm-none-eabi-6-2017-q1-update/bin/../lib/gcc/arm-none-eabi/6.3.1/hard\libgcc.a(_fixunsdfdi.o)
 .data          0x805d7128        0x0 c:/ti/gcc-arm-none-eabi-6-2017-q1-update/bin/../lib/gcc/arm-none-eabi/6.3.1/hard\libgcc.a(_udivmoddi4.o)
 .data          0x805d7128        0x0 c:/ti/gcc-arm-none-eabi-6-2017-q1-update/bin/../lib/gcc/arm-none-eabi/6.3.1/hard\libgcc.a(_clzdi2.o)
 .data          0x805d7128        0x0 c:/ti/gcc-arm-none-eabi-6-2017-q1-update/bin/../lib/gcc/arm-none-eabi/6.3.1/hard\libgcc.a(_clzsi2.o)
 .data          0x805d7128        0x0 c:/ti/gcc-arm-none-eabi-6-2017-q1-update/bin/../lib/gcc/arm-none-eabi/6.3.1/../../../../arm-none-eabi/lib/hard\libg.a(lib_a-assert.o)
 .data          0x805d7128        0x0 c:/ti/gcc-arm-none-eabi-6-2017-q1-update/bin/../lib/gcc/arm-none-eabi/6.3.1/../../../../arm-none-eabi/lib/hard\libg.a(lib_a-fiprintf.o)
 .data          0x805d7128        0x0 c:/ti/gcc-arm-none-eabi-6-2017-q1-update/bin/../lib/gcc/arm-none-eabi/6.3.1/../../../../arm-none-eabi/lib/hard\libg.a(lib_a-memcpy-stub.o)
 .data          0x805d7128        0x0 c:/ti/gcc-arm-none-eabi-6-2017-q1-update/bin/../lib/gcc/arm-none-eabi/6.3.1/../../../../arm-none-eabi/lib/hard\libg.a(lib_a-strncmp.o)
 .data          0x805d7128        0x0 c:/ti/gcc-arm-none-eabi-6-2017-q1-update/bin/../lib/gcc/arm-none-eabi/6.3.1/../../../../arm-none-eabi/lib/hard\libg.a(lib_a-vfiprintf.o)
 .data          0x805d7128        0x0 c:/ti/gcc-arm-none-eabi-6-2017-q1-update/bin/../lib/gcc/arm-none-eabi/6.3.1/../../../../arm-none-eabi/lib/hard\libg.a(lib_a-wsetup.o)
 .data          0x805d7128        0x0 c:/ti/gcc-arm-none-eabi-6-2017-q1-update/bin/../lib/gcc/arm-none-eabi/6.3.1/../../../../arm-none-eabi/lib/hard\libg.a(lib_a-abort.o)
 .data          0x805d7128        0x0 c:/ti/gcc-arm-none-eabi-6-2017-q1-update/bin/../lib/gcc/arm-none-eabi/6.3.1/../../../../arm-none-eabi/lib/hard\libg.a(lib_a-fflush.o)
 .data          0x805d7128        0x0 c:/ti/gcc-arm-none-eabi-6-2017-q1-update/bin/../lib/gcc/arm-none-eabi/6.3.1/../../../../arm-none-eabi/lib/hard\libg.a(lib_a-findfp.o)
 .data          0x805d7128        0x0 c:/ti/gcc-arm-none-eabi-6-2017-q1-update/bin/../lib/gcc/arm-none-eabi/6.3.1/../../../../arm-none-eabi/lib/hard\libg.a(lib_a-fputwc.o)
 .data          0x805d7128        0x0 c:/ti/gcc-arm-none-eabi-6-2017-q1-update/bin/../lib/gcc/arm-none-eabi/6.3.1/../../../../arm-none-eabi/lib/hard\libg.a(lib_a-freer.o)
 .data          0x805d7128        0x0 c:/ti/gcc-arm-none-eabi-6-2017-q1-update/bin/../lib/gcc/arm-none-eabi/6.3.1/../../../../arm-none-eabi/lib/hard\libg.a(lib_a-fvwrite.o)
 .data          0x805d7128        0x0 c:/ti/gcc-arm-none-eabi-6-2017-q1-update/bin/../lib/gcc/arm-none-eabi/6.3.1/../../../../arm-none-eabi/lib/hard\libg.a(lib_a-fwalk.o)
 .data          0x805d7128        0x0 c:/ti/gcc-arm-none-eabi-6-2017-q1-update/bin/../lib/gcc/arm-none-eabi/6.3.1/../../../../arm-none-eabi/lib/hard\libg.a(lib_a-locale.o)
 .data.__global_locale
                0x805d7128      0x16c c:/ti/gcc-arm-none-eabi-6-2017-q1-update/bin/../lib/gcc/arm-none-eabi/6.3.1/../../../../arm-none-eabi/lib/hard\libg.a(lib_a-locale.o)
                0x805d7128                __global_locale
 .data          0x805d7294        0x0 c:/ti/gcc-arm-none-eabi-6-2017-q1-update/bin/../lib/gcc/arm-none-eabi/6.3.1/../../../../arm-none-eabi/lib/hard\libg.a(lib_a-makebuf.o)
 .data          0x805d7294        0x0 c:/ti/gcc-arm-none-eabi-6-2017-q1-update/bin/../lib/gcc/arm-none-eabi/6.3.1/../../../../arm-none-eabi/lib/hard\libg.a(lib_a-mallocr.o)
 .data.__malloc_av_
                0x805d7294      0x408 c:/ti/gcc-arm-none-eabi-6-2017-q1-update/bin/../lib/gcc/arm-none-eabi/6.3.1/../../../../arm-none-eabi/lib/hard\libg.a(lib_a-mallocr.o)
                0x805d7294                __malloc_av_
 .data.__malloc_sbrk_base
                0x805d769c        0x4 c:/ti/gcc-arm-none-eabi-6-2017-q1-update/bin/../lib/gcc/arm-none-eabi/6.3.1/../../../../arm-none-eabi/lib/hard\libg.a(lib_a-mallocr.o)
                0x805d769c                __malloc_sbrk_base
 .data.__malloc_trim_threshold
                0x805d76a0        0x4 c:/ti/gcc-arm-none-eabi-6-2017-q1-update/bin/../lib/gcc/arm-none-eabi/6.3.1/../../../../arm-none-eabi/lib/hard\libg.a(lib_a-mallocr.o)
                0x805d76a0                __malloc_trim_threshold
 .data          0x805d76a4        0x0 c:/ti/gcc-arm-none-eabi-6-2017-q1-update/bin/../lib/gcc/arm-none-eabi/6.3.1/../../../../arm-none-eabi/lib/hard\libg.a(lib_a-mbtowc_r.o)
 .data          0x805d76a4        0x0 c:/ti/gcc-arm-none-eabi-6-2017-q1-update/bin/../lib/gcc/arm-none-eabi/6.3.1/../../../../arm-none-eabi/lib/hard\libg.a(lib_a-memchr-stub.o)
 .data          0x805d76a4        0x0 c:/ti/gcc-arm-none-eabi-6-2017-q1-update/bin/../lib/gcc/arm-none-eabi/6.3.1/../../../../arm-none-eabi/lib/hard\libg.a(lib_a-memmove.o)
 .data          0x805d76a4        0x0 c:/ti/gcc-arm-none-eabi-6-2017-q1-update/bin/../lib/gcc/arm-none-eabi/6.3.1/../../../../arm-none-eabi/lib/hard\libg.a(lib_a-mlock.o)
 .data          0x805d76a4        0x0 c:/ti/gcc-arm-none-eabi-6-2017-q1-update/bin/../lib/gcc/arm-none-eabi/6.3.1/../../../../arm-none-eabi/lib/hard\libg.a(lib_a-reallocr.o)
 .data          0x805d76a4        0x0 c:/ti/gcc-arm-none-eabi-6-2017-q1-update/bin/../lib/gcc/arm-none-eabi/6.3.1/../../../../arm-none-eabi/lib/hard\libg.a(lib_a-sbrkr.o)
 .data          0x805d76a4        0x0 c:/ti/gcc-arm-none-eabi-6-2017-q1-update/bin/../lib/gcc/arm-none-eabi/6.3.1/../../../../arm-none-eabi/lib/hard\libg.a(lib_a-signal.o)
 .data          0x805d76a4        0x0 c:/ti/gcc-arm-none-eabi-6-2017-q1-update/bin/../lib/gcc/arm-none-eabi/6.3.1/../../../../arm-none-eabi/lib/hard\libg.a(lib_a-signalr.o)
 .data          0x805d76a4        0x0 c:/ti/gcc-arm-none-eabi-6-2017-q1-update/bin/../lib/gcc/arm-none-eabi/6.3.1/../../../../arm-none-eabi/lib/hard\libg.a(lib_a-stdio.o)
 .data          0x805d76a4        0x0 c:/ti/gcc-arm-none-eabi-6-2017-q1-update/bin/../lib/gcc/arm-none-eabi/6.3.1/../../../../arm-none-eabi/lib/hard\libg.a(lib_a-strcmp.o)
 .data          0x805d76a4        0x0 c:/ti/gcc-arm-none-eabi-6-2017-q1-update/bin/../lib/gcc/arm-none-eabi/6.3.1/../../../../arm-none-eabi/lib/hard\libg.a(lib_a-strlen-stub.o)
 .data          0x805d76a4        0x0 c:/ti/gcc-arm-none-eabi-6-2017-q1-update/bin/../lib/gcc/arm-none-eabi/6.3.1/../../../../arm-none-eabi/lib/hard\libg.a(lib_a-wbuf.o)
 .data          0x805d76a4        0x0 c:/ti/gcc-arm-none-eabi-6-2017-q1-update/bin/../lib/gcc/arm-none-eabi/6.3.1/../../../../arm-none-eabi/lib/hard\libg.a(lib_a-wcrtomb.o)
 .data          0x805d76a4        0x0 c:/ti/gcc-arm-none-eabi-6-2017-q1-update/bin/../lib/gcc/arm-none-eabi/6.3.1/../../../../arm-none-eabi/lib/hard\libg.a(lib_a-wctomb_r.o)
 .data          0x805d76a4        0x0 c:/ti/gcc-arm-none-eabi-6-2017-q1-update/bin/../lib/gcc/arm-none-eabi/6.3.1/../../../../arm-none-eabi/lib/hard\libg.a(lib_a-writer.o)
 .data          0x805d76a4        0x0 c:/ti/gcc-arm-none-eabi-6-2017-q1-update/bin/../lib/gcc/arm-none-eabi/6.3.1/../../../../arm-none-eabi/lib/hard\libg.a(lib_a-closer.o)
 .data          0x805d76a4        0x0 c:/ti/gcc-arm-none-eabi-6-2017-q1-update/bin/../lib/gcc/arm-none-eabi/6.3.1/../../../../arm-none-eabi/lib/hard\libg.a(lib_a-ctype_.o)
 .data          0x805d76a4        0x0 c:/ti/gcc-arm-none-eabi-6-2017-q1-update/bin/../lib/gcc/arm-none-eabi/6.3.1/../../../../arm-none-eabi/lib/hard\libg.a(lib_a-fclose.o)
 .data          0x805d76a4        0x0 c:/ti/gcc-arm-none-eabi-6-2017-q1-update/bin/../lib/gcc/arm-none-eabi/6.3.1/../../../../arm-none-eabi/lib/hard\libg.a(lib_a-fstatr.o)
 .data          0x805d76a4        0x0 c:/ti/gcc-arm-none-eabi-6-2017-q1-update/bin/../lib/gcc/arm-none-eabi/6.3.1/../../../../arm-none-eabi/lib/hard\libg.a(lib_a-isattyr.o)
 .data          0x805d76a4        0x0 c:/ti/gcc-arm-none-eabi-6-2017-q1-update/bin/../lib/gcc/arm-none-eabi/6.3.1/../../../../arm-none-eabi/lib/hard\libg.a(lib_a-lseekr.o)
 .data          0x805d76a4        0x0 c:/ti/gcc-arm-none-eabi-6-2017-q1-update/bin/../lib/gcc/arm-none-eabi/6.3.1/../../../../arm-none-eabi/lib/hard\libg.a(lib_a-readr.o)
 .data          0x805d76a4        0x0 c:/ti/gcc-arm-none-eabi-6-2017-q1-update/bin/../lib/gcc/arm-none-eabi/6.3.1/../../../../arm-none-eabi/lib/hard\libg.a(lib_a-reent.o)
 .data          0x805d76a4        0x0 c:/ti/gcc-arm-none-eabi-6-2017-q1-update/bin/../lib/gcc/arm-none-eabi/6.3.1/hard\libgcc.a(_divsi3.o)
 .data          0x805d76a4        0x0 c:/ti/gcc-arm-none-eabi-6-2017-q1-update/bin/../lib/gcc/arm-none-eabi/6.3.1/../../../../arm-none-eabi/lib/hard\libnosys.a(close.o)
 .data          0x805d76a4        0x0 c:/ti/gcc-arm-none-eabi-6-2017-q1-update/bin/../lib/gcc/arm-none-eabi/6.3.1/../../../../arm-none-eabi/lib/hard\libnosys.a(fstat.o)
 .data          0x805d76a4        0x0 c:/ti/gcc-arm-none-eabi-6-2017-q1-update/bin/../lib/gcc/arm-none-eabi/6.3.1/../../../../arm-none-eabi/lib/hard\libnosys.a(getpid.o)
 .data          0x805d76a4        0x0 c:/ti/gcc-arm-none-eabi-6-2017-q1-update/bin/../lib/gcc/arm-none-eabi/6.3.1/../../../../arm-none-eabi/lib/hard\libnosys.a(isatty.o)
 .data          0x805d76a4        0x0 c:/ti/gcc-arm-none-eabi-6-2017-q1-update/bin/../lib/gcc/arm-none-eabi/6.3.1/../../../../arm-none-eabi/lib/hard\libnosys.a(kill.o)
 .data          0x805d76a4        0x0 c:/ti/gcc-arm-none-eabi-6-2017-q1-update/bin/../lib/gcc/arm-none-eabi/6.3.1/../../../../arm-none-eabi/lib/hard\libnosys.a(lseek.o)
 .data          0x805d76a4        0x0 c:/ti/gcc-arm-none-eabi-6-2017-q1-update/bin/../lib/gcc/arm-none-eabi/6.3.1/../../../../arm-none-eabi/lib/hard\libnosys.a(read.o)
 .data          0x805d76a4        0x0 c:/ti/gcc-arm-none-eabi-6-2017-q1-update/bin/../lib/gcc/arm-none-eabi/6.3.1/../../../../arm-none-eabi/lib/hard\libnosys.a(sbrk.o)
 .data          0x805d76a4        0x0 c:/ti/gcc-arm-none-eabi-6-2017-q1-update/bin/../lib/gcc/arm-none-eabi/6.3.1/../../../../arm-none-eabi/lib/hard\libnosys.a(write.o)
 .data          0x805d76a4        0x0 c:/ti/gcc-arm-none-eabi-6-2017-q1-update/bin/../lib/gcc/arm-none-eabi/6.3.1/../../../../arm-none-eabi/lib/hard\libnosys.a(_exit.o)
 .data          0x805d76a4        0x0 c:/ti/gcc-arm-none-eabi-6-2017-q1-update/bin/../lib/gcc/arm-none-eabi/6.3.1/hard/crtend.o
 .data          0x805d76a4        0x0 c:/ti/gcc-arm-none-eabi-6-2017-q1-update/bin/../lib/gcc/arm-none-eabi/6.3.1/hard/crtn.o
                0x805d76a4                . = ALIGN (0x4)
                0x805d76a4                PROVIDE (__preinit_array_start, .)
 *(.preinit_array)
                0x805d76a4                PROVIDE (__preinit_array_end, .)
                0x805d76a4                . = ALIGN (0x4)
                0x805d76a4                PROVIDE (__init_array_start, .)
 *(SORT(.init_array.*))
 .init_array.00000
                0x805d76a4        0x4 c:/ti/gcc-arm-none-eabi-6-2017-q1-update/bin/../lib/gcc/arm-none-eabi/6.3.1/../../../../arm-none-eabi/lib/hard\libc.a(lib_a-__call_atexit.o)
 *(.init_array)
 .init_array    0x805d76a8        0x4 c:/ti/gcc-arm-none-eabi-6-2017-q1-update/bin/../lib/gcc/arm-none-eabi/6.3.1/hard/crtbegin.o
                0x805d76ac                PROVIDE (__init_array_end, .)
                0x805d76ac                . = ALIGN (0x4)
                0x805d76ac                PROVIDE (__fini_array_start, .)
 *(SORT(.fini_array.*))
 *(.fini_array)
 .fini_array    0x805d76ac        0x4 c:/ti/gcc-arm-none-eabi-6-2017-q1-update/bin/../lib/gcc/arm-none-eabi/6.3.1/hard/crtbegin.o
                0x805d76b0                PROVIDE (__fini_array_end, .)
                0x805d76b0                . = ALIGN (0x4)
                0x805d76b0                __data_end__ = .

.jcr            0x805d76b0        0x4
 .jcr           0x805d76b0        0x0 c:/ti/gcc-arm-none-eabi-6-2017-q1-update/bin/../lib/gcc/arm-none-eabi/6.3.1/hard/crtbegin.o
 .jcr           0x805d76b0        0x4 c:/ti/gcc-arm-none-eabi-6-2017-q1-update/bin/../lib/gcc/arm-none-eabi/6.3.1/hard/crtend.o

.igot.plt       0x805d76b4        0x0
 .igot.plt      0x805d76b4        0x0 c:/ti/gcc-arm-none-eabi-6-2017-q1-update/bin/../lib/gcc/arm-none-eabi/6.3.1/hard/crtbegin.o

.const:divRatios
                0x805d76b4       0x5d
 .const:divRatios
                0x805d76b4       0x5d ../libsoc.a(hw_prcm_data.o)
                0x805d76b4                PRCM_DIV_UART5_divRatios
                0x805d76b8                PRCM_DIV_CLK_DIV_24_divRatios
                0x805d76bc                PRCM_DIV_VTP_CLK_divRatios
                0x805d76c0                PRCM_DIV_USIM_FCLK_divRatios
                0x805d76c4                PRCM_DIV_CPSW_5M_divRatios
                0x805d76c8                PRCM_DIV_CPSW_50M_divRatios
                0x805d76cc                PRCM_DIV_CPSW_125MHZ_OCP_divRatios
                0x805d76d0                PRCM_DIV_PDA2CAD8896B3447FD_divRatios
                0x805d76d4                PRCM_DIV_MMC_divRatios
                0x805d76d8                PRCM_DIV_PERS_CLK_divRatios
                0x805d76dc                PRCM_DIV_GFX_FCLK_divRatios
                0x805d76e0                PRCM_DIV_DLL_AGING_CLK_divRatios
                0x805d76e4                PRCM_DIV_CLKOUT2_DIV2_divRatios
                0x805d76ec                PRCM_DIV_CLKOUT2_DIV1_divRatios
                0x805d76f4                PRCM_DIV_CLKOUT1SEL2DIV2_divRatios
                0x805d76fc                PRCM_DIV_CLKOUT1SEL2DIV1_divRatios
                0x805d7704                PRCM_DIV_CLKOUT1SEL0DIV_divRatios
                0x805d7708                PRCM_DIV_SYSCLK_divRatios
                0x805d770c                PRCM_DIV_CORE_25M_divRatios
                0x805d7710                PRCM_DIV_CORE_L4_divRatios

.bss            0x805d8000   0x55c004
                0x805d8000                . = ALIGN (0x4)
                0x805d8000                __bss_start__ = .
 *(.bss*)
 .bss           0x805d8000        0x0 c:/ti/gcc-arm-none-eabi-6-2017-q1-update/bin/../lib/gcc/arm-none-eabi/6.3.1/hard/crti.o
 .bss           0x805d8000       0x1c c:/ti/gcc-arm-none-eabi-6-2017-q1-update/bin/../lib/gcc/arm-none-eabi/6.3.1/hard/crtbegin.o
 .bss           0x805d801c        0x0 c:/ti/gcc-arm-none-eabi-6-2017-q1-update/bin/../lib/gcc/arm-none-eabi/6.3.1/../../../../arm-none-eabi/lib/hard/crt0.o
 .bss           0x805d801c        0x0 ./i2c.o
 .bss           0x805d801c        0x0 ./qspi.o
 .bss           0x805d801c        0x0 ./qspi_app.o
 .bss           0x805d801c        0x0 ./startup_ARMCA9.o
 .bss           0x805d801c        0x0 ./uart.o
 .bss           0x805d801c        0x0 ./flash_writer/crc16.o
 *fill*         0x805d801c       0x64 
 .bss           0x805d8080   0x553154 ./flash_writer/flash_writer_app_main.o
 .bss           0x80b2b1d4        0x0 c:/ti/gcc-arm-none-eabi-6-2017-q1-update/bin/../lib/gcc/arm-none-eabi/6.3.1/../../../../arm-none-eabi/lib/hard\libc.a(lib_a-exit.o)
 .bss           0x80b2b1d4        0x0 c:/ti/gcc-arm-none-eabi-6-2017-q1-update/bin/../lib/gcc/arm-none-eabi/6.3.1/../../../../arm-none-eabi/lib/hard\libc.a(lib_a-impure.o)
 .bss           0x80b2b1d4        0x0 c:/ti/gcc-arm-none-eabi-6-2017-q1-update/bin/../lib/gcc/arm-none-eabi/6.3.1/../../../../arm-none-eabi/lib/hard\libc.a(lib_a-init.o)
 .bss           0x80b2b1d4        0x0 c:/ti/gcc-arm-none-eabi-6-2017-q1-update/bin/../lib/gcc/arm-none-eabi/6.3.1/../../../../arm-none-eabi/lib/hard\libc.a(lib_a-memset.o)
 .bss           0x80b2b1d4        0x0 c:/ti/gcc-arm-none-eabi-6-2017-q1-update/bin/../lib/gcc/arm-none-eabi/6.3.1/../../../../arm-none-eabi/lib/hard\libc.a(lib_a-__call_atexit.o)
 .bss           0x80b2b1d4        0x0 c:/ti/gcc-arm-none-eabi-6-2017-q1-update/bin/../lib/gcc/arm-none-eabi/6.3.1/../../../../arm-none-eabi/lib/hard\libc.a(lib_a-atexit.o)
 .bss           0x80b2b1d4        0x0 c:/ti/gcc-arm-none-eabi-6-2017-q1-update/bin/../lib/gcc/arm-none-eabi/6.3.1/../../../../arm-none-eabi/lib/hard\libc.a(lib_a-fini.o)
 .bss           0x80b2b1d4        0x0 c:/ti/gcc-arm-none-eabi-6-2017-q1-update/bin/../lib/gcc/arm-none-eabi/6.3.1/../../../../arm-none-eabi/lib/hard\libc.a(lib_a-lock.o)
 .bss           0x80b2b1d4        0x0 c:/ti/gcc-arm-none-eabi-6-2017-q1-update/bin/../lib/gcc/arm-none-eabi/6.3.1/../../../../arm-none-eabi/lib/hard\libc.a(lib_a-__atexit.o)
 .bss           0x80b2b1d4        0x0 ../libboard.a(board.o)
 .bss.gBoardCommonObj
                0x80b2b1d4        0xc ../libboard.a(board.o)
 .bss           0x80b2b1e0        0x0 ../libboard.a(dcard.o)
 .bss           0x80b2b1e0        0x0 ../libboard.a(platform.o)
 .bss           0x80b2b1e0        0x0 ../libboard.a(pinmux.o)
 .bss.pBoardData
                0x80b2b1e0        0x4 ../libboard.a(pinmux.o)
 .bss           0x80b2b1e4        0x0 ../libboard.a(board_am43xx.o)
 .bss.gBoardAm43xxObj
                0x80b2b1e4        0xc ../libboard.a(board_am43xx.o)
 .bss.gBoardDataEeprom
                0x80b2b1f0       0x1d ../libboard.a(board_am43xx.o)
 *fill*         0x80b2b20d        0x3 
 .bss.gEepromOffset
                0x80b2b210        0x2 ../libboard.a(board_am43xx.o)
 .bss           0x80b2b212        0x0 ../libboard.a(dcard_am43xx.o)
 .bss           0x80b2b212        0x0 ../libboard.a(am43xx_gpevm.o)
 .bss           0x80b2b212        0x0 ../libboard.a(am43xx_evmsk.o)
 .bss           0x80b2b212        0x0 ../libboard.a(am43xx_idkevm.o)
 .bss           0x80b2b212        0x0 ../libboard.a(am43xx_eposevm.o)
 .bss           0x80b2b212        0x0 ../libboard.a(am43xx_custom.o)
 .bss           0x80b2b212        0x0 ../libboard.a(am43xx_gpevm_pinmux_data.o)
 .bss           0x80b2b212        0x0 ../libboard.a(am43xx_evmsk_pinmux_data.o)
 .bss           0x80b2b212        0x0 ../libboard.a(am43xx_idkevm_pinmux_data.o)
 .bss           0x80b2b212        0x0 ../libboard.a(am43xx_eposevm_pinmux_data.o)
 .bss           0x80b2b212        0x0 ../libdal.a(gpio.o)
 .bss           0x80b2b212        0x0 ../libdevice.a(qspi_flash.o)
 .bss           0x80b2b212        0x0 ../libexample_utils.a(example_utils_mmu.o)
 .bss           0x80b2b212        0x0 ../libqspi_lib.a(qspi_lib.o)
 .bss           0x80b2b212        0x0 ../libsoc.a(soc.o)
 .bss           0x80b2b212        0x0 ../libsoc.a(startup.o)
 .bss           0x80b2b212        0x0 ../libsoc.a(am43xx_chipdb.o)
 .bss           0x80b2b212        0x0 ../libsoc.a(hw_am43xx_chipdb.o)
 .bss           0x80b2b212        0x0 ../libsoc.a(hw_am43xx_chipdb_baseaddr.o)
 .bss           0x80b2b212        0x0 ../libsoc.a(hw_am43xx_chipdb_interrupt.o)
 .bss           0x80b2b212        0x0 ../libsoc.a(am43xx_prcm.o)
 .bss           0x80b2b212        0x0 ../libsoc.a(hw_prcm_data.o)
 *fill*         0x80b2b212        0x2 
 .bss.prcmGraphVisited
                0x80b2b214       0x17 ../libsoc.a(hw_prcm_data.o)
 .bss           0x80b2b22b        0x0 ../libsoc.a(cache_arm.o)
 *fill*         0x80b2b22b        0x1 
 .bss.pOuterCache
                0x80b2b22c        0x4 ../libsoc.a(cache_arm.o)
                0x80b2b22c                pOuterCache
 .bss           0x80b2b230        0x0 ../libsoc.a(mmu_arm.o)
 .bss           0x80b2b230        0x0 ../libsoc.a(cp15.o)
 .bss           0x80b2b230        0x0 ../libsoc.a(exceptionhandler.o)
 .bss           0x80b2b230        0x0 ../libsoc.a(cpu.o)
 .bss           0x80b2b230        0x0 ../libsoc.a(gic.o)
 .bss.gicData   0x80b2b230       0x34 ../libsoc.a(gic.o)
 .bss.isIntcInitialized
                0x80b2b264        0x4 ../libsoc.a(gic.o)
 .bss.pIntrHandlers
                0x80b2b268     0x1000 ../libsoc.a(gic.o)
 .bss.pUserParameter
                0x80b2c268     0x1000 ../libsoc.a(gic.o)
 .bss.spuriousIntrCnt
                0x80b2d268        0x4 ../libsoc.a(gic.o)
 .bss           0x80b2d26c        0x0 ../libutils.a(console_utils.o)
 .bss.gConsoleUtilsType
                0x80b2d26c        0x1 ../libutils.a(console_utils.o)
 .bss           0x80b2d26d        0x0 ../libutils.a(agraph.o)
 .bss           0x80b2d26d        0x0 ../libutils.a(i2c_utils.o)
 *fill*         0x80b2d26d        0x3 
 .bss.gI2CUtilsObj
                0x80b2d270       0x9c ../libutils.a(i2c_utils.o)
 .bss           0x80b2d30c        0x0 ../libutils.a(console_utils_uart.o)
 .bss.gConsoleUtilsUartInstAddr
                0x80b2d30c        0x4 ../libutils.a(console_utils_uart.o)
 .bss           0x80b2d310        0x0 ../libutils.a(ascii_utils.o)
 .bss           0x80b2d310        0x0 c:/ti/gcc-arm-none-eabi-6-2017-q1-update/bin/../lib/gcc/arm-none-eabi/6.3.1/hard\libgcc.a(_udivsi3.o)
 .bss           0x80b2d310        0x0 c:/ti/gcc-arm-none-eabi-6-2017-q1-update/bin/../lib/gcc/arm-none-eabi/6.3.1/hard\libgcc.a(_dvmd_tls.o)
 .bss           0x80b2d310        0x0 c:/ti/gcc-arm-none-eabi-6-2017-q1-update/bin/../lib/gcc/arm-none-eabi/6.3.1/hard\libgcc.a(_aeabi_uldivmod.o)
 .bss           0x80b2d310        0x0 c:/ti/gcc-arm-none-eabi-6-2017-q1-update/bin/../lib/gcc/arm-none-eabi/6.3.1/hard\libgcc.a(_fixunsdfdi.o)
 .bss           0x80b2d310        0x0 c:/ti/gcc-arm-none-eabi-6-2017-q1-update/bin/../lib/gcc/arm-none-eabi/6.3.1/hard\libgcc.a(_udivmoddi4.o)
 .bss           0x80b2d310        0x0 c:/ti/gcc-arm-none-eabi-6-2017-q1-update/bin/../lib/gcc/arm-none-eabi/6.3.1/hard\libgcc.a(_clzdi2.o)
 .bss           0x80b2d310        0x0 c:/ti/gcc-arm-none-eabi-6-2017-q1-update/bin/../lib/gcc/arm-none-eabi/6.3.1/hard\libgcc.a(_clzsi2.o)
 .bss           0x80b2d310        0x0 c:/ti/gcc-arm-none-eabi-6-2017-q1-update/bin/../lib/gcc/arm-none-eabi/6.3.1/../../../../arm-none-eabi/lib/hard\libg.a(lib_a-assert.o)
 .bss           0x80b2d310        0x0 c:/ti/gcc-arm-none-eabi-6-2017-q1-update/bin/../lib/gcc/arm-none-eabi/6.3.1/../../../../arm-none-eabi/lib/hard\libg.a(lib_a-fiprintf.o)
 .bss           0x80b2d310        0x0 c:/ti/gcc-arm-none-eabi-6-2017-q1-update/bin/../lib/gcc/arm-none-eabi/6.3.1/../../../../arm-none-eabi/lib/hard\libg.a(lib_a-memcpy-stub.o)
 .bss           0x80b2d310        0x0 c:/ti/gcc-arm-none-eabi-6-2017-q1-update/bin/../lib/gcc/arm-none-eabi/6.3.1/../../../../arm-none-eabi/lib/hard\libg.a(lib_a-strncmp.o)
 .bss           0x80b2d310        0x0 c:/ti/gcc-arm-none-eabi-6-2017-q1-update/bin/../lib/gcc/arm-none-eabi/6.3.1/../../../../arm-none-eabi/lib/hard\libg.a(lib_a-vfiprintf.o)
 .bss           0x80b2d310        0x0 c:/ti/gcc-arm-none-eabi-6-2017-q1-update/bin/../lib/gcc/arm-none-eabi/6.3.1/../../../../arm-none-eabi/lib/hard\libg.a(lib_a-wsetup.o)
 .bss           0x80b2d310        0x0 c:/ti/gcc-arm-none-eabi-6-2017-q1-update/bin/../lib/gcc/arm-none-eabi/6.3.1/../../../../arm-none-eabi/lib/hard\libg.a(lib_a-abort.o)
 .bss           0x80b2d310        0x0 c:/ti/gcc-arm-none-eabi-6-2017-q1-update/bin/../lib/gcc/arm-none-eabi/6.3.1/../../../../arm-none-eabi/lib/hard\libg.a(lib_a-fflush.o)
 .bss           0x80b2d310        0x0 c:/ti/gcc-arm-none-eabi-6-2017-q1-update/bin/../lib/gcc/arm-none-eabi/6.3.1/../../../../arm-none-eabi/lib/hard\libg.a(lib_a-findfp.o)
 .bss           0x80b2d310        0x0 c:/ti/gcc-arm-none-eabi-6-2017-q1-update/bin/../lib/gcc/arm-none-eabi/6.3.1/../../../../arm-none-eabi/lib/hard\libg.a(lib_a-fputwc.o)
 .bss           0x80b2d310        0x0 c:/ti/gcc-arm-none-eabi-6-2017-q1-update/bin/../lib/gcc/arm-none-eabi/6.3.1/../../../../arm-none-eabi/lib/hard\libg.a(lib_a-freer.o)
 .bss           0x80b2d310        0x0 c:/ti/gcc-arm-none-eabi-6-2017-q1-update/bin/../lib/gcc/arm-none-eabi/6.3.1/../../../../arm-none-eabi/lib/hard\libg.a(lib_a-fvwrite.o)
 .bss           0x80b2d310        0x0 c:/ti/gcc-arm-none-eabi-6-2017-q1-update/bin/../lib/gcc/arm-none-eabi/6.3.1/../../../../arm-none-eabi/lib/hard\libg.a(lib_a-fwalk.o)
 .bss           0x80b2d310        0x0 c:/ti/gcc-arm-none-eabi-6-2017-q1-update/bin/../lib/gcc/arm-none-eabi/6.3.1/../../../../arm-none-eabi/lib/hard\libg.a(lib_a-locale.o)
 .bss._PathLocale
                0x80b2d310        0x4 c:/ti/gcc-arm-none-eabi-6-2017-q1-update/bin/../lib/gcc/arm-none-eabi/6.3.1/../../../../arm-none-eabi/lib/hard\libg.a(lib_a-locale.o)
                0x80b2d310                _PathLocale
 .bss           0x80b2d314        0x0 c:/ti/gcc-arm-none-eabi-6-2017-q1-update/bin/../lib/gcc/arm-none-eabi/6.3.1/../../../../arm-none-eabi/lib/hard\libg.a(lib_a-makebuf.o)
 .bss           0x80b2d314        0x0 c:/ti/gcc-arm-none-eabi-6-2017-q1-update/bin/../lib/gcc/arm-none-eabi/6.3.1/../../../../arm-none-eabi/lib/hard\libg.a(lib_a-mallocr.o)
 .bss.__malloc_current_mallinfo
                0x80b2d314       0x28 c:/ti/gcc-arm-none-eabi-6-2017-q1-update/bin/../lib/gcc/arm-none-eabi/6.3.1/../../../../arm-none-eabi/lib/hard\libg.a(lib_a-mallocr.o)
                0x80b2d314                __malloc_current_mallinfo
 .bss.__malloc_max_sbrked_mem
                0x80b2d33c        0x4 c:/ti/gcc-arm-none-eabi-6-2017-q1-update/bin/../lib/gcc/arm-none-eabi/6.3.1/../../../../arm-none-eabi/lib/hard\libg.a(lib_a-mallocr.o)
                0x80b2d33c                __malloc_max_sbrked_mem
 .bss.__malloc_max_total_mem
                0x80b2d340        0x4 c:/ti/gcc-arm-none-eabi-6-2017-q1-update/bin/../lib/gcc/arm-none-eabi/6.3.1/../../../../arm-none-eabi/lib/hard\libg.a(lib_a-mallocr.o)
                0x80b2d340                __malloc_max_total_mem
 .bss.__malloc_top_pad
                0x80b2d344        0x4 c:/ti/gcc-arm-none-eabi-6-2017-q1-update/bin/../lib/gcc/arm-none-eabi/6.3.1/../../../../arm-none-eabi/lib/hard\libg.a(lib_a-mallocr.o)
                0x80b2d344                __malloc_top_pad
 .bss           0x80b2d348        0x0 c:/ti/gcc-arm-none-eabi-6-2017-q1-update/bin/../lib/gcc/arm-none-eabi/6.3.1/../../../../arm-none-eabi/lib/hard\libg.a(lib_a-mbtowc_r.o)
 .bss           0x80b2d348        0x0 c:/ti/gcc-arm-none-eabi-6-2017-q1-update/bin/../lib/gcc/arm-none-eabi/6.3.1/../../../../arm-none-eabi/lib/hard\libg.a(lib_a-memchr-stub.o)
 .bss           0x80b2d348        0x0 c:/ti/gcc-arm-none-eabi-6-2017-q1-update/bin/../lib/gcc/arm-none-eabi/6.3.1/../../../../arm-none-eabi/lib/hard\libg.a(lib_a-memmove.o)
 .bss           0x80b2d348        0x0 c:/ti/gcc-arm-none-eabi-6-2017-q1-update/bin/../lib/gcc/arm-none-eabi/6.3.1/../../../../arm-none-eabi/lib/hard\libg.a(lib_a-mlock.o)
 .bss           0x80b2d348        0x0 c:/ti/gcc-arm-none-eabi-6-2017-q1-update/bin/../lib/gcc/arm-none-eabi/6.3.1/../../../../arm-none-eabi/lib/hard\libg.a(lib_a-reallocr.o)
 .bss           0x80b2d348        0x0 c:/ti/gcc-arm-none-eabi-6-2017-q1-update/bin/../lib/gcc/arm-none-eabi/6.3.1/../../../../arm-none-eabi/lib/hard\libg.a(lib_a-sbrkr.o)
 .bss           0x80b2d348        0x0 c:/ti/gcc-arm-none-eabi-6-2017-q1-update/bin/../lib/gcc/arm-none-eabi/6.3.1/../../../../arm-none-eabi/lib/hard\libg.a(lib_a-signal.o)
 .bss           0x80b2d348        0x0 c:/ti/gcc-arm-none-eabi-6-2017-q1-update/bin/../lib/gcc/arm-none-eabi/6.3.1/../../../../arm-none-eabi/lib/hard\libg.a(lib_a-signalr.o)
 .bss           0x80b2d348        0x0 c:/ti/gcc-arm-none-eabi-6-2017-q1-update/bin/../lib/gcc/arm-none-eabi/6.3.1/../../../../arm-none-eabi/lib/hard\libg.a(lib_a-stdio.o)
 .bss           0x80b2d348        0x0 c:/ti/gcc-arm-none-eabi-6-2017-q1-update/bin/../lib/gcc/arm-none-eabi/6.3.1/../../../../arm-none-eabi/lib/hard\libg.a(lib_a-strcmp.o)
 .bss           0x80b2d348        0x0 c:/ti/gcc-arm-none-eabi-6-2017-q1-update/bin/../lib/gcc/arm-none-eabi/6.3.1/../../../../arm-none-eabi/lib/hard\libg.a(lib_a-strlen-stub.o)
 .bss           0x80b2d348        0x0 c:/ti/gcc-arm-none-eabi-6-2017-q1-update/bin/../lib/gcc/arm-none-eabi/6.3.1/../../../../arm-none-eabi/lib/hard\libg.a(lib_a-wbuf.o)
 .bss           0x80b2d348        0x0 c:/ti/gcc-arm-none-eabi-6-2017-q1-update/bin/../lib/gcc/arm-none-eabi/6.3.1/../../../../arm-none-eabi/lib/hard\libg.a(lib_a-wcrtomb.o)
 .bss           0x80b2d348        0x0 c:/ti/gcc-arm-none-eabi-6-2017-q1-update/bin/../lib/gcc/arm-none-eabi/6.3.1/../../../../arm-none-eabi/lib/hard\libg.a(lib_a-wctomb_r.o)
 .bss           0x80b2d348        0x0 c:/ti/gcc-arm-none-eabi-6-2017-q1-update/bin/../lib/gcc/arm-none-eabi/6.3.1/../../../../arm-none-eabi/lib/hard\libg.a(lib_a-writer.o)
 .bss           0x80b2d348        0x0 c:/ti/gcc-arm-none-eabi-6-2017-q1-update/bin/../lib/gcc/arm-none-eabi/6.3.1/../../../../arm-none-eabi/lib/hard\libg.a(lib_a-closer.o)
 .bss           0x80b2d348        0x0 c:/ti/gcc-arm-none-eabi-6-2017-q1-update/bin/../lib/gcc/arm-none-eabi/6.3.1/../../../../arm-none-eabi/lib/hard\libg.a(lib_a-ctype_.o)
 .bss           0x80b2d348        0x0 c:/ti/gcc-arm-none-eabi-6-2017-q1-update/bin/../lib/gcc/arm-none-eabi/6.3.1/../../../../arm-none-eabi/lib/hard\libg.a(lib_a-fclose.o)
 .bss           0x80b2d348        0x0 c:/ti/gcc-arm-none-eabi-6-2017-q1-update/bin/../lib/gcc/arm-none-eabi/6.3.1/../../../../arm-none-eabi/lib/hard\libg.a(lib_a-fstatr.o)
 .bss           0x80b2d348        0x0 c:/ti/gcc-arm-none-eabi-6-2017-q1-update/bin/../lib/gcc/arm-none-eabi/6.3.1/../../../../arm-none-eabi/lib/hard\libg.a(lib_a-isattyr.o)
 .bss           0x80b2d348        0x0 c:/ti/gcc-arm-none-eabi-6-2017-q1-update/bin/../lib/gcc/arm-none-eabi/6.3.1/../../../../arm-none-eabi/lib/hard\libg.a(lib_a-lseekr.o)
 .bss           0x80b2d348        0x0 c:/ti/gcc-arm-none-eabi-6-2017-q1-update/bin/../lib/gcc/arm-none-eabi/6.3.1/../../../../arm-none-eabi/lib/hard\libg.a(lib_a-readr.o)
 .bss           0x80b2d348        0x0 c:/ti/gcc-arm-none-eabi-6-2017-q1-update/bin/../lib/gcc/arm-none-eabi/6.3.1/../../../../arm-none-eabi/lib/hard\libg.a(lib_a-reent.o)
 .bss           0x80b2d348        0x0 c:/ti/gcc-arm-none-eabi-6-2017-q1-update/bin/../lib/gcc/arm-none-eabi/6.3.1/hard\libgcc.a(_divsi3.o)
 .bss           0x80b2d348        0x0 c:/ti/gcc-arm-none-eabi-6-2017-q1-update/bin/../lib/gcc/arm-none-eabi/6.3.1/../../../../arm-none-eabi/lib/hard\libnosys.a(close.o)
 .bss           0x80b2d348        0x0 c:/ti/gcc-arm-none-eabi-6-2017-q1-update/bin/../lib/gcc/arm-none-eabi/6.3.1/../../../../arm-none-eabi/lib/hard\libnosys.a(fstat.o)
 .bss           0x80b2d348        0x0 c:/ti/gcc-arm-none-eabi-6-2017-q1-update/bin/../lib/gcc/arm-none-eabi/6.3.1/../../../../arm-none-eabi/lib/hard\libnosys.a(getpid.o)
 .bss           0x80b2d348        0x0 c:/ti/gcc-arm-none-eabi-6-2017-q1-update/bin/../lib/gcc/arm-none-eabi/6.3.1/../../../../arm-none-eabi/lib/hard\libnosys.a(isatty.o)
 .bss           0x80b2d348        0x0 c:/ti/gcc-arm-none-eabi-6-2017-q1-update/bin/../lib/gcc/arm-none-eabi/6.3.1/../../../../arm-none-eabi/lib/hard\libnosys.a(kill.o)
 .bss           0x80b2d348        0x0 c:/ti/gcc-arm-none-eabi-6-2017-q1-update/bin/../lib/gcc/arm-none-eabi/6.3.1/../../../../arm-none-eabi/lib/hard\libnosys.a(lseek.o)
 .bss           0x80b2d348        0x0 c:/ti/gcc-arm-none-eabi-6-2017-q1-update/bin/../lib/gcc/arm-none-eabi/6.3.1/../../../../arm-none-eabi/lib/hard\libnosys.a(read.o)
 .bss           0x80b2d348        0x0 c:/ti/gcc-arm-none-eabi-6-2017-q1-update/bin/../lib/gcc/arm-none-eabi/6.3.1/../../../../arm-none-eabi/lib/hard\libnosys.a(sbrk.o)
 .bss.heap_end.5239
                0x80b2d348        0x4 c:/ti/gcc-arm-none-eabi-6-2017-q1-update/bin/../lib/gcc/arm-none-eabi/6.3.1/../../../../arm-none-eabi/lib/hard\libnosys.a(sbrk.o)
 .bss           0x80b2d34c        0x0 c:/ti/gcc-arm-none-eabi-6-2017-q1-update/bin/../lib/gcc/arm-none-eabi/6.3.1/../../../../arm-none-eabi/lib/hard\libnosys.a(write.o)
 .bss           0x80b2d34c        0x0 c:/ti/gcc-arm-none-eabi-6-2017-q1-update/bin/../lib/gcc/arm-none-eabi/6.3.1/../../../../arm-none-eabi/lib/hard\libnosys.a(_exit.o)
 .bss           0x80b2d34c        0x0 c:/ti/gcc-arm-none-eabi-6-2017-q1-update/bin/../lib/gcc/arm-none-eabi/6.3.1/hard/crtend.o
 .bss           0x80b2d34c        0x0 c:/ti/gcc-arm-none-eabi-6-2017-q1-update/bin/../lib/gcc/arm-none-eabi/6.3.1/hard/crtn.o
 *(COMMON)
 *fill*         0x80b2d34c       0x14 
 COMMON         0x80b2d360       0xcc ./flash_writer/flash_writer_app_main.o
                0x80b2d360                sdCard
                0x80b2d3c0                ctrlInfo
                0x80b2d410                gDevice
                0x80b2d420                gDrive
 COMMON         0x80b2d42c       0x21 c:/ti/gcc-arm-none-eabi-6-2017-q1-update/bin/../lib/gcc/arm-none-eabi/6.3.1/../../../../arm-none-eabi/lib/hard\libc.a(lib_a-lock.o)
                0x80b2d42c                __lock___atexit_recursive_mutex
                0x80b2d430                __lock___arc4random_mutex
                0x80b2d434                __lock___env_recursive_mutex
                0x80b2d438                __lock___sinit_recursive_mutex
                0x80b2d43c                __lock___malloc_recursive_mutex
                0x80b2d440                __lock___at_quick_exit_mutex
                0x80b2d444                __lock___dd_hash_mutex
                0x80b2d448                __lock___tz_mutex
                0x80b2d44c                __lock___sfp_recursive_mutex
 *fill*         0x80b2d44d     0x2bb3 
 COMMON         0x80b30000     0x4000 ../libexample_utils.a(example_utils_mmu.o)
                0x80b30000                pageTable
 COMMON         0x80b34000        0x4 c:/ti/gcc-arm-none-eabi-6-2017-q1-update/bin/../lib/gcc/arm-none-eabi/6.3.1/../../../../arm-none-eabi/lib/hard\libg.a(lib_a-reent.o)
                0x80b34000                errno
                0x80b34004                __bss_end__ = .

.heap           0x80b34010      0x400
 FILL mask 0xdeadbeef
                0x80b34010                . = ALIGN (0x4)
                0x80b34010                __end__ = .
                0x80b34010                end = __end__
                0x80b34010                __HeapBase = __end__
 *(.heap*)
 .heap          0x80b34010        0x0 ./startup_ARMCA9.o
                0x80b34410                . = (. + HEAPSIZE)
 *fill*         0x80b34010      0x400 deadbeef
                0x80b34410                __HeapLimit = .

.stack          0x80b34410    0x18000
 FILL mask 0xbad0bad0
                0x80b34410                . = ALIGN (0x4)
                0x80b34410                __StackLimit = .
 *(.stack*)
 .stack         0x80b34410        0x0 ./startup_ARMCA9.o
                0x80b4c410                . = (. + STACKSIZE)
 *fill*         0x80b34410    0x18000 bad0bad0
                0x80b4c410                __StackTop = .
                0x80b4c410                __StackBase = .
                0x80b4c410                PROVIDE (__stack, __StackTop)
START GROUP
LOAD c:/ti/gcc-arm-none-eabi-6-2017-q1-update/bin/../lib/gcc/arm-none-eabi/6.3.1/../../../../arm-none-eabi/lib/hard\libc.a
END GROUP
LOAD ../libboard.a
LOAD ../libboard_boot.a
LOAD ../libdal.a
LOAD ../libdal_boot.a
LOAD ../libdevice.a
LOAD ../libdevice_boot.a
LOAD ../libexample_utils.a
LOAD ../libff9b_lib.a
LOAD ../libmmcsd_lib.a
LOAD ../libnand_lib.a
LOAD ../libqspi_lib.a
LOAD ../libqspi_lib_boot.a
LOAD ../libsoc.a
LOAD ../libutils.a
LOAD ../libutils_boot.a
START GROUP
LOAD c:/ti/gcc-arm-none-eabi-6-2017-q1-update/bin/../lib/gcc/arm-none-eabi/6.3.1/hard\libgcc.a
LOAD c:/ti/gcc-arm-none-eabi-6-2017-q1-update/bin/../lib/gcc/arm-none-eabi/6.3.1/../../../../arm-none-eabi/lib/hard\libg.a
LOAD c:/ti/gcc-arm-none-eabi-6-2017-q1-update/bin/../lib/gcc/arm-none-eabi/6.3.1/../../../../arm-none-eabi/lib/hard\libc.a
END GROUP
START GROUP
LOAD c:/ti/gcc-arm-none-eabi-6-2017-q1-update/bin/../lib/gcc/arm-none-eabi/6.3.1/hard\libgcc.a
LOAD c:/ti/gcc-arm-none-eabi-6-2017-q1-update/bin/../lib/gcc/arm-none-eabi/6.3.1/../../../../arm-none-eabi/lib/hard\libc.a
LOAD c:/ti/gcc-arm-none-eabi-6-2017-q1-update/bin/../lib/gcc/arm-none-eabi/6.3.1/../../../../arm-none-eabi/lib/hard\libnosys.a
END GROUP
LOAD c:/ti/gcc-arm-none-eabi-6-2017-q1-update/bin/../lib/gcc/arm-none-eabi/6.3.1/hard/crtend.o
LOAD c:/ti/gcc-arm-none-eabi-6-2017-q1-update/bin/../lib/gcc/arm-none-eabi/6.3.1/hard/crtn.o
OUTPUT(flash_tool.out elf32-littlearm)

.ARM.attributes
                0x00000000       0x3b
 .ARM.attributes
                0x00000000       0x16 c:/ti/gcc-arm-none-eabi-6-2017-q1-update/bin/../lib/gcc/arm-none-eabi/6.3.1/hard/crti.o
 .ARM.attributes
                0x00000016       0x34 c:/ti/gcc-arm-none-eabi-6-2017-q1-update/bin/../lib/gcc/arm-none-eabi/6.3.1/hard/crtbegin.o
 .ARM.attributes
                0x0000004a       0x14 c:/ti/gcc-arm-none-eabi-6-2017-q1-update/bin/../lib/gcc/arm-none-eabi/6.3.1/../../../../arm-none-eabi/lib/hard/crt0.o
 .ARM.attributes
                0x0000005e       0x3d ./i2c.o
 .ARM.attributes
                0x0000009b       0x3d ./qspi.o
 .ARM.attributes
                0x000000d8       0x3d ./qspi_app.o
 .ARM.attributes
                0x00000115       0x29 ./startup_ARMCA9.o
 .ARM.attributes
                0x0000013e       0x3d ./uart.o
 .ARM.attributes
                0x0000017b       0x3d ./flash_writer/crc16.o
 .ARM.attributes
                0x000001b8       0x3d ./flash_writer/flash_writer_app_main.o
 .ARM.attributes
                0x000001f5       0x34 c:/ti/gcc-arm-none-eabi-6-2017-q1-update/bin/../lib/gcc/arm-none-eabi/6.3.1/../../../../arm-none-eabi/lib/hard\libc.a(lib_a-exit.o)
 .ARM.attributes
                0x00000229       0x32 c:/ti/gcc-arm-none-eabi-6-2017-q1-update/bin/../lib/gcc/arm-none-eabi/6.3.1/../../../../arm-none-eabi/lib/hard\libc.a(lib_a-impure.o)
 .ARM.attributes
                0x0000025b       0x34 c:/ti/gcc-arm-none-eabi-6-2017-q1-update/bin/../lib/gcc/arm-none-eabi/6.3.1/../../../../arm-none-eabi/lib/hard\libc.a(lib_a-init.o)
 .ARM.attributes
                0x0000028f       0x34 c:/ti/gcc-arm-none-eabi-6-2017-q1-update/bin/../lib/gcc/arm-none-eabi/6.3.1/../../../../arm-none-eabi/lib/hard\libc.a(lib_a-memset.o)
 .ARM.attributes
                0x000002c3       0x34 c:/ti/gcc-arm-none-eabi-6-2017-q1-update/bin/../lib/gcc/arm-none-eabi/6.3.1/../../../../arm-none-eabi/lib/hard\libc.a(lib_a-__call_atexit.o)
 .ARM.attributes
                0x000002f7       0x34 c:/ti/gcc-arm-none-eabi-6-2017-q1-update/bin/../lib/gcc/arm-none-eabi/6.3.1/../../../../arm-none-eabi/lib/hard\libc.a(lib_a-atexit.o)
 .ARM.attributes
                0x0000032b       0x34 c:/ti/gcc-arm-none-eabi-6-2017-q1-update/bin/../lib/gcc/arm-none-eabi/6.3.1/../../../../arm-none-eabi/lib/hard\libc.a(lib_a-fini.o)
 .ARM.attributes
                0x0000035f       0x34 c:/ti/gcc-arm-none-eabi-6-2017-q1-update/bin/../lib/gcc/arm-none-eabi/6.3.1/../../../../arm-none-eabi/lib/hard\libc.a(lib_a-lock.o)
 .ARM.attributes
                0x00000393       0x34 c:/ti/gcc-arm-none-eabi-6-2017-q1-update/bin/../lib/gcc/arm-none-eabi/6.3.1/../../../../arm-none-eabi/lib/hard\libc.a(lib_a-__atexit.o)
 .ARM.attributes
                0x000003c7       0x3f ../libboard.a(board.o)
 .ARM.attributes
                0x00000406       0x3f ../libboard.a(dcard.o)
 .ARM.attributes
                0x00000445       0x3f ../libboard.a(platform.o)
 .ARM.attributes
                0x00000484       0x3f ../libboard.a(pinmux.o)
 .ARM.attributes
                0x000004c3       0x3f ../libboard.a(board_am43xx.o)
 .ARM.attributes
                0x00000502       0x3f ../libboard.a(dcard_am43xx.o)
 .ARM.attributes
                0x00000541       0x3f ../libboard.a(am43xx_gpevm.o)
 .ARM.attributes
                0x00000580       0x3f ../libboard.a(am43xx_evmsk.o)
 .ARM.attributes
                0x000005bf       0x3f ../libboard.a(am43xx_idkevm.o)
 .ARM.attributes
                0x000005fe       0x3f ../libboard.a(am43xx_eposevm.o)
 .ARM.attributes
                0x0000063d       0x3f ../libboard.a(am43xx_custom.o)
 .ARM.attributes
                0x0000067c       0x3f ../libboard.a(am43xx_gpevm_pinmux_data.o)
 .ARM.attributes
                0x000006bb       0x3f ../libboard.a(am43xx_evmsk_pinmux_data.o)
 .ARM.attributes
                0x000006fa       0x3f ../libboard.a(am43xx_idkevm_pinmux_data.o)
 .ARM.attributes
                0x00000739       0x3f ../libboard.a(am43xx_eposevm_pinmux_data.o)
 .ARM.attributes
                0x00000778       0x3f ../libdal.a(gpio.o)
 .ARM.attributes
                0x000007b7       0x3f ../libdevice.a(qspi_flash.o)
 .ARM.attributes
                0x000007f6       0x3f ../libexample_utils.a(example_utils_mmu.o)
 .ARM.attributes
                0x00000835       0x3f ../libqspi_lib.a(qspi_lib.o)
 .ARM.attributes
                0x00000874       0x3f ../libsoc.a(soc.o)
 .ARM.attributes
                0x000008b3       0x3f ../libsoc.a(startup.o)
 .ARM.attributes
                0x000008f2       0x3f ../libsoc.a(am43xx_chipdb.o)
 .ARM.attributes
                0x00000931       0x3f ../libsoc.a(hw_am43xx_chipdb.o)
 .ARM.attributes
                0x00000970       0x3f ../libsoc.a(hw_am43xx_chipdb_baseaddr.o)
 .ARM.attributes
                0x000009af       0x3f ../libsoc.a(hw_am43xx_chipdb_interrupt.o)
 .ARM.attributes
                0x000009ee       0x3f ../libsoc.a(am43xx_prcm.o)
 .ARM.attributes
                0x00000a2d       0x3f ../libsoc.a(hw_prcm_data.o)
 .ARM.attributes
                0x00000a6c       0x3f ../libsoc.a(cache_arm.o)
 .ARM.attributes
                0x00000aab       0x3f ../libsoc.a(mmu_arm.o)
 .ARM.attributes
                0x00000aea       0x2b ../libsoc.a(cp15.o)
 .ARM.attributes
                0x00000b15       0x2b ../libsoc.a(exceptionhandler.o)
 .ARM.attributes
                0x00000b40       0x3f ../libsoc.a(cpu.o)
 .ARM.attributes
                0x00000b7f       0x3f ../libsoc.a(gic.o)
 .ARM.attributes
                0x00000bbe       0x3f ../libutils.a(console_utils.o)
 .ARM.attributes
                0x00000bfd       0x3f ../libutils.a(agraph.o)
 .ARM.attributes
                0x00000c3c       0x3f ../libutils.a(i2c_utils.o)
 .ARM.attributes
                0x00000c7b       0x3f ../libutils.a(console_utils_uart.o)
 .ARM.attributes
                0x00000cba       0x3f ../libutils.a(ascii_utils.o)
 .ARM.attributes
                0x00000cf9       0x18 c:/ti/gcc-arm-none-eabi-6-2017-q1-update/bin/../lib/gcc/arm-none-eabi/6.3.1/hard\libgcc.a(_udivsi3.o)
 .ARM.attributes
                0x00000d11       0x18 c:/ti/gcc-arm-none-eabi-6-2017-q1-update/bin/../lib/gcc/arm-none-eabi/6.3.1/hard\libgcc.a(_dvmd_tls.o)
 .ARM.attributes
                0x00000d29       0x18 c:/ti/gcc-arm-none-eabi-6-2017-q1-update/bin/../lib/gcc/arm-none-eabi/6.3.1/hard\libgcc.a(_aeabi_uldivmod.o)
 .ARM.attributes
                0x00000d41       0x34 c:/ti/gcc-arm-none-eabi-6-2017-q1-update/bin/../lib/gcc/arm-none-eabi/6.3.1/hard\libgcc.a(_fixunsdfdi.o)
 .ARM.attributes
                0x00000d75       0x34 c:/ti/gcc-arm-none-eabi-6-2017-q1-update/bin/../lib/gcc/arm-none-eabi/6.3.1/hard\libgcc.a(_udivmoddi4.o)
 .ARM.attributes
                0x00000da9       0x18 c:/ti/gcc-arm-none-eabi-6-2017-q1-update/bin/../lib/gcc/arm-none-eabi/6.3.1/hard\libgcc.a(_clzdi2.o)
 .ARM.attributes
                0x00000dc1       0x18 c:/ti/gcc-arm-none-eabi-6-2017-q1-update/bin/../lib/gcc/arm-none-eabi/6.3.1/hard\libgcc.a(_clzsi2.o)
 .ARM.attributes
                0x00000dd9       0x34 c:/ti/gcc-arm-none-eabi-6-2017-q1-update/bin/../lib/gcc/arm-none-eabi/6.3.1/../../../../arm-none-eabi/lib/hard\libg.a(lib_a-assert.o)
 .ARM.attributes
                0x00000e0d       0x34 c:/ti/gcc-arm-none-eabi-6-2017-q1-update/bin/../lib/gcc/arm-none-eabi/6.3.1/../../../../arm-none-eabi/lib/hard\libg.a(lib_a-fiprintf.o)
 .ARM.attributes
                0x00000e41       0x34 c:/ti/gcc-arm-none-eabi-6-2017-q1-update/bin/../lib/gcc/arm-none-eabi/6.3.1/../../../../arm-none-eabi/lib/hard\libg.a(lib_a-memcpy-stub.o)
 .ARM.attributes
                0x00000e75       0x34 c:/ti/gcc-arm-none-eabi-6-2017-q1-update/bin/../lib/gcc/arm-none-eabi/6.3.1/../../../../arm-none-eabi/lib/hard\libg.a(lib_a-strncmp.o)
 .ARM.attributes
                0x00000ea9       0x34 c:/ti/gcc-arm-none-eabi-6-2017-q1-update/bin/../lib/gcc/arm-none-eabi/6.3.1/../../../../arm-none-eabi/lib/hard\libg.a(lib_a-vfiprintf.o)
 .ARM.attributes
                0x00000edd       0x34 c:/ti/gcc-arm-none-eabi-6-2017-q1-update/bin/../lib/gcc/arm-none-eabi/6.3.1/../../../../arm-none-eabi/lib/hard\libg.a(lib_a-wsetup.o)
 .ARM.attributes
                0x00000f11       0x34 c:/ti/gcc-arm-none-eabi-6-2017-q1-update/bin/../lib/gcc/arm-none-eabi/6.3.1/../../../../arm-none-eabi/lib/hard\libg.a(lib_a-abort.o)
 .ARM.attributes
                0x00000f45       0x34 c:/ti/gcc-arm-none-eabi-6-2017-q1-update/bin/../lib/gcc/arm-none-eabi/6.3.1/../../../../arm-none-eabi/lib/hard\libg.a(lib_a-fflush.o)
 .ARM.attributes
                0x00000f79       0x34 c:/ti/gcc-arm-none-eabi-6-2017-q1-update/bin/../lib/gcc/arm-none-eabi/6.3.1/../../../../arm-none-eabi/lib/hard\libg.a(lib_a-findfp.o)
 .ARM.attributes
                0x00000fad       0x34 c:/ti/gcc-arm-none-eabi-6-2017-q1-update/bin/../lib/gcc/arm-none-eabi/6.3.1/../../../../arm-none-eabi/lib/hard\libg.a(lib_a-fputwc.o)
 .ARM.attributes
                0x00000fe1       0x34 c:/ti/gcc-arm-none-eabi-6-2017-q1-update/bin/../lib/gcc/arm-none-eabi/6.3.1/../../../../arm-none-eabi/lib/hard\libg.a(lib_a-freer.o)
 .ARM.attributes
                0x00001015       0x34 c:/ti/gcc-arm-none-eabi-6-2017-q1-update/bin/../lib/gcc/arm-none-eabi/6.3.1/../../../../arm-none-eabi/lib/hard\libg.a(lib_a-fvwrite.o)
 .ARM.attributes
                0x00001049       0x34 c:/ti/gcc-arm-none-eabi-6-2017-q1-update/bin/../lib/gcc/arm-none-eabi/6.3.1/../../../../arm-none-eabi/lib/hard\libg.a(lib_a-fwalk.o)
 .ARM.attributes
                0x0000107d       0x34 c:/ti/gcc-arm-none-eabi-6-2017-q1-update/bin/../lib/gcc/arm-none-eabi/6.3.1/../../../../arm-none-eabi/lib/hard\libg.a(lib_a-locale.o)
 .ARM.attributes
                0x000010b1       0x34 c:/ti/gcc-arm-none-eabi-6-2017-q1-update/bin/../lib/gcc/arm-none-eabi/6.3.1/../../../../arm-none-eabi/lib/hard\libg.a(lib_a-makebuf.o)
 .ARM.attributes
                0x000010e5       0x34 c:/ti/gcc-arm-none-eabi-6-2017-q1-update/bin/../lib/gcc/arm-none-eabi/6.3.1/../../../../arm-none-eabi/lib/hard\libg.a(lib_a-mallocr.o)
 .ARM.attributes
                0x00001119       0x34 c:/ti/gcc-arm-none-eabi-6-2017-q1-update/bin/../lib/gcc/arm-none-eabi/6.3.1/../../../../arm-none-eabi/lib/hard\libg.a(lib_a-mbtowc_r.o)
 .ARM.attributes
                0x0000114d       0x34 c:/ti/gcc-arm-none-eabi-6-2017-q1-update/bin/../lib/gcc/arm-none-eabi/6.3.1/../../../../arm-none-eabi/lib/hard\libg.a(lib_a-memchr-stub.o)
 .ARM.attributes
                0x00001181       0x34 c:/ti/gcc-arm-none-eabi-6-2017-q1-update/bin/../lib/gcc/arm-none-eabi/6.3.1/../../../../arm-none-eabi/lib/hard\libg.a(lib_a-memmove.o)
 .ARM.attributes
                0x000011b5       0x34 c:/ti/gcc-arm-none-eabi-6-2017-q1-update/bin/../lib/gcc/arm-none-eabi/6.3.1/../../../../arm-none-eabi/lib/hard\libg.a(lib_a-mlock.o)
 .ARM.attributes
                0x000011e9       0x34 c:/ti/gcc-arm-none-eabi-6-2017-q1-update/bin/../lib/gcc/arm-none-eabi/6.3.1/../../../../arm-none-eabi/lib/hard\libg.a(lib_a-reallocr.o)
 .ARM.attributes
                0x0000121d       0x34 c:/ti/gcc-arm-none-eabi-6-2017-q1-update/bin/../lib/gcc/arm-none-eabi/6.3.1/../../../../arm-none-eabi/lib/hard\libg.a(lib_a-sbrkr.o)
 .ARM.attributes
                0x00001251       0x34 c:/ti/gcc-arm-none-eabi-6-2017-q1-update/bin/../lib/gcc/arm-none-eabi/6.3.1/../../../../arm-none-eabi/lib/hard\libg.a(lib_a-signal.o)
 .ARM.attributes
                0x00001285       0x34 c:/ti/gcc-arm-none-eabi-6-2017-q1-update/bin/../lib/gcc/arm-none-eabi/6.3.1/../../../../arm-none-eabi/lib/hard\libg.a(lib_a-signalr.o)
 .ARM.attributes
                0x000012b9       0x34 c:/ti/gcc-arm-none-eabi-6-2017-q1-update/bin/../lib/gcc/arm-none-eabi/6.3.1/../../../../arm-none-eabi/lib/hard\libg.a(lib_a-stdio.o)
 .ARM.attributes
                0x000012ed       0x16 c:/ti/gcc-arm-none-eabi-6-2017-q1-update/bin/../lib/gcc/arm-none-eabi/6.3.1/../../../../arm-none-eabi/lib/hard\libg.a(lib_a-strcmp.o)
 .ARM.attributes
                0x00001303       0x34 c:/ti/gcc-arm-none-eabi-6-2017-q1-update/bin/../lib/gcc/arm-none-eabi/6.3.1/../../../../arm-none-eabi/lib/hard\libg.a(lib_a-strlen-stub.o)
 .ARM.attributes
                0x00001337       0x34 c:/ti/gcc-arm-none-eabi-6-2017-q1-update/bin/../lib/gcc/arm-none-eabi/6.3.1/../../../../arm-none-eabi/lib/hard\libg.a(lib_a-wbuf.o)
 .ARM.attributes
                0x0000136b       0x34 c:/ti/gcc-arm-none-eabi-6-2017-q1-update/bin/../lib/gcc/arm-none-eabi/6.3.1/../../../../arm-none-eabi/lib/hard\libg.a(lib_a-wcrtomb.o)
 .ARM.attributes
                0x0000139f       0x34 c:/ti/gcc-arm-none-eabi-6-2017-q1-update/bin/../lib/gcc/arm-none-eabi/6.3.1/../../../../arm-none-eabi/lib/hard\libg.a(lib_a-wctomb_r.o)
 .ARM.attributes
                0x000013d3       0x34 c:/ti/gcc-arm-none-eabi-6-2017-q1-update/bin/../lib/gcc/arm-none-eabi/6.3.1/../../../../arm-none-eabi/lib/hard\libg.a(lib_a-writer.o)
 .ARM.attributes
                0x00001407       0x34 c:/ti/gcc-arm-none-eabi-6-2017-q1-update/bin/../lib/gcc/arm-none-eabi/6.3.1/../../../../arm-none-eabi/lib/hard\libg.a(lib_a-closer.o)
 .ARM.attributes
                0x0000143b       0x32 c:/ti/gcc-arm-none-eabi-6-2017-q1-update/bin/../lib/gcc/arm-none-eabi/6.3.1/../../../../arm-none-eabi/lib/hard\libg.a(lib_a-ctype_.o)
 .ARM.attributes
                0x0000146d       0x34 c:/ti/gcc-arm-none-eabi-6-2017-q1-update/bin/../lib/gcc/arm-none-eabi/6.3.1/../../../../arm-none-eabi/lib/hard\libg.a(lib_a-fclose.o)
 .ARM.attributes
                0x000014a1       0x34 c:/ti/gcc-arm-none-eabi-6-2017-q1-update/bin/../lib/gcc/arm-none-eabi/6.3.1/../../../../arm-none-eabi/lib/hard\libg.a(lib_a-fstatr.o)
 .ARM.attributes
                0x000014d5       0x34 c:/ti/gcc-arm-none-eabi-6-2017-q1-update/bin/../lib/gcc/arm-none-eabi/6.3.1/../../../../arm-none-eabi/lib/hard\libg.a(lib_a-isattyr.o)
 .ARM.attributes
                0x00001509       0x34 c:/ti/gcc-arm-none-eabi-6-2017-q1-update/bin/../lib/gcc/arm-none-eabi/6.3.1/../../../../arm-none-eabi/lib/hard\libg.a(lib_a-lseekr.o)
 .ARM.attributes
                0x0000153d       0x34 c:/ti/gcc-arm-none-eabi-6-2017-q1-update/bin/../lib/gcc/arm-none-eabi/6.3.1/../../../../arm-none-eabi/lib/hard\libg.a(lib_a-readr.o)
 .ARM.attributes
                0x00001571       0x34 c:/ti/gcc-arm-none-eabi-6-2017-q1-update/bin/../lib/gcc/arm-none-eabi/6.3.1/../../../../arm-none-eabi/lib/hard\libg.a(lib_a-reent.o)
 .ARM.attributes
                0x000015a5       0x18 c:/ti/gcc-arm-none-eabi-6-2017-q1-update/bin/../lib/gcc/arm-none-eabi/6.3.1/hard\libgcc.a(_divsi3.o)
 .ARM.attributes
                0x000015bd       0x34 c:/ti/gcc-arm-none-eabi-6-2017-q1-update/bin/../lib/gcc/arm-none-eabi/6.3.1/../../../../arm-none-eabi/lib/hard\libnosys.a(close.o)
 .ARM.attributes
                0x000015f1       0x34 c:/ti/gcc-arm-none-eabi-6-2017-q1-update/bin/../lib/gcc/arm-none-eabi/6.3.1/../../../../arm-none-eabi/lib/hard\libnosys.a(fstat.o)
 .ARM.attributes
                0x00001625       0x34 c:/ti/gcc-arm-none-eabi-6-2017-q1-update/bin/../lib/gcc/arm-none-eabi/6.3.1/../../../../arm-none-eabi/lib/hard\libnosys.a(getpid.o)
 .ARM.attributes
                0x00001659       0x34 c:/ti/gcc-arm-none-eabi-6-2017-q1-update/bin/../lib/gcc/arm-none-eabi/6.3.1/../../../../arm-none-eabi/lib/hard\libnosys.a(isatty.o)
 .ARM.attributes
                0x0000168d       0x34 c:/ti/gcc-arm-none-eabi-6-2017-q1-update/bin/../lib/gcc/arm-none-eabi/6.3.1/../../../../arm-none-eabi/lib/hard\libnosys.a(kill.o)
 .ARM.attributes
                0x000016c1       0x34 c:/ti/gcc-arm-none-eabi-6-2017-q1-update/bin/../lib/gcc/arm-none-eabi/6.3.1/../../../../arm-none-eabi/lib/hard\libnosys.a(lseek.o)
 .ARM.attributes
                0x000016f5       0x34 c:/ti/gcc-arm-none-eabi-6-2017-q1-update/bin/../lib/gcc/arm-none-eabi/6.3.1/../../../../arm-none-eabi/lib/hard\libnosys.a(read.o)
 .ARM.attributes
                0x00001729       0x34 c:/ti/gcc-arm-none-eabi-6-2017-q1-update/bin/../lib/gcc/arm-none-eabi/6.3.1/../../../../arm-none-eabi/lib/hard\libnosys.a(sbrk.o)
 .ARM.attributes
                0x0000175d       0x34 c:/ti/gcc-arm-none-eabi-6-2017-q1-update/bin/../lib/gcc/arm-none-eabi/6.3.1/../../../../arm-none-eabi/lib/hard\libnosys.a(write.o)
 .ARM.attributes
                0x00001791       0x34 c:/ti/gcc-arm-none-eabi-6-2017-q1-update/bin/../lib/gcc/arm-none-eabi/6.3.1/../../../../arm-none-eabi/lib/hard\libnosys.a(_exit.o)
 .ARM.attributes
                0x000017c5       0x32 c:/ti/gcc-arm-none-eabi-6-2017-q1-update/bin/../lib/gcc/arm-none-eabi/6.3.1/hard/crtend.o
 .ARM.attributes
                0x000017f7       0x18 c:/ti/gcc-arm-none-eabi-6-2017-q1-update/bin/../lib/gcc/arm-none-eabi/6.3.1/hard/crtn.o

.comment        0x00000000       0x7f
 .comment       0x00000000       0x7f ./i2c.o
                                 0x80 (size before relaxing)
 .comment       0x0000007f       0x80 ./qspi.o
 .comment       0x0000007f       0x80 ./qspi_app.o
 .comment       0x0000007f       0x80 ./uart.o
 .comment       0x0000007f       0x80 ./flash_writer/crc16.o
 .comment       0x0000007f       0x80 ./flash_writer/flash_writer_app_main.o
 .comment       0x0000007f       0x80 ../libboard.a(board.o)
 .comment       0x0000007f       0x80 ../libboard.a(dcard.o)
 .comment       0x0000007f       0x80 ../libboard.a(platform.o)
 .comment       0x0000007f       0x80 ../libboard.a(pinmux.o)
 .comment       0x0000007f       0x80 ../libboard.a(board_am43xx.o)
 .comment       0x0000007f       0x80 ../libboard.a(dcard_am43xx.o)
 .comment       0x0000007f       0x80 ../libboard.a(am43xx_gpevm.o)
 .comment       0x0000007f       0x80 ../libboard.a(am43xx_evmsk.o)
 .comment       0x0000007f       0x80 ../libboard.a(am43xx_idkevm.o)
 .comment       0x0000007f       0x80 ../libboard.a(am43xx_eposevm.o)
 .comment       0x0000007f       0x80 ../libboard.a(am43xx_custom.o)
 .comment       0x0000007f       0x80 ../libboard.a(am43xx_gpevm_pinmux_data.o)
 .comment       0x0000007f       0x80 ../libboard.a(am43xx_evmsk_pinmux_data.o)
 .comment       0x0000007f       0x80 ../libboard.a(am43xx_idkevm_pinmux_data.o)
 .comment       0x0000007f       0x80 ../libboard.a(am43xx_eposevm_pinmux_data.o)
 .comment       0x0000007f       0x80 ../libdal.a(gpio.o)
 .comment       0x0000007f       0x80 ../libdevice.a(qspi_flash.o)
 .comment       0x0000007f       0x80 ../libexample_utils.a(example_utils_mmu.o)
 .comment       0x0000007f       0x80 ../libqspi_lib.a(qspi_lib.o)
 .comment       0x0000007f       0x80 ../libsoc.a(soc.o)
 .comment       0x0000007f       0x80 ../libsoc.a(startup.o)
 .comment       0x0000007f       0x80 ../libsoc.a(am43xx_chipdb.o)
 .comment       0x0000007f       0x80 ../libsoc.a(hw_am43xx_chipdb.o)
 .comment       0x0000007f       0x80 ../libsoc.a(hw_am43xx_chipdb_baseaddr.o)
 .comment       0x0000007f       0x80 ../libsoc.a(hw_am43xx_chipdb_interrupt.o)
 .comment       0x0000007f       0x80 ../libsoc.a(am43xx_prcm.o)
 .comment       0x0000007f       0x80 ../libsoc.a(hw_prcm_data.o)
 .comment       0x0000007f       0x80 ../libsoc.a(cache_arm.o)
 .comment       0x0000007f       0x80 ../libsoc.a(mmu_arm.o)
 .comment       0x0000007f       0x80 ../libsoc.a(cpu.o)
 .comment       0x0000007f       0x80 ../libsoc.a(gic.o)
 .comment       0x0000007f       0x80 ../libutils.a(console_utils.o)
 .comment       0x0000007f       0x80 ../libutils.a(agraph.o)
 .comment       0x0000007f       0x80 ../libutils.a(i2c_utils.o)
 .comment       0x0000007f       0x80 ../libutils.a(console_utils_uart.o)
 .comment       0x0000007f       0x80 ../libutils.a(ascii_utils.o)

.debug_info     0x00000000     0x83a6
 .debug_info    0x00000000     0x1486 ./i2c.o
 .debug_info    0x00001486     0x10c2 ./qspi.o
 .debug_info    0x00002548     0x1072 ./qspi_app.o
 .debug_info    0x000035ba       0x78 ./startup_ARMCA9.o
 .debug_info    0x00003632     0x1ebb ./uart.o
 .debug_info    0x000054ed       0xc1 ./flash_writer/crc16.o
 .debug_info    0x000055ae     0x153e ./flash_writer/flash_writer_app_main.o
 .debug_info    0x00006aec     0x18ba ../libqspi_lib.a(qspi_lib.o)

.debug_abbrev   0x00000000      0xf56
 .debug_abbrev  0x00000000      0x29e ./i2c.o
 .debug_abbrev  0x0000029e      0x271 ./qspi.o
 .debug_abbrev  0x0000050f      0x1fe ./qspi_app.o
 .debug_abbrev  0x0000070d       0x12 ./startup_ARMCA9.o
 .debug_abbrev  0x0000071f      0x296 ./uart.o
 .debug_abbrev  0x000009b5       0x97 ./flash_writer/crc16.o
 .debug_abbrev  0x00000a4c      0x29e ./flash_writer/flash_writer_app_main.o
 .debug_abbrev  0x00000cea      0x26c ../libqspi_lib.a(qspi_lib.o)

.debug_aranges  0x00000000      0x170
 .debug_aranges
                0x00000000       0x20 ./i2c.o
 .debug_aranges
                0x00000020       0x20 ./qspi.o
 .debug_aranges
                0x00000040       0x20 ./qspi_app.o
 .debug_aranges
                0x00000060       0x28 ./startup_ARMCA9.o
 .debug_aranges
                0x00000088       0x20 ./uart.o
 .debug_aranges
                0x000000a8       0x20 ./flash_writer/crc16.o
 .debug_aranges
                0x000000c8       0x20 ./flash_writer/flash_writer_app_main.o
 .debug_aranges
                0x000000e8       0x88 ../libqspi_lib.a(qspi_lib.o)

.debug_line     0x00000000     0x1942
 .debug_line    0x00000000      0x341 ./i2c.o
 .debug_line    0x00000341      0x2a8 ./qspi.o
 .debug_line    0x000005e9      0x295 ./qspi_app.o
 .debug_line    0x0000087e       0x78 ./startup_ARMCA9.o
 .debug_line    0x000008f6      0x4c2 ./uart.o
 .debug_line    0x00000db8       0x54 ./flash_writer/crc16.o
 .debug_line    0x00000e0c      0x5bf ./flash_writer/flash_writer_app_main.o
 .debug_line    0x000013cb      0x577 ../libqspi_lib.a(qspi_lib.o)

.debug_str      0x00000000     0x3bd9
 .debug_str     0x00000000      0xc80 ./i2c.o
                                0xd1b (size before relaxing)
 .debug_str     0x00000c80      0x366 ./qspi.o
                                0x95a (size before relaxing)
 .debug_str     0x00000fe6     0x12ec ./qspi_app.o
                               0x1896 (size before relaxing)
 .debug_str     0x000022d2      0xcb0 ./uart.o
                               0x12ff (size before relaxing)
 .debug_str     0x00002f82       0x35 ./flash_writer/crc16.o
                                0x14c (size before relaxing)
 .debug_str     0x00002fb7      0x4a9 ./flash_writer/flash_writer_app_main.o
                               0x1082 (size before relaxing)
 .debug_str     0x00003460      0x779 ../libqspi_lib.a(qspi_lib.o)
                               0x1038 (size before relaxing)

.debug_frame    0x00000000     0x27e8
 .debug_frame   0x00000000      0x570 ./i2c.o
 .debug_frame   0x00000570      0x330 ./qspi.o
 .debug_frame   0x000008a0       0x70 ./qspi_app.o
 .debug_frame   0x00000910      0x860 ./uart.o
 .debug_frame   0x00001170       0x30 ./flash_writer/crc16.o
 .debug_frame   0x000011a0       0x94 ./flash_writer/flash_writer_app_main.o
 .debug_frame   0x00001234       0x28 c:/ti/gcc-arm-none-eabi-6-2017-q1-update/bin/../lib/gcc/arm-none-eabi/6.3.1/../../../../arm-none-eabi/lib/hard\libc.a(lib_a-exit.o)
 .debug_frame   0x0000125c       0x34 c:/ti/gcc-arm-none-eabi-6-2017-q1-update/bin/../lib/gcc/arm-none-eabi/6.3.1/../../../../arm-none-eabi/lib/hard\libc.a(lib_a-init.o)
 .debug_frame   0x00001290       0x30 c:/ti/gcc-arm-none-eabi-6-2017-q1-update/bin/../lib/gcc/arm-none-eabi/6.3.1/../../../../arm-none-eabi/lib/hard\libc.a(lib_a-memset.o)
 .debug_frame   0x000012c0       0x68 c:/ti/gcc-arm-none-eabi-6-2017-q1-update/bin/../lib/gcc/arm-none-eabi/6.3.1/../../../../arm-none-eabi/lib/hard\libc.a(lib_a-__call_atexit.o)
 .debug_frame   0x00001328       0x2c c:/ti/gcc-arm-none-eabi-6-2017-q1-update/bin/../lib/gcc/arm-none-eabi/6.3.1/../../../../arm-none-eabi/lib/hard\libc.a(lib_a-atexit.o)
 .debug_frame   0x00001354       0x34 c:/ti/gcc-arm-none-eabi-6-2017-q1-update/bin/../lib/gcc/arm-none-eabi/6.3.1/../../../../arm-none-eabi/lib/hard\libc.a(lib_a-fini.o)
 .debug_frame   0x00001388       0xb0 c:/ti/gcc-arm-none-eabi-6-2017-q1-update/bin/../lib/gcc/arm-none-eabi/6.3.1/../../../../arm-none-eabi/lib/hard\libc.a(lib_a-lock.o)
 .debug_frame   0x00001438       0x44 c:/ti/gcc-arm-none-eabi-6-2017-q1-update/bin/../lib/gcc/arm-none-eabi/6.3.1/../../../../arm-none-eabi/lib/hard\libc.a(lib_a-__atexit.o)
 .debug_frame   0x0000147c      0x1ec ../libqspi_lib.a(qspi_lib.o)
 .debug_frame   0x00001668       0x20 c:/ti/gcc-arm-none-eabi-6-2017-q1-update/bin/../lib/gcc/arm-none-eabi/6.3.1/hard\libgcc.a(_udivsi3.o)
 .debug_frame   0x00001688       0x2c c:/ti/gcc-arm-none-eabi-6-2017-q1-update/bin/../lib/gcc/arm-none-eabi/6.3.1/hard\libgcc.a(_aeabi_uldivmod.o)
 .debug_frame   0x000016b4       0x20 c:/ti/gcc-arm-none-eabi-6-2017-q1-update/bin/../lib/gcc/arm-none-eabi/6.3.1/hard\libgcc.a(_fixunsdfdi.o)
 .debug_frame   0x000016d4       0x48 c:/ti/gcc-arm-none-eabi-6-2017-q1-update/bin/../lib/gcc/arm-none-eabi/6.3.1/hard\libgcc.a(_udivmoddi4.o)
 .debug_frame   0x0000171c       0x40 c:/ti/gcc-arm-none-eabi-6-2017-q1-update/bin/../lib/gcc/arm-none-eabi/6.3.1/../../../../arm-none-eabi/lib/hard\libg.a(lib_a-assert.o)
 .debug_frame   0x0000175c       0x6c c:/ti/gcc-arm-none-eabi-6-2017-q1-update/bin/../lib/gcc/arm-none-eabi/6.3.1/../../../../arm-none-eabi/lib/hard\libg.a(lib_a-fiprintf.o)
 .debug_frame   0x000017c8       0x44 c:/ti/gcc-arm-none-eabi-6-2017-q1-update/bin/../lib/gcc/arm-none-eabi/6.3.1/../../../../arm-none-eabi/lib/hard\libg.a(lib_a-memcpy-stub.o)
 .debug_frame   0x0000180c       0x50 c:/ti/gcc-arm-none-eabi-6-2017-q1-update/bin/../lib/gcc/arm-none-eabi/6.3.1/../../../../arm-none-eabi/lib/hard\libg.a(lib_a-strncmp.o)
 .debug_frame   0x0000185c       0xf0 c:/ti/gcc-arm-none-eabi-6-2017-q1-update/bin/../lib/gcc/arm-none-eabi/6.3.1/../../../../arm-none-eabi/lib/hard\libg.a(lib_a-vfiprintf.o)
 .debug_frame   0x0000194c       0x40 c:/ti/gcc-arm-none-eabi-6-2017-q1-update/bin/../lib/gcc/arm-none-eabi/6.3.1/../../../../arm-none-eabi/lib/hard\libg.a(lib_a-wsetup.o)
 .debug_frame   0x0000198c       0x28 c:/ti/gcc-arm-none-eabi-6-2017-q1-update/bin/../lib/gcc/arm-none-eabi/6.3.1/../../../../arm-none-eabi/lib/hard\libg.a(lib_a-abort.o)
 .debug_frame   0x000019b4       0xa4 c:/ti/gcc-arm-none-eabi-6-2017-q1-update/bin/../lib/gcc/arm-none-eabi/6.3.1/../../../../arm-none-eabi/lib/hard\libg.a(lib_a-fflush.o)
 .debug_frame   0x00001a58      0x1b8 c:/ti/gcc-arm-none-eabi-6-2017-q1-update/bin/../lib/gcc/arm-none-eabi/6.3.1/../../../../arm-none-eabi/lib/hard\libg.a(lib_a-findfp.o)
 .debug_frame   0x00001c10       0xbc c:/ti/gcc-arm-none-eabi-6-2017-q1-update/bin/../lib/gcc/arm-none-eabi/6.3.1/../../../../arm-none-eabi/lib/hard\libg.a(lib_a-fputwc.o)
 .debug_frame   0x00001ccc       0x70 c:/ti/gcc-arm-none-eabi-6-2017-q1-update/bin/../lib/gcc/arm-none-eabi/6.3.1/../../../../arm-none-eabi/lib/hard\libg.a(lib_a-freer.o)
 .debug_frame   0x00001d3c       0x80 c:/ti/gcc-arm-none-eabi-6-2017-q1-update/bin/../lib/gcc/arm-none-eabi/6.3.1/../../../../arm-none-eabi/lib/hard\libg.a(lib_a-fvwrite.o)
 .debug_frame   0x00001dbc       0x80 c:/ti/gcc-arm-none-eabi-6-2017-q1-update/bin/../lib/gcc/arm-none-eabi/6.3.1/../../../../arm-none-eabi/lib/hard\libg.a(lib_a-fwalk.o)
 .debug_frame   0x00001e3c       0x70 c:/ti/gcc-arm-none-eabi-6-2017-q1-update/bin/../lib/gcc/arm-none-eabi/6.3.1/../../../../arm-none-eabi/lib/hard\libg.a(lib_a-locale.o)
 .debug_frame   0x00001eac       0x8c c:/ti/gcc-arm-none-eabi-6-2017-q1-update/bin/../lib/gcc/arm-none-eabi/6.3.1/../../../../arm-none-eabi/lib/hard\libg.a(lib_a-makebuf.o)
 .debug_frame   0x00001f38       0x84 c:/ti/gcc-arm-none-eabi-6-2017-q1-update/bin/../lib/gcc/arm-none-eabi/6.3.1/../../../../arm-none-eabi/lib/hard\libg.a(lib_a-mallocr.o)
 .debug_frame   0x00001fbc       0x4c c:/ti/gcc-arm-none-eabi-6-2017-q1-update/bin/../lib/gcc/arm-none-eabi/6.3.1/../../../../arm-none-eabi/lib/hard\libg.a(lib_a-mbtowc_r.o)
 .debug_frame   0x00002008       0x38 c:/ti/gcc-arm-none-eabi-6-2017-q1-update/bin/../lib/gcc/arm-none-eabi/6.3.1/../../../../arm-none-eabi/lib/hard\libg.a(lib_a-memchr-stub.o)
 .debug_frame   0x00002040       0x40 c:/ti/gcc-arm-none-eabi-6-2017-q1-update/bin/../lib/gcc/arm-none-eabi/6.3.1/../../../../arm-none-eabi/lib/hard\libg.a(lib_a-memmove.o)
 .debug_frame   0x00002080       0x48 c:/ti/gcc-arm-none-eabi-6-2017-q1-update/bin/../lib/gcc/arm-none-eabi/6.3.1/../../../../arm-none-eabi/lib/hard\libg.a(lib_a-mlock.o)
 .debug_frame   0x000020c8       0x60 c:/ti/gcc-arm-none-eabi-6-2017-q1-update/bin/../lib/gcc/arm-none-eabi/6.3.1/../../../../arm-none-eabi/lib/hard\libg.a(lib_a-reallocr.o)
 .debug_frame   0x00002128       0x3c c:/ti/gcc-arm-none-eabi-6-2017-q1-update/bin/../lib/gcc/arm-none-eabi/6.3.1/../../../../arm-none-eabi/lib/hard\libg.a(lib_a-sbrkr.o)
 .debug_frame   0x00002164       0xf4 c:/ti/gcc-arm-none-eabi-6-2017-q1-update/bin/../lib/gcc/arm-none-eabi/6.3.1/../../../../arm-none-eabi/lib/hard\libg.a(lib_a-signal.o)
 .debug_frame   0x00002258       0x50 c:/ti/gcc-arm-none-eabi-6-2017-q1-update/bin/../lib/gcc/arm-none-eabi/6.3.1/../../../../arm-none-eabi/lib/hard\libg.a(lib_a-signalr.o)
 .debug_frame   0x000022a8       0x9c c:/ti/gcc-arm-none-eabi-6-2017-q1-update/bin/../lib/gcc/arm-none-eabi/6.3.1/../../../../arm-none-eabi/lib/hard\libg.a(lib_a-stdio.o)
 .debug_frame   0x00002344       0x40 c:/ti/gcc-arm-none-eabi-6-2017-q1-update/bin/../lib/gcc/arm-none-eabi/6.3.1/../../../../arm-none-eabi/lib/hard\libg.a(lib_a-strcmp.o)
 .debug_frame   0x00002384       0x20 c:/ti/gcc-arm-none-eabi-6-2017-q1-update/bin/../lib/gcc/arm-none-eabi/6.3.1/../../../../arm-none-eabi/lib/hard\libg.a(lib_a-strlen-stub.o)
 .debug_frame   0x000023a4       0x4c c:/ti/gcc-arm-none-eabi-6-2017-q1-update/bin/../lib/gcc/arm-none-eabi/6.3.1/../../../../arm-none-eabi/lib/hard\libg.a(lib_a-wbuf.o)
 .debug_frame   0x000023f0       0x68 c:/ti/gcc-arm-none-eabi-6-2017-q1-update/bin/../lib/gcc/arm-none-eabi/6.3.1/../../../../arm-none-eabi/lib/hard\libg.a(lib_a-wcrtomb.o)
 .debug_frame   0x00002458       0x3c c:/ti/gcc-arm-none-eabi-6-2017-q1-update/bin/../lib/gcc/arm-none-eabi/6.3.1/../../../../arm-none-eabi/lib/hard\libg.a(lib_a-wctomb_r.o)
 .debug_frame   0x00002494       0x34 c:/ti/gcc-arm-none-eabi-6-2017-q1-update/bin/../lib/gcc/arm-none-eabi/6.3.1/../../../../arm-none-eabi/lib/hard\libg.a(lib_a-writer.o)
 .debug_frame   0x000024c8       0x34 c:/ti/gcc-arm-none-eabi-6-2017-q1-update/bin/../lib/gcc/arm-none-eabi/6.3.1/../../../../arm-none-eabi/lib/hard\libg.a(lib_a-closer.o)
 .debug_frame   0x000024fc       0x58 c:/ti/gcc-arm-none-eabi-6-2017-q1-update/bin/../lib/gcc/arm-none-eabi/6.3.1/../../../../arm-none-eabi/lib/hard\libg.a(lib_a-fclose.o)
 .debug_frame   0x00002554       0x34 c:/ti/gcc-arm-none-eabi-6-2017-q1-update/bin/../lib/gcc/arm-none-eabi/6.3.1/../../../../arm-none-eabi/lib/hard\libg.a(lib_a-fstatr.o)
 .debug_frame   0x00002588       0x34 c:/ti/gcc-arm-none-eabi-6-2017-q1-update/bin/../lib/gcc/arm-none-eabi/6.3.1/../../../../arm-none-eabi/lib/hard\libg.a(lib_a-isattyr.o)
 .debug_frame   0x000025bc       0x34 c:/ti/gcc-arm-none-eabi-6-2017-q1-update/bin/../lib/gcc/arm-none-eabi/6.3.1/../../../../arm-none-eabi/lib/hard\libg.a(lib_a-lseekr.o)
 .debug_frame   0x000025f0       0x34 c:/ti/gcc-arm-none-eabi-6-2017-q1-update/bin/../lib/gcc/arm-none-eabi/6.3.1/../../../../arm-none-eabi/lib/hard\libg.a(lib_a-readr.o)
 .debug_frame   0x00002624       0x64 c:/ti/gcc-arm-none-eabi-6-2017-q1-update/bin/../lib/gcc/arm-none-eabi/6.3.1/../../../../arm-none-eabi/lib/hard\libg.a(lib_a-reent.o)
 .debug_frame   0x00002688       0x20 c:/ti/gcc-arm-none-eabi-6-2017-q1-update/bin/../lib/gcc/arm-none-eabi/6.3.1/hard\libgcc.a(_divsi3.o)
 .debug_frame   0x000026a8       0x20 c:/ti/gcc-arm-none-eabi-6-2017-q1-update/bin/../lib/gcc/arm-none-eabi/6.3.1/../../../../arm-none-eabi/lib/hard\libnosys.a(close.o)
 .debug_frame   0x000026c8       0x20 c:/ti/gcc-arm-none-eabi-6-2017-q1-update/bin/../lib/gcc/arm-none-eabi/6.3.1/../../../../arm-none-eabi/lib/hard\libnosys.a(fstat.o)
 .debug_frame   0x000026e8       0x20 c:/ti/gcc-arm-none-eabi-6-2017-q1-update/bin/../lib/gcc/arm-none-eabi/6.3.1/../../../../arm-none-eabi/lib/hard\libnosys.a(getpid.o)
 .debug_frame   0x00002708       0x20 c:/ti/gcc-arm-none-eabi-6-2017-q1-update/bin/../lib/gcc/arm-none-eabi/6.3.1/../../../../arm-none-eabi/lib/hard\libnosys.a(isatty.o)
 .debug_frame   0x00002728       0x20 c:/ti/gcc-arm-none-eabi-6-2017-q1-update/bin/../lib/gcc/arm-none-eabi/6.3.1/../../../../arm-none-eabi/lib/hard\libnosys.a(kill.o)
 .debug_frame   0x00002748       0x20 c:/ti/gcc-arm-none-eabi-6-2017-q1-update/bin/../lib/gcc/arm-none-eabi/6.3.1/../../../../arm-none-eabi/lib/hard\libnosys.a(lseek.o)
 .debug_frame   0x00002768       0x20 c:/ti/gcc-arm-none-eabi-6-2017-q1-update/bin/../lib/gcc/arm-none-eabi/6.3.1/../../../../arm-none-eabi/lib/hard\libnosys.a(read.o)
 .debug_frame   0x00002788       0x20 c:/ti/gcc-arm-none-eabi-6-2017-q1-update/bin/../lib/gcc/arm-none-eabi/6.3.1/../../../../arm-none-eabi/lib/hard\libnosys.a(sbrk.o)
 .debug_frame   0x000027a8       0x20 c:/ti/gcc-arm-none-eabi-6-2017-q1-update/bin/../lib/gcc/arm-none-eabi/6.3.1/../../../../arm-none-eabi/lib/hard\libnosys.a(write.o)
 .debug_frame   0x000027c8       0x20 c:/ti/gcc-arm-none-eabi-6-2017-q1-update/bin/../lib/gcc/arm-none-eabi/6.3.1/../../../../arm-none-eabi/lib/hard\libnosys.a(_exit.o)

.debug_ranges   0x00000000       0x98
 .debug_ranges  0x00000000       0x20 ./startup_ARMCA9.o
 .debug_ranges  0x00000020       0x78 ../libqspi_lib.a(qspi_lib.o)

.stab           0x00000000       0xcc
 .stab          0x00000000       0x24 c:/ti/gcc-arm-none-eabi-6-2017-q1-update/bin/../lib/gcc/arm-none-eabi/6.3.1/../../../../arm-none-eabi/lib/hard\libnosys.a(close.o)
 .stab          0x00000024       0x18 c:/ti/gcc-arm-none-eabi-6-2017-q1-update/bin/../lib/gcc/arm-none-eabi/6.3.1/../../../../arm-none-eabi/lib/hard\libnosys.a(fstat.o)
                                 0x24 (size before relaxing)
 .stab          0x0000003c       0x18 c:/ti/gcc-arm-none-eabi-6-2017-q1-update/bin/../lib/gcc/arm-none-eabi/6.3.1/../../../../arm-none-eabi/lib/hard\libnosys.a(getpid.o)
                                 0x24 (size before relaxing)
 .stab          0x00000054       0x18 c:/ti/gcc-arm-none-eabi-6-2017-q1-update/bin/../lib/gcc/arm-none-eabi/6.3.1/../../../../arm-none-eabi/lib/hard\libnosys.a(isatty.o)
                                 0x24 (size before relaxing)
 .stab          0x0000006c       0x18 c:/ti/gcc-arm-none-eabi-6-2017-q1-update/bin/../lib/gcc/arm-none-eabi/6.3.1/../../../../arm-none-eabi/lib/hard\libnosys.a(kill.o)
                                 0x24 (size before relaxing)
 .stab          0x00000084       0x18 c:/ti/gcc-arm-none-eabi-6-2017-q1-update/bin/../lib/gcc/arm-none-eabi/6.3.1/../../../../arm-none-eabi/lib/hard\libnosys.a(lseek.o)
                                 0x24 (size before relaxing)
 .stab          0x0000009c       0x18 c:/ti/gcc-arm-none-eabi-6-2017-q1-update/bin/../lib/gcc/arm-none-eabi/6.3.1/../../../../arm-none-eabi/lib/hard\libnosys.a(read.o)
                                 0x24 (size before relaxing)
 .stab          0x000000b4       0x18 c:/ti/gcc-arm-none-eabi-6-2017-q1-update/bin/../lib/gcc/arm-none-eabi/6.3.1/../../../../arm-none-eabi/lib/hard\libnosys.a(write.o)
                                 0x24 (size before relaxing)

.stabstr        0x00000000      0x1b9
 .stabstr       0x00000000      0x1b9 c:/ti/gcc-arm-none-eabi-6-2017-q1-update/bin/../lib/gcc/arm-none-eabi/6.3.1/../../../../arm-none-eabi/lib/hard\libnosys.a(close.o)
