Symbol _ZTVSt9exception {
}
Symbol _ZTVSt13bad_exception {
}
Symbol _ZTVSt9bad_alloc {
}
Symbol _ZTV10TException {
}
Symbol _ZTI10TException {
}
Symbol _ZTISt9exception {
}
Symbol _ZTISt13bad_exception {
}
Symbol _ZTISt9bad_alloc {
}
Symbol _ZTS10TException {
}
Symbol _ZTSSt9exception {
}
Symbol _ZTSSt13bad_exception {
}
Symbol _ZTSSt9bad_alloc {
}
Symbol uglBMFFont_Helvetica_Bold_24 {
}
Symbol uglBMFFont_Courier_Oblique_14 {
}
Symbol uglBMFFont_Lucida_Sans_Bold_Italic_8 {
}
Symbol uglBMFFont_Times_Bold_Italic_8 {
}
Symbol uglBMFFont_Helvetica_Bold_14 {
}
Symbol uglBMFFont_Times_Roman_18 {
}
Symbol uglBMFFont_Times_Bold_Italic_10 {
}
Symbol uglBMFFont_Lucida_Sans_Bold_24 {
}
Symbol uglBMFFont_Helvetica_Bold_Oblique_14 {
}
Symbol uglBMFFont_Lucida_Sans_Bold_Italic_12 {
}
Symbol uglBMFFont_Times_Italic_24 {
}
Symbol uglBMFFont_Courier_Bold_Oblique_8 {
}
Symbol uglBMFFont_Courier_Bold_18 {
}
Symbol uglBMFFont_Helvetica_8 {
}
Symbol uglBMFFont_Lucida_Sans_Bold_14 {
}
Symbol uglBMFFont_Lucida_Sans_Bold_19 {
}
Symbol uglBMFFont_Lucida_Bright_Demibold_8 {
}
Symbol uglBMFFont_Courier_Oblique_10 {
}
Symbol uglBMFFont_Helvetica_Bold_Oblique_12 {
}
Symbol uglBMFFont_Courier_Bold_14 {
}
Symbol uglBMFFont_Helvetica_Oblique_10 {
}
Symbol uglBMFFont_Helvetica_Bold_10 {
}
Symbol uglBMFFont_Times_Italic_14 {
}
Symbol uglBMFFont_Helvetica_Oblique_18 {
}
Symbol uglBMFFont_Lucida_Bright_Italic_12 {
}
Symbol uglBMFFont_Courier_Bold_24 {
}
Symbol uglBMFFont_Lucida_Bright_19 {
}
Symbol uglBMFFont_Lucida_Sans_Bold_10 {
}
Symbol uglBMFFont_Times_Roman_10 {
}
Symbol uglBMFFont_Times_Bold_10 {
}
Symbol uglBMFFont_Lucida_Bright_24 {
}
Symbol uglBMFFont_Courier_Bold_Oblique_12 {
}
Symbol uglBMFFont_Lucida_Bright_Italic_19 {
}
Symbol uglBMFFont_Times_Bold_24 {
}
Symbol uglBMFFont_Courier_8 {
}
Symbol uglBMFFont_Lucida_Bright_14 {
}
Symbol uglBMFFont_Lucida_Bright_Demibold_Italic_18 {
}
Symbol uglBMFFont_Lucida_Sans_12 {
}
Symbol uglBMFFont_Times_Italic_10 {
}
Symbol uglBMFFont_Helvetica_Bold_Oblique_24 {
}
Symbol uglBMFFont_Times_Italic_18 {
}
Symbol uglBMFFont_Lucida_Bright_Demibold_12 {
}
Symbol uglBMFFont_Lucida_Sans_Italic_8 {
}
Symbol uglBMFFont_Times_Bold_Italic_14 {
}
Symbol uglBMFFont_Helvetica_Bold_Oblique_18 {
}
Symbol uglBMFFont_Lucida_Bright_12 {
}
Symbol uglBMFFont_Lucida_Bright_Italic_24 {
}
Symbol uglBMFFont_Lucida_Sans_Italic_19 {
}
Symbol uglBMFFont_Times_Bold_8 {
}
Symbol uglBMFFont_Helvetica_Bold_12 {
}
Symbol uglBMFFont_Lucida_Bright_Demibold_Italic_14 {
}
Symbol uglBMFFont_Lucida_Bright_10 {
}
Symbol uglBMFFont_Lucida_Sans_Bold_Italic_10 {
}
Symbol uglBMFFont_Courier_Bold_Oblique_24 {
}
Symbol uglBMFFont_Lucida_Sans_Bold_Italic_18 {
}
Symbol uglBMFFont_Times_Roman_8 {
}
Symbol uglBMFFont_Courier_Bold_Oblique_18 {
}
Symbol uglBMFFont_Courier_12 {
}
Symbol uglBMFFont_Lucida_Sans_Bold_Italic_14 {
}
Symbol uglBMFFont_Lucida_Sans_24 {
}
Symbol uglBMFFont_Helvetica_Oblique_12 {
}
Symbol uglBMFFont_Courier_Oblique_8 {
}
Symbol uglBMFFont_Helvetica_Bold_8 {
}
Symbol uglBMFFont_Courier_Oblique_12 {
}
Symbol uglBMFFont_Lucida_Sans_19 {
}
Symbol uglBMFFont_Lucida_Bright_18 {
}
Symbol uglBMFFont_Courier_Bold_Oblique_14 {
}
Symbol uglBMFFont_Times_Bold_Italic_24 {
}
Symbol uglBMFFont_Helvetica_24 {
}
Symbol uglBMFFont_Lucida_Bright_Demibold_Italic_8 {
}
Symbol uglBMFFont_Helvetica_Bold_Oblique_10 {
}
Symbol uglBMFFont_Lucida_Bright_Demibold_18 {
}
Symbol uglBMFFont_Courier_Bold_10 {
}
Symbol uglBMFFont_Lucida_Bright_Demibold_24 {
}
Symbol uglBMFFont_Lucida_Sans_Bold_8 {
}
Symbol uglBMFFont_Lucida_Sans_14 {
}
Symbol uglBMFFont_Helvetica_14 {
}
Symbol uglBMFFont_Lucida_Bright_Italic_10 {
}
Symbol uglBMFFont_Lucida_Bright_Demibold_14 {
}
Symbol uglBMFFont_Courier_Bold_8 {
}
Symbol uglBMFFont_Lucida_Sans_Italic_24 {
}
Symbol uglBMFFont_Lucida_Sans_Bold_18 {
}
Symbol uglBMFFont_Courier_Bold_Oblique_10 {
}
Symbol uglBMFFont_Times_Roman_12 {
}
Symbol uglBMFFont_Helvetica_18 {
}
Symbol uglBMFFont_Helvetica_Oblique_24 {
}
Symbol uglBMFFont_Courier_Oblique_18 {
}
Symbol uglBMFFont_Times_Bold_Italic_12 {
}
Symbol uglBMFFont_Times_Italic_8 {
}
Symbol uglBMFFont_Courier_18 {
}
Symbol uglBMFFont_Lucida_Sans_10 {
}
Symbol uglBMFFont_Lucida_Bright_Demibold_Italic_12 {
}
Symbol uglBMFFont_Courier_24 {
}
Symbol uglBMFFont_Helvetica_12 {
}
Symbol uglBMFFont_Lucida_Bright_Italic_14 {
}
Symbol uglBMFFont_Lucida_Bright_Demibold_10 {
}
Symbol uglBMFFont_Lucida_Bright_Demibold_19 {
}
Symbol uglBMFFont_Lucida_Sans_8 {
}
Symbol uglBMFFont_Lucida_Bright_8 {
}
Symbol uglBMFFont_Lucida_Sans_Italic_12 {
}
Symbol uglBMFFont_Courier_14 {
}
Symbol uglBMFFont_Lucida_Sans_18 {
}
Symbol uglBMFFont_Times_Bold_18 {
}
Symbol uglBMFFont_Lucida_Sans_Bold_12 {
}
Symbol uglBMFFont_Lucida_Bright_Demibold_Italic_10 {
}
Symbol uglBMFFont_Lucida_Sans_Italic_14 {
}
Symbol uglBMFFont_Lucida_Bright_Italic_18 {
}
Symbol uglBMFFont_Times_Bold_14 {
}
Symbol uglBMFFont_Courier_Bold_12 {
}
Symbol uglBMFFont_Helvetica_10 {
}
Symbol uglBMFFont_Times_Italic_12 {
}
Symbol uglBMFFont_Lucida_Sans_Bold_Italic_19 {
}
Symbol uglBMFFont_Helvetica_Oblique_14 {
}
Symbol uglBMFFont_Courier_Oblique_24 {
}
Symbol uglBMFFont_Lucida_Bright_Demibold_Italic_24 {
}
Symbol uglBMFFont_Courier_10 {
}
Symbol uglBMFFont_Lucida_Sans_Bold_Italic_24 {
}
Symbol uglBMFFont_Times_Roman_24 {
}
Symbol uglBMFFont_Times_Bold_Italic_18 {
}
Symbol uglBMFFont_Lucida_Sans_Italic_10 {
}
Symbol uglBMFFont_Lucida_Bright_Italic_8 {
}
Symbol uglBMFFont_Lucida_Sans_Italic_18 {
}
Symbol uglBMFFont_Times_Bold_12 {
}
Symbol uglBMFFont_Helvetica_Oblique_8 {
}
Symbol uglBMFFont_Times_Roman_14 {
}
Symbol uglBMFFont_Helvetica_Bold_Oblique_8 {
}
Symbol uglBMFFont_Lucida_Bright_Demibold_Italic_19 {
}
Symbol uglBMFFont_Helvetica_Bold_18 {
}
Symbol startLuxirr {
}
Symbol endLuxirr {
}
Symbol startLuxisr {
}
Symbol endLuxisr {
}
Symbol startLuximr {
}
Symbol endLuximr {
}
Symbol _ZTV17TChildrenDelegate {
}
Symbol _ZTV6TImage {
}
Symbol _ZTV9TPlatform {
}
Symbol _ZTV20TVXFBPlatformSupport {
}
Symbol _ZTV6TArrayIP5TNodeE {
}
Symbol _ZTV6TArrayI9ColorStopE {
}
Symbol _ZTI17TChildrenDelegate {
}
Symbol _ZTI6TArrayIP5TNodeE {
}
Symbol _ZTI6TImage {
}
Symbol _ZTI6TArrayI9ColorStopE {
}
Symbol _ZTI9TPlatform {
}
Symbol _ZTI20TVXFBPlatformSupport {
}
Symbol _ZTIN10TException4TypeE {
}
Symbol _ZTSN10TException4TypeE {
}
Symbol _ZTS17TChildrenDelegate {
}
Symbol _ZTS6TArrayIP5TNodeE {
}
Symbol _ZTS6TImage {
}
Symbol _ZTS6TArrayI9ColorStopE {
}
Symbol _ZTS9TPlatform {
}
Symbol _ZTS20TVXFBPlatformSupport {
}
Symbol _Z26DestroyVXFBPlatformSupportP9TPlatform {
}
Symbol __frameinfo_used {
}
Symbol _ZN6_TRectIiEC1Ev {
}
Symbol _ZN6_TRectIiE8nullRectE {
}
Symbol open {
}
Symbol printf {
}
Symbol ioctl {
}
Symbol close {
}
Symbol read {
}
Symbol _ZN20TVXFBPlatformSupport8InstanceEv {
}
Symbol _ZN20TVXFBPlatformSupport19vxfbPlatformSupportE {
}
Symbol __cxa_allocate_exception {
}
Symbol __cxa_throw {
}
Symbol _ZN10TExceptionD1Ev {
}
Symbol _ZN20TVXFBPlatformSupport12VXFBTimerSetEv {
}
Symbol clock_gettime {
}
Symbol __div32 {
}
Symbol _ZN20TVXFBPlatformSupport23VXFBTimerSignalCallbackEiP7siginfoPv {
}
Symbol sigemptyset {
}
Symbol sigaction {
}
Symbol memset {
}
Symbol timer_create {
}
Symbol timer_settime {
}
Symbol _ZN20TVXFBPlatformSupport4InitEv {
}
Symbol msgQCreate {
}
Symbol _ZN7TStringC1EPKc {
}
Symbol _ZNK7TStringeqERKS_ {
}
Symbol free {
}
Symbol memcpy {
}
Symbol _ZN20TVXFBPlatformSupport13VXFBInputTaskEv {
}
Symbol taskSpawn {
}
Symbol __diab_Unwind_Resume {
}
Symbol __diab_personality_v0 {
}
Symbol _ZN20TVXFBPlatformSupport6DeinitEv {
}
Symbol taskWait {
}
Symbol timer_delete {
}
Symbol msgQDelete {
}
Symbol _ZN20TVXFBPlatformSupportC1ERK9TAppParam {
}
Symbol _ZN7TStringC1Ev {
}
Symbol _ZN7TStringaSERKS_ {
}
Symbol _Z17InitDisplaySystemPhiii {
}
Symbol __cxa_end_catch {
}
Symbol __cxa_begin_catch {
}
Symbol _Z19DeinitDisplaySystemP8TDisplay {
}
Symbol __cxa_rethrow {
}
Symbol _Z25CreateVXFBPlatformSupportRK9TAppParam {
}
Symbol _Znwj {
}
Symbol _ZdlPv {
}
Symbol _ZN10TExceptionD0Ev {
}
Symbol _ZN7_TPointIiED1Ev {
}
Symbol _ZN20TVXFBPlatformSupportC2ERK9TAppParam {
}
Symbol _ZN20TVXFBPlatformSupportD1Ev {
}
Symbol _ZN20TVXFBPlatformSupportD2Ev {
}
Symbol _ZN20TVXFBPlatformSupportD0Ev {
}
Symbol _ZN20TVXFBPlatformSupport13GetScreenInfoER11TScreenInfo {
}
Symbol _ZN20TVXFBPlatformSupport11SaveSurfaceEPvRK7_TPointIiES4_RK6_TSizeIiE {
}
Symbol _ZN20TVXFBPlatformSupport11BlitSurfaceEPvRK7_TPointIiES4_RK6_TSizeIiE {
}
Symbol _ZN20TVXFBPlatformSupport10PostScreenEiPKi {
}
Symbol _ZN20TVXFBPlatformSupport10SwapScreenEv {
}
Symbol _ZN20TVXFBPlatformSupport11WaitMessageER8_app_msgi {
}
Symbol msgQReceive {
}
Symbol _ZN20TVXFBPlatformSupport11SendMessageERK8_app_msgi {
}
Symbol msgQSend {
}
Symbol _ZN20TVXFBPlatformSupport10GetDisplayEv {
}
Symbol __cxa_guard_acquire {
}
Symbol __cxa_atexit {
}
Symbol __dso_handle {
}
Symbol __cxa_guard_release {
}
Symbol sigaddset {
}
Symbol sigprocmask {
}
Symbol errnoGet {
}
Symbol __cxa_guard_abort {
}
Symbol _ZTVN10__cxxabiv117__class_type_infoE {
}
Symbol _ZTVN10__cxxabiv120__si_class_type_infoE {
}
Symbol _ZTVN10__cxxabiv116__enum_type_infoE {
}
Symbol _Z22DestroyPlatformSupportP9TPlatform {
}
Symbol _Z21CreatePlatformSupportRK9TAppParam {
}
Symbol _STI___16_tilconConfig_cpp_d31d4a20 {
}
Symbol luxirrFontDesc {
}
Symbol luxisrFontDesc {
}
Symbol luximrFontDesc {
}
Symbol bmfFontDescs {
}
Symbol ttfFontDescs {
}
Symbol _ZTV6TArrayIN3tds4Path7SegmentEE {
}
Symbol _ZTI6TArrayIN3tds4Path7SegmentEE {
}
Symbol _ZTS6TArrayIN3tds4Path7SegmentEE {
}
Symbol _ZN10TMatrix3x3C1Ev {
}
Symbol _ZN10TMatrix3x3C1ERKS_ {
}
Symbol _ZN10TMatrix3x3C1Efffffffff {
}
Symbol _ZN10TMatrix3x3aSERKS_ {
}
Symbol _ZNK10TMatrix3x3mlERK8TVector2 {
}
Symbol _ZNK10TMatrix3x3mlERKS_ {
}
Symbol _ZN10TMatrix3x39TranslateEff {
}
Symbol _ZN10TMatrix3x35ScaleEff {
}
Symbol _ZN6TColorC1ERKS_ {
}
Symbol _ZN6_TRectIiEC1ERKS0_ {
}
Symbol _ZN6_TRectIiEC1ERK7_TPointIiERK6_TSizeIiE {
}
Symbol _ZN6_TRectIiEC1ERK7_TPointIiES4_ {
}
Symbol _ZNK6_TRectIiEplERK7_TPointIiE {
}
Symbol _ZNK6_TRectIiEmiERK7_TPointIiE {
}
Symbol _ZNK6_TRectIiE9IntersectERKS0_ {
}
Symbol _ZN6_TRectIiEpLERK7_TPointIiE {
}
Symbol _ZNK6TArrayIN3tds4Path7SegmentEEixEi {
}
Symbol _ZNK6TArrayI9ColorStopEixEi {
}
Symbol _ZN7_TPointIiEC1Ev {
}
Symbol _ZN3tds7Context13ClearClipRectEv {
}
Symbol _ZN6_TRectIiE7maxRectE {
}
Symbol _ZN3tds7Context13SetRenderAreaERK7_TPointIiERK6_TRectIiE {
}
Symbol _ZN3tds7Context15ResetRenderAreaEv {
}
Symbol _ZN3tds7Context11SetClipRectERK6_TRectIiE {
}
Symbol _ZN3tds7PainterC1Eii {
}
Symbol _ZN3tds10RasterizerC1Eii {
}
Symbol _ZN3tds7PainterC2Eii {
}
Symbol _ZN3tds7PainterD1Ev {
}
Symbol _ZN3tds10RasterizerD1Ev {
}
Symbol _ZN3tds7PainterD2Ev {
}
Symbol _ZN3tds7Painter10BeginPaintERNS_7ContextERNS_11ColorBufferE {
}
Symbol _ZN3tds7Painter8EndPaintERNS_7ContextE {
}
Symbol _ZN3tds7Painter13RasterSegmentERK8TVector2S3_ {
}
Symbol _ZN3tds10Rasterizer11TessSegmentEiiii {
}
Symbol _ZN3tds7Painter8TessLineERK8TVector2S3_ {
}
Symbol _ZN3tds7Painter18TessStrokeInternalENS0_11TessCommandERK8TVector2RNS0_13StrokePainterE {
}
Symbol _ZN8TVector29NormalizeEv {
}
Symbol _ZN3tds7Painter13StrokePainterC1Ev {
}
Symbol _ZN3tds7Painter14TessStrokePathEPK7_TPointIfEji {
}
Symbol _ZN3tds10Rasterizer5BeginEPNS_7ContextE {
}
Symbol _ZN3tds10Rasterizer8ScanlineEv {
}
Symbol _ZN3tds7Painter10StrokePathERNS_7ContextEPK7_TPointIfEji {
}
Symbol _ZN3tds7Painter12TessFillPathEPK7_TPointIfEj {
}
Symbol _ZN3tds7Painter8FillPathERNS_7ContextEPK7_TPointIfEj {
}
Symbol _ZN3tds7Painter10SplitCurveEPi {
}
Symbol _ZN3tds7Painter21TessStrokeCubicBezierERK8TVector2S3_S3_S3_RNS0_13StrokePainterE {
}
Symbol labs {
}
Symbol _ZN3tds7Painter14TessStrokePathERKNS_4PathE {
}
Symbol _ZN3tds7Painter10StrokePathERNS_7ContextERKNS_4PathE {
}
Symbol _ZN3tds7Painter15TessCubicBezierERK8TVector2S3_S3_S3_ {
}
Symbol abs {
}
Symbol _ZN3tds7Painter12TessFillPathERKNS_4PathE {
}
Symbol _ZN3tds7Painter8FillPathERNS_7ContextERKNS_4PathE {
}
Symbol _ZN3tds7Painter13FillSolidRectERNS_7ContextERK6_TRectIiERK6TColor {
}
Symbol _ZN3tds11ColorBuffer8SetColorERK6TColorii {
}
Symbol _ZN3tds11ColorBuffer10BlendColorERK6TColorii {
}
Symbol _ZN3tds7Painter9DrawVLineERNS_7ContextEiii {
}
Symbol _ZN3tds7Painter12DrawDashLineERNS_7ContextERK7_TPointIiES6_ {
}
Symbol _ZN3tds7Painter28BresenhanLineBoundaryDataGetER7_TPointIiES3_PPS2_iPj {
}
Symbol _ZN3tds7Painter16DrawScanLineDataERNS_7ContextEPPiii {
}
Symbol _ZN3tds7Painter11DrawPolygonERNS_7ContextEPK7_TPointIiEi {
}
Symbol malloc {
}
Symbol memmove {
}
Symbol _ZN3tds7Painter11DrawLineExeERNS_7ContextERK7_TPointIiES6_ {
}
Symbol __cxa_vec_ctor {
}
Symbol __cxa_vec_dtor {
}
Symbol _ZN3tds7Painter20BresenhanLineDataGetERK7_TPointIiES4_PPS2_iPj {
}
Symbol _ZN3tds7Painter9DrawHLineERNS_7ContextEiii {
}
Symbol _ZN3tds7Painter17DrawBresenhanLineERNS_7ContextERK7_TPointIiES6_ {
}
Symbol _ZN3tds7Painter8DrawLineERNS_7ContextERK7_TPointIiES6_ {
}
Symbol _ZN3tds7Painter8DrawRectERNS_7ContextERK6_TRectIiEi {
}
Symbol _ZN3tds7Painter9DrawImageERNS_7ContextERK6TImageii {
}
Symbol _ZNK6TImage9GetHeightEv {
}
Symbol _ZNK6TImage8GetWidthEv {
}
Symbol _ZNK6TImage9GetBufferEii {
}
Symbol _ZNK6TImage9GetStrideEv {
}
Symbol _ZNK6TImage9GetFormatEv {
}
Symbol _ZN3tds11ColorBuffer9BlendFromEPKh11ColorFormatiRK7_TPointIiERK6_TSizeIiE {
}
Symbol _ZN3tds7Painter15DrawPixelBufferERNS_7ContextERKNS_11ColorBufferEii {
}
Symbol _ZN3tds11ColorBuffer9BlendFromERKS0_iiiiii {
}
Symbol _ZN3tds7Painter10DrawCircleERNS_7ContextERK6_TRectIiE {
}
Symbol _ZN3tds8TEllipseC1ERNS_7ContextERK6_TRectIiERK7_TPointIiESA_b {
}
Symbol _ZN3tds8TEllipse11EllipseDrawEv {
}
Symbol _ZN3tds8TEllipseD1Ev {
}
Symbol _ZN3tds7Painter11DrawEllipseERNS_7ContextERK6_TRectIiE {
}
Symbol _ZN3tds7Painter7DrawArcERNS_7ContextERK6_TRectIiERK7_TPointIiESA_ {
}
Symbol _ZN3tds7Painter7DrawPieERNS_7ContextERK6_TRectIiERK7_TPointIiESA_ {
}
Symbol _ZN3tds7Painter14DrawVectorTextERNS_7ContextERKNS_10VectorFontEfffPKwi {
}
Symbol _ZNK3tds10VectorFont8GetGlyphEj {
}
Symbol _ZN3tds7Painter11DrawBmfTextERNS_7ContextERKNS_7BmfFontEffPKwi {
}
Symbol _ZNK8TBmfFont10GetMetricsER11FontMetrics {
}
Symbol _ZNK8TBmfFont8GetGlyphEw {
}
Symbol _ZN3tds7Painter11DrawUCSTextERNS_7ContextEffPKwi {
}
Symbol _ZNK5TFont7GetTypeEv {
}
Symbol _ZNK5TFont12GetPointSizeEv {
}
Symbol _ZN3tds7Painter14MeasureUCSTextERNS_7ContextEPKwi {
}
Symbol _ZNK8TTtfFont9GetHeightEv {
}
Symbol _ZNK3tds10VectorFont16MeasureTextWidthEPKwi {
}
Symbol _ZN3tds7Painter6CopyToERNS_7ContextERNS_11ColorBufferEiiiiii {
}
Symbol _ZNK3tds11ColorBuffer6CopyToERS0_iiiiii {
}
Symbol _ZN3tds7Painter8CopyFromERNS_7ContextERKNS_11ColorBufferEiiiiii {
}
Symbol _ZN3tds11ColorBuffer8CopyFromERKS0_iiiiii {
}
Symbol _ZN3tds7Painter17TessPathByCommandEiPKNS_4Path7SegmentE {
}
Symbol _ZN3tds16GetGradientColorERK9TGradientff10TMatrix3x3 {
}
Symbol _ZNK9TGradient12GetColorStopEv {
}
Symbol _ZNK9TGradient13GetLinearDataEv {
}
Symbol _ZNK9TGradient13GetRadialDataEv {
}
Symbol sqrt {
}
Symbol floor {
}
Symbol _ZN6TColor11InterpolateEfRKS_ {
}
Symbol _ZN3tds8TEllipseC2ERNS_7ContextERK6_TRectIiERK7_TPointIiESA_b {
}
Symbol _ZN3tds8TEllipseD2Ev {
}
Symbol _ZN3tds8TEllipse15GeneralScanLineEiiii {
}
Symbol _ZN10TMatrix3x36InvertEv {
}
Symbol _ZNK3tds11ColorBuffer15GetPatternColorEff10TMatrix3x3 {
}
Symbol _ZN3tds8TEllipse11GenericFillEPPiiii {
}
Symbol _ZN3tds8TEllipse19LineDataGetBoundaryEP7_TPointIiES3_PS3_iPi {
}
Symbol _ZN3tds8TEllipse11GenericLineER7_TPointIiES3_R6TColor {
}
Symbol _ZN3tds8TEllipse12GenericPointER7_TPointIiER6TColor {
}
Symbol _ZN3tds8TEllipse16EllipseDataGetSCEPiii {
}
Symbol __mul64 {
}
Symbol _ZN3tds8TEllipse17AngleReferenceGetEiiii {
}
Symbol _ZN3tds8TEllipse16EllipseDataAllocEv {
}
Symbol _ZN3tds8TEllipse15EllipseDataFreeEv {
}
Symbol _ZN3tds8TEllipse18SpecialEllipseDrawEv {
}
Symbol __rem32 {
}
Symbol _ZN3tds8TEllipse14intersectStartEiiii {
}
Symbol _ZN3tds8TEllipse12intersectEndEiiii {
}
Symbol _ZN3tds8TEllipse14EllipseDataGetEi {
}
Symbol _ZN3tds8TEllipse7fixFlatEv {
}
Symbol _ZN3tds8TEllipse12EllipseFGGetEv {
}
Symbol _ZN3tds8TEllipse8goAroundEv {
}
Symbol _ZN3tds8TEllipse16intersectTogglesEi {
}
Symbol _ZN3tds8TEllipse16EllipseBGGetPartEi {
}
Symbol _ZN3tds8TEllipse16EllipseFGGetPartEv {
}
Symbol _ZN3tds8TEllipse8fixLinesEv {
}
Symbol _ZN3tds8TEllipse18EllipseFGDrawPart2Ev {
}
Symbol _Znaj {
}
Symbol _ZdaPv {
}
Symbol _ZN3tds10RasterizerC2Eii {
}
Symbol _ZN3tds10RasterizerD2Ev {
}
Symbol _ZN3tds10Rasterizer5tessHEiiiiRKNS0_7segmentE {
}
Symbol _ZN3tds10Rasterizer5tessVEiiiii {
}
Symbol __div64 {
}
Symbol _ZN3tds10Rasterizer13SolidScanlineERK6TColor {
}
Symbol _ZN6TColor7Fade256EiRKS_ {
}
Symbol _ZN3tds10Rasterizer15GeneralScanlineEv {
}
Symbol _ZN6TArrayIN3tds4Path7SegmentEED1Ev {
}
Symbol _ZN6TArrayIN3tds4Path7SegmentEED0Ev {
}
Symbol _ZN6TArrayIN3tds4Path7SegmentEE13RoundCapacityEi {
}
Symbol _ZN6TArrayIN3tds4Path7SegmentEE8ExpandAtEii {
}
Symbol __cxa_vec_new2 {
}
Symbol _ZN3tds4Path7SegmentC1Ev {
}
Symbol _ZN6TArrayIN3tds4Path7SegmentEE8InsertAtEiRKS2_ {
}
Symbol _ZN6TArrayIN3tds4Path7SegmentEE8InsertAtEiRKS3_ {
}
Symbol _ZN6TArrayIN3tds4Path7SegmentEE5ClearEv {
}
Symbol _ZN6_TRectIfEC1Ev {
}
Symbol _ZN6_TRectIfE8nullRectE {
}
Symbol _ZN6_TRectIfEC1ERK7_TPointIfES4_ {
}
Symbol _ZNK6_TRectIfE7CombineERKS0_ {
}
Symbol _ZN3tds4PathC1Ev {
}
Symbol _ZN3tds4PathC2Ev {
}
Symbol _ZN3tds4PathD1Ev {
}
Symbol _ZN3tds4PathD2Ev {
}
Symbol _ZN3tds4Path5ClearEv {
}
Symbol _ZN3tds4Path10AppendDataEjPKhPKf {
}
Symbol _ZN3tds4Path10AppendPathERKS0_ {
}
Symbol _ZN3tds4Path9TransformERK10TMatrix3x3 {
}
Symbol _ZNK3tds4Path12GetBoundRectEv {
}
Symbol _ZTVN3tds10VectorFontE {
}
Symbol _ZTV6TArrayIhE {
}
Symbol _ZTV6TArrayIfE {
}
Symbol _ZTI6TArrayIhE {
}
Symbol _ZTI6TArrayIfE {
}
Symbol _ZTIN3tds10VectorFontE {
}
Symbol _ZTS6TArrayIhE {
}
Symbol _ZTS6TArrayIfE {
}
Symbol _ZTSN3tds10VectorFontE {
}
Symbol _ZN6TArrayIN3tds4Path7SegmentEE8CopyFromERKS3_ {
}
Symbol _ZN6TArrayIN3tds4Path7SegmentEEC1ERKS3_ {
}
Symbol _ZN6TArrayIhED1Ev {
}
Symbol _ZN6TArrayIhED0Ev {
}
Symbol _ZNK6TArrayIhEixEi {
}
Symbol _ZN6TArrayIfED1Ev {
}
Symbol _ZN6TArrayIfED0Ev {
}
Symbol _ZNK6TArrayIfEixEi {
}
Symbol _ZN3tds4PathaSERKS0_ {
}
Symbol _ZN3tds10VectorFont5GlyphC1Ev {
}
Symbol _ZN3tds10VectorFont5GlyphC1ERK7_TPointIfERKNS_4PathE {
}
Symbol _ZN3tds10VectorFont5GlyphD1Ev {
}
Symbol _ZN3tds10VectorFontC1ERK8TTtfFont {
}
Symbol _ZNK8TTtfFont6IsNullEv {
}
Symbol _ZNK8TTtfFont12GetGlyphPathEwR6TArrayIhERS0_IfER7_TPointIfE {
}
Symbol _ZN8TTtfFontD1Ev {
}
Symbol _ZN3tds10VectorFontC2ERK8TTtfFont {
}
Symbol _ZN3tds10VectorFontD1Ev {
}
Symbol _ZN3tds10VectorFontD0Ev {
}
Symbol _ZN3tds10VectorFontD2Ev {
}
Symbol _ZN6TColorC1Ej {
}
Symbol _ZN3tds11ColorBufferC1Eii {
}
Symbol _ZN3tds11ColorBufferC2Eii {
}
Symbol _ZN3tds11ColorBufferD1Ev {
}
Symbol _ZN3tds11ColorBufferD2Ev {
}
Symbol _ZNK3tds11ColorBuffer15GetPatternColorEff {
}
Symbol _ZNK3tds11ColorBuffer17GetTransformColorEff10TMatrix3x3 {
}
Symbol _ZNK3tds11ColorBuffer8GetColorEii {
}
Symbol __udiv32 {
}
Symbol _ZN3tds11ColorBuffer16GetBlockCopyRectERK6_TSizeIiERK7_TPointIiES4_S8_S4_ {
}
Symbol _ZNK3tds11ColorBuffer6CopyToEPh11ColorFormatiRK7_TPointIiERK6_TSizeIiE {
}
Symbol _ZN3tds11ColorBuffer8CopyFromEPKh11ColorFormatiRK7_TPointIiERK6_TSizeIiE {
}
Symbol _ZN3tds11ColorBuffer9CopyColorERK6TColorRK6_TRectIiE {
}
Symbol _ZN3tds11ColorBuffer16GetBlockCopyRectERK6_TRectIiEiiiiS4_ii {
}
Symbol _ZTVN3tds7BmfFontE {
}
Symbol _ZTIN3tds7BmfFontE {
}
Symbol _ZTSN3tds7BmfFontE {
}
Symbol _ZN3tds7BmfFontC1ERK8TBmfFont {
}
Symbol _ZN3tds7BmfFontC2ERK8TBmfFont {
}
Symbol _ZN3tds7BmfFontD1Ev {
}
Symbol _ZN8TBmfFontD1Ev {
}
Symbol _ZN3tds7BmfFontD0Ev {
}
Symbol _ZN3tds7BmfFontD2Ev {
}
Symbol _ZTVSt11logic_error {
}
Symbol _ZTVSt12domain_error {
}
Symbol _ZTVSt16invalid_argument {
}
Symbol _ZTVSt12length_error {
}
Symbol _ZTVSt12out_of_range {
}
Symbol _ZTVSt13runtime_error {
}
Symbol _ZTVSt14overflow_error {
}
Symbol _ZTVSt15underflow_error {
}
Symbol _ZTVSt11range_error {
}
Symbol _ZTV8TDisplay {
}
Symbol _ZTVN3tds13DisplaySystemE {
}
Symbol _ZTV6TArrayIPN3tds10VectorFontEE {
}
Symbol _ZTV6TArrayIPN3tds7BmfFontEE {
}
Symbol _ZTV6TArrayI10TSharedPtrIN3tds11ColorBufferEEE {
}
Symbol _ZTV6TArrayI10TSharedPtrIN3tds7ContextEEE {
}
Symbol _ZTI8TDisplay {
}
Symbol _ZTI6TArrayIPN3tds10VectorFontEE {
}
Symbol _ZTI6TArrayIPN3tds7BmfFontEE {
}
Symbol _ZTI6TArrayI10TSharedPtrIN3tds11ColorBufferEEE {
}
Symbol _ZTI6TArrayI10TSharedPtrIN3tds7ContextEEE {
}
Symbol _ZTISt11logic_error {
}
Symbol _ZTISt12domain_error {
}
Symbol _ZTISt16invalid_argument {
}
Symbol _ZTISt12length_error {
}
Symbol _ZTISt12out_of_range {
}
Symbol _ZTISt13runtime_error {
}
Symbol _ZTISt14overflow_error {
}
Symbol _ZTISt15underflow_error {
}
Symbol _ZTISt11range_error {
}
Symbol _ZTIN3tds13DisplaySystemE {
}
Symbol _ZTS8TDisplay {
}
Symbol _ZTS6TArrayIPN3tds10VectorFontEE {
}
Symbol _ZTS6TArrayIPN3tds7BmfFontEE {
}
Symbol _ZTS6TArrayI10TSharedPtrIN3tds11ColorBufferEEE {
}
Symbol _ZTS6TArrayI10TSharedPtrIN3tds7ContextEEE {
}
Symbol _ZTSSt11logic_error {
}
Symbol _ZTSSt12domain_error {
}
Symbol _ZTSSt16invalid_argument {
}
Symbol _ZTSSt12length_error {
}
Symbol _ZTSSt12out_of_range {
}
Symbol _ZTSSt13runtime_error {
}
Symbol _ZTSSt14overflow_error {
}
Symbol _ZTSSt15underflow_error {
}
Symbol _ZTSSt11range_error {
}
Symbol _ZTSN3tds13DisplaySystemE {
}
Symbol _ZN6TArrayI10TSharedPtrIN3tds11ColorBufferEEED1Ev {
}
Symbol __cxa_vec_delete {
}
Symbol _ZN10TSharedPtrIN3tds11ColorBufferEED1Ev {
}
Symbol _ZN6TArrayI10TSharedPtrIN3tds7ContextEEED1Ev {
}
Symbol _ZN10TSharedPtrIN3tds7ContextEED1Ev {
}
Symbol _ZN3tds13DisplaySystemC1EPhiii {
}
Symbol _ZN10TSharedPtrI18LinearGradientDataEaSERKS1_ {
}
Symbol _ZN10TSharedPtrI18RadialGradientDataEaSERKS1_ {
}
Symbol _ZN6TArrayI9ColorStopED1Ev {
}
Symbol _ZNK10TSharedPtrI13ColorStopDataE5DerefEv {
}
Symbol _ZN10TSharedPtrI13ColorStopDataEaSERKS1_ {
}
Symbol _ZN9TGradientaSERKS_ {
}
Symbol _ZN6TArrayI9ColorStopED0Ev {
}
Symbol _ZN6TPaintC1Ev {
}
Symbol _ZN9TGradientC1Ev {
}
Symbol _ZN12TPixelBufferC1Ev {
}
Symbol _ZN9TGradientD1Ev {
}
Symbol _ZN6TPaintD1Ev {
}
Symbol _ZN12TPixelBufferD1Ev {
}
Symbol _ZN6TPaintaSERKS_ {
}
Symbol _ZN12TPixelBufferaSERKS_ {
}
Symbol _ZN6TArrayIPN3tds10VectorFontEED1Ev {
}
Symbol _ZN6TArrayIPN3tds10VectorFontEED0Ev {
}
Symbol _ZN6TArrayIPN3tds10VectorFontEE13RoundCapacityEi {
}
Symbol _ZN6TArrayIPN3tds10VectorFontEE8ExpandAtEii {
}
Symbol _ZN6TArrayIPN3tds10VectorFontEE8InsertAtEiRKS2_ {
}
Symbol _ZNK6TArrayIPN3tds10VectorFontEEixEi {
}
Symbol _ZN6TArrayIPN3tds7BmfFontEED1Ev {
}
Symbol _ZN6TArrayIPN3tds7BmfFontEED0Ev {
}
Symbol _ZN6TArrayIPN3tds7BmfFontEE13RoundCapacityEi {
}
Symbol _ZN6TArrayIPN3tds7BmfFontEE8ExpandAtEii {
}
Symbol _ZN6TArrayIPN3tds7BmfFontEE8InsertAtEiRKS2_ {
}
Symbol _ZNK6TArrayIPN3tds7BmfFontEEixEi {
}
Symbol _ZN6TArrayI10TSharedPtrIN3tds11ColorBufferEEED0Ev {
}
Symbol _ZN6TArrayI10TSharedPtrIN3tds11ColorBufferEEE13RoundCapacityEi {
}
Symbol _ZNK10TSharedPtrIN3tds11ColorBufferEE5DerefEv {
}
Symbol _ZN10TSharedPtrIN3tds11ColorBufferEEaSERKS2_ {
}
Symbol _ZN6TArrayI10TSharedPtrIN3tds11ColorBufferEEE8ExpandAtEii {
}
Symbol _ZN10TSharedPtrIN3tds11ColorBufferEEC1Ev {
}
Symbol _ZN6TArrayI10TSharedPtrIN3tds11ColorBufferEEE8InsertAtEiRKS3_ {
}
Symbol _ZN6TArrayI10TSharedPtrIN3tds11ColorBufferEEE8ShrinkAtEii {
}
Symbol _ZN6TArrayI10TSharedPtrIN3tds11ColorBufferEEE8RemoveAtEi {
}
Symbol _ZNK6TArrayI10TSharedPtrIN3tds11ColorBufferEEE7IndexOfERKS3_ {
}
Symbol _ZN6TArrayI10TSharedPtrIN3tds11ColorBufferEEE6RemoveERKS3_ {
}
Symbol _ZNK6TArrayI10TSharedPtrIN3tds11ColorBufferEEEixEi {
}
Symbol _ZN6TArrayI10TSharedPtrIN3tds7ContextEEED0Ev {
}
Symbol _ZN6TArrayI10TSharedPtrIN3tds7ContextEEE13RoundCapacityEi {
}
Symbol _ZN3tds7ContextD1Ev {
}
Symbol _ZN5TFontD1Ev {
}
Symbol _ZNK10TSharedPtrIN3tds7ContextEE5DerefEv {
}
Symbol _ZN10TSharedPtrIN3tds7ContextEEaSERKS2_ {
}
Symbol _ZN6TArrayI10TSharedPtrIN3tds7ContextEEE8ExpandAtEii {
}
Symbol _ZN10TSharedPtrIN3tds7ContextEEC1Ev {
}
Symbol _ZN6TArrayI10TSharedPtrIN3tds7ContextEEE8InsertAtEiRKS3_ {
}
Symbol _ZN6TArrayI10TSharedPtrIN3tds7ContextEEE8ShrinkAtEii {
}
Symbol _ZN6TArrayI10TSharedPtrIN3tds7ContextEEE8RemoveAtEi {
}
Symbol _ZNK6TArrayI10TSharedPtrIN3tds7ContextEEE7IndexOfERKS3_ {
}
Symbol _ZN6TArrayI10TSharedPtrIN3tds7ContextEEE6RemoveERKS3_ {
}
Symbol _ZNK6TArrayI10TSharedPtrIN3tds7ContextEEEixEi {
}
Symbol _ZN10TSharedPtrIN3tds11ColorBufferEEC1EPS1_ {
}
Symbol _ZN10TSharedPtrIN3tds7ContextEEC1EPS1_ {
}
Symbol _ZN3tds7ContextC1Ev {
}
Symbol _ZN5TFontC1Ev {
}
Symbol _ZN3tds13DisplaySystem15ValidateContextEPv {
}
Symbol _ZN3tds13DisplaySystem19ValidateColorBufferEPv {
}
Symbol _ZN3tds13DisplaySystemC2EPhiii {
}
Symbol _ZN3tds13DisplaySystemD1Ev {
}
Symbol _ZN3tds13DisplaySystemD2Ev {
}
Symbol _ZN3tds13DisplaySystemD0Ev {
}
Symbol _ZN3tds13DisplaySystem17CreatePixelBufferEii {
}
Symbol _ZN3tds13DisplaySystem18DestroyPixelBufferEPv {
}
Symbol _ZN3tds13DisplaySystem18GetPixelBufferSizeEPv {
}
Symbol _ZN3tds13DisplaySystem15CopyPixelBufferEPvRK7_TPointIiES1_S5_RK6_TSizeIiE {
}
Symbol _ZN3tds13DisplaySystem15ReadPixelBufferEPvRK7_TPointIiERK6_TSizeIiEPh11ColorFormati {
}
Symbol _ZN3tds13DisplaySystem16WritePixelBufferEPvRK7_TPointIiERK6_TSizeIiEPKh11ColorFormati {
}
Symbol _ZN3tds13DisplaySystem10CreatePathEv {
}
Symbol _ZN3tds13DisplaySystem11DestroyPathEPv {
}
Symbol _ZN3tds13DisplaySystem9ClearPathEPv {
}
Symbol _ZN3tds13DisplaySystem16AppendDataToPathEPvjPKhPKf {
}
Symbol _ZN3tds13DisplaySystem16AppendPathToPathEPvS1_ {
}
Symbol _ZN3tds13DisplaySystem13TransformPathEPvRK10TMatrix3x3 {
}
Symbol _ZN3tds13DisplaySystem16GetPathBoundRectEPv {
}
Symbol _ZN3tds13DisplaySystem15RegisterTtfFontERK8TTtfFont {
}
Symbol _ZN3tds13DisplaySystem13CreateTtfFontERK8TTtfFont {
}
Symbol _ZNK8TTtfFonteqERKS_ {
}
Symbol _ZN3tds13DisplaySystem14DestroyTtfFontEPv {
}
Symbol _ZN3tds13DisplaySystem13GetTtfMetricsEPvRK5TFontR11FontMetrics {
}
Symbol _ZNK8TTtfFont10GetMetricsER11FontMetrics {
}
Symbol _ZN3tds13DisplaySystem15MeasureTtfWidthEPvRK5TFontPKwi {
}
Symbol _ZN3tds13DisplaySystem15RegisterBmfFontERK8TBmfFont {
}
Symbol _ZN3tds13DisplaySystem13CreateBmfFontERK8TBmfFont {
}
Symbol _ZNK8TBmfFonteqERKS_ {
}
Symbol _ZN3tds13DisplaySystem14DestroyBmfFontEPv {
}
Symbol _ZN3tds13DisplaySystem13GetBmfMetricsEPvRK5TFontR11FontMetrics {
}
Symbol _ZN3tds13DisplaySystem15MeasureBmfWidthEPvRK5TFontPKwi {
}
Symbol _ZNK8TBmfFont15GetGlyphAdvanceEwR7_TPointIiE {
}
Symbol _ZN3tds13DisplaySystem18CreatePaintContextEv {
}
Symbol _ZN3tds13DisplaySystem19DestroyPaintContextEPv {
}
Symbol _ZN3tds13DisplaySystem10BeginPaintEPvS1_ {
}
Symbol _ZN3tds13DisplaySystem8EndPaintEPv {
}
Symbol _ZN3tds13DisplaySystem11SetViewportEPvRK7_TPointIiERK6_TRectIiE {
}
Symbol _ZN3tds13DisplaySystem11SetClipRectEPvRK6_TRectIiE {
}
Symbol _ZN3tds13DisplaySystem13ClearClipRectEPv {
}
Symbol _ZN3tds13DisplaySystem6SetPenEPvRK4TPen {
}
Symbol _ZN3tds13DisplaySystem8SetBrushEPvRK6TBrush {
}
Symbol _ZN3tds13DisplaySystem12SetTextColorEPvRK6TColor {
}
Symbol _ZN3tds13DisplaySystem7SetFontEPvRK5TFont {
}
Symbol _ZN5TFontaSERKS_ {
}
Symbol _ZN3tds13DisplaySystem13SetRasterModeEPv10RasterMode {
}
Symbol _ZN3tds13DisplaySystem12SetPathWidthEPvf {
}
Symbol _ZN3tds13DisplaySystem11SetFillRuleEPv8FillRule {
}
Symbol _ZN3tds13DisplaySystem12SetBlendModeEPv9BlendMode {
}
Symbol _ZN3tds13DisplaySystem12SetDashStyleEPv9DashStyle {
}
Symbol _ZN3tds13DisplaySystem13SetJointStyleEPv10JointStyle {
}
Symbol _ZN3tds13DisplaySystem11SetCapStyleEPv8CapStyle {
}
Symbol _ZN3tds13DisplaySystem12SetFillPaintEPvRK6TPaint {
}
Symbol _ZN3tds13DisplaySystem14SetStrokePaintEPvRK6TPaint {
}
Symbol _ZN3tds13DisplaySystem9SetMatrixEPvRK10TMatrix3x3 {
}
Symbol _ZN3tds13DisplaySystem14SetPaintMatrixEPvRK10TMatrix3x3 {
}
Symbol _ZN3tds13DisplaySystem8DrawLineEPvRK7_TPointIiES5_ {
}
Symbol _ZN3tds13DisplaySystem8DrawRectEPvRK6_TRectIiEi {
}
Symbol _ZN3tds13DisplaySystem11DrawUCSTextEPvPKwiii {
}
Symbol _ZN3tds13DisplaySystem14MeasureUCSTextEPvPKwi {
}
Symbol _ZN3tds13DisplaySystem9DrawImageEPvRK6TImageii {
}
Symbol _ZNK6TImage6IsNullEv {
}
Symbol _ZN3tds13DisplaySystem15DrawPixelBufferEPvS1_ii {
}
Symbol _ZN3tds13DisplaySystem10DrawCircleEPvRK6_TRectIiE {
}
Symbol _ZN3tds13DisplaySystem11DrawEllipseEPvRK6_TRectIiE {
}
Symbol _ZN3tds13DisplaySystem7DrawArcEPvRK6_TRectIiERK7_TPointIiES9_ {
}
Symbol _ZN3tds13DisplaySystem7DrawPieEPvRK6_TRectIiERK7_TPointIiES9_ {
}
Symbol _ZN3tds13DisplaySystem10StrokePathEPvS1_ {
}
Symbol _ZN3tds13DisplaySystem10StrokePathEPvPK7_TPointIfEji {
}
Symbol _ZN3tds13DisplaySystem8FillPathEPvS1_ {
}
Symbol _ZN3tds13DisplaySystem8FillPathEPvPK7_TPointIfEj {
}
Symbol _ZN3tds13DisplaySystem17CopyToPixelBufferEPvS1_iiiiii {
}
Symbol _ZN3tds13DisplaySystem19CopyFromPixelBufferEPvS1_iiiiii {
}
Symbol _ZTV20TClassicVisualEngine {
}
Symbol _ZTI20TClassicVisualEngine {
}
Symbol _ZTI13TVisualEngine {
}
Symbol _ZTS13TVisualEngine {
}
Symbol _ZTS20TClassicVisualEngine {
}
Symbol _ZN6TColorC1Ev {
}
Symbol _ZN9TGradientC1ERKS_ {
}
Symbol _ZN6TPaintC1ERK6TColor {
}
Symbol _ZN6TPaintC1ERK9TGradient {
}
Symbol _ZN20TClassicVisualEngineC1Ev {
}
Symbol _ZN20TDefaultVisualEngineC2Ev {
}
Symbol _ZN9TGradientC1EffffjPK6TColorPKf {
}
Symbol _ZN20TDefaultVisualEngineD2Ev {
}
Symbol _ZN20TClassicVisualEngineC2Ev {
}
Symbol _ZN20TClassicVisualEngineD1Ev {
}
Symbol _ZN20TClassicVisualEngineD0Ev {
}
Symbol _ZN20TClassicVisualEngineD2Ev {
}
Symbol _ZN20TClassicVisualEngine11DrawHorRectER8TPainterRK11VisualStateRK6_TRectIiE {
}
Symbol _ZN14TVectorPainter15TranslateMatrixEff {
}
Symbol _ZN14TVectorPainter11ScaleMatrixEff {
}
Symbol _ZN14TVectorPainter12SetFillPaintERK6TPaint {
}
Symbol _ZN5TPathC1ERK6_TRectIiE {
}
Symbol _ZN14TVectorPainter8FillPathERK5TPath {
}
Symbol _ZN5TPathD1Ev {
}
Symbol _ZN14TVectorPainter16ResetPaintMatrixEv {
}
Symbol _ZN20TClassicVisualEngine16DrawToggleButtonER8TPainterRK11VisualStateRK6_TRectIiEi {
}
Symbol _ZNK20TDefaultVisualEngine12Draw3DBorderER8TPainterRK6_TRectIiEii {
}
Symbol _ZN20TClassicVisualEngine15DrawProgressBarER8TPainterRK11VisualStateRK6_TRectIiE15OrientationType {
}
Symbol _ZN20TClassicVisualEngine11DrawVerRectER8TPainterRK11VisualStateRK6_TRectIiE {
}
Symbol _ZN20TClassicVisualEngine9DrawFrameE9FrameTypeR8TPainterRK11VisualStateRK6_TRectIiE {
}
Symbol _ZN20TDefaultVisualEngine9DrawFrameE9FrameTypeR8TPainterRK11VisualStateRK6_TRectIiE {
}
Symbol _ZNK20TDefaultVisualEngine13DrawDownArrowER8TPainterRK6_TRectIiERK6TColor {
}
Symbol _ZNK20TDefaultVisualEngine11DrawUpArrowER8TPainterRK6_TRectIiERK6TColor {
}
Symbol _ZNK20TDefaultVisualEngine13DrawLeftArrowER8TPainterRK6_TRectIiERK6TColor {
}
Symbol _ZNK20TDefaultVisualEngine14DrawRightArrowER8TPainterRK6_TRectIiERK6TColor {
}
Symbol _ZN20TDefaultVisualEngine15DrawScrollTrackER8TPainterRK11VisualStateRK6_TRectIiE15OrientationType {
}
Symbol _ZN20TDefaultVisualEngine15DrawSliderTrackER8TPainterRK11VisualStateRK6_TRectIiE15OrientationType {
}
Symbol _ZNK20TDefaultVisualEngine13DrawSolidRectER8TPainterRK6_TRectIiERK6TColor {
}
Symbol _ZNK20TClassicVisualEngine15DrawRoundBorderER8TPainterRK11VisualStateRK6_TRectIiE {
}
Symbol _ZN8TPainter6SetPenERK4TPen {
}
Symbol _ZN8TPainter8DrawLineERK7_TPointIiES3_ {
}
Symbol _ZTI20TDefaultVisualEngine {
}
Symbol _ZTV13TVisualEngine {
}
Symbol _ZTV20TDefaultVisualEngine {
}
Symbol _ZTS20TDefaultVisualEngine {
}
Symbol _ZNK10TSharedPtrI9ImageDataE5DerefEv {
}
Symbol _ZN9ImageDataD1Ev {
}
Symbol _ZN6TImageD1Ev {
}
Symbol _ZN6TImageD0Ev {
}
Symbol _ZN8TPainter8DrawLineEiiii {
}
Symbol _ZN20TDefaultVisualEngineC1Ev {
}
Symbol _ZN6TImageC1EPhiii11ColorFormatS1_ {
}
Symbol _ZN20TDefaultVisualEngine13bufferCheck_dE {
}
Symbol _ZN12TPixelBufferC1ERK6TImage {
}
Symbol _ZN20TDefaultVisualEngine13bufferCheck_hE {
}
Symbol _ZN20TDefaultVisualEngine13bufferCheck_pE {
}
Symbol _ZN20TDefaultVisualEngine14bufferCheck_cnE {
}
Symbol _ZN20TDefaultVisualEngine14bufferCheck_cdE {
}
Symbol _ZN20TDefaultVisualEngine14bufferCheck_chE {
}
Symbol _ZN20TDefaultVisualEngine14bufferCheck_cpE {
}
Symbol _ZN20TDefaultVisualEngine13bufferRadio_nE {
}
Symbol _ZN20TDefaultVisualEngine13bufferRadio_dE {
}
Symbol _ZN20TDefaultVisualEngine13bufferRadio_hE {
}
Symbol _ZN20TDefaultVisualEngine13bufferRadio_pE {
}
Symbol _ZN20TDefaultVisualEngine14bufferRadio_cnE {
}
Symbol _ZN20TDefaultVisualEngine14bufferRadio_cdE {
}
Symbol _ZN20TDefaultVisualEngine14bufferRadio_chE {
}
Symbol _ZN20TDefaultVisualEngine14bufferRadio_cpE {
}
Symbol _ZN20TDefaultVisualEngineD1Ev {
}
Symbol _ZN20TDefaultVisualEngineD0Ev {
}
Symbol _ZN8TPainter8SetBrushERK6TBrush {
}
Symbol _ZN8TPainter8FillRectERK6_TRectIiE {
}
Symbol _ZN20TDefaultVisualEngine14DrawPushButtonER8TPainterRK11VisualStateRK6_TRectIiE {
}
Symbol _ZN20TDefaultVisualEngine16DrawToggleButtonER8TPainterRK11VisualStateRK6_TRectIiEi {
}
Symbol _ZN20TDefaultVisualEngine18DrawCheckIndicatorER8TPainterRK11VisualStateRK6_TRectIiEi {
}
Symbol _ZN8TPainter15DrawPixelBufferERK12TPixelBufferii {
}
Symbol _ZN20TDefaultVisualEngine18DrawRadioIndicatorER8TPainterRK11VisualStateRK6_TRectIiEi {
}
Symbol _ZN20TDefaultVisualEngine15DrawScrollThumbER8TPainterRK11VisualStateRK6_TRectIiE15OrientationType {
}
Symbol _ZN20TDefaultVisualEngine15DrawSliderThumbER8TPainterRK11VisualStateRK6_TRectIiE15OrientationType {
}
Symbol _ZNK20TDefaultVisualEngine14DrawFlatBorderER8TPainterRK6_TRectIiEiRK6TColor {
}
Symbol _ZN20TDefaultVisualEngine15DrawHeaderPanelER8TPainterRK11VisualStateRK6_TRectIiE {
}
Symbol _ZN20TDefaultVisualEngine18DrawComboboxButtonER8TPainterRK11VisualStateRK6_TRectIiE {
}
Symbol _ZNK20TDefaultVisualEngine14DrawEtchBorderER8TPainterRK6_TRectIiEii {
}
Symbol _ZNK20TDefaultVisualEngine12Draw3DCircleER8TPainterRK6_TRectIiEii {
}
Symbol _ZNK20TDefaultVisualEngine15DrawSolidCircleER8TPainterRK6_TRectIiERK6TColor {
}
Symbol _ZTV6TGroup {
}
Symbol _ZTVN6TGroup21GroupChildrenDelegateE {
}
Symbol _ZTV14TEventDelegate {
}
Symbol _ZTV6TPanel {
}
Symbol _ZTVN7_TEventI10EventParamE15THandlerAdaptorE {
}
Symbol _ZTV6TArrayIP8TControlE {
}
Symbol _ZTVN7_TEventI10EventParamE17MemberFuncHandlerI6TGroupEE {
}
Symbol _ZTI14TEventDelegate {
}
Symbol _ZTIN7_TEventI10EventParamE15THandlerAdaptorE {
}
Symbol _ZTIN7_TEventI10EventParamE17MemberFuncHandlerI6TGroupEE {
}
Symbol _ZTI6TArrayIP8TControlE {
}
Symbol _ZTI6TGroup {
}
Symbol _ZTIN6TGroup21GroupChildrenDelegateE {
}
Symbol _ZTI6TPanel {
}
Symbol _ZTS14TEventDelegate {
}
Symbol _ZTSN7_TEventI10EventParamE15THandlerAdaptorE {
}
Symbol _ZTSN7_TEventI10EventParamE17MemberFuncHandlerI6TGroupEE {
}
Symbol _ZTS6TArrayIP8TControlE {
}
Symbol _ZTS6TGroup {
}
Symbol _ZTSN6TGroup21GroupChildrenDelegateE {
}
Symbol _ZTS6TPanel {
}
Symbol _ZNK6_TRectIiE6AdjustERK8_TMarginIiE {
}
Symbol _ZN7_TEventI10EventParamE10SetHandlerI6TGroupEEvPT_NS1_17MemberFuncHandlerIS4_E8FuncTypeE {
}
Symbol _ZN7_TEventI10EventParamE15THandlerAdaptorD1Ev {
}
Symbol _ZN7_TEventI10EventParamE15THandlerAdaptorD0Ev {
}
Symbol _ZN7_TEventI10EventParamE17MemberFuncHandlerI6TGroupED1Ev {
}
Symbol _ZN7_TEventI10EventParamE17MemberFuncHandlerI6TGroupED0Ev {
}
Symbol _ZNK7_TEventI10EventParamE17MemberFuncHandlerI6TGroupE6InvokeERS0_ {
}
Symbol _ZN7_TEventI10EventParamE17MemberFuncHandlerI6TGroupE3dupEv {
}
Symbol _ZN6TArrayIP8TControlED1Ev {
}
Symbol _ZN6TArrayIP8TControlED0Ev {
}
Symbol _ZN6TArrayIP8TControlE13RoundCapacityEi {
}
Symbol _ZN6TArrayIP8TControlE8ExpandAtEii {
}
Symbol _ZN6TArrayIP8TControlE8InsertAtEiRKS1_ {
}
Symbol _ZN6TArrayIP8TControlE8ShrinkAtEii {
}
Symbol _ZN6TArrayIP8TControlE8RemoveAtEi {
}
Symbol _ZN6TArrayIP8TControlE5ClearEv {
}
Symbol _ZNK6TArrayIP8TControlEixEi {
}
Symbol _ZN13TControlArray10AddControlEP8TControli {
}
Symbol _ZN13TControlArray15AddControlAtTopEP8TControl {
}
Symbol _ZN13TControlArray18AddControlAtBottomEP8TControl {
}
Symbol _ZN13TControlArray13RemoveControlEP8TControl {
}
Symbol _ZN13TControlArray17RemoveAllControlsEv {
}
Symbol _ZNK13TControlArrayixEi {
}
Symbol _ZNK13TControlArray7IndexOfEPK8TControl {
}
Symbol _ZN6TGroupC1Eiiii {
}
Symbol _ZN8TControlC2EiiiiR5TNode {
}
Symbol _ZTV18TNodeEventDelegate {
}
Symbol _ZN5TNodeC1EiiiiP14TEventDelegateP17TChildrenDelegate {
}
Symbol _ZN5TNodeD1Ev {
}
Symbol _ZN8TControlD2Ev {
}
Symbol _ZN6TGroupC2Eiiii {
}
Symbol _ZN6TGroupD1Ev {
}
Symbol _ZN6TGroupD0Ev {
}
Symbol _ZN6TGroupD2Ev {
}
Symbol _ZN6TGroup18CalculateBoundRectERK6_TRectIiES3_RK15AlignmentPolicy {
}
Symbol _ZN6TGroup18OnChildBoundChangeEP8TControl {
}
Symbol _ZN8TControl13GetHintedSizeEv {
}
Symbol _ZN5TNode12SetBoundRectERK6_TRectIiE {
}
Symbol _ZN6TGroup10AddControlEP8TControli {
}
Symbol _ZN5TNode11AddToParentEPS_ {
}
Symbol _ZN6TGroup13RemoveControlEP8TControl {
}
Symbol _ZN5TNode16RemoveFromParentEv {
}
Symbol _ZN6TGroup17RemoveAllControlsEv {
}
Symbol _ZN6TGroup8OnResizeEv {
}
Symbol _ZN6TGroup11NodeHandlerER10EventParam {
}
Symbol _ZNK7TVisual4DrawER8TPainterRK11VisualStateRK6_TRectIiE {
}
Symbol _ZNK6TGroup21GroupChildrenDelegate8GetCountEv {
}
Symbol _ZN6TGroup21GroupChildrenDelegate7GetNodeEi {
}
Symbol _ZN6TPanelC1Eiiii {
}
Symbol _ZN5TNode6UpdateEv {
}
Symbol _ZN6TPanelC2Eiiii {
}
Symbol _ZN6TPanelD1Ev {
}
Symbol _ZN6TPanelD0Ev {
}
Symbol _ZN6TPanelD2Ev {
}
Symbol __cxa_pure_virtual {
}
Symbol _ZTI8TControl {
}
Symbol _ZN9ColorStopC1Ev {
}
Symbol _ZN10TSharedPtrI18LinearGradientDataEC1EPS0_ {
}
Symbol _ZN10TSharedPtrI18LinearGradientDataED1Ev {
}
Symbol _ZN10TSharedPtrI18LinearGradientDataEaSEPS0_ {
}
Symbol _ZN10TSharedPtrI18RadialGradientDataEC1EPS0_ {
}
Symbol _ZN10TSharedPtrI18RadialGradientDataED1Ev {
}
Symbol _ZN10TSharedPtrI18RadialGradientDataEaSEPS0_ {
}
Symbol _ZN10TSharedPtrI13ColorStopDataEC1EPS0_ {
}
Symbol _ZN10TSharedPtrI13ColorStopDataED1Ev {
}
Symbol _ZN10TSharedPtrI13ColorStopDataEaSEPS0_ {
}
Symbol _ZN9TGradient25defaultLinearGradientDataE {
}
Symbol _ZN9TGradient25defaultRadialGradientDataE {
}
Symbol _ZN9TGradient20defaultColorStopDataE {
}
Symbol _ZN9TGradientC2Ev {
}
Symbol _ZN9TGradientC1ENS_12GradientTypeE {
}
Symbol _ZN9TGradientC2ENS_12GradientTypeE {
}
Symbol _ZN18LinearGradientDataC1Effff {
}
Symbol _ZN6TArrayI9ColorStopE13RoundCapacityEi {
}
Symbol _ZN6TArrayI9ColorStopE8ExpandAtEii {
}
Symbol _ZN6TArrayI9ColorStopEC1Ei {
}
Symbol _ZN13ColorStopDataC1EjPK6TColorPKf {
}
Symbol _ZN9TGradientC2EffffjPK6TColorPKf {
}
Symbol _ZN18RadialGradientDataC1Efffff {
}
Symbol _ZN9TGradientC1EfffffjPK6TColorPKf {
}
Symbol _ZN9TGradientC2EfffffjPK6TColorPKf {
}
Symbol _ZN9TGradientD2Ev {
}
Symbol _ZN9TGradient13SetLinearDataEffff {
}
Symbol _ZN9TGradient13SetRadialDataEfffff {
}
Symbol _ZN9TGradient15ClearColorStopsEv {
}
Symbol _ZN6TArrayI9ColorStopE8CopyFromERKS1_ {
}
Symbol _ZN6TArrayI9ColorStopEC1ERKS1_ {
}
Symbol _ZN9TGradient12SetColorStopERK13ColorStopData {
}
Symbol _ZN18LinearGradientDataC1Ev {
}
Symbol _ZN18LinearGradientDataC2Ev {
}
Symbol _ZN18LinearGradientDataC2Effff {
}
Symbol _ZN18RadialGradientDataC1Ev {
}
Symbol _ZN18RadialGradientDataC2Ev {
}
Symbol _ZN18RadialGradientDataC2Efffff {
}
Symbol _ZN13ColorStopDataC1Ev {
}
Symbol _ZN13ColorStopDataC2EjPK6TColorPKf {
}
Symbol _ZN14TVectorPainter12SetDashStyleE9DashStyle {
}
Symbol _ZN14TVectorPainter13SetJointStyleE10JointStyle {
}
Symbol _ZN14TVectorPainter11SetCapStyleE8CapStyle {
}
Symbol _ZN14TVectorPainter14SetStrokePaintERK6TPaint {
}
Symbol _ZN14TVectorPainter12SetPathWidthEf {
}
Symbol _ZN14TVectorPainter12RotateMatrixEf {
}
Symbol _ZN10TMatrix3x36RotateEf {
}
Symbol _ZN14TVectorPainter9SetMatrixERK10TMatrix3x3 {
}
Symbol _ZN14TVectorPainter11ResetMatrixEv {
}
Symbol _ZN14TVectorPainter20TranslatePaintMatrixEff {
}
Symbol _ZN14TVectorPainter16ScalePaintMatrixEff {
}
Symbol _ZN14TVectorPainter17RotatePaintMatrixEf {
}
Symbol _ZN14TVectorPainter14SetPaintMatrixERK10TMatrix3x3 {
}
Symbol _ZN14TVectorPainter11SetFillRuleE8FillRule {
}
Symbol _ZN14TVectorPainter12SetBlendModeE9BlendMode {
}
Symbol _ZN14TVectorPainter8FillPathEPK7_TPointIfEj {
}
Symbol _ZN14TVectorPainter10StrokePathERK5TPath {
}
Symbol _ZN14TVectorPainter10StrokePathEPK7_TPointIfEji {
}
Symbol _STI___20_tgsVectorPainter_cpp_0407dd98 {
}
Symbol calloc {
}
Symbol _ZN7TStringC2Ev {
}
Symbol strlen {
}
Symbol strncpy {
}
Symbol _ZN7TStringC2EPKc {
}
Symbol _ZN7TStringC1EPKci {
}
Symbol _ZN7TStringC2EPKci {
}
Symbol _ZN7TStringC1ERKS_ {
}
Symbol _ZN7TStringC2ERKS_ {
}
Symbol _ZN7TStringC1ERK8TWString {
}
Symbol _ZN7TStringC2ERK8TWString {
}
Symbol _ZN7TString7SetTextEPKc {
}
Symbol _ZN7TString7ReplaceEiiRKS_ {
}
Symbol _ZN7TString4LeftEi {
}
Symbol _ZN7TString6RemoveEii {
}
Symbol _ZN7TString3AddERKS_ {
}
Symbol _ZNK7TStringneERKS_ {
}
Symbol _ZNK7TString4FindEic {
}
Symbol _ZN7TString6FormatEiPKcz {
}
Symbol vsnprintf {
}
Symbol _ZN6_TRectIfE7maxRectE {
}
Symbol _Z11trt_stricmpPKcS0_ {
}
Symbol tolower {
}
Symbol _Z9round_intf {
}
Symbol _Z6endianv {
}
Symbol _Z7get_u32Phi {
}
Symbol _Z7get_u16Phi {
}
Symbol cos {
}
Symbol sin {
}
Symbol _ZN6_TRectIiEC1Eiiii {
}
Symbol _ZN6_TRectIfEC1Effff {
}
Symbol _STI___12_tgsBasic_cpp_02d26153 {
}
Symbol _ZGVN6_TRectIiE8nullRectE {
}
Symbol _ZGVN6_TRectIiE7maxRectE {
}
Symbol _ZGVN6_TRectIfE8nullRectE {
}
Symbol _ZGVN6_TRectIfE7maxRectE {
}
Symbol _ZN5TPath4DataD1Ev {
}
Symbol _ZN12TApplication8InstanceEv {
}
Symbol _ZNK10TSharedPtrIN5TPath4DataEE5DerefEv {
}
Symbol _ZN10TSharedPtrIN5TPath4DataEEaSEPS1_ {
}
Symbol _ZN5TPathC1Ev {
}
Symbol _ZN5TPathC2Ev {
}
Symbol _ZN5TPathC1ERKS_ {
}
Symbol _ZN5TPathC2ERKS_ {
}
Symbol _ZN5TPathC1EjPK7_TPointIfE {
}
Symbol _ZN5TPathC2EjPK7_TPointIfE {
}
Symbol _ZN5TPathC1EjPKhPKf {
}
Symbol _ZN5TPathC2EjPKhPKf {
}
Symbol _ZN5TPathC2ERK6_TRectIiE {
}
Symbol _ZN5TPath6AppendERKS_ {
}
Symbol _ZN5TPath10AppendDataEjPKhPKf {
}
Symbol _ZN5TPath9TranslateEff {
}
Symbol _ZN5TPath5ScaleEff {
}
Symbol _ZN5TPathC1ERK5TFontRK8TWString {
}
Symbol _ZNK5TFont11GetFaceNameEv {
}
Symbol _ZN8TTtfFontC1ERK7TString {
}
Symbol _ZN5TPathC2ERK5TFontRK8TWString {
}
Symbol _ZN5TPathD2Ev {
}
Symbol _ZN5TPathaSERKS_ {
}
Symbol _ZN5TPath6MoveToEff {
}
Symbol _ZN5TPath6LineToEff {
}
Symbol _ZN5TPath6QuadToEffff {
}
Symbol _ZN5TPath7CubicToEffffff {
}
Symbol _ZN5TPath7AddTextERK5TFontRK8TWString {
}
Symbol _ZN5TPath5CloseEv {
}
Symbol _ZN5TPath5ClearEv {
}
Symbol _ZN5TPath6RotateEf {
}
Symbol _ZN5TPath9TransformERK10TMatrix3x3 {
}
Symbol _ZNK5TPath12GetBoundRectEv {
}
Symbol _ZN5TPath4DataC1EPv {
}
Symbol _ZN5TPath4DataC2EPv {
}
Symbol _ZN5TPath4DataD2Ev {
}
Symbol _ZTV6TArrayIPN14TBmfFontEngine4FontEE {
}
Symbol _ZTI6TArrayIPN14TBmfFontEngine4FontEE {
}
Symbol _ZTS6TArrayIPN14TBmfFontEngine4FontEE {
}
Symbol _ZNK6TArrayIPN14TBmfFontEngine4FontEEixEi {
}
Symbol _ZN14TBmfFontEngine11AcquireFontERK7TStringi {
}
Symbol _ZN8TBmfFontC1ERK7TStringi {
}
Symbol _ZN8TBmfFontC2ERK7TStringi {
}
Symbol _ZN8TBmfFontD2Ev {
}
Symbol _ZNK8TBmfFont6IsNullEv {
}
Symbol _ZNK14TBmfFontEngine10GetMetricsEPvR11FontMetrics {
}
Symbol _ZNK14TBmfFontEngine8GetGlyphEPvw {
}
Symbol _ZNK14TBmfFontEngine15GetGlyphAdvanceEPvwR7_TPointIiE {
}
Symbol _ZN6TArrayIPN14TBmfFontEngine4FontEED1Ev {
}
Symbol _ZN6TArrayIPN14TBmfFontEngine4FontEED0Ev {
}
Symbol _ZN6TArrayIPN14TBmfFontEngine4FontEE13RoundCapacityEi {
}
Symbol _ZN6TArrayIPN14TBmfFontEngine4FontEE8ExpandAtEii {
}
Symbol _ZN6TArrayIPN14TBmfFontEngine4FontEE8InsertAtEiRKS2_ {
}
Symbol _ZN14TBmfFontEngineC1Ev {
}
Symbol _ZN14TBmfFontEngineC2Ev {
}
Symbol _ZN14TBmfFontEngine4FontD1Ev {
}
Symbol _ZN14TBmfFontEngineD1Ev {
}
Symbol _ZN14TBmfFontEngineD2Ev {
}
Symbol _ZN14TBmfFontEngine4FontC1ERK17UGL_BMF_FONT_DESC {
}
Symbol _ZN14TBmfFontEngine15RegisterBmfFontERK17UGL_BMF_FONT_DESC {
}
Symbol _ZN14TBmfFontEngine11ReleaseFontEPv {
}
Symbol _ZN14TBmfFontEngine4FontC2ERK17UGL_BMF_FONT_DESC {
}
Symbol _ZN14TBmfFontEngine4FontD2Ev {
}
Symbol _ZTV7TWSRoot {
}
Symbol _ZTV6TArrayIPK15ControlPropertyE {
}
Symbol _ZTV6TArrayIP6TTimerE {
}
Symbol _ZTV6TArrayIP7TWindowE {
}
Symbol _ZTV6TArrayIPcE {
}
Symbol _ZTI6TArrayIPK15ControlPropertyE {
}
Symbol _ZTI6TArrayIP6TTimerE {
}
Symbol _ZTI6TArrayIP7TWindowE {
}
Symbol _ZTI7TWSRoot {
}
Symbol _ZTI6TArrayIPcE {
}
Symbol _ZTS6TArrayIPK15ControlPropertyE {
}
Symbol _ZTS6TArrayIP6TTimerE {
}
Symbol _ZTS6TArrayIP7TWindowE {
}
Symbol _ZTS7TWSRoot {
}
Symbol _ZTS6TArrayIPcE {
}
Symbol _ZNK6_TRectIiE7CombineERKS0_ {
}
Symbol _ZN7_TPointIfEC1Ev {
}
Symbol _ZN7_TPointIfED1Ev {
}
Symbol _ZN9TAppParamC1Ev {
}
Symbol _ZN9TAppParamC2Ev {
}
Symbol _ZN6TArrayIPcE13RoundCapacityEi {
}
Symbol _ZN6TArrayIPcE8ExpandAtEii {
}
Symbol _ZN6TArrayIPcE8InsertAtEiRKS0_ {
}
Symbol _ZNK6TArrayIPcEixEi {
}
Symbol _ZN9TAppParam3AddEPKc {
}
Symbol strtok {
}
Symbol strcmp {
}
Symbol atoi {
}
Symbol _ZN9TAppParamC1EPKc {
}
Symbol _ZN9TAppParamC2EPKc {
}
Symbol _ZN9TAppParam3AddEiPPc {
}
Symbol _ZN9TAppParamC1EiPPc {
}
Symbol _ZN9TAppParamC2EiPPc {
}
Symbol _ZN9TAppParamD1Ev {
}
Symbol _ZN9TAppParamD2Ev {
}
Symbol _ZN9TAppParamC1ERKS_ {
}
Symbol _ZN6TArrayIPK15ControlPropertyED1Ev {
}
Symbol _ZN6TArrayIPK15ControlPropertyED0Ev {
}
Symbol _ZN6TArrayIPK15ControlPropertyE13RoundCapacityEi {
}
Symbol _ZN6TArrayIPK15ControlPropertyE8ExpandAtEii {
}
Symbol _ZN6TArrayIPK15ControlPropertyE8InsertAtEiRKS2_ {
}
Symbol _ZN6TArrayIPK15ControlPropertyE8ShrinkAtEii {
}
Symbol _ZN6TArrayIPK15ControlPropertyE8RemoveAtEi {
}
Symbol _ZNK6TArrayIPK15ControlPropertyEixEi {
}
Symbol _ZNK6TArrayIP6TTimerEixEi {
}
Symbol _ZN6TArrayIP6TTimerE8CopyFromERKS2_ {
}
Symbol _ZN6TArrayIP6TTimerEC1ERKS2_ {
}
Symbol _ZN6TArrayIP6TTimerED1Ev {
}
Symbol _ZN6TArrayIP6TTimerED0Ev {
}
Symbol _ZN6TArrayIP6TTimerE13RoundCapacityEi {
}
Symbol _ZN6TArrayIP6TTimerE8ExpandAtEii {
}
Symbol _ZN6TArrayIP6TTimerE8InsertAtEiRKS1_ {
}
Symbol _ZN6TArrayIP6TTimerE8ShrinkAtEii {
}
Symbol _ZN6TArrayIP6TTimerE8RemoveAtEi {
}
Symbol _ZNK6TArrayIP6TTimerE7IndexOfERKS1_ {
}
Symbol _ZN6TArrayIP7TWindowED1Ev {
}
Symbol _ZN6TArrayIP7TWindowED0Ev {
}
Symbol _ZN6TArrayIP7TWindowE13RoundCapacityEi {
}
Symbol _ZN6TArrayIP7TWindowE8ExpandAtEii {
}
Symbol _ZN6TArrayIP7TWindowE8InsertAtEiRKS1_ {
}
Symbol _ZN6TArrayIP7TWindowE8ShrinkAtEii {
}
Symbol _ZN6TArrayIP7TWindowE8RemoveAtEi {
}
Symbol _ZNK6TArrayIP7TWindowE7IndexOfERKS1_ {
}
Symbol _ZNK6TArrayIP7TWindowEixEi {
}
Symbol _ZN12TApplication11applicationE {
}
Symbol _ZN12TApplication15RegisterTtfFontEPK13TTF_FONT_DESC {
}
Symbol _ZN14TTtfFontEngine15RegisterTtfFontERK13TTF_FONT_DESC {
}
Symbol _ZN12TApplication15RegisterBmfFontEPK17UGL_BMF_FONT_DESC {
}
Symbol _ZN12TApplication14DestroyPrivateEv {
}
Symbol _ZN7TWindow7DestroyEv {
}
Symbol _ZN7TWindow4rootE {
}
Symbol _ZN8TSurface4rootE {
}
Symbol _ZN8TSurfaceD1Ev {
}
Symbol _ZN7TWSHost6DeinitEv {
}
Symbol _ZN14TTtfFontEngineD1Ev {
}
Symbol _ZN12TApplication13CreatePrivateEv {
}
Symbol _ZN14TTtfFontEngineC1Ev {
}
Symbol _ZN12TPixelBufferC1Eii {
}
Symbol _ZN8TSurfaceC1ERK6_TRectIiE {
}
Symbol _ZN8TSurface10SetVisibleEi {
}
Symbol _ZN7TWSHost4InitEii {
}
Symbol _ZN7TWindowC1EiiiiPS_NS_12WindowSizingENS_10WindowTypeE {
}
Symbol _ZN7TWindow4ShowEi {
}
Symbol _ZN8TPainterC1Ev {
}
Symbol _ZN8TPainter10BeginPaintER7TWindow {
}
Symbol _ZN8TPainter8EndPaintEv {
}
Symbol _ZN8TPainter10BeginPaintER12TPixelBuffer {
}
Symbol _ZN8TPainterD1Ev {
}
Symbol _ZN12TApplicationC1ERK9TAppParam {
}
Symbol _ZN12TApplication6CreateERK9TAppParam {
}
Symbol _ZN12TApplicationD1Ev {
}
Symbol _ZN12TApplication7DestroyEPS_ {
}
Symbol _ZN12TApplicationC1ERK7TStringjj {
}
Symbol _ZN12TApplicationC2ERK7TStringjj {
}
Symbol _ZN12TApplicationC2ERK9TAppParam {
}
Symbol _ZN12TApplicationD2Ev {
}
Symbol _ZNK10TSharedPtrI8TSurfaceE5DerefEv {
}
Symbol _ZN12TApplication13UpdateWindowsEv {
}
Symbol _ZN7TWSHost13UpdateWindowsEv {
}
Symbol _ZN8TSurface16ResolveDirtyAreaEv {
}
Symbol _ZN8TSurface15ValidateSurfaceEPv {
}
Symbol _ZN8TPainter5ResetEv {
}
Symbol _ZN12TApplication11WaitMessageER8_app_msgi {
}
Symbol _ZN12TApplication14ProcessMessageER8_app_msg {
}
Symbol _ZN7TWSHost14ProcessMessageERK8_app_msg {
}
Symbol _ZN12TApplication3RunEv {
}
Symbol _ZN12TApplication4StopEi {
}
Symbol _ZN12TApplication11SendMessageERK8_app_msgi {
}
Symbol _ZN12TApplication19RegisterMessageHookEPFiPvR8_app_msgES0_ {
}
Symbol _ZN12TApplication16RegisterPropertyE11ControlTypePK15ControlProperty {
}
Symbol _ZN12TApplication18UnregisterPropertyE11ControlType {
}
Symbol _ZNK12TApplication11GetPropertyE11ControlType {
}
Symbol _ZN12TApplication10ShowCursorEi {
}
Symbol _ZN12TApplication10StepTimersEi {
}
Symbol _ZN6TTimer4StepEi {
}
Symbol _ZN12TApplication12GuiHeartBeatEi {
}
Symbol _ZN12TApplication8AddTimerEP6TTimer {
}
Symbol _ZN12TApplication11RemoveTimerEP6TTimer {
}
Symbol _ZN12TApplication7AddHostEP7TWindow {
}
Symbol _ZN12TApplication10RemoveHostEP7TWindow {
}
Symbol _ZN12TApplication15GetVisualEngineEv {
}
Symbol _ZN6TArrayIPcED1Ev {
}
Symbol _ZN6TArrayIPcED0Ev {
}
Symbol _Z25trt_bmp_parse_file_headerP16BMPFileHeaderRawR13BMPFileHeader {
}
Symbol _Z25trt_bmp_parse_info_headerP16BMPInfoHeaderRawR13BMPInfoHeader {
}
Symbol trt_bmp_load {
}
Symbol fopen {
}
Symbol fread {
}
Symbol fseek {
}
Symbol fclose {
}
Symbol trt_bmp_free {
}
Symbol _ZN9ImageDataC1Ev {
}
Symbol _ZN9ImageDataC2Ev {
}
Symbol _ZN9ImageDataC1EPhiii11ColorFormat {
}
Symbol _ZN9ImageDataC2EPhiii11ColorFormat {
}
Symbol _ZN9ImageDataD2Ev {
}
Symbol _ZN10TSharedPtrI9ImageDataEC1EPS0_ {
}
Symbol _ZN10TSharedPtrI9ImageDataED1Ev {
}
Symbol _ZN10TSharedPtrI9ImageDataEaSEPS0_ {
}
Symbol _ZN10TSharedPtrI9ImageDataEaSERKS1_ {
}
Symbol _ZN6TImage14LoadFromBufferEPKhiii10ColorOrder11ColorFormat {
}
Symbol _ZN6TImage16defaultImageDataE {
}
Symbol _ZNK6TColor6Pack32E11ColorFormat {
}
Symbol _ZN6TImageC1EPhiii10ColorOrder11ColorFormat {
}
Symbol _ZNSt9bad_allocD1Ev {
}
Symbol _ZN6TImageC2EPhiii10ColorOrder11ColorFormat {
}
Symbol _ZN6TImage14LoadFromBufferEPKhiii11ColorFormatS2_ {
}
Symbol _ZN6TColor8Unpack32Ej11ColorFormat {
}
Symbol _ZN6TImageC2EPhiii11ColorFormatS1_ {
}
Symbol _ZN6TImageC1ERK12TPixelBuffer {
}
Symbol _ZNK12TPixelBuffer8GetWidthEv {
}
Symbol _ZNK12TPixelBuffer9GetHeightEv {
}
Symbol _ZNK12TPixelBuffer4ReadERK7_TPointIiERK6_TSizeIiEPh11ColorFormati {
}
Symbol _ZN6TImageC2ERK12TPixelBuffer {
}
Symbol _ZN6TImage12LoadBMPImageEPKc11ColorFormat {
}
Symbol _ZN6TImage12LoadPNGImageEPKc11ColorFormat {
}
Symbol trt_png_load {
}
Symbol trt_png_free {
}
Symbol _ZN6TImage13LoadJPEGImageEPKc11ColorFormat {
}
Symbol trt_jpeg_load {
}
Symbol trt_jpeg_free {
}
Symbol _ZN6TImage12LoadFromFileENS_9ImageTypeEPKc11ColorFormat {
}
Symbol _ZN6TImage6UnloadEv {
}
Symbol _ZNK6TImage9GetBufferEv {
}
Symbol _ZNK6TImage8GetColorEii {
}
Symbol _ZN6TImage7ConvertEPhi11ColorFormatPKhiS1_ii {
}
Symbol _ZNK6TImage4DumpEv {
}
Symbol _ZNSt9exceptionD1Ev {
}
Symbol _ZNSt9exceptionD0Ev {
}
Symbol _ZNKSt9exception4whatEv {
}
Symbol _ZNSt9bad_allocD0Ev {
}
Symbol _STI___12_tgsImage_cpp_18acb989 {
}
Symbol _ZTV8TControl {
}
Symbol _ZTS8TControl {
}
Symbol _ZN15ControlPropertyC1E11ControlType {
}
Symbol _ZN15ControlPropertyC2E11ControlType {
}
Symbol _ZN15ControlPropertyD1Ev {
}
Symbol _ZN15ControlPropertyD2Ev {
}
Symbol _ZNK6_TRectIiEneERKS0_ {
}
Symbol _ZN8TControlC1EiiiiR5TNode {
}
Symbol _ZN7TVisualC1E9FrameType {
}
Symbol _ZN8TControlD1Ev {
}
Symbol _ZN7TVisualD1Ev {
}
Symbol _ZN8TControlD0Ev {
}
Symbol _ZN8TControl11SetPositionERK7_TPointIiE {
}
Symbol _ZN5TNode18OnChildBoundChangeEP8TControl {
}
Symbol _ZN5TNode8OnResizeEv {
}
Symbol _ZN8TControl7SetSizeERK6_TSizeIiE {
}
Symbol _ZN8TControl7SetRectERK6_TRectIiE {
}
Symbol _ZN8TControl18SetAlignmentPolicyE19HorizontalAlignment17VerticalAlignment {
}
Symbol _ZN8TControl13SetSizeSourceE10SizeSource {
}
Symbol _Z13my_error_exitP18jpeg_common_struct {
}
Symbol longjmp {
}
Symbol jpeg_std_error {
}
Symbol setjmp {
}
Symbol jpeg_destroy_decompress {
}
Symbol jpeg_CreateDecompress {
}
Symbol jpeg_stdio_src {
}
Symbol jpeg_read_header {
}
Symbol jpeg_start_decompress {
}
Symbol jpeg_read_scanlines {
}
Symbol jpeg_finish_decompress {
}
Symbol _ZTV7TVisual {
}
Symbol _ZTI7TVisual {
}
Symbol _ZTS7TVisual {
}
Symbol _ZN13TCustomVisualC1Ev {
}
Symbol _ZN11TCustomFillC1Ev {
}
Symbol _ZN11TCustomFillD1Ev {
}
Symbol _ZN13TCustomVisualD1Ev {
}
Symbol _ZN7TVisualC2E9FrameType {
}
Symbol _ZN7TVisualD0Ev {
}
Symbol _ZN7TVisualD2Ev {
}
Symbol _ZNK7TVisual10DrawCustomER8TPainterRK11VisualStateRK6_TRectIiE {
}
Symbol _ZNK11TCustomFill15IsDefualtVisualEv {
}
Symbol _ZNK11TCustomFill8FillRectER8TPainterRK6_TRectIiE {
}
Symbol _ZN6TColor5BlendERKS_ {
}
Symbol _ZN6TColor5BlendEiRKS_ {
}
Symbol _ZN6TColor8Blend256EiRKS_ {
}
Symbol _ZTV6TArrayIPN14TTtfFontEngine4FONTEE {
}
Symbol _ZTI6TArrayIPN14TTtfFontEngine4FONTEE {
}
Symbol _ZTS6TArrayIPN14TTtfFontEngine4FONTEE {
}
Symbol _ZNK6TArrayIPN14TTtfFontEngine4FONTEEixEi {
}
Symbol _ZN14TTtfFontEngine11AcquireFontERK7TString {
}
Symbol _ZN8TTtfFontC2ERK7TString {
}
Symbol _ZN8TTtfFontD2Ev {
}
Symbol _ZNK14TTtfFontEngine9GetHeightEPv {
}
Symbol _ZNK14TTtfFontEngine10GetMetricsEPvR11FontMetrics {
}
Symbol _ZNK8TTtfFont13GetGlyphImageEwR6TImage {
}
Symbol _ZNK8TTtfFont15GetGlyphAdvanceEwR7_TPointIfE {
}
Symbol _ZNK14TTtfFontEngine12GetGlyphPathEPvwR6TArrayIhERS1_IfER7_TPointIfE {
}
Symbol FT_Get_Char_Index {
}
Symbol FT_Load_Glyph {
}
Symbol FT_Outline_Check {
}
Symbol FT_Outline_Decompose {
}
Symbol _ZN14TTtfFontEngine12outlineFuncsE {
}
Symbol _ZN6TArrayIPN14TTtfFontEngine4FONTEED1Ev {
}
Symbol _ZN6TArrayIPN14TTtfFontEngine4FONTEED0Ev {
}
Symbol _ZN6TArrayIPN14TTtfFontEngine4FONTEE13RoundCapacityEi {
}
Symbol _ZN6TArrayIPN14TTtfFontEngine4FONTEE8ExpandAtEii {
}
Symbol _ZN6TArrayIPN14TTtfFontEngine4FONTEE8InsertAtEiRKS2_ {
}
Symbol FT_Init_FreeType {
}
Symbol _ZN14TTtfFontEngineC2Ev {
}
Symbol FT_Done_FreeType {
}
Symbol _ZN14TTtfFontEngineD2Ev {
}
Symbol _ZN14TTtfFontEngine13CreateTtfFontERK13TTF_FONT_DESC {
}
Symbol FT_New_Memory_Face {
}
Symbol FT_Select_Charmap {
}
Symbol FT_Set_Char_Size {
}
Symbol FT_Done_Face {
}
Symbol FT_Set_Transform {
}
Symbol _ZN14TTtfFontEngine11ReleaseFontEPv {
}
Symbol _ZNK14TTtfFontEngine13GetGlyphImageEPvwR6TImage {
}
Symbol _ZNK14TTtfFontEngine15GetGlyphAdvanceEPvwR7_TPointIfE {
}
Symbol _ZN14TTtfFontEngine10AddCubicToEPK10FT_Vector_S2_S2_PNS_9FuncParamE {
}
Symbol _ZN6TArrayIhE13RoundCapacityEi {
}
Symbol _ZN6TArrayIhE8ExpandAtEii {
}
Symbol _ZN6TArrayIhE8InsertAtEiRKh {
}
Symbol _ZN6TArrayIfE13RoundCapacityEi {
}
Symbol _ZN6TArrayIfE8ExpandAtEii {
}
Symbol _ZN6TArrayIfE8InsertAtEiRKf {
}
Symbol _ZN14TTtfFontEngine9AddLineToEPK10FT_Vector_PNS_9FuncParamE {
}
Symbol _ZN14TTtfFontEngine9AddMoveToEPK10FT_Vector_PNS_9FuncParamE {
}
Symbol _ZN14TTtfFontEngine9AddQuadToEPK10FT_Vector_S2_PNS_9FuncParamE {
}
Symbol _ZN14TTtfFontEngine14DestroyTtfFontEPNS_4FONTE {
}
Symbol _ZTV11TWindowHost {
}
Symbol _ZTV7TWindow {
}
Symbol _ZTVN7_TEventI10EventParamE17MemberFuncHandlerI7TWindowEE {
}
Symbol _ZTIN7_TEventI10EventParamE17MemberFuncHandlerI7TWindowEE {
}
Symbol _ZTI11TWindowHost {
}
Symbol _ZTI7TWindow {
}
Symbol _ZTSN7_TEventI10EventParamE17MemberFuncHandlerI7TWindowEE {
}
Symbol _ZTS11TWindowHost {
}
Symbol _ZTS7TWindow {
}
Symbol _ZNK6_TRectIiEeqERKS0_ {
}
Symbol _ZNK6TArrayIP5TNodeEixEi {
}
Symbol _ZN6TArrayIP5TNodeE8CopyFromERKS2_ {
}
Symbol _ZN6TArrayIP5TNodeEC1ERKS2_ {
}
Symbol _ZN6TArrayIP5TNodeED1Ev {
}
Symbol _ZN6TArrayIP5TNodeED0Ev {
}
Symbol _ZN6TArrayIP5TNodeE13RoundCapacityEi {
}
Symbol _ZN6TArrayIP5TNodeE8ExpandAtEii {
}
Symbol _ZN6TArrayIP5TNodeE8InsertAtEiRKS1_ {
}
Symbol _ZN6TArrayIP5TNodeE5ClearEv {
}
Symbol _ZN7_TEventI10EventParamE10SetHandlerI7TWindowEEvPT_NS1_17MemberFuncHandlerIS4_E8FuncTypeE {
}
Symbol _ZN7_TEventI10EventParamE17MemberFuncHandlerI7TWindowED1Ev {
}
Symbol _ZN7_TEventI10EventParamE17MemberFuncHandlerI7TWindowED0Ev {
}
Symbol _ZNK7_TEventI10EventParamE17MemberFuncHandlerI7TWindowE6InvokeERS0_ {
}
Symbol _ZN7_TEventI10EventParamE17MemberFuncHandlerI7TWindowE3dupEv {
}
Symbol _ZN11TWindowHostC1Eii {
}
Symbol _ZN11TWindowHostC2Eii {
}
Symbol _ZN11TWindowHostD1Ev {
}
Symbol _ZN11TWindowHostD0Ev {
}
Symbol _ZN11TWindowHostD2Ev {
}
Symbol _ZN11TWindowHost14InvalidateRectERK6_TRectIiE {
}
Symbol _ZN11TWindowHost12HostToScreenERK7_TPointIiE {
}
Symbol _ZN11TWindowHost13ActivateChildEP5TNode {
}
Symbol _ZN5TNode11OnLoseFocusEv {
}
Symbol _ZN5TNode11OnGainFocusEv {
}
Symbol _ZN11TWindowHost15DeactivateChildEP5TNode {
}
Symbol _ZN11TWindowHost17ProcessMouseTrackEP5TNode {
}
Symbol _ZN5TNode12OnMouseLeaveEv {
}
Symbol _ZN5TNode12OnMouseEnterEv {
}
Symbol _ZN11TWindowHost25FindMouseResponsiveNodeAtERK7_TPointIiE {
}
Symbol _ZN5TNode25FindMouseResponsiveNodeAtERK7_TPointIiE {
}
Symbol _ZN11TWindowHost16UpdateMouseTrackEv {
}
Symbol _ZN11TWindowHost15RouteMouseEventEP5TNodeRNS0_15MouseEventParamE {
}
Symbol _ZNK5TNode12OffsetToNodeEPS_RK7_TPointIiE {
}
Symbol _ZN5TNode7OnMouseERNS_15MouseEventParamE {
}
Symbol _ZN11TWindowHost23RouteMouseActivateEventEP5TNode {
}
Symbol _ZN11TWindowHost15ClearMouseTrackEv {
}
Symbol _ZN11TWindowHost7OnPaintER8TPainterRK6_TRectIiE {
}
Symbol _ZN5TNode15RoutePaintEventERNS_15PaintEventParamE {
}
Symbol _ZN11TWindowHost7OnMouseER10EventParam {
}
Symbol _ZN11TWindowHost10OnKeyboardER10EventParam {
}
Symbol _ZN5TNode10OnKeyboardERNS_18KeyboardEventParamE {
}
Symbol _ZN11TWindowHost8OnResizeER10EventParam {
}
Symbol _ZN11TWindowHost10OnActivateER10EventParam {
}
Symbol _ZN11TWindowHost12OnDeactivateER10EventParam {
}
Symbol _ZN11TWindowHost18WindowEventHandlerER10EventParam {
}
Symbol _ZN11TWindowHost12OnMouseLeaveER10EventParam {
}
Symbol _ZN11TWindowHost6OnShowER10EventParam {
}
Symbol _ZN11TWindowHost6OnHideER10EventParam {
}
Symbol _ZN11TWindowHost6AttachEv {
}
Symbol _ZN5TNode16RouteAttachEventEP11TWindowHost {
}
Symbol _ZN11TWindowHost6DetachEv {
}
Symbol _ZN5TNode16RouteDetachEventEv {
}
Symbol _ZN7TWSHost12CreateWindowERK6_TRectIiEN7TWindow10WindowTypeEP9TWSWindow {
}
Symbol _ZN8TSurface13CreateSurfaceERK6_TRectIiEPv {
}
Symbol _ZN7TWindowC2EiiiiPS_NS_12WindowSizingENS_10WindowTypeE {
}
Symbol _ZN7TWindowD1Ev {
}
Symbol _ZN8TSurface14DestroySurfaceEPv {
}
Symbol _ZN7TWSHost13DestroyWindowEP9TWSWindow {
}
Symbol _ZN7TWindowD0Ev {
}
Symbol _ZN7TWindowD2Ev {
}
Symbol _ZN7TWindow6CreateEv {
}
Symbol _ZN7TWindow14InvalidateRectERK6_TRectIiE {
}
Symbol _ZN7TWSHost13SetWindowZPosEP9TWSWindowi {
}
Symbol _ZN7TWSHost10ShowWindowEP9TWSWindowi {
}
Symbol _ZN8TSurface16MoveSurfaceFrontEPv {
}
Symbol _ZN8TSurface17SetSurfaceVisibleEPvi {
}
Symbol _ZN7TWindow4HideEv {
}
Symbol _ZN7TWindow13SetWindowRectERK6_TRectIiE {
}
Symbol _ZN7TWSHost13SetWindowRectEP9TWSWindowRK6_TRectIiE {
}
Symbol _ZN8TSurface14SetSurfaceRectEPvRK6_TRectIiE {
}
Symbol _ZN8TSurface17InvalidateSurfaceEPvRK6_TRectIiE {
}
Symbol _ZNK7TWindow13GetWindowRectEv {
}
Symbol _ZN7TWindow18WindowEventHandlerER10EventParam {
}
Symbol _ZN7TWindow17InvalidateHandlerER10EventParam {
}
Symbol _ZN7TWindow15ToScreenHandlerER10EventParam {
}
Symbol _ZN7TWSHost14OffsetToScreenEP9TWSWindowRK7_TPointIiE {
}
Symbol _ZN6TTimer5StartEv {
}
Symbol _ZN6TTimer4StopEv {
}
Symbol _ZN6TTimer5PauseEv {
}
Symbol _ZN6TTimer6ResumeEv {
}
Symbol _ZNK8TWString4FindEiw {
}
Symbol _Z16FindParagraphEndRK8TWStringi {
}
Symbol _ZNK6TArrayI8LineInfoEixEi {
}
Symbol _Z11IndexToLineRK6TArrayI8LineInfoEi {
}
Symbol _Z15GetLineEndIndexRK5TFontRK8TWStringiii {
}
Symbol _ZNK5TFont12GetTextWidthEPKwj {
}
Symbol _ZN6TArrayI8LineInfoE13RoundCapacityEi {
}
Symbol _ZN6TArrayI8LineInfoE8ExpandAtEii {
}
Symbol _ZN8LineInfoC1Ev {
}
Symbol _ZN6TArrayI8LineInfoE8InsertAtEiRKS0_ {
}
Symbol _ZN6TArrayI8LineInfoE5ClearEv {
}
Symbol _Z18ParseTextIntoLinesRK5TFontRK8TWStringiiiiR6TArrayI8LineInfoE {
}
Symbol _Z16TextWidthToIndexRK5TFontPKwiiRi {
}
Symbol _Z10AnsiToWidePwPKci {
}
Symbol _ZTV5TFont {
}
Symbol _ZTI5TFont {
}
Symbol _ZTS5TFont {
}
Symbol _ZNK10TSharedPtrIKN5TFont8FontDataEE5DerefEv {
}
Symbol _ZN10TSharedPtrIKN5TFont8FontDataEEaSEPS2_ {
}
Symbol _ZN10TSharedPtrIKN5TFont8FontDataEEaSERKS3_ {
}
Symbol _ZN5TFontC2Ev {
}
Symbol _ZN5TFontC1EPKcj {
}
Symbol _ZN5TFontC2EPKcj {
}
Symbol _ZN5TFontD0Ev {
}
Symbol _ZN5TFontD2Ev {
}
Symbol _ZNK5TFonteqERKS_ {
}
Symbol _ZNK5TFontneERKS_ {
}
Symbol _ZNK5TFont10GetMetricsER11FontMetrics {
}
Symbol _ZN5TFont18CalculateTextBoundERK6_TRectIiERK6_TSizeIiE23TextHorizontalAlignment21TextVerticalAlignment {
}
Symbol _ZNK5TFont12GetTextBoundERK6_TRectIiE23TextHorizontalAlignment21TextVerticalAlignmentPKwj {
}
Symbol _ZNK5TFont12WidthToIndexEiRiPKwi {
}
Symbol _ZTV5TNode {
}
Symbol _ZTV14TNodeContainer {
}
Symbol _ZTV10TNodeArray {
}
Symbol _ZTI5TNode {
}
Symbol _ZTI14TNodeContainer {
}
Symbol _ZTI10TNodeArray {
}
Symbol _ZTI18TNodeEventDelegate {
}
Symbol _ZTS5TNode {
}
Symbol _ZTS14TNodeContainer {
}
Symbol _ZTS10TNodeArray {
}
Symbol _ZTS18TNodeEventDelegate {
}
Symbol _ZNK6_TRectIiE8ContainsERK7_TPointIiE {
}
Symbol _ZN5TNodeC2EiiiiP14TEventDelegateP17TChildrenDelegate {
}
Symbol _ZN5TNodeD0Ev {
}
Symbol _ZN5TNodeD2Ev {
}
Symbol _ZNK5TNode14OffsetToWindowERK7_TPointIiE {
}
Symbol _ZNK5TNode14OffsetToScreenERK7_TPointIiE {
}
Symbol _ZNK5TNode16GetParentVisibleEv {
}
Symbol _ZNK5TNode12UpliftToNodeEPS_RK6_TRectIiE {
}
Symbol _ZN5TNode6UpdateERK6_TRectIiE {
}
Symbol _ZNK5TNode16GetParentEnabledEv {
}
Symbol _ZN5TNode8ActivateEv {
}
Symbol _ZN5TNode10DeactivateEv {
}
Symbol _ZN5TNode18SetVisualStateMaskEiiii {
}
Symbol _ZN5TNode10SetFocusedEi {
}
Symbol _ZN5TNode14SetHighlightedEi {
}
Symbol _ZN5TNode9SetDimmedEi {
}
Symbol _ZN5TNode9SetActiveEi {
}
Symbol _ZN5TNode16SetBoundPositionERK7_TPointIiE {
}
Symbol _ZN5TNode12SetBoundSizeERK6_TSizeIiE {
}
Symbol _ZN5TNode14OnAttachToHostEv {
}
Symbol _ZN5TNode16OnDimStateChangeEv {
}
Symbol _ZN5TNode16OnDetachFromHostEv {
}
Symbol _ZN5TNode14AddToMouseHookEv {
}
Symbol _ZN5TNode19RemoveFromMouseHookEv {
}
Symbol _ZN5TNode17RouteGenericEventEPFvRS_PvES1_ {
}
Symbol _ZN5TNode7OnPaintERNS_15PaintEventParamE {
}
Symbol _ZN8TPainter11SetViewportERK7_TPointIiERK6_TRectIiE {
}
Symbol _ZN5TNode24RouteDimStateChangeEventEv {
}
Symbol _ZN5TNode6ToNodeER8TControl {
}
Symbol _ZN6TArrayIP5TNodeE8ShrinkAtEii {
}
Symbol _ZN6TArrayIP5TNodeE8RemoveAtEi {
}
Symbol _ZNK6TArrayIP5TNodeE7IndexOfERKS1_ {
}
Symbol _ZN6TArrayIP5TNodeE6RemoveERKS1_ {
}
Symbol _ZNK6TArrayIP5TNodeE8ContainsERKS1_ {
}
Symbol _ZN14TNodeContainerD1Ev {
}
Symbol _ZN14TNodeContainerD0Ev {
}
Symbol _ZN14TNodeContainer8AddChildEP5TNodei {
}
Symbol _ZN14TNodeContainer11RemoveChildEP5TNode {
}
Symbol _ZN14TNodeContainer12SetChildZPosEP5TNodei {
}
Symbol _ZNK14TNodeContainerixEi {
}
Symbol _ZNK14TNodeContainer7IndexOfEPK5TNode {
}
Symbol _ZNK14TNodeContainer8GetCountEv {
}
Symbol _ZThn40_NK14TNodeContainer8GetCountEv {
}
Symbol _ZN14TNodeContainer7GetNodeEi {
}
Symbol _ZThn40_N14TNodeContainer7GetNodeEi {
}
Symbol _ZN10TNodeArrayD1Ev {
}
Symbol _ZN10TNodeArrayD0Ev {
}
Symbol _ZNK10TNodeArray8GetCountEv {
}
Symbol _ZThn40_NK10TNodeArray8GetCountEv {
}
Symbol _ZN10TNodeArray7GetNodeEi {
}
Symbol _ZThn40_N10TNodeArray7GetNodeEi {
}
Symbol _ZN18TNodeEventDelegate7OnEventER10EventParam {
}
Symbol _ZTVN10__cxxabiv121__vmi_class_type_infoE {
}
Symbol _ZTV11TGridLayout {
}
Symbol _ZTV6TArrayIN11TGridLayout10LayoutInfoEE {
}
Symbol _ZTI6TArrayIN11TGridLayout10LayoutInfoEE {
}
Symbol _ZTI11TGridLayout {
}
Symbol _ZTS6TArrayIN11TGridLayout10LayoutInfoEE {
}
Symbol _ZTS11TGridLayout {
}
Symbol _ZN6TArrayIN11TGridLayout10LayoutInfoEE13RoundCapacityEi {
}
Symbol _ZN6TArrayIN11TGridLayout10LayoutInfoEE8ExpandAtEii {
}
Symbol _ZN11TGridLayout10LayoutInfoC1Ev {
}
Symbol _ZN6TArrayIN11TGridLayout10LayoutInfoEEC1Ei {
}
Symbol _ZN6TArrayIN11TGridLayout10LayoutInfoEED1Ev {
}
Symbol _ZN6TArrayIN11TGridLayout10LayoutInfoEED0Ev {
}
Symbol _ZNK6TArrayIN11TGridLayout10LayoutInfoEEixEi {
}
Symbol _ZN11TGridLayoutC1Eii {
}
Symbol _ZN11TGridLayoutC2Eii {
}
Symbol _ZN11TGridLayoutD1Ev {
}
Symbol _ZN11TGridLayoutD0Ev {
}
Symbol _ZN11TGridLayoutD2Ev {
}
Symbol _ZN11TGridLayout8DoLayoutERK6_TRectIiE {
}
Symbol _ZNK11TGridLayout11GetCellRectERK8GridCell {
}
Symbol _ZN12TPixelBuffer4DataD1Ev {
}
Symbol _ZNK10TSharedPtrIN12TPixelBuffer4DataEE5DerefEv {
}
Symbol _ZN10TSharedPtrIN12TPixelBuffer4DataEEaSEPS1_ {
}
Symbol _ZN10TSharedPtrIN12TPixelBuffer4DataEEaSERKS2_ {
}
Symbol _ZN12TPixelBufferC2Ev {
}
Symbol _ZN12TPixelBufferC2Eii {
}
Symbol _ZN12TPixelBufferC1ERKS_ {
}
Symbol _ZN12TPixelBufferC2ERKS_ {
}
Symbol _ZN12TPixelBufferC2ERK6TImage {
}
Symbol _ZN12TPixelBufferD2Ev {
}
Symbol _ZN12TPixelBuffer9DuplicateERKS_ {
}
Symbol _ZN12TPixelBuffer4BlitERK7_TPointIiES3_RK6_TSizeIiE {
}
Symbol _ZN12TPixelBuffer5WriteERK7_TPointIiERK6_TSizeIiEPKh11ColorFormati {
}
Symbol _ZN12TPixelBuffer4DataC1EPv {
}
Symbol _ZN12TPixelBuffer4DataC2EPv {
}
Symbol _ZN12TPixelBuffer4DataD2Ev {
}
Symbol _ZTV9TWSWindow {
}
Symbol _ZTI9TWSWindow {
}
Symbol _ZTS9TWSWindow {
}
Symbol _ZN5TNode10SetVisibleEi {
}
Symbol _ZN5TNode15MouseEventParamC1Ev {
}
Symbol _ZN14TNodeContainerC1EiiiiP14TEventDelegate {
}
Symbol _ZN9TWSWindowC1ERK6_TRectIiEN7TWindow10WindowTypeE {
}
Symbol _ZN9TWSWindowC2ERK6_TRectIiEN7TWindow10WindowTypeE {
}
Symbol _ZN9TWSWindowD1Ev {
}
Symbol _ZN9TWSWindowD0Ev {
}
Symbol _ZN9TWSWindowD2Ev {
}
Symbol _ZN9TWSWindow12RedrawWindowER8TPainterRK6_TRectIiE {
}
Symbol _ZN7TWSRootC1ERK6_TRectIiE {
}
Symbol _ZN7TWSRootD1Ev {
}
Symbol _ZN7TWSRootD0Ev {
}
Symbol _ZN7TWSHost10screenRectE {
}
Symbol _ZN7TWSHost10windowHostE {
}
Symbol _ZN7TWSHost10rootWindowE {
}
Symbol _ZN7TWSHost14ActivateWindowEP9TWSWindow {
}
Symbol _ZN7TWSHost16DeactivateWindowEP9TWSWindow {
}
Symbol _ZN7TWSHost15SetWindowParentEP9TWSWindowS1_ {
}
Symbol _ZN7TWSHost13GetWindowRectEP9TWSWindow {
}
Symbol _ZN7TWSHost17ProcessMouseEventERK8_app_msg {
}
Symbol _ZN7TWSHost20ProcessKeyboardEventERK8_app_msg {
}
Symbol _ZN7TWSHost17ProcessTimerEventERK8_app_msg {
}
Symbol _ZN7TWSHost16ProcessQuitEventERK8_app_msg {
}
Symbol _ZN7TWSHost14RedrawCallbackER5TNodePv {
}
Symbol _STI___19_tgsWindowSystem_cpp_d2b310e3 {
}
Symbol _ZZNSt4listI6_TRectIiESaIS1_EE8_IncsizeEjEs {
}
Symbol _ZZNSt4listIP8TSurfaceSaIS1_EE8_IncsizeEjEs {
}
Symbol _ZTV6TArrayI10TSharedPtrI8TSurfaceEE {
}
Symbol _ZTI6TArrayI10TSharedPtrI8TSurfaceEE {
}
Symbol _ZTS6TArrayI10TSharedPtrI8TSurfaceEE {
}
Symbol _ZNSt4listI6_TRectIiESaIS1_EE8_BuynodeEv {
}
Symbol _ZNSt4listI6_TRectIiESaIS1_EE5clearEv {
}
Symbol _ZNSt4listI6_TRectIiESaIS1_EE5_TidyEv {
}
Symbol _ZNSt4listIP8TSurfaceSaIS1_EE8_BuynodeEv {
}
Symbol _ZN8TSurfaceC2ERK6_TRectIiE {
}
Symbol _ZNSt4listIP8TSurfaceSaIS1_EE5clearEv {
}
Symbol _ZNSt4listIP8TSurfaceSaIS1_EE5_TidyEv {
}
Symbol _ZN8TSurfaceD2Ev {
}
Symbol _ZN8TSurface12AddDirtyRectERK6_TRectIiE {
}
Symbol _ZN8TSurface5dirtyE {
}
Symbol _ZN8TSurface12ForEachChildEPS_PFPvS0_S1_ES1_S3_S1_ {
}
Symbol _ZN8TSurface22UpdatePositionCallbackEPS_Pv {
}
Symbol _ZN8TSurface7SetRectERK6_TRectIiE {
}
Symbol _ZNSt4listIP8TSurfaceSaIS1_EE8_BuynodeEPNSt9_List_nodIS1_S2_E5_NodeES7_RKS1_ {
}
Symbol _ZNSs5eraseEjj {
}
Symbol _ZNKSt12_String_base5_XranEv {
}
Symbol _ZNSs5_TidyEbj {
}
Symbol _ZNSs5_CopyEjj {
}
Symbol _ZNSs5_GrowEjb {
}
Symbol _ZNKSt12_String_base5_XlenEv {
}
Symbol _ZNSs6assignERKSsjj {
}
Symbol _ZNSs7_InsideEPKc {
}
Symbol _ZNSs6assignEPKcj {
}
Symbol _ZNSt11logic_errorC1ERKSs {
}
Symbol _ZNSt4listIP8TSurfaceSaIS1_EE8_IncsizeEj {
}
Symbol _ZNSt12length_errorD1Ev {
}
Symbol __cxa_free_exception {
}
Symbol _ZNSt4listIP8TSurfaceSaIS1_EE7_InsertENS3_8iteratorERKS1_ {
}
Symbol _ZNSt4listIP8TSurfaceSaIS1_EE5eraseENS3_8iteratorE {
}
Symbol _ZNSt4listIP8TSurfaceSaIS1_EE6removeERKS1_ {
}
Symbol _ZN8TSurface9SetParentEPS_ {
}
Symbol _ZN8TSurface14RemoveChildrenEv {
}
Symbol _ZN8TSurface9MoveFrontEv {
}
Symbol _ZNK6TArrayI10TSharedPtrI8TSurfaceEEixEi {
}
Symbol _ZN8TSurface12surfaceArrayE {
}
Symbol _ZN6TArrayI10TSharedPtrI8TSurfaceEE13RoundCapacityEi {
}
Symbol _ZN10TSharedPtrI8TSurfaceEaSERKS1_ {
}
Symbol _ZN6TArrayI10TSharedPtrI8TSurfaceEE8ExpandAtEii {
}
Symbol _ZN10TSharedPtrI8TSurfaceED1Ev {
}
Symbol _ZN10TSharedPtrI8TSurfaceEC1Ev {
}
Symbol _ZN6TArrayI10TSharedPtrI8TSurfaceEE8InsertAtEiRKS2_ {
}
Symbol _ZN10TSharedPtrI8TSurfaceEC1EPS0_ {
}
Symbol _ZN6TArrayI10TSharedPtrI8TSurfaceEE8ShrinkAtEii {
}
Symbol _ZN6TArrayI10TSharedPtrI8TSurfaceEE8RemoveAtEi {
}
Symbol _ZNK6TArrayI10TSharedPtrI8TSurfaceEE7IndexOfERKS2_ {
}
Symbol _ZN6TArrayI10TSharedPtrI8TSurfaceEE6RemoveERKS2_ {
}
Symbol _ZN8TSurface20UpdateWindowPositionEv {
}
Symbol _ZSt10_ConstructI6_TRectIiES1_EvPT_RKT0_ {
}
Symbol _ZNSt4listI6_TRectIiESaIS1_EE8_BuynodeEPNSt9_List_nodIS1_S2_E5_NodeES7_RKS1_ {
}
Symbol _ZNSt4listI6_TRectIiESaIS1_EE8_IncsizeEj {
}
Symbol _ZNSt4listI6_TRectIiESaIS1_EE7_InsertENS3_8iteratorERKS1_ {
}
Symbol _ZNSt4listI6_TRectIiESaIS1_EE5eraseENS3_8iteratorE {
}
Symbol _ZN8TSurface8ClipRectERSt4listI6_TRectIiESaIS2_EERKS2_ {
}
Symbol _ZN8TSurface22UpdateWindowClipRegionEv {
}
Symbol _ZN8TSurface24ResolveDirtyAreaCallbackEPS_Pv {
}
Symbol _ZN8TSurface24UpdateClipRegionCallbackEPS_Pv {
}
Symbol _ZN6TArrayI10TSharedPtrI8TSurfaceEEC1Ev {
}
Symbol _ZN6TArrayI10TSharedPtrI8TSurfaceEED1Ev {
}
Symbol _ZN6TArrayI10TSharedPtrI8TSurfaceEED0Ev {
}
Symbol _ZNSt11logic_errorD1Ev {
}
Symbol __cxa_call_unexpected {
}
Symbol _ZNSt11logic_errorD0Ev {
}
Symbol _ZNKSt11logic_error4whatEv {
}
Symbol _ZNSt12length_errorD0Ev {
}
Symbol _STI___14_tgsSurface_cpp_813aba1e {
}
Symbol _ZN8TPainterC2Ev {
}
Symbol _ZN8TPainterD2Ev {
}
Symbol _ZN8TPainter13ClearClipRectEv {
}
Symbol _ZN8TPainter7SetFontERK5TFont {
}
Symbol _ZN8TPainter13SetRasterModeE10RasterMode {
}
Symbol _ZN8TPainter11SetClipRectERK6_TRectIiE {
}
Symbol _ZN8TPainter12SetTextColorERK6TColor {
}
Symbol _ZN8TPainter10ResetBrushEv {
}
Symbol _ZN8TPainter9ResetFontEv {
}
Symbol _ZN8TPainter10DrawCircleERK6_TRectIiE {
}
Symbol _ZN8TPainter11DrawEllipseEiiii {
}
Symbol _ZN8TPainter11DrawEllipseERK6_TRectIiE {
}
Symbol _ZN8TPainter7DrawArcERK6_TRectIiERK7_TPointIiES7_ {
}
Symbol _ZN8TPainter7DrawPieERK6_TRectIiERK7_TPointIiES7_ {
}
Symbol _ZN8TPainter8DrawRectERK6_TRectIiE {
}
Symbol _ZN8TPainter8DrawRectEiiii {
}
Symbol _ZN8TPainter8FillRectEiiii {
}
Symbol _ZN8TPainter11DrawUCSTextERK8TWStringii {
}
Symbol _ZN8TPainter11DrawUCSTextEPKwiii {
}
Symbol _ZN8TPainter11DrawUCSTextEPKwiRK6_TRectIiE23TextHorizontalAlignment21TextVerticalAlignment {
}
Symbol _ZN8TPainter11DrawUCSTextERK8TWStringRK6_TRectIiE23TextHorizontalAlignment21TextVerticalAlignment {
}
Symbol _ZN8TPainter9DrawImageERK6TImageii {
}
Symbol _ZN8TPainter17CopyToPixelBufferER12TPixelBufferiiiiii {
}
Symbol _ZN8TPainter19CopyFromPixelBufferERK12TPixelBufferiiiiii {
}
Symbol _ZTV10TSolidFill {
}
Symbol _ZTV12TPatternFill {
}
Symbol _ZTV10TImageFill {
}
Symbol _ZTV10TEmptyFill {
}
Symbol _ZTI10TEmptyFill {
}
Symbol _ZTI10TSolidFill {
}
Symbol _ZTI12TPatternFill {
}
Symbol _ZTI10TImageFill {
}
Symbol _ZTIN11TCustomFill18TCustomFillAdaptorE {
}
Symbol _ZTSN11TCustomFill18TCustomFillAdaptorE {
}
Symbol _ZTS10TEmptyFill {
}
Symbol _ZTS10TSolidFill {
}
Symbol _ZTS12TPatternFill {
}
Symbol _ZTS10TImageFill {
}
Symbol _ZN11TCustomFillC2Ev {
}
Symbol _ZN11TCustomFill13DeleteAdaptorEv {
}
Symbol _ZN10TSolidFillC1ERK6TColor {
}
Symbol _ZNK10TSolidFill3dupEv {
}
Symbol _ZN12TPatternFillC1ERKS_ {
}
Symbol _ZNK12TPatternFill3dupEv {
}
Symbol _ZN10TImageFillC1ERKS_ {
}
Symbol _ZNK10TImageFill3dupEv {
}
Symbol _ZN11TCustomFill11CopyAdaptorENS_14CustomFillTypeEPKNS_18TCustomFillAdaptorE {
}
Symbol _ZN11TCustomFillC1ERKS_ {
}
Symbol _ZN11TCustomFillC2ERKS_ {
}
Symbol _ZN11TCustomFillC1ERK10TEmptyFill {
}
Symbol _ZN11TCustomFillC2ERK10TEmptyFill {
}
Symbol _ZN11TCustomFillC1ERK10TSolidFill {
}
Symbol _ZN11TCustomFillC2ERK10TSolidFill {
}
Symbol _ZN11TCustomFillC1ERK12TPatternFill {
}
Symbol _ZN11TCustomFillC2ERK12TPatternFill {
}
Symbol _ZN11TCustomFillC1ERK10TImageFill {
}
Symbol _ZN11TCustomFillC2ERK10TImageFill {
}
Symbol _ZN11TCustomFillD2Ev {
}
Symbol _ZN11TCustomFillaSERKS_ {
}
Symbol _ZN11TCustomFillaSERK10TEmptyFill {
}
Symbol _ZN11TCustomFillaSERK10TSolidFill {
}
Symbol _ZN11TCustomFillaSERK10TImageFill {
}
Symbol _ZN11TCustomFillaSERK12TPatternFill {
}
Symbol _ZNK10TSolidFill8FillRectER8TPainterRK6_TRectIiE {
}
Symbol _ZNK12TPatternFill8FillRectER8TPainterRK6_TRectIiE {
}
Symbol _ZNK10TImageFill8FillRectER8TPainterRK6_TRectIiE {
}
Symbol _ZN10TEmptyFillC1Ev {
}
Symbol _ZN10TEmptyFillC2Ev {
}
Symbol _ZN10TEmptyFillD1Ev {
}
Symbol _ZN10TEmptyFillD0Ev {
}
Symbol _ZN10TEmptyFillD2Ev {
}
Symbol _ZN10TSolidFillC2ERK6TColor {
}
Symbol _ZN10TSolidFillD1Ev {
}
Symbol _ZN10TSolidFillD2Ev {
}
Symbol _ZN10TSolidFillD0Ev {
}
Symbol _ZN12TPatternFillC1ERK12TPixelBuffer {
}
Symbol _ZN12TPatternFillC2ERK12TPixelBuffer {
}
Symbol _ZN12TPatternFillD1Ev {
}
Symbol _ZN12TPatternFillD2Ev {
}
Symbol _ZN12TPatternFillD0Ev {
}
Symbol _ZN10TImageFillC1ERK12TPixelBuffer {
}
Symbol _ZN10TImageFillC2ERK12TPixelBuffer {
}
Symbol _ZN10TImageFillC2ERKS_ {
}
Symbol _ZN10TImageFillD1Ev {
}
Symbol _ZN10TImageFillD2Ev {
}
Symbol _ZN10TImageFillD0Ev {
}
Symbol png_create_read_struct {
}
Symbol png_create_info_struct {
}
Symbol png_destroy_read_struct {
}
Symbol png_set_longjmp_fn {
}
Symbol png_init_io {
}
Symbol png_read_info {
}
Symbol png_get_IHDR {
}
Symbol png_set_IHDR {
}
Symbol png_set_scale_16 {
}
Symbol png_set_expand {
}
Symbol png_set_gray_to_rgb {
}
Symbol png_set_bgr {
}
Symbol png_read_image {
}
Symbol png_read_end {
}
Symbol png_get_valid {
}
Symbol _ZN7TStringD1Ev {
}
Symbol _ZN8TWStringC1Ev {
}
Symbol _ZN8TWStringC1EPKw {
}
Symbol _ZN8TWStringaSERKS_ {
}
Symbol _ZNK8TWStringneERKS_ {
}
Symbol _ZN7TWDFile12BranchButtonEiPiRNS_15ButtonAttributeE {
}
Symbol _ZN7TWDFile11BranchImageEiPiRNS_14ImageAttributeE {
}
Symbol _ZN7TWDFile11ParseButtonEPhiRNS_15ButtonAttributeE {
}
Symbol _Z10DataLengthiPi {
}
Symbol _ZN7TWDFile12BranchBorderEiPiRNS_15BorderAttributeE {
}
Symbol _ZN7TWDFile10BranchFontEiPiRNS_13FontAttributeE {
}
Symbol _ZN7TWDFile13BranchRealObjEiPiRNS_16RealObjAttributeE {
}
Symbol _ZN7TWDFile14ImageAttributeD1Ev {
}
Symbol _ZN7TWDFile15ButtonAttributeC1Ev {
}
Symbol _ZN7TWDFile16RealObjAttributeC2Ev {
}
Symbol _ZN7TWDFile15BorderAttributeC1Ev {
}
Symbol _ZN7TWDFile13FontAttributeC1Ev {
}
Symbol _ZN7TWDFile14ImageAttributeC1Ev {
}
Symbol _ZN7TWDFile15ButtonAttributeD1Ev {
}
Symbol _ZN7TWDFile11ControlInfoC1Ev {
}
Symbol _ZN7TWDFile11ControlInfoD1Ev {
}
Symbol _ZNK6_TRectIiE5WidthEv {
}
Symbol _ZNK6_TRectIiE6HeightEv {
}
Symbol _ZN6TImageC1Ev {
}
Symbol _ZN8TControl15UpdateBoundRectEv {
}
Symbol _ZN15TPushButtonNode7SetTextERK8TWString {
}
Symbol _ZN7TWDFile19CreateButtonFromAttERKNS_10TwdSegmentE {
}
Symbol _ZN9TCheckBoxC1EiiiiRK8TWString {
}
Symbol _Z12UCS2FromUTF8PKciR8TWString {
}
Symbol _ZN7TWDFile14AddControlInfoERKNS_11ControlInfoE {
}
Symbol _ZN13TToggleButtonC1Eiiii {
}
Symbol _ZNK13TToggleButton11GetPropertyEv {
}
Symbol _ZN7TWDFile21ApplyRealObjAttributeER8TControlRKNS_16RealObjAttributeE {
}
Symbol _ZN7TWDFile9LoadImageEPhiR6TImage {
}
Symbol _ZN13TToggleButton11SetPropertyERKNS_8PropertyE {
}
Symbol _ZN13TToggleButton8PropertyD1Ev {
}
Symbol _ZN11TPushButtonC1Eiiii {
}
Symbol _ZNK11TPushButton11GetPropertyEv {
}
Symbol _ZN11TPushButton11SetPropertyERKNS_8PropertyE {
}
Symbol _ZN11TPushButton8PropertyD1Ev {
}
Symbol _ZN7TWDFile15ButtonAttributeC2Ev {
}
Symbol _ZN7TWDFile9BranchTabEiPiRNS_12TabAttributeE {
}
Symbol _ZN7TWDFile8ParseTabEPhiRNS_12TabAttributeE {
}
Symbol _ZN7TWDFile12TabAttributeC1Ev {
}
Symbol _ZN7TWDFile12TabAttributeD1Ev {
}
Symbol _ZN7TWDFile16CreateTabFromAttERKNS_10TwdSegmentE {
}
Symbol _ZN4TTabC1Eiiiii {
}
Symbol _ZN4TTab10SetTabTextEiRK8TWString {
}
Symbol snprintf {
}
Symbol _ZN7TWDFile12TabAttributeC2Ev {
}
Symbol _ZN7TWDFile12TabAttributeD2Ev {
}
Symbol _ZTV6TArrayIN7TWDFile17ListItemAttributeEE {
}
Symbol _ZTI6TArrayIN7TWDFile17ListItemAttributeEE {
}
Symbol _ZTS6TArrayIN7TWDFile17ListItemAttributeEE {
}
Symbol _ZN6TArrayIN7TWDFile17ListItemAttributeEED1Ev {
}
Symbol _ZN6TArrayIN7TWDFile17ListItemAttributeEED0Ev {
}
Symbol _ZN6TArrayIN7TWDFile17ListItemAttributeEE13RoundCapacityEi {
}
Symbol _ZN6TArrayIN7TWDFile17ListItemAttributeEE8ExpandAtEii {
}
Symbol _ZN7TWDFile17ListItemAttributeC1Ev {
}
Symbol _ZN6TArrayIN7TWDFile17ListItemAttributeEE8InsertAtEiRKS1_ {
}
Symbol _ZNK6TArrayIN7TWDFile17ListItemAttributeEEixEi {
}
Symbol _ZN7TWDFile14BranchListItemEiPiRNS_17ListItemAttributeE {
}
Symbol _ZN7TWDFile10BranchListEiPiRNS_13ListAttributeE {
}
Symbol _ZN7TWDFile19BranchScrollBarPairEiPiRNS_19ScrollAreaAttributeE {
}
Symbol _ZN7TWDFile9ParseListEPhiRNS_13ListAttributeE {
}
Symbol _ZN7TWDFile15WindowAttributeD1Ev {
}
Symbol _ZN7TWDFile13ListAttributeC1Ev {
}
Symbol _ZN7TWDFile19ScrollAreaAttributeC2Ev {
}
Symbol _ZN7TWDFile13ListAttributeD1Ev {
}
Symbol _ZN7TWDFile17CreateListFromAttERKNS_10TwdSegmentE {
}
Symbol _ZN8TListBoxC1Eiiiii {
}
Symbol _ZN8TListBox6AddRowERK8TWStringi {
}
Symbol _ZN7TWDFile17ListItemAttributeC2Ev {
}
Symbol _ZN7TWDFile13ListAttributeC2Ev {
}
Symbol _ZN7TWDFile13ListAttributeD2Ev {
}
Symbol _ZTV7TWDFile {
}
Symbol _ZTV6TArrayIN7TWDFile23MultiStateItemAttributeEE {
}
Symbol _ZTV6TArrayIN7TWDFile11ControlInfoEE {
}
Symbol _ZTI6TArrayIN7TWDFile23MultiStateItemAttributeEE {
}
Symbol _ZTI6TArrayIN7TWDFile11ControlInfoEE {
}
Symbol _ZTI7TWDFile {
}
Symbol _ZTS6TArrayIN7TWDFile23MultiStateItemAttributeEE {
}
Symbol _ZTS6TArrayIN7TWDFile11ControlInfoEE {
}
Symbol _ZTS7TWDFile {
}
Symbol _ZN6TArrayIN7TWDFile23MultiStateItemAttributeEED1Ev {
}
Symbol _ZN7TWDFile23MultiStateItemAttributeD1Ev {
}
Symbol _ZN6TArrayIN7TWDFile23MultiStateItemAttributeEED0Ev {
}
Symbol _ZN6TArrayIN7TWDFile11ControlInfoEED1Ev {
}
Symbol _ZN6TArrayIN7TWDFile11ControlInfoEED0Ev {
}
Symbol _ZN6TArrayIN7TWDFile11ControlInfoEE13RoundCapacityEi {
}
Symbol _ZN7TWDFile11ControlInfoaSERKS0_ {
}
Symbol _ZN6TArrayIN7TWDFile11ControlInfoEE8ExpandAtEii {
}
Symbol _ZN6TArrayIN7TWDFile11ControlInfoEE8InsertAtEiRKS1_ {
}
Symbol _ZN6TArrayIN7TWDFile11ControlInfoEE5ClearEv {
}
Symbol _ZNK6TArrayIN7TWDFile11ControlInfoEEixEi {
}
Symbol _ZN7TWDFileC1Ev {
}
Symbol _ZN7TWDFileC2Ev {
}
Symbol _ZN7TWDFile6UnloadEv {
}
Symbol _ZN7TWDFileD1Ev {
}
Symbol _ZN7TWDFileD0Ev {
}
Symbol _ZN7TWDFileD2Ev {
}
Symbol _ZN7TWDFile16CheckFileVersionEPh {
}
Symbol _ZN7TWDFile11ParseHeaderEPh {
}
Symbol _Z13TestByteOrderv {
}
Symbol _Z16ENDIAN_CONVERT32j {
}
Symbol _ZN7TWDFile12ParseSegmentERNS_10TwdSegmentE {
}
Symbol _Z13ConvertEndianPh {
}
Symbol _ZN7TWDFile19CreateWindowFromAttERKNS_10TwdSegmentE {
}
Symbol _ZN7TWDFile18CreateLabelFromAttERKNS_10TwdSegmentE {
}
Symbol _ZN7TWDFile24CreateRadioButtonFromAttERKNS_10TwdSegmentE {
}
Symbol _ZN7TWDFile21CreateComboBoxFromAttERKNS_10TwdSegmentE {
}
Symbol _ZN7TWDFile22CreateNumberBoxFromAttERKNS_10TwdSegmentE {
}
Symbol _ZN7TWDFile19CreateSliderFromAttERKNS_10TwdSegmentE {
}
Symbol _ZN7TWDFile17CreateEditFromAttERKNS_10TwdSegmentE {
}
Symbol _ZN7TWDFile18CreatePanelFromAttERKNS_10TwdSegmentE {
}
Symbol _ZN7TWDFile23CreateScrollAreaFromAttERKNS_10TwdSegmentE {
}
Symbol _ZN7TWDFile20CreatePictureFromAttERKNS_10TwdSegmentE {
}
Symbol _ZN7TWDFile23CreateMultiStateFromAttERKNS_10TwdSegmentE {
}
Symbol _ZN7TWDFile18CreateChartFromAttERKNS_10TwdSegmentE {
}
Symbol _ZN7TWDFile9ParseBodyEPh {
}
Symbol _ZN7TWDFile4LoadERK7TString {
}
Symbol _ZNK7TWDFile13GetTypeByNameERK7TString {
}
Symbol _ZNK7TWDFile16GetControlByNameERK7TString {
}
Symbol _ZN7TWDFile14BranchPositionEiPiRNS_17PositionAttributeE {
}
Symbol _ZN5TNode10SetEnabledEi {
}
Symbol _ZN7TWDFile11GetTWDColorEj {
}
Symbol _ZN7TWDFile18ApplyTextAttributeER12TextPropertyRKNS_13FontAttributeE {
}
Symbol _ZNK7TWDFile13GetInfoByNameERK7TString {
}
Symbol _ZN4TTab10AddControlEiP8TControli {
}
Symbol _ZN7TWDFile13FontAttributeC2Ev {
}
Symbol _ZN7TWDFile17PositionAttributeC1Ev {
}
Symbol _ZN7TWDFile17PositionAttributeC2Ev {
}
Symbol _ZN7TWDFile14ImageAttributeC2Ev {
}
Symbol _ZN7TWDFile16RealObjAttributeC1Ev {
}
Symbol _ZN7TWDFile15WindowAttributeC1Ev {
}
Symbol _ZN7TWDFile15WindowAttributeC2Ev {
}
Symbol _ZN7TWDFile14PanelAttributeC1Ev {
}
Symbol _ZN7TWDFile14PanelAttributeC2Ev {
}
Symbol _ZN7TWDFile14LabelAttributeC1Ev {
}
Symbol _ZN7TWDFile14LabelAttributeC2Ev {
}
Symbol _ZN7TWDFile13EditAttributeC1Ev {
}
Symbol _ZN7TWDFile13EditAttributeC2Ev {
}
Symbol _ZN7TWDFile19MultiStateAttributeC1Ev {
}
Symbol _ZN7TWDFile19MultiStateAttributeC2Ev {
}
Symbol _ZN7TWDFile15BorderAttributeC2Ev {
}
Symbol _ZN7TWDFile14BranchComboBoxEiPiRNS_17ComboBoxAttributeE {
}
Symbol _ZN7TWDFile10BranchEditEiPiRNS_13EditAttributeE {
}
Symbol _ZN7TWDFile13ParseComboBoxEPhiRNS_17ComboBoxAttributeE {
}
Symbol _ZN7TWDFile17ComboBoxAttributeC1Ev {
}
Symbol _ZN7TWDFile17ComboBoxAttributeD1Ev {
}
Symbol _ZN9TComboBoxC1Eiiii {
}
Symbol _ZN7TWDFile17ComboBoxAttributeC2Ev {
}
Symbol _ZN7TWDFile12BranchWindowEiPiRNS_15WindowAttributeE {
}
Symbol _ZN7TWDFile11ParseWindowEPhiRNS_15WindowAttributeE {
}
Symbol _ZN13TCustomVisualC1ERK11TCustomFill {
}
Symbol _ZN13TCustomVisualaSERKS_ {
}
Symbol _ZNK8_TMarginIiEneERKS0_ {
}
Symbol _ZN7TWDFile10ParseChartEPhiRNS_14ChartAttributeE {
}
Symbol _ZN7TWDFile14ChartAttributeC1Ev {
}
Symbol _ZN10TLineChartC1Eiiiijj {
}
Symbol _ZNK6TColorneERKS_ {
}
Symbol _ZN7TWDFile9ParseEditEPhiRNS_13EditAttributeE {
}
Symbol _ZNK12TextPropertyneERKS_ {
}
Symbol _ZN12TextPropertyaSERKS_ {
}
Symbol _ZN15TSingleLineEditC1EiiiiRK8TWString {
}
Symbol _ZN9TEditNode7SetTextERK8TWString {
}
Symbol _ZN7TWDFile15BranchScrollBarEiPiRNS_18ScrollBarAttributeE {
}
Symbol _ZN7TWDFile16BranchScrollAreaEiPiRNS_19ScrollAreaAttributeE {
}
Symbol _ZN7TWDFile15ParseScrollAreaEPhiRNS_19ScrollAreaAttributeE {
}
Symbol _ZN7TWDFile18ScrollBarAttributeC1Ev {
}
Symbol _ZN7TWDFile19ScrollAreaAttributeC1Ev {
}
Symbol _ZN11TScrollAreaC1Eiiiiii {
}
Symbol _ZN11TScrollArea17SetScrollAreaSizeERK6_TSizeIiE {
}
Symbol _ZN7TWDFile18ScrollBarAttributeC2Ev {
}
Symbol _ZN7TWDFile12BranchSliderEiPiRNS_15SliderAttributeE {
}
Symbol _ZN7TWDFile11ParseSliderEPhiRNS_15SliderAttributeE {
}
Symbol _ZN7TWDFile15SliderAttributeC1Ev {
}
Symbol _ZN7TWDFile15SliderAttributeD1Ev {
}
Symbol _ZN7TSliderC1Eiiii15OrientationTypeiii {
}
Symbol _ZN7TWDFile15SliderAttributeC2Ev {
}
Symbol _Z16ENDIAN_CONVERT16j {
}
Symbol _Z17ENDIAN_CONVERT32Ff {
}
Symbol _Z16ENDIAN_CONVERT64d {
}
Symbol _Z12UTF8FromUCS2PKwjPcj {
}
Symbol _Z12UCS2FromUTF8PKciPwi {
}
Symbol _ZN8TWStringC1EPKwi {
}
Symbol _Z15LoadTilconImagePhiR6TImage {
}
Symbol _ZN7TWDFile12ParsePictureEPhiRNS_16PictureAttributeE {
}
Symbol _ZN7TWDFile16PictureAttributeC1Ev {
}
Symbol _ZN7TWDFile16PictureAttributeD1Ev {
}
Symbol _ZN8TPictureC1EiiiiRK6TImage {
}
Symbol _ZN8TPicture8SetImageERK6TImage {
}
Symbol _ZN7TWDFile10ParsePanelEPhiRNS_14PanelAttributeE {
}
Symbol _ZN7TWDFile11BranchPanelEiPiRNS_14PanelAttributeE {
}
Symbol _ZTV6TArrayIN7TWDFile18RadioItemAttributeEE {
}
Symbol _ZTI6TArrayIN7TWDFile18RadioItemAttributeEE {
}
Symbol _ZTS6TArrayIN7TWDFile18RadioItemAttributeEE {
}
Symbol _ZN6TArrayIN7TWDFile18RadioItemAttributeEED1Ev {
}
Symbol _ZN7TWDFile18RadioItemAttributeD1Ev {
}
Symbol _ZN6TArrayIN7TWDFile18RadioItemAttributeEED0Ev {
}
Symbol _ZN6TArrayIN7TWDFile18RadioItemAttributeEE13RoundCapacityEi {
}
Symbol _ZN7TWDFile14ImageAttributeaSERKS0_ {
}
Symbol _ZN7TWDFile18RadioItemAttributeaSERKS0_ {
}
Symbol _ZN6TArrayIN7TWDFile18RadioItemAttributeEE8ExpandAtEii {
}
Symbol _ZN7TWDFile18RadioItemAttributeC1Ev {
}
Symbol _ZN6TArrayIN7TWDFile18RadioItemAttributeEE8InsertAtEiRKS1_ {
}
Symbol _ZNK6TArrayIN7TWDFile18RadioItemAttributeEEixEi {
}
Symbol _ZN7TWDFile17BranchRadioButtonEiPiRNS_20RadioButtonAttributeE {
}
Symbol _ZN7TWDFile16ParseRadioButtonEPhiRNS_20RadioButtonAttributeE {
}
Symbol _ZN7TWDFile20RadioButtonAttributeC1Ev {
}
Symbol _ZN7TWDFile20RadioButtonAttributeD1Ev {
}
Symbol _ZN12TRadioButtonC1Eiiii {
}
Symbol _ZN12TRadioButton7AddItemERK8TWString {
}
Symbol _ZN12TRadioButton23SetUncheckedFrameVisualEiRK13TCustomVisual {
}
Symbol _ZN12TRadioButton21SetCheckedFrameVisualEiRK13TCustomVisual {
}
Symbol _ZN12TRadioButton27SetUncheckedIndicatorVisualEiRK13TCustomVisual {
}
Symbol _ZN12TRadioButton25SetCheckedIndicatorVisualEiRK13TCustomVisual {
}
Symbol _ZN12TRadioButton14SetItemsPerRowEi {
}
Symbol _ZN7TWDFile18RadioItemAttributeC2Ev {
}
Symbol _ZN7TWDFile20RadioButtonAttributeC2Ev {
}
Symbol _ZN6TArrayIN7TWDFile23MultiStateItemAttributeEE13RoundCapacityEi {
}
Symbol _ZN6TArrayIN7TWDFile23MultiStateItemAttributeEE8ExpandAtEii {
}
Symbol _ZN7TWDFile23MultiStateItemAttributeC1Ev {
}
Symbol _ZN6TArrayIN7TWDFile23MultiStateItemAttributeEE8InsertAtEiRKS1_ {
}
Symbol _ZNK6TArrayIN7TWDFile23MultiStateItemAttributeEEixEi {
}
Symbol _ZN7TWDFile16BranchMultiStateEiPiRNS_19MultiStateAttributeE {
}
Symbol _ZN7TWDFile15ParseMultiStateEPhiRNS_19MultiStateAttributeE {
}
Symbol _ZN7TWDFile19MultiStateAttributeD1Ev {
}
Symbol _ZN17TMultiStateButtonC1Eiiiii {
}
Symbol _ZN17TMultiStateButton14SetStateVisualEiRK13TCustomVisual {
}
Symbol _ZN7TWDFile15BranchNumberBoxEiPiRNS_18NumberBoxAttributeE {
}
Symbol _ZN7TWDFile14ParseNumberBoxEPhiRNS_18NumberBoxAttributeE {
}
Symbol _ZN7TWDFile18NumberBoxAttributeC1Ev {
}
Symbol _ZN7TWDFile18NumberBoxAttributeD1Ev {
}
Symbol _ZN8TSpinBoxC1Eiiii {
}
Symbol _ZN7TWDFile18NumberBoxAttributeC2Ev {
}
Symbol _ZN7TWDFile11BranchLabelEiPiRNS_14LabelAttributeE {
}
Symbol _ZN7TWDFile10ParseLabelEPhiRNS_14LabelAttributeE {
}
Symbol _ZN6TLabelC1EiiiiRK8TWString {
}
Symbol _ZNK6TLabel11GetPropertyEv {
}
Symbol _ZN6TLabel11SetPropertyERKNS_8PropertyE {
}
Symbol _ZN6TLabel8PropertyD1Ev {
}
Symbol _ZTV17TMultiStateButton {
}
Symbol _ZTV6TArrayIN17TMultiStateButton5StateEE {
}
Symbol _ZTVN7_TEventI10EventParamE17MemberFuncHandlerI17TMultiStateButtonEE {
}
Symbol _ZTIN7_TEventI10EventParamE17MemberFuncHandlerI17TMultiStateButtonEE {
}
Symbol _ZTI6TArrayIN17TMultiStateButton5StateEE {
}
Symbol _ZTI17TMultiStateButton {
}
Symbol _ZTSN7_TEventI10EventParamE17MemberFuncHandlerI17TMultiStateButtonEE {
}
Symbol _ZTS6TArrayIN17TMultiStateButton5StateEE {
}
Symbol _ZTS17TMultiStateButton {
}
Symbol _ZN7_TEventI10EventParamE10SetHandlerI17TMultiStateButtonEEvPT_NS1_17MemberFuncHandlerIS4_E8FuncTypeE {
}
Symbol _ZN7_TEventI10EventParamE17MemberFuncHandlerI17TMultiStateButtonED1Ev {
}
Symbol _ZN7_TEventI10EventParamE17MemberFuncHandlerI17TMultiStateButtonED0Ev {
}
Symbol _ZNK7_TEventI10EventParamE17MemberFuncHandlerI17TMultiStateButtonE6InvokeERS0_ {
}
Symbol _ZN7_TEventI10EventParamE17MemberFuncHandlerI17TMultiStateButtonE3dupEv {
}
Symbol _ZN12TextPropertyC1ERKS_ {
}
Symbol _ZN8_TMarginIiEC1ERKS0_ {
}
Symbol _ZN6TArrayIN17TMultiStateButton5StateEE13RoundCapacityEi {
}
Symbol _ZN6TArrayIN17TMultiStateButton5StateEE8ExpandAtEii {
}
Symbol _ZN17TMultiStateButton5StateD1Ev {
}
Symbol _ZN17TMultiStateButton5StateC1Ev {
}
Symbol _ZN6TArrayIN17TMultiStateButton5StateEEC1Ei {
}
Symbol _ZN6TArrayIN17TMultiStateButton5StateEED1Ev {
}
Symbol _ZN6TArrayIN17TMultiStateButton5StateEED0Ev {
}
Symbol _ZNK6TArrayIN17TMultiStateButton5StateEEixEi {
}
Symbol _ZN17TMultiStateButton11SetPropertyERKNS_8PropertyE {
}
Symbol _ZN17TMultiStateButton8PropertyC1Ev {
}
Symbol _ZN17TMultiStateButton8PropertyD1Ev {
}
Symbol _ZN17TMultiStateButton8PropertyC1ERKS0_ {
}
Symbol _ZN17TMultiStateButtonC2Eiiiii {
}
Symbol _ZN17TMultiStateButtonD1Ev {
}
Symbol _ZN17TMultiStateButtonD0Ev {
}
Symbol _ZN17TMultiStateButtonD2Ev {
}
Symbol _ZNK17TMultiStateButton11GetPropertyEv {
}
Symbol _ZN17TMultiStateButton11ChangeStateEi {
}
Symbol _ZN17TMultiStateButton8SetStateEi {
}
Symbol _ZNK17TMultiStateButton8GetStateEv {
}
Symbol _ZN17TMultiStateButton12SetStateTextEiRK8TWString {
}
Symbol _ZNK17TMultiStateButton12GetStateTextEi {
}
Symbol _ZNK17TMultiStateButton14GetStateVisualEi {
}
Symbol _ZN17TMultiStateButton12PaintHandlerER10EventParam {
}
Symbol _ZN17TMultiStateButton9StepStateEv {
}
Symbol _ZN17TMultiStateButton12MouseHandlerER10EventParam {
}
Symbol _ZN17TMultiStateButton11NodeHandlerER10EventParam {
}
Symbol _ZN17TMultiStateButton8PropertyC2Ev {
}
Symbol _ZN17TMultiStateButton8PropertyD2Ev {
}
Symbol _ZTV15TPushButtonNode {
}
Symbol _ZTVN7_TEventI10EventParamE17MemberFuncHandlerI15TPushButtonNodeEE {
}
Symbol _ZTIN7_TEventI10EventParamE17MemberFuncHandlerI15TPushButtonNodeEE {
}
Symbol _ZTI15TPushButtonNode {
}
Symbol _ZTSN7_TEventI10EventParamE17MemberFuncHandlerI15TPushButtonNodeEE {
}
Symbol _ZTS15TPushButtonNode {
}
Symbol _ZN7_TEventI10EventParamE10SetHandlerI15TPushButtonNodeEEvPT_NS1_17MemberFuncHandlerIS4_E8FuncTypeE {
}
Symbol _ZN7_TEventI10EventParamE17MemberFuncHandlerI15TPushButtonNodeED1Ev {
}
Symbol _ZN7_TEventI10EventParamE17MemberFuncHandlerI15TPushButtonNodeED0Ev {
}
Symbol _ZNK7_TEventI10EventParamE17MemberFuncHandlerI15TPushButtonNodeE6InvokeERS0_ {
}
Symbol _ZN7_TEventI10EventParamE17MemberFuncHandlerI15TPushButtonNodeE3dupEv {
}
Symbol _ZN6TTimerC1Ev {
}
Symbol _ZN15TPushButtonNodeC1EiiiiR7TVisualR12TextProperty {
}
Symbol _ZN15TPushButtonNodeC2EiiiiR7TVisualR12TextProperty {
}
Symbol _ZN15TPushButtonNodeD1Ev {
}
Symbol _ZN15TPushButtonNodeD0Ev {
}
Symbol _ZN15TPushButtonNodeD2Ev {
}
Symbol _ZN15TPushButtonNode5ClickEv {
}
Symbol _ZN15TPushButtonNode7OnPaintERN5TNode15PaintEventParamE {
}
Symbol _ZN15TPushButtonNode7OnMouseERN5TNode15MouseEventParamE {
}
Symbol _ZN15TPushButtonNode11NodeHandlerER10EventParam {
}
Symbol _ZN15TPushButtonNode18RepeatTimerHandlerER10EventParam {
}
Symbol _ZN15TPushButtonNode8OnDetachER10EventParam {
}
Symbol _ZTV11TPushButton {
}
Symbol _ZTVN7_TEventI10EventParamE17MemberFuncHandlerI11TPushButtonEE {
}
Symbol _ZTIN7_TEventI10EventParamE17MemberFuncHandlerI11TPushButtonEE {
}
Symbol _ZTI11TPushButton {
}
Symbol _ZTSN7_TEventI10EventParamE17MemberFuncHandlerI11TPushButtonEE {
}
Symbol _ZTS11TPushButton {
}
Symbol _ZN7_TEventI10EventParamE10SetHandlerI11TPushButtonEEvPT_NS1_17MemberFuncHandlerIS4_E8FuncTypeE {
}
Symbol _ZN7_TEventI10EventParamE17MemberFuncHandlerI11TPushButtonED1Ev {
}
Symbol _ZN7_TEventI10EventParamE17MemberFuncHandlerI11TPushButtonED0Ev {
}
Symbol _ZNK7_TEventI10EventParamE17MemberFuncHandlerI11TPushButtonE6InvokeERS0_ {
}
Symbol _ZN7_TEventI10EventParamE17MemberFuncHandlerI11TPushButtonE3dupEv {
}
Symbol _ZN13TCustomVisualC1ERKS_ {
}
Symbol _ZN15TPushButtonNode11SetShowTextEi {
}
Symbol _ZN11TPushButton8PropertyC1Ev {
}
Symbol _ZN11TPushButton8PropertyC1ERKS0_ {
}
Symbol _ZN11TPushButtonC2Eiiii {
}
Symbol _ZN11TPushButtonD1Ev {
}
Symbol _ZN11TPushButtonD0Ev {
}
Symbol _ZN11TPushButtonD2Ev {
}
Symbol _ZN11TPushButton5ClickEv {
}
Symbol _ZN11TPushButton16NodeClickHandlerER10EventParam {
}
Symbol _ZN11TPushButton8PropertyC2Ev {
}
Symbol _ZN11TPushButton8PropertyD2Ev {
}
Symbol _ZTV13TToggleButton {
}
Symbol _ZTVN7_TEventI10EventParamE17MemberFuncHandlerI13TToggleButtonEE {
}
Symbol _ZTIN7_TEventI10EventParamE17MemberFuncHandlerI13TToggleButtonEE {
}
Symbol _ZTI13TToggleButton {
}
Symbol _ZTSN7_TEventI10EventParamE17MemberFuncHandlerI13TToggleButtonEE {
}
Symbol _ZTS13TToggleButton {
}
Symbol _ZN7_TEventI10EventParamE10SetHandlerI13TToggleButtonEEvPT_NS1_17MemberFuncHandlerIS4_E8FuncTypeE {
}
Symbol _ZN7_TEventI10EventParamE17MemberFuncHandlerI13TToggleButtonED1Ev {
}
Symbol _ZN7_TEventI10EventParamE17MemberFuncHandlerI13TToggleButtonED0Ev {
}
Symbol _ZNK7_TEventI10EventParamE17MemberFuncHandlerI13TToggleButtonE6InvokeERS0_ {
}
Symbol _ZN7_TEventI10EventParamE17MemberFuncHandlerI13TToggleButtonE3dupEv {
}
Symbol _ZN13TToggleButton8PropertyC1Ev {
}
Symbol _ZN13TToggleButton8PropertyC1ERKS0_ {
}
Symbol _ZN13TToggleButtonC2Eiiii {
}
Symbol _ZN13TToggleButtonD1Ev {
}
Symbol _ZN13TToggleButtonD0Ev {
}
Symbol _ZN13TToggleButtonD2Ev {
}
Symbol _ZN13TToggleButton13ChangeToggledEi {
}
Symbol _ZN13TToggleButton7OnMouseERN5TNode15MouseEventParamE {
}
Symbol _ZN13TToggleButton7OnPaintERN5TNode15PaintEventParamE {
}
Symbol _ZN13TToggleButton11NodeHandlerER10EventParam {
}
Symbol _ZN13TToggleButton8PropertyC2Ev {
}
Symbol _ZN13TToggleButton8PropertyD2Ev {
}
Symbol _ZTV10TChartBody {
}
Symbol _ZTV10TLineChart {
}
Symbol _ZTV6TArrayI8TWStringE {
}
Symbol _ZTV6TArrayIN10TLineChart11ChannelInfoEE {
}
Symbol _ZTVN7_TEventI10EventParamE17MemberFuncHandlerI10TLineChartEE {
}
Symbol _ZTIN7_TEventI10EventParamE17MemberFuncHandlerI10TLineChartEE {
}
Symbol _ZTI6TArrayI8TWStringE {
}
Symbol _ZTI10TChartBody {
}
Symbol _ZTI6TArrayIN10TLineChart11ChannelInfoEE {
}
Symbol _ZTI10TLineChart {
}
Symbol _ZTSN7_TEventI10EventParamE17MemberFuncHandlerI10TLineChartEE {
}
Symbol _ZTS6TArrayI8TWStringE {
}
Symbol _ZTS10TChartBody {
}
Symbol _ZTS6TArrayIN10TLineChart11ChannelInfoEE {
}
Symbol _ZTS10TLineChart {
}
Symbol _ZNK6TColoreqERKS_ {
}
Symbol _ZN8TWStringD1Ev {
}
Symbol _ZN7_TEventI10EventParamE10SetHandlerI10TLineChartEEvPT_NS1_17MemberFuncHandlerIS4_E8FuncTypeE {
}
Symbol _ZN7_TEventI10EventParamE17MemberFuncHandlerI10TLineChartED1Ev {
}
Symbol _ZN7_TEventI10EventParamE17MemberFuncHandlerI10TLineChartED0Ev {
}
Symbol _ZNK7_TEventI10EventParamE17MemberFuncHandlerI10TLineChartE6InvokeERS0_ {
}
Symbol _ZN7_TEventI10EventParamE17MemberFuncHandlerI10TLineChartE3dupEv {
}
Symbol _ZN6TArrayI8TWStringED1Ev {
}
Symbol _ZN6TArrayI8TWStringED0Ev {
}
Symbol _ZN10TChartBody8BodyInfoC1Ev {
}
Symbol _ZN6TScale9ScaleInfoC1Ev {
}
Symbol _ZN10TChartBodyC1Ev {
}
Symbol _ZN10TChartBodyC2Ev {
}
Symbol _ZN10TChartBody8BodyInfoD1Ev {
}
Symbol _ZN10TChartBodyD1Ev {
}
Symbol _ZN10TChartBodyD0Ev {
}
Symbol _ZN10TChartBodyD2Ev {
}
Symbol _ZN10TChartBody14DrawXMajorLineER8TPainterRK6_TRectIiERKNS_8BodyInfoE {
}
Symbol _ZN10TChartBody14DrawXMinorLineER8TPainterRK6_TRectIiERKNS_8BodyInfoE {
}
Symbol _ZN10TChartBody14DrawYMajorLineER8TPainterRK6_TRectIiERKNS_8BodyInfoE {
}
Symbol _ZN10TChartBody14DrawYMinorLineER8TPainterRK6_TRectIiERKNS_8BodyInfoE {
}
Symbol _ZN10TChartBody10DrawXScaleER8TPainterRK6_TRectIiERKNS_8BodyInfoERK6TArrayI8TWStringE {
}
Symbol _ZN6TScale10DrawXScaleER8TPainteriiiRKNS_9ScaleInfoERK6TArrayI8TWStringE {
}
Symbol _ZN10TChartBody10DrawYScaleER8TPainterRK6_TRectIiERKNS_8BodyInfoERK6TArrayI8TWStringE {
}
Symbol _ZN6TScale10DrawYScaleER8TPainteriiiRKNS_9ScaleInfoERK6TArrayI8TWStringE {
}
Symbol _ZN10TChartBody15GenerateXLabelsERK8_TLinearIfERKNS_8BodyInfoER6TArrayI8TWStringE {
}
Symbol _ZN6TScale14GenerateLabelsERK8_TLinearIfERKNS_9ScaleInfoER6TArrayI8TWStringE {
}
Symbol _ZN10TChartBody15GenerateYLabelsERK8_TLinearIfERKNS_8BodyInfoER6TArrayI8TWStringE {
}
Symbol _ZNK10TChartBody16GetCurveAreaRectERK6_TRectIiE {
}
Symbol _ZN10TChartBody8DrawBodyER8TPainterRK6_TRectIiE {
}
Symbol _ZN6TArrayIN10TLineChart11ChannelInfoEE13RoundCapacityEi {
}
Symbol _ZN10TLineChart11ChannelInfoaSERKS0_ {
}
Symbol _ZN6TArrayIN10TLineChart11ChannelInfoEE8ExpandAtEii {
}
Symbol _ZN10TLineChart11ChannelInfoD1Ev {
}
Symbol _ZN10TLineChart11ChannelInfoC1Ev {
}
Symbol _ZN6TArrayIN10TLineChart11ChannelInfoEEC1Ei {
}
Symbol _ZN6TArrayIN10TLineChart11ChannelInfoEED1Ev {
}
Symbol _ZN6TArrayIN10TLineChart11ChannelInfoEED0Ev {
}
Symbol _ZNK6TArrayIN10TLineChart11ChannelInfoEEixEi {
}
Symbol _ZN10TLineChart10ScrollData6ResizeEj {
}
Symbol _ZN10TLineChart9SweepData6ResizeEj {
}
Symbol _ZN10TLineChart11SetDataSizeEj {
}
Symbol _ZN10TLineChartC2Eiiiijj {
}
Symbol _ZN10TLineChartD1Ev {
}
Symbol _ZN10TLineChartD0Ev {
}
Symbol _ZN10TLineChartD2Ev {
}
Symbol _ZN10TLineChart17SetChannelVisibleEii {
}
Symbol _ZN10TLineChart19SetChannelAmplifierEif {
}
Symbol _ZN10TLineChart16SetChannelOffsetEif {
}
Symbol _ZN10TLineChart13SetChannelPenEiRK4TPen {
}
Symbol _ZN10TLineChart15SetChannelBrushEiRK6TBrush {
}
Symbol _ZN10TLineChart19DrawScrollLineChartER8TPainterRK6_TRectIiERK8_TLinearIfERKNS_11ChannelInfoE {
}
Symbol __urem32 {
}
Symbol _ZN10TLineChart18DrawSweepLineChartER8TPainterRK6_TRectIiERK8_TLinearIfERKNS_11ChannelInfoE {
}
Symbol _ZN10TLineChart7OnPaintERN5TNode15PaintEventParamE {
}
Symbol _ZN10TLineChart11NodeHandlerER10EventParam {
}
Symbol _ZTV9TCheckBox {
}
Symbol _ZTVN7_TEventI10EventParamE17MemberFuncHandlerI9TCheckBoxEE {
}
Symbol _ZTIN7_TEventI10EventParamE17MemberFuncHandlerI9TCheckBoxEE {
}
Symbol _ZTI9TCheckBox {
}
Symbol _ZTSN7_TEventI10EventParamE17MemberFuncHandlerI9TCheckBoxEE {
}
Symbol _ZTS9TCheckBox {
}
Symbol _ZN8TWStringC1ERKS_ {
}
Symbol _ZN7_TEventI10EventParamE10SetHandlerI9TCheckBoxEEvPT_NS1_17MemberFuncHandlerIS4_E8FuncTypeE {
}
Symbol _ZN7_TEventI10EventParamE17MemberFuncHandlerI9TCheckBoxED1Ev {
}
Symbol _ZN7_TEventI10EventParamE17MemberFuncHandlerI9TCheckBoxED0Ev {
}
Symbol _ZNK7_TEventI10EventParamE17MemberFuncHandlerI9TCheckBoxE6InvokeERS0_ {
}
Symbol _ZN7_TEventI10EventParamE17MemberFuncHandlerI9TCheckBoxE3dupEv {
}
Symbol _ZN9TCheckBox11SetPropertyERKNS_8PropertyE {
}
Symbol _ZN9TCheckBox8PropertyC1Ev {
}
Symbol _ZN9TCheckBox8PropertyD1Ev {
}
Symbol _ZN9TCheckBox8PropertyC1ERKS0_ {
}
Symbol _ZN9TCheckBoxC2EiiiiRK8TWString {
}
Symbol _ZN9TCheckBoxD1Ev {
}
Symbol _ZN9TCheckBoxD0Ev {
}
Symbol _ZN9TCheckBoxD2Ev {
}
Symbol _ZNK9TCheckBox11GetPropertyEv {
}
Symbol _ZN9TCheckBox13ChangeCheckedEi {
}
Symbol _ZN9TCheckBox7OnMouseERN5TNode15MouseEventParamE {
}
Symbol _ZN9TCheckBox7OnPaintERN5TNode15PaintEventParamE {
}
Symbol _ZN9TCheckBox11NodeHandlerER10EventParam {
}
Symbol _ZN9TCheckBox8PropertyC2Ev {
}
Symbol _ZN9TCheckBox8PropertyD2Ev {
}
Symbol _ZTV9TComboBox {
}
Symbol _ZTVN7_TEventI10EventParamE17MemberFuncHandlerI9TComboBoxEE {
}
Symbol _ZTIN7_TEventI10EventParamE17MemberFuncHandlerI9TComboBoxEE {
}
Symbol _ZTI9TComboBox {
}
Symbol _ZTSN7_TEventI10EventParamE17MemberFuncHandlerI9TComboBoxEE {
}
Symbol _ZTS9TComboBox {
}
Symbol _ZN10TNodeArrayC1EiiiiP14TEventDelegatei {
}
Symbol _ZN7_TEventI10EventParamE10SetHandlerI9TComboBoxEEvPT_NS1_17MemberFuncHandlerIS4_E8FuncTypeE {
}
Symbol _ZN7_TEventI10EventParamE17MemberFuncHandlerI9TComboBoxED1Ev {
}
Symbol _ZN7_TEventI10EventParamE17MemberFuncHandlerI9TComboBoxED0Ev {
}
Symbol _ZNK7_TEventI10EventParamE17MemberFuncHandlerI9TComboBoxE6InvokeERS0_ {
}
Symbol _ZN7_TEventI10EventParamE17MemberFuncHandlerI9TComboBoxE3dupEv {
}
Symbol _ZN11TGridLayout13SetColumnSizeEiNS_12LayoutMethodEi {
}
Symbol _ZN9TComboBox11SetPropertyERKNS_8PropertyE {
}
Symbol _ZNK8TListBox11GetPropertyEv {
}
Symbol _ZN8TListBox11SetPropertyERKNS_8PropertyE {
}
Symbol _ZN8TListBox8PropertyD1Ev {
}
Symbol _ZN9TComboBox8PropertyC1Ev {
}
Symbol _ZN9TComboBox8PropertyD1Ev {
}
Symbol _ZN9TComboBox8PropertyC1ERKS0_ {
}
Symbol _ZN9TEditNodeC1EiiiiR8_TMarginIiER7TVisualR12TextPropertyRK8TWString {
}
Symbol _ZN9TEditNodeD1Ev {
}
Symbol _ZN8TListBoxD1Ev {
}
Symbol _ZN9TComboBoxC2Eiiii {
}
Symbol _ZN9TComboBoxD1Ev {
}
Symbol _ZN9TComboBoxD0Ev {
}
Symbol _ZN9TComboBoxD2Ev {
}
Symbol _ZNK9TComboBox11GetPropertyEv {
}
Symbol _ZN9TComboBox12SetSelectionEi {
}
Symbol _ZNK8TListBox11GetItemTextEii {
}
Symbol _ZN9TComboBox13ResizeHandlerER10EventParam {
}
Symbol _ZN9TComboBox13CloseDropdownEv {
}
Symbol _ZN9TComboBox12MouseHandlerER10EventParam {
}
Symbol _ZN9TComboBox13DetachHandlerER10EventParam {
}
Symbol _ZN9TComboBox12OpenDropdownEv {
}
Symbol _ZN8TListBox19SetFixedColumnWidthEii {
}
Symbol _ZN8TListBox11ResetScrollEv {
}
Symbol _ZN9TComboBox11NodeHandlerER10EventParam {
}
Symbol _ZN9TComboBox16ItemClickHandlerER10EventParam {
}
Symbol _ZN9TComboBox8PropertyC2Ev {
}
Symbol _ZN9TComboBox8PropertyD2Ev {
}
Symbol _ZTV14TCustomControl {
}
Symbol _ZTI14TCustomControl {
}
Symbol _ZTS14TCustomControl {
}
Symbol _ZN14TCustomControlC1Eiiii {
}
Symbol _ZN14TCustomControlC2Eiiii {
}
Symbol _ZN14TCustomControlD1Ev {
}
Symbol _ZN14TCustomControlD0Ev {
}
Symbol _ZN14TCustomControlD2Ev {
}
Symbol _ZN14TCustomControl7OnEventER10EventParam {
}
Symbol _ZThn144_N14TCustomControl7OnEventER10EventParam {
}
Symbol _ZTV9TGroupBox {
}
Symbol _ZTVN7_TEventI10EventParamE17MemberFuncHandlerI9TGroupBoxEE {
}
Symbol _ZTIN7_TEventI10EventParamE17MemberFuncHandlerI9TGroupBoxEE {
}
Symbol _ZTI9TGroupBox {
}
Symbol _ZTSN7_TEventI10EventParamE17MemberFuncHandlerI9TGroupBoxEE {
}
Symbol _ZTS9TGroupBox {
}
Symbol _ZN7_TEventI10EventParamE10SetHandlerI9TGroupBoxEEvPT_NS1_17MemberFuncHandlerIS4_E8FuncTypeE {
}
Symbol _ZN7_TEventI10EventParamE17MemberFuncHandlerI9TGroupBoxED1Ev {
}
Symbol _ZN7_TEventI10EventParamE17MemberFuncHandlerI9TGroupBoxED0Ev {
}
Symbol _ZNK7_TEventI10EventParamE17MemberFuncHandlerI9TGroupBoxE6InvokeERS0_ {
}
Symbol _ZN7_TEventI10EventParamE17MemberFuncHandlerI9TGroupBoxE3dupEv {
}
Symbol _ZN9TGroupBox11SetPropertyERKNS_8PropertyE {
}
Symbol _ZN9TGroupBox8PropertyC1Ev {
}
Symbol _ZN9TGroupBox8PropertyD1Ev {
}
Symbol _ZN9TGroupBox8PropertyC1ERKS0_ {
}
Symbol _ZN9TGroupBoxC1EiiiiRK8TWString {
}
Symbol _ZN9TGroupBoxC2EiiiiRK8TWString {
}
Symbol _ZN9TGroupBoxD1Ev {
}
Symbol _ZN9TGroupBoxD0Ev {
}
Symbol _ZN9TGroupBoxD2Ev {
}
Symbol _ZNK9TGroupBox11GetPropertyEv {
}
Symbol _ZN9TGroupBox13ResizeHandlerER10EventParam {
}
Symbol _ZN9TGroupBox11NodeHandlerER10EventParam {
}
Symbol _ZN9TGroupBox8PropertyC2Ev {
}
Symbol _ZN9TGroupBox8PropertyD2Ev {
}
Symbol _ZTVN9TRowPanel19RowChildrenDelegateE {
}
Symbol _ZTV9TRowPanel {
}
Symbol _ZTVN7_TEventI10EventParamE17MemberFuncHandlerI9TRowPanelEE {
}
Symbol _ZTIN7_TEventI10EventParamE17MemberFuncHandlerI9TRowPanelEE {
}
Symbol _ZTI9TRowPanel {
}
Symbol _ZTIN9TRowPanel19RowChildrenDelegateE {
}
Symbol _ZTSN7_TEventI10EventParamE17MemberFuncHandlerI9TRowPanelEE {
}
Symbol _ZTS9TRowPanel {
}
Symbol _ZTSN9TRowPanel19RowChildrenDelegateE {
}
Symbol _ZN7_TEventI10EventParamE10SetHandlerI9TRowPanelEEvPT_NS1_17MemberFuncHandlerIS4_E8FuncTypeE {
}
Symbol _ZN7_TEventI10EventParamE17MemberFuncHandlerI9TRowPanelED1Ev {
}
Symbol _ZN7_TEventI10EventParamE17MemberFuncHandlerI9TRowPanelED0Ev {
}
Symbol _ZNK7_TEventI10EventParamE17MemberFuncHandlerI9TRowPanelE6InvokeERS0_ {
}
Symbol _ZN7_TEventI10EventParamE17MemberFuncHandlerI9TRowPanelE3dupEv {
}
Symbol _ZN9TRowPanelC1Eiiii {
}
Symbol _ZN9TRowPanelC2Eiiii {
}
Symbol _ZN9TRowPanelD1Ev {
}
Symbol _ZN9TRowPanelD0Ev {
}
Symbol _ZN9TRowPanelD2Ev {
}
Symbol _ZN9TRowPanel10AddControlEP8TControli {
}
Symbol _ZN9TRowPanel15AddControlAtTopEP8TControl {
}
Symbol _ZN9TRowPanel18AddControlAtBottomEP8TControl {
}
Symbol _ZN9TRowPanel13RemoveControlEP8TControl {
}
Symbol _ZN9TRowPanel17RemoveAllControlsEv {
}
Symbol _ZNK9TRowPanel5CountEv {
}
Symbol _ZNK9TRowPanelixEi {
}
Symbol _ZNK9TRowPanel7IndexOfEPK8TControl {
}
Symbol _ZN9TRowPanel15UpdateRowLayoutERK6_TRectIiE {
}
Symbol _ZN9TRowPanel8OnResizeEv {
}
Symbol _ZN9TRowPanel18OnChildBoundChangeEP8TControl {
}
Symbol _ZN9TRowPanel10OnSizeHintERN5TNode18SizeHintEventParamE {
}
Symbol _ZN9TRowPanel11NodeHandlerER10EventParam {
}
Symbol _ZNK9TRowPanel19RowChildrenDelegate8GetCountEv {
}
Symbol _ZN9TRowPanel19RowChildrenDelegate7GetNodeEi {
}
Symbol _ZTV10TGridPanel {
}
Symbol _ZTVN10TGridPanel20GridChildrenDelegateE {
}
Symbol _ZTV6TArrayIN10TGridPanel8GridUnitEE {
}
Symbol _ZTVN7_TEventI10EventParamE17MemberFuncHandlerI10TGridPanelEE {
}
Symbol _ZTIN7_TEventI10EventParamE17MemberFuncHandlerI10TGridPanelEE {
}
Symbol _ZTI6TArrayIN10TGridPanel8GridUnitEE {
}
Symbol _ZTI10TGridPanel {
}
Symbol _ZTIN10TGridPanel20GridChildrenDelegateE {
}
Symbol _ZTSN7_TEventI10EventParamE17MemberFuncHandlerI10TGridPanelEE {
}
Symbol _ZTS6TArrayIN10TGridPanel8GridUnitEE {
}
Symbol _ZTS10TGridPanel {
}
Symbol _ZTSN10TGridPanel20GridChildrenDelegateE {
}
Symbol _ZN7_TEventI10EventParamE10SetHandlerI10TGridPanelEEvPT_NS1_17MemberFuncHandlerIS4_E8FuncTypeE {
}
Symbol _ZN7_TEventI10EventParamE17MemberFuncHandlerI10TGridPanelED1Ev {
}
Symbol _ZN7_TEventI10EventParamE17MemberFuncHandlerI10TGridPanelED0Ev {
}
Symbol _ZNK7_TEventI10EventParamE17MemberFuncHandlerI10TGridPanelE6InvokeERS0_ {
}
Symbol _ZN7_TEventI10EventParamE17MemberFuncHandlerI10TGridPanelE3dupEv {
}
Symbol _ZN6TArrayIN10TGridPanel8GridUnitEED1Ev {
}
Symbol _ZN10TGridPanel8GridUnitD1Ev {
}
Symbol _ZN6TArrayIN10TGridPanel8GridUnitEED0Ev {
}
Symbol _ZN6TArrayIN10TGridPanel8GridUnitEE13RoundCapacityEi {
}
Symbol _ZN6TArrayIN10TGridPanel8GridUnitEE8ExpandAtEii {
}
Symbol _ZN10TGridPanel8GridUnitC1Ev {
}
Symbol _ZN6TArrayIN10TGridPanel8GridUnitEE8InsertAtEiRKS1_ {
}
Symbol _ZN6TArrayIN10TGridPanel8GridUnitEE8ShrinkAtEii {
}
Symbol _ZN6TArrayIN10TGridPanel8GridUnitEE8RemoveAtEi {
}
Symbol _ZN6TArrayIN10TGridPanel8GridUnitEE5ClearEv {
}
Symbol _ZNK6TArrayIN10TGridPanel8GridUnitEEixEi {
}
Symbol _ZN10TGridPanelC1Eiiiiii {
}
Symbol _ZN10TGridPanelC2Eiiiiii {
}
Symbol _ZN10TGridPanelD1Ev {
}
Symbol _ZN10TGridPanelD0Ev {
}
Symbol _ZN10TGridPanelD2Ev {
}
Symbol _ZN10TGridPanel10AddControlEP8TControliRK8GridCell {
}
Symbol _ZN10TGridPanel15AddControlAtTopEP8TControlRK8GridCell {
}
Symbol _ZN10TGridPanel18AddControlAtBottomEP8TControlRK8GridCell {
}
Symbol _ZN10TGridPanel13RemoveControlEP8TControl {
}
Symbol _ZN10TGridPanel17RemoveAllControlsEv {
}
Symbol _ZNK10TGridPanel7IndexOfEPK8TControl {
}
Symbol _ZN10TGridPanel16SetChildGridCellEP8TControlRK8GridCell {
}
Symbol _ZN10TGridPanel8OnResizeEv {
}
Symbol _ZN10TGridPanel11NodeHandlerER10EventParam {
}
Symbol _ZN10TGridPanel18OnChildBoundChangeEP8TControl {
}
Symbol _ZNK10TGridPanel20GridChildrenDelegate8GetCountEv {
}
Symbol _ZN10TGridPanel20GridChildrenDelegate7GetNodeEi {
}
Symbol _ZTV8TListBox {
}
Symbol _ZTV6TArrayIP8TWStringE {
}
Symbol _ZTVN7_TEventI10EventParamE17MemberFuncHandlerI8TListBoxEE {
}
Symbol _ZTIN7_TEventI10EventParamE17MemberFuncHandlerI8TListBoxEE {
}
Symbol _ZTI6TArrayIP8TWStringE {
}
Symbol _ZTI8TListBox {
}
Symbol _ZTSN7_TEventI10EventParamE17MemberFuncHandlerI8TListBoxEE {
}
Symbol _ZTS6TArrayIP8TWStringE {
}
Symbol _ZTS8TListBox {
}
Symbol _ZN7_TEventI10EventParamE10SetHandlerI8TListBoxEEvPT_NS1_17MemberFuncHandlerIS4_E8FuncTypeE {
}
Symbol _ZN7_TEventI10EventParamE17MemberFuncHandlerI8TListBoxED1Ev {
}
Symbol _ZN7_TEventI10EventParamE17MemberFuncHandlerI8TListBoxED0Ev {
}
Symbol _ZNK7_TEventI10EventParamE17MemberFuncHandlerI8TListBoxE6InvokeERS0_ {
}
Symbol _ZN7_TEventI10EventParamE17MemberFuncHandlerI8TListBoxE3dupEv {
}
Symbol _ZN14TScrollBarPair20SetScrollBarPairDataERK6_TSizeIiES3_RK7_TPointIiE {
}
Symbol _ZN14TScrollBarNode13SetScrollDataEiii {
}
Symbol _ZN6TArrayIP8TWStringED1Ev {
}
Symbol _ZN6TArrayIP8TWStringED0Ev {
}
Symbol _ZN6TArrayIP8TWStringE13RoundCapacityEi {
}
Symbol _ZN6TArrayIP8TWStringE8ExpandAtEii {
}
Symbol _ZN6TArrayIP8TWStringE8InsertAtEiRKS1_ {
}
Symbol _ZN6TArrayIP8TWStringE8ShrinkAtEii {
}
Symbol _ZN6TArrayIP8TWStringE8RemoveAtEii {
}
Symbol _ZN6TArrayIP8TWStringE5ClearEv {
}
Symbol _ZNK6TArrayIP8TWStringEixEi {
}
Symbol _ZN8TListBox8PropertyC1Ev {
}
Symbol _ZN8TListBox8PropertyC1ERKS0_ {
}
Symbol _ZN13TScrollHelperC1ERK6_TSizeIiES3_ {
}
Symbol _ZN8TListBox13ColHeaderInfoD1Ev {
}
Symbol _ZN8TListBox13ColHeaderInfoC1Ev {
}
Symbol _ZN14TScrollBarPairC1EiiiiR8_TMarginIiER7TVisualR12TextProperty {
}
Symbol _ZN14TScrollBarNode11SetStepSizeEi {
}
Symbol _ZN14TScrollBarPairD1Ev {
}
Symbol _ZN13TScrollHelperD1Ev {
}
Symbol _ZN8TListBoxC2Eiiiii {
}
Symbol _ZN8TListBox9ClearRowsEv {
}
Symbol _ZN14TScrollBarPair12UpdateLayoutEv {
}
Symbol _ZN8TListBoxD0Ev {
}
Symbol _ZN8TListBoxD2Ev {
}
Symbol _ZN13TScrollHelper9XScrollToEiP7_TEventI10EventParamE {
}
Symbol _ZN13TScrollHelper9YScrollToEiP7_TEventI10EventParamE {
}
Symbol _ZN8TListBox11ScrollToRowEi {
}
Symbol _ZN8TListBox9RemoveRowEii {
}
Symbol _ZN8TListBox11SetItemTextEiiRK8TWString {
}
Symbol _ZN8TListBox19SetColumnHeaderTextEiRK8TWString {
}
Symbol _ZNK8TListBox19GetColumnHeaderTextEi {
}
Symbol _ZNK8TListBox19GetFixedColumnWidthEi {
}
Symbol _ZN8TListBox24SetProportionColumnWidthEij {
}
Symbol _ZNK8TListBox24GetProportionColumnWidthEi {
}
Symbol _ZNK8TListBox20GetActualColumnWidthEi {
}
Symbol _ZN8TListBox16UpdateViewLayoutERK6_TSizeIiE {
}
Symbol _ZN13TScrollHelper7SetInfoERK6_TSizeIiES3_RK7_TPointIiEP7_TEventI10EventParamE {
}
Symbol _ZN8TListBox19ClientResizeHandlerER10EventParam {
}
Symbol _ZN8TListBox8DrawListER8TPainter {
}
Symbol _ZN8TListBox16ListPaintHandlerER10EventParam {
}
Symbol _ZN8TListBox16ListMouseHandlerER10EventParam {
}
Symbol _ZN8TListBox10DrawHeaderER8TPainter {
}
Symbol _ZN8TListBox18HeaderPaintHandlerER10EventParam {
}
Symbol _ZN8TListBox18HeaderMouseHandlerER10EventParam {
}
Symbol _ZN8TListBox11NodeHandlerER10EventParam {
}
Symbol _ZN8TListBox26ScrollContentChangeHandlerER10EventParam {
}
Symbol _ZN8TListBox22ScrollBarChangeHandlerER10EventParam {
}
Symbol _ZN8TListBox14HScrollHandlerER10EventParam {
}
Symbol _ZN8TListBox14VScrollHandlerER10EventParam {
}
Symbol _ZN8TListBox16GainFocusHandlerER10EventParam {
}
Symbol _ZN8TListBox16LoseFocusHandlerER10EventParam {
}
Symbol _ZN8TListBox17MouseLeaveHandlerER10EventParam {
}
Symbol _ZN8TListBox28TScrollViewportResizeHandlerER10EventParam {
}
Symbol _ZN8TListBox8PropertyC2Ev {
}
Symbol _ZN8TListBox8PropertyD2Ev {
}
Symbol _ZTV8TPicture {
}
Symbol _ZTVN7_TEventI10EventParamE17MemberFuncHandlerI8TPictureEE {
}
Symbol _ZTIN7_TEventI10EventParamE17MemberFuncHandlerI8TPictureEE {
}
Symbol _ZTI8TPicture {
}
Symbol _ZTSN7_TEventI10EventParamE17MemberFuncHandlerI8TPictureEE {
}
Symbol _ZTS8TPicture {
}
Symbol _ZN7_TEventI10EventParamE10SetHandlerI8TPictureEEvPT_NS1_17MemberFuncHandlerIS4_E8FuncTypeE {
}
Symbol _ZN7_TEventI10EventParamE17MemberFuncHandlerI8TPictureED1Ev {
}
Symbol _ZN7_TEventI10EventParamE17MemberFuncHandlerI8TPictureED0Ev {
}
Symbol _ZNK7_TEventI10EventParamE17MemberFuncHandlerI8TPictureE6InvokeERS0_ {
}
Symbol _ZN7_TEventI10EventParamE17MemberFuncHandlerI8TPictureE3dupEv {
}
Symbol _ZN8TPictureC2EiiiiRK6TImage {
}
Symbol _ZN8TPictureD1Ev {
}
Symbol _ZN8TPictureD0Ev {
}
Symbol _ZN8TPictureD2Ev {
}
Symbol _ZNK8TPicture8GetImageEv {
}
Symbol _ZN8TPicture12PaintHandlerER10EventParam {
}
Symbol _ZN8TPicture11NodeHandlerER10EventParam {
}
Symbol _ZTV12TProgressBar {
}
Symbol _ZTVN7_TEventI10EventParamE17MemberFuncHandlerI12TProgressBarEE {
}
Symbol _ZTIN7_TEventI10EventParamE17MemberFuncHandlerI12TProgressBarEE {
}
Symbol _ZTI12TProgressBar {
}
Symbol _ZTSN7_TEventI10EventParamE17MemberFuncHandlerI12TProgressBarEE {
}
Symbol _ZTS12TProgressBar {
}
Symbol _ZN7_TEventI10EventParamE10SetHandlerI12TProgressBarEEvPT_NS1_17MemberFuncHandlerIS4_E8FuncTypeE {
}
Symbol _ZN7_TEventI10EventParamE17MemberFuncHandlerI12TProgressBarED1Ev {
}
Symbol _ZN7_TEventI10EventParamE17MemberFuncHandlerI12TProgressBarED0Ev {
}
Symbol _ZNK7_TEventI10EventParamE17MemberFuncHandlerI12TProgressBarE6InvokeERS0_ {
}
Symbol _ZN7_TEventI10EventParamE17MemberFuncHandlerI12TProgressBarE3dupEv {
}
Symbol _ZN12TProgressBar11SetPropertyERKNS_8PropertyE {
}
Symbol _ZN12TProgressBar8PropertyC1Ev {
}
Symbol _ZN12TProgressBar8PropertyD1Ev {
}
Symbol _ZN12TProgressBar8PropertyC1ERKS0_ {
}
Symbol _ZN12TProgressBarC1Eiiii15OrientationTypeiii {
}
Symbol _ZN12TProgressBarC2Eiiii15OrientationTypeiii {
}
Symbol _ZN12TProgressBarD1Ev {
}
Symbol _ZN12TProgressBarD0Ev {
}
Symbol _ZN12TProgressBarD2Ev {
}
Symbol _ZNK12TProgressBar11GetPropertyEv {
}
Symbol _ZN12TProgressBar14SetOrientationE15OrientationType {
}
Symbol _ZNK8_TLinearIiE5ClampEi {
}
Symbol _ZN12TProgressBar8SetRangeEii {
}
Symbol _ZN12TProgressBar14ChangeProgressEi {
}
Symbol _ZN12TProgressBar11SetProgressEi {
}
Symbol _ZN12TProgressBar15DrawProgressBarER8TPainter {
}
Symbol _ZN12TProgressBar12PaintHandlerER10EventParam {
}
Symbol _ZN12TProgressBar11NodeHandlerER10EventParam {
}
Symbol _ZN12TProgressBar8PropertyC2Ev {
}
Symbol _ZN12TProgressBar8PropertyD2Ev {
}
Symbol _ZTV12TRadioButton {
}
Symbol _ZTVN12TRadioButton10TRadioItemE {
}
Symbol _ZTVN7_TEventI10EventParamE17MemberFuncHandlerI12TRadioButtonEE {
}
Symbol _ZTIN7_TEventI10EventParamE17MemberFuncHandlerI12TRadioButtonEE {
}
Symbol _ZTI12TRadioButton {
}
Symbol _ZTIN12TRadioButton10TRadioItemE {
}
Symbol _ZTSN7_TEventI10EventParamE17MemberFuncHandlerI12TRadioButtonEE {
}
Symbol _ZTS12TRadioButton {
}
Symbol _ZTSN12TRadioButton10TRadioItemE {
}
Symbol _ZN7_TEventI10EventParamE10SetHandlerI12TRadioButtonEEvPT_NS1_17MemberFuncHandlerIS4_E8FuncTypeE {
}
Symbol _ZN7_TEventI10EventParamE17MemberFuncHandlerI12TRadioButtonED1Ev {
}
Symbol _ZN7_TEventI10EventParamE17MemberFuncHandlerI12TRadioButtonED0Ev {
}
Symbol _ZNK7_TEventI10EventParamE17MemberFuncHandlerI12TRadioButtonE6InvokeERS0_ {
}
Symbol _ZN7_TEventI10EventParamE17MemberFuncHandlerI12TRadioButtonE3dupEv {
}
Symbol _ZN12TRadioButton37SetUncheckedIndicatorVisualToAllItemsERK13TCustomVisual {
}
Symbol _ZN12TRadioButton35SetCheckedIndicatorVisualToAllItemsERK13TCustomVisual {
}
Symbol _ZN12TRadioButton33SetUncheckedFrameVisualToAllItemsERK13TCustomVisual {
}
Symbol _ZN12TRadioButton31SetCheckedFrameVisualToAllItemsERK13TCustomVisual {
}
Symbol _ZN12TRadioButton11SetPropertyERKNS_8PropertyE {
}
Symbol _ZN12TRadioButton8PropertyC1Ev {
}
Symbol _ZN12TRadioButton8PropertyD1Ev {
}
Symbol _ZN12TRadioButton8PropertyC1ERKS0_ {
}
Symbol _ZN12TRadioButtonC2Eiiii {
}
Symbol _ZN12TRadioButton10ClearItemsEv {
}
Symbol _ZN12TRadioButtonD1Ev {
}
Symbol _ZN12TRadioButtonD0Ev {
}
Symbol _ZN12TRadioButtonD2Ev {
}
Symbol _ZNK12TRadioButton11GetPropertyEv {
}
Symbol _ZN12TRadioButton10TRadioItemC1EP14TEventDelegateRK8TWString {
}
Symbol _ZNK12TRadioButton12GetItemCountEv {
}
Symbol _ZNK12TRadioButton12GetSelectionEv {
}
Symbol _ZN12TRadioButton18ChangeSelectedItemEPNS_10TRadioItemE {
}
Symbol _ZN12TRadioButton15ChangeSelectionEi {
}
Symbol _ZN12TRadioButton15SetSelectedItemEPNS_10TRadioItemE {
}
Symbol _ZN12TRadioButton12SetSelectionEi {
}
Symbol _ZN12TRadioButton11OnItemMouseERN5TNode15MouseEventParamE {
}
Symbol _ZN12TRadioButton8OnResizeERN5TNode16ResizeEventParamE {
}
Symbol _ZN12TRadioButton13DrawRadioItemER8TPainterPNS_10TRadioItemE {
}
Symbol _ZN12TRadioButton11NodeHandlerER10EventParam {
}
Symbol _ZN12TRadioButton8PropertyC2Ev {
}
Symbol _ZN12TRadioButton8PropertyD2Ev {
}
Symbol _ZN12TRadioButton10TRadioItemC2EP14TEventDelegateRK8TWString {
}
Symbol _ZN12TRadioButton10TRadioItemD1Ev {
}
Symbol _ZN12TRadioButton10TRadioItemD0Ev {
}
Symbol _ZN12TRadioButton10TRadioItemD2Ev {
}
Symbol _ZN12TRadioButton10TRadioItemaSERKS0_ {
}
Symbol _ZTV6TScale {
}
Symbol _ZTVN7_TEventI10EventParamE17MemberFuncHandlerI6TScaleEE {
}
Symbol _ZTIN7_TEventI10EventParamE17MemberFuncHandlerI6TScaleEE {
}
Symbol _ZTI6TScale {
}
Symbol _ZTSN7_TEventI10EventParamE17MemberFuncHandlerI6TScaleEE {
}
Symbol _ZTS6TScale {
}
Symbol _ZN8TWStringC1ERK7TString {
}
Symbol _ZN7_TEventI10EventParamE10SetHandlerI6TScaleEEvPT_NS1_17MemberFuncHandlerIS4_E8FuncTypeE {
}
Symbol _ZN7_TEventI10EventParamE17MemberFuncHandlerI6TScaleED1Ev {
}
Symbol _ZN7_TEventI10EventParamE17MemberFuncHandlerI6TScaleED0Ev {
}
Symbol _ZNK7_TEventI10EventParamE17MemberFuncHandlerI6TScaleE6InvokeERS0_ {
}
Symbol _ZN7_TEventI10EventParamE17MemberFuncHandlerI6TScaleE3dupEv {
}
Symbol _ZN6TArrayI8TWStringE13RoundCapacityEi {
}
Symbol _ZN6TArrayI8TWStringE8ExpandAtEii {
}
Symbol _ZN6TArrayI8TWStringE8InsertAtEiRKS0_ {
}
Symbol _ZN6TArrayI8TWStringE5ClearEv {
}
Symbol _ZNK6TArrayI8TWStringEixEi {
}
Symbol _ZN6TScale14GenerateLabelsERK8_TLinearIiERKNS_9ScaleInfoER6TArrayI8TWStringE {
}
Symbol _ZN6TScale9ScaleInfoaSERKS0_ {
}
Symbol _ZN6TScale12SetScaleInfoERKNS_9ScaleInfoE {
}
Symbol _ZN6TScale8SetRangeERK8_TLinearIiE {
}
Symbol _ZN6TScaleC1Eiiii15OrientationType {
}
Symbol _ZN6TScaleC2Eiiii15OrientationType {
}
Symbol _ZN6TScaleD1Ev {
}
Symbol _ZN6TScaleD0Ev {
}
Symbol _ZN6TScaleD2Ev {
}
Symbol _ZN6TScale8OnResizeERN5TNode16ResizeEventParamE {
}
Symbol _ZN6TScale7OnPaintERN5TNode15PaintEventParamE {
}
Symbol _ZN6TScale11NodeHandlerER10EventParam {
}
Symbol _ZN6TScale9ScaleInfoC2Ev {
}
Symbol _ZTV11TScrollArea {
}
Symbol _ZTVN7_TEventI10EventParamE17MemberFuncHandlerI11TScrollAreaEE {
}
Symbol _ZTIN7_TEventI10EventParamE17MemberFuncHandlerI11TScrollAreaEE {
}
Symbol _ZTI11TScrollArea {
}
Symbol _ZTSN7_TEventI10EventParamE17MemberFuncHandlerI11TScrollAreaEE {
}
Symbol _ZTS11TScrollArea {
}
Symbol _ZN7_TEventI10EventParamE10SetHandlerI11TScrollAreaEEvPT_NS1_17MemberFuncHandlerIS4_E8FuncTypeE {
}
Symbol _ZN7_TEventI10EventParamE17MemberFuncHandlerI11TScrollAreaED1Ev {
}
Symbol _ZN7_TEventI10EventParamE17MemberFuncHandlerI11TScrollAreaED0Ev {
}
Symbol _ZNK7_TEventI10EventParamE17MemberFuncHandlerI11TScrollAreaE6InvokeERS0_ {
}
Symbol _ZN7_TEventI10EventParamE17MemberFuncHandlerI11TScrollAreaE3dupEv {
}
Symbol _ZN11TScrollArea11SetPropertyERKNS_8PropertyE {
}
Symbol _ZN11TScrollArea8PropertyC1Ev {
}
Symbol _ZN11TScrollArea8PropertyD1Ev {
}
Symbol _ZN11TScrollArea8PropertyC1ERKS0_ {
}
Symbol _ZN11TScrollAreaC2Eiiiiii {
}
Symbol _ZN11TScrollAreaD1Ev {
}
Symbol _ZN11TScrollAreaD0Ev {
}
Symbol _ZN11TScrollAreaD2Ev {
}
Symbol _ZNK11TScrollArea11GetPropertyEv {
}
Symbol _ZNK11TScrollArea17GetScrollAreaSizeEv {
}
Symbol _ZN11TScrollArea16SetScrollAreaPosERK7_TPointIiE {
}
Symbol _ZN14TScrollBarNode12SetScrollPosEi {
}
Symbol _ZNK11TScrollArea16GetScrollAreaPosEv {
}
Symbol _ZN11TScrollArea21UpdateAfterSizeChangeEv {
}
Symbol _ZN11TScrollArea14HScrollHandlerER10EventParam {
}
Symbol _ZN11TScrollArea14VScrollHandlerER10EventParam {
}
Symbol _ZN11TScrollArea28TScrollViewportResizeHandlerER10EventParam {
}
Symbol _ZN11TScrollArea8PropertyC2Ev {
}
Symbol _ZN11TScrollArea8PropertyD2Ev {
}
Symbol _ZTV14TScrollBarPair {
}
Symbol _ZTVN7_TEventI10EventParamE17MemberFuncHandlerI14TScrollBarPairEE {
}
Symbol _ZTIN7_TEventI10EventParamE17MemberFuncHandlerI14TScrollBarPairEE {
}
Symbol _ZTI14TScrollBarPair {
}
Symbol _ZTSN7_TEventI10EventParamE17MemberFuncHandlerI14TScrollBarPairEE {
}
Symbol _ZTS14TScrollBarPair {
}
Symbol _ZN7_TEventI10EventParamE10SetHandlerI14TScrollBarPairEEvPT_NS1_17MemberFuncHandlerIS4_E8FuncTypeE {
}
Symbol _ZN7_TEventI10EventParamE17MemberFuncHandlerI14TScrollBarPairED1Ev {
}
Symbol _ZN7_TEventI10EventParamE17MemberFuncHandlerI14TScrollBarPairED0Ev {
}
Symbol _ZNK7_TEventI10EventParamE17MemberFuncHandlerI14TScrollBarPairE6InvokeERS0_ {
}
Symbol _ZN7_TEventI10EventParamE17MemberFuncHandlerI14TScrollBarPairE3dupEv {
}
Symbol _ZN14TScrollBarNodeC1Eiiii15OrientationTypeiiiR7TVisualS2_S2_S2_R12TextProperty {
}
Symbol _ZN14TScrollBarNodeD1Ev {
}
Symbol _ZN14TScrollBarPairC2EiiiiR8_TMarginIiER7TVisualR12TextProperty {
}
Symbol _ZN14TScrollBarPairD0Ev {
}
Symbol _ZN14TScrollBarPairD2Ev {
}
Symbol _ZN14TScrollBarPair25UpdateScrollBarShowPolicyEv {
}
Symbol _ZN14TScrollBarPair12UpdateLayoutERK6_TSizeIiE {
}
Symbol _ZN14TScrollBarPair13ResizeHandlerER10EventParam {
}
Symbol _ZN14TScrollBarPair11NodeHandlerER10EventParam {
}
Symbol _ZTV13TScrollHelper {
}
Symbol _ZTI13TScrollHelper {
}
Symbol _ZTS13TScrollHelper {
}
Symbol _Z17GetValidScrollPosiii {
}
Symbol _ZN13TScrollHelperC2ERK6_TSizeIiES3_ {
}
Symbol _ZN13TScrollHelperD0Ev {
}
Symbol _ZN13TScrollHelperD2Ev {
}
Symbol _ZN13TScrollHelper6AdjustEP7_TEventI10EventParamE {
}
Symbol _ZN13TScrollHelper12SetTotalSizeERK6_TSizeIiEP7_TEventI10EventParamE {
}
Symbol _ZN13TScrollHelper11SetPageSizeERK6_TSizeIiEP7_TEventI10EventParamE {
}
Symbol _ZN13TScrollHelper7SetInfoERK6_TSizeIiES3_P7_TEventI10EventParamE {
}
Symbol _ZN13TScrollHelper8ScrollToERK7_TPointIiEP7_TEventI10EventParamE {
}
Symbol _ZTV12TScrollThumb {
}
Symbol _ZTV14TScrollBarNode {
}
Symbol _ZTVN7_TEventI10EventParamE17MemberFuncHandlerI14TScrollBarNodeEE {
}
Symbol _ZTIN7_TEventI10EventParamE17MemberFuncHandlerI14TScrollBarNodeEE {
}
Symbol _ZTI12TScrollThumb {
}
Symbol _ZTI14TScrollBarNode {
}
Symbol _ZTSN7_TEventI10EventParamE17MemberFuncHandlerI14TScrollBarNodeEE {
}
Symbol _ZTS12TScrollThumb {
}
Symbol _ZTS14TScrollBarNode {
}
Symbol _ZN7_TEventI10EventParamE10SetHandlerI14TScrollBarNodeEEvPT_NS1_17MemberFuncHandlerIS4_E8FuncTypeE {
}
Symbol _ZN7_TEventI10EventParamE17MemberFuncHandlerI14TScrollBarNodeED1Ev {
}
Symbol _ZN7_TEventI10EventParamE17MemberFuncHandlerI14TScrollBarNodeED0Ev {
}
Symbol _ZNK7_TEventI10EventParamE17MemberFuncHandlerI14TScrollBarNodeE6InvokeERS0_ {
}
Symbol _ZN7_TEventI10EventParamE17MemberFuncHandlerI14TScrollBarNodeE3dupEv {
}
Symbol _ZN12TScrollThumbC1ER5TNodeR7_TEventI10EventParamE {
}
Symbol _ZN12TScrollThumbC2ER5TNodeR7_TEventI10EventParamE {
}
Symbol _ZN12TScrollThumbD1Ev {
}
Symbol _ZN12TScrollThumbD0Ev {
}
Symbol _ZN12TScrollThumbD2Ev {
}
Symbol _ZN12TScrollThumb9BeginDragEi {
}
Symbol _ZN12TScrollThumb4DragEi {
}
Symbol _ZN12TScrollThumb11AdjustThumbEv {
}
Symbol _ZN12TScrollThumb7EndDragEi {
}
Symbol _ZNK12TScrollThumb11GetThumbLenEv {
}
Symbol _ZNK12TScrollThumb11GetThumbPosEv {
}
Symbol _ZN12TScrollThumb22SetTrackAndThumbLengthEii {
}
Symbol _ZN12TScrollThumb12SetScrollPosEi {
}
Symbol _ZN12TScrollThumb13SetScrollDataEiii {
}
Symbol _ZN12TScrollThumb8ScrollToEi {
}
Symbol _ZN12TScrollThumb8ScrollByEi {
}
Symbol _ZN14TScrollBarNode11UpdateThumbEv {
}
Symbol _ZN14TScrollBarNodeC2Eiiii15OrientationTypeiiiR7TVisualS2_S2_S2_R12TextProperty {
}
Symbol _ZN14TScrollBarNodeD0Ev {
}
Symbol _ZN14TScrollBarNodeD2Ev {
}
Symbol _ZN14TScrollBarNode14SetOrientationE15OrientationType {
}
Symbol _ZN14TScrollBarNode8ScrollToEi {
}
Symbol _ZN14TScrollBarNode8ScrollByEi {
}
Symbol _ZN14TScrollBarNode23UpdateArrowAndTrackSizeERK6_TSizeIiE {
}
Symbol _ZN14TScrollBarNode13ResizeHandlerER10EventParam {
}
Symbol _ZN14TScrollBarNode17ThumbMouseHandlerER10EventParam {
}
Symbol _ZN14TScrollBarNode11NodeHandlerER10EventParam {
}
Symbol _ZN14TScrollBarNode20NegativeClickHandlerER10EventParam {
}
Symbol _ZN14TScrollBarNode20PositiveClickHandlerER10EventParam {
}
Symbol _ZTV10TScrollBar {
}
Symbol _ZTVN7_TEventI10EventParamE17MemberFuncHandlerI10TScrollBarEE {
}
Symbol _ZTIN7_TEventI10EventParamE17MemberFuncHandlerI10TScrollBarEE {
}
Symbol _ZTI10TScrollBar {
}
Symbol _ZTSN7_TEventI10EventParamE17MemberFuncHandlerI10TScrollBarEE {
}
Symbol _ZTS10TScrollBar {
}
Symbol _ZN7_TEventI10EventParamE10SetHandlerI10TScrollBarEEvPT_NS1_17MemberFuncHandlerIS4_E8FuncTypeE {
}
Symbol _ZN7_TEventI10EventParamE17MemberFuncHandlerI10TScrollBarED1Ev {
}
Symbol _ZN7_TEventI10EventParamE17MemberFuncHandlerI10TScrollBarED0Ev {
}
Symbol _ZNK7_TEventI10EventParamE17MemberFuncHandlerI10TScrollBarE6InvokeERS0_ {
}
Symbol _ZN7_TEventI10EventParamE17MemberFuncHandlerI10TScrollBarE3dupEv {
}
Symbol _ZN10TScrollBar11SetPropertyERKNS_8PropertyE {
}
Symbol _ZN10TScrollBar8PropertyC1Ev {
}
Symbol _ZN10TScrollBar8PropertyD1Ev {
}
Symbol _ZN10TScrollBar8PropertyC1ERKS0_ {
}
Symbol _ZN10TScrollBarC1Eiiii15OrientationTypeiii {
}
Symbol _ZN10TScrollBarC2Eiiii15OrientationTypeiii {
}
Symbol _ZN10TScrollBarD1Ev {
}
Symbol _ZN10TScrollBarD0Ev {
}
Symbol _ZN10TScrollBarD2Ev {
}
Symbol _ZNK10TScrollBar11GetPropertyEv {
}
Symbol _ZN10TScrollBar14SetOrientationE15OrientationType {
}
Symbol _ZN10TScrollBar13ScrollHandlerER10EventParam {
}
Symbol _ZN10TScrollBar8PropertyC2Ev {
}
Symbol _ZN10TScrollBar8PropertyD2Ev {
}
Symbol _ZTV7TSlider {
}
Symbol _ZTVN7_TEventI10EventParamE17MemberFuncHandlerI7TSliderEE {
}
Symbol _ZTIN7_TEventI10EventParamE17MemberFuncHandlerI7TSliderEE {
}
Symbol _ZTI7TSlider {
}
Symbol _ZTSN7_TEventI10EventParamE17MemberFuncHandlerI7TSliderEE {
}
Symbol _ZTS7TSlider {
}
Symbol _ZN7_TEventI10EventParamE10SetHandlerI7TSliderEEvPT_NS1_17MemberFuncHandlerIS4_E8FuncTypeE {
}
Symbol _ZN7_TEventI10EventParamE17MemberFuncHandlerI7TSliderED1Ev {
}
Symbol _ZN7_TEventI10EventParamE17MemberFuncHandlerI7TSliderED0Ev {
}
Symbol _ZNK7_TEventI10EventParamE17MemberFuncHandlerI7TSliderE6InvokeERS0_ {
}
Symbol _ZN7_TEventI10EventParamE17MemberFuncHandlerI7TSliderE3dupEv {
}
Symbol _ZN7TSlider11SetPropertyERKNS_8PropertyE {
}
Symbol _ZN7TSlider8PropertyC1Ev {
}
Symbol _ZN7TSlider8PropertyD1Ev {
}
Symbol _ZN7TSlider8PropertyC1ERKS0_ {
}
Symbol _ZN7TSliderC2Eiiii15OrientationTypeiii {
}
Symbol _ZN7TSliderD1Ev {
}
Symbol _ZN7TSliderD0Ev {
}
Symbol _ZN7TSliderD2Ev {
}
Symbol _ZNK7TSlider11GetPropertyEv {
}
Symbol _ZN7TSlider14SetOrientationE15OrientationType {
}
Symbol _ZN7TSlider11AdjustThumbEv {
}
Symbol _ZN7TSlider8SetRangeEii {
}
Symbol _ZN7TSlider8SetValueEi {
}
Symbol _ZN7TSlider7SlideToEi {
}
Symbol _ZN7TSlider7SlideByEi {
}
Symbol _ZN7TSlider12UpdateLayoutERK6_TSizeIiE {
}
Symbol _ZN7TSlider13ResizeHandlerER10EventParam {
}
Symbol _ZN7TSlider17ThumbMouseHandlerER10EventParam {
}
Symbol _ZN7TSlider17TrackPaintHandlerER10EventParam {
}
Symbol _ZN7TSlider17ThumbPaintHandlerER10EventParam {
}
Symbol _ZN7TSlider11NodeHandlerER10EventParam {
}
Symbol _ZN7TSlider8PropertyC2Ev {
}
Symbol _ZN7TSlider8PropertyD2Ev {
}
Symbol _ZTV8TSpinBox {
}
Symbol _ZTVN7_TEventI10EventParamE17MemberFuncHandlerI8TSpinBoxEE {
}
Symbol _ZTIN7_TEventI10EventParamE17MemberFuncHandlerI8TSpinBoxEE {
}
Symbol _ZTI8TSpinBox {
}
Symbol _ZTSN7_TEventI10EventParamE17MemberFuncHandlerI8TSpinBoxEE {
}
Symbol _ZTS8TSpinBox {
}
Symbol _ZN7_TEventI10EventParamE10SetHandlerI8TSpinBoxEEvPT_NS1_17MemberFuncHandlerIS4_E8FuncTypeE {
}
Symbol _ZN7_TEventI10EventParamE17MemberFuncHandlerI8TSpinBoxED1Ev {
}
Symbol _ZN7_TEventI10EventParamE17MemberFuncHandlerI8TSpinBoxED0Ev {
}
Symbol _ZNK7_TEventI10EventParamE17MemberFuncHandlerI8TSpinBoxE6InvokeERS0_ {
}
Symbol _ZN7_TEventI10EventParamE17MemberFuncHandlerI8TSpinBoxE3dupEv {
}
Symbol _ZN8TSpinBox11SetPropertyERKNS_8PropertyE {
}
Symbol _ZN8TSpinBox11UpdateValueEv {
}
Symbol _ZN8TSpinBox8PropertyC1Ev {
}
Symbol _ZN8TSpinBox8PropertyD1Ev {
}
Symbol _ZN8TSpinBox8PropertyC1ERKS0_ {
}
Symbol _ZN11TSpinLayoutC2EiiiiR5TNodeS1_S1_ {
}
Symbol _ZN11TSpinLayoutD2Ev {
}
Symbol _ZN8TSpinBoxC2Eiiii {
}
Symbol _ZN8TSpinBoxD1Ev {
}
Symbol _ZN8TSpinBoxD0Ev {
}
Symbol _ZN8TSpinBoxD2Ev {
}
Symbol _ZNK8TSpinBox11GetPropertyEv {
}
Symbol _ZN8TSpinBox11SetMaxValueEi {
}
Symbol _ZN8TSpinBox11SetMinValueEi {
}
Symbol _ZN8TSpinBox12SetIncrementEi {
}
Symbol _ZN8TSpinBox11ChangeValueEi {
}
Symbol _ZN8TSpinBox8SetValueEi {
}
Symbol _ZN8TSpinBox17ArrowClickHandlerER10EventParam {
}
Symbol _ZN8TSpinBox8PropertyC2Ev {
}
Symbol _ZN8TSpinBox8PropertyD2Ev {
}
Symbol _ZTI11TSpinLayout {
}
Symbol _ZTV11TSpinLayout {
}
Symbol _ZTVN7_TEventI10EventParamE17MemberFuncHandlerI11TSpinLayoutEE {
}
Symbol _ZTIN7_TEventI10EventParamE17MemberFuncHandlerI11TSpinLayoutEE {
}
Symbol _ZTSN7_TEventI10EventParamE17MemberFuncHandlerI11TSpinLayoutEE {
}
Symbol _ZTS11TSpinLayout {
}
Symbol _ZN7_TEventI10EventParamE10SetHandlerI11TSpinLayoutEEvPT_NS1_17MemberFuncHandlerIS4_E8FuncTypeE {
}
Symbol _ZN7_TEventI10EventParamE17MemberFuncHandlerI11TSpinLayoutED1Ev {
}
Symbol _ZN7_TEventI10EventParamE17MemberFuncHandlerI11TSpinLayoutED0Ev {
}
Symbol _ZNK7_TEventI10EventParamE17MemberFuncHandlerI11TSpinLayoutE6InvokeERS0_ {
}
Symbol _ZN7_TEventI10EventParamE17MemberFuncHandlerI11TSpinLayoutE3dupEv {
}
Symbol _ZN11TSpinLayoutC1EiiiiR5TNodeS1_S1_ {
}
Symbol _ZN11TSpinLayoutD1Ev {
}
Symbol _ZN11TSpinLayoutD0Ev {
}
Symbol _ZN11TSpinLayout13ResizeHandlerER10EventParam {
}
Symbol _ZN11TSpinLayout11NodeHandlerER10EventParam {
}
Symbol _ZTV12TTextSpinBox {
}
Symbol _ZTVN7_TEventI10EventParamE17MemberFuncHandlerI12TTextSpinBoxEE {
}
Symbol _ZTIN7_TEventI10EventParamE17MemberFuncHandlerI12TTextSpinBoxEE {
}
Symbol _ZTI12TTextSpinBox {
}
Symbol _ZTSN7_TEventI10EventParamE17MemberFuncHandlerI12TTextSpinBoxEE {
}
Symbol _ZTS12TTextSpinBox {
}
Symbol _ZN7_TEventI10EventParamE10SetHandlerI12TTextSpinBoxEEvPT_NS1_17MemberFuncHandlerIS4_E8FuncTypeE {
}
Symbol _ZN7_TEventI10EventParamE17MemberFuncHandlerI12TTextSpinBoxED1Ev {
}
Symbol _ZN7_TEventI10EventParamE17MemberFuncHandlerI12TTextSpinBoxED0Ev {
}
Symbol _ZNK7_TEventI10EventParamE17MemberFuncHandlerI12TTextSpinBoxE6InvokeERS0_ {
}
Symbol _ZN7_TEventI10EventParamE17MemberFuncHandlerI12TTextSpinBoxE3dupEv {
}
Symbol _ZN12TTextSpinBox11SetPropertyERKNS_8PropertyE {
}
Symbol _ZN12TTextSpinBox8PropertyC1Ev {
}
Symbol _ZN12TTextSpinBox8PropertyD1Ev {
}
Symbol _ZN12TTextSpinBox8PropertyC1ERKS0_ {
}
Symbol _ZN12TTextSpinBoxC1Eiiii {
}
Symbol _ZN10TLabelNodeC1EiiiiRK8TWStringR8_TMarginIiER7TVisualR12TextProperty {
}
Symbol _ZN10TLabelNodeD1Ev {
}
Symbol _ZN12TTextSpinBoxC2Eiiii {
}
Symbol _ZN12TTextSpinBoxD1Ev {
}
Symbol _ZN12TTextSpinBoxD0Ev {
}
Symbol _ZN12TTextSpinBoxD2Ev {
}
Symbol _ZNK12TTextSpinBox11GetPropertyEv {
}
Symbol _ZN12TTextSpinBox7AddItemERK8TWString {
}
Symbol _ZN12TTextSpinBox10ClearItemsEv {
}
Symbol _ZNK12TTextSpinBox12GetItemCountEv {
}
Symbol _ZNK12TTextSpinBox16GetSelectionTextEv {
}
Symbol _ZN12TTextSpinBox15ChangeSelectionEi {
}
Symbol _ZN12TTextSpinBox12SetSelectionEi {
}
Symbol _ZNK12TTextSpinBox12GetSelectionEv {
}
Symbol _ZN12TTextSpinBox17ArrowClickHandlerER10EventParam {
}
Symbol _ZN12TTextSpinBox8PropertyC2Ev {
}
Symbol _ZN12TTextSpinBox8PropertyD2Ev {
}
Symbol _ZTV4TTab {
}
Symbol _ZTV6TArrayIN4TTab7TabInfoEE {
}
Symbol _ZTVN7_TEventI10EventParamE17MemberFuncHandlerI4TTabEE {
}
Symbol _ZTIN7_TEventI10EventParamE17MemberFuncHandlerI4TTabEE {
}
Symbol _ZTI6TArrayIN4TTab7TabInfoEE {
}
Symbol _ZTI4TTab {
}
Symbol _ZTSN7_TEventI10EventParamE17MemberFuncHandlerI4TTabEE {
}
Symbol _ZTS6TArrayIN4TTab7TabInfoEE {
}
Symbol _ZTS4TTab {
}
Symbol _ZN7_TEventI10EventParamE10SetHandlerI4TTabEEvPT_NS1_17MemberFuncHandlerIS4_E8FuncTypeE {
}
Symbol _ZN7_TEventI10EventParamE17MemberFuncHandlerI4TTabED1Ev {
}
Symbol _ZN7_TEventI10EventParamE17MemberFuncHandlerI4TTabED0Ev {
}
Symbol _ZNK7_TEventI10EventParamE17MemberFuncHandlerI4TTabE6InvokeERS0_ {
}
Symbol _ZN7_TEventI10EventParamE17MemberFuncHandlerI4TTabE3dupEv {
}
Symbol _ZN11TGridLayout10SetRowSizeEiNS_12LayoutMethodEi {
}
Symbol _ZN6TArrayIN4TTab7TabInfoEED1Ev {
}
Symbol _ZN4TTab7TabInfoD1Ev {
}
Symbol _ZN6TArrayIN4TTab7TabInfoEED0Ev {
}
Symbol _ZN6TArrayIN4TTab7TabInfoEE13RoundCapacityEi {
}
Symbol _ZN4TTab7TabInfoaSERKS0_ {
}
Symbol _ZN6TArrayIN4TTab7TabInfoEE8ExpandAtEii {
}
Symbol _ZN4TTab7TabInfoC1Ev {
}
Symbol _ZN6TArrayIN4TTab7TabInfoEE8InsertAtEiRKS1_ {
}
Symbol _ZN6TArrayIN4TTab7TabInfoEE8ShrinkAtEii {
}
Symbol _ZN6TArrayIN4TTab7TabInfoEE8RemoveAtEi {
}
Symbol _ZNK6TArrayIN4TTab7TabInfoEEixEi {
}
Symbol _ZN4TTab11SetPropertyERKNS_8PropertyE {
}
Symbol _ZN4TTab8SwitchToEi {
}
Symbol _ZN4TTab6AddTabERK8TWStringi {
}
Symbol _ZN4TTab7TabInfoC1ERKS0_ {
}
Symbol _ZN4TTab9RemoveTabEi {
}
Symbol _ZN4TTab11SetTabCountEi {
}
Symbol _ZN4TTab8PropertyC1Ev {
}
Symbol _ZN4TTab8PropertyD1Ev {
}
Symbol _ZN4TTab8PropertyC1ERKS0_ {
}
Symbol _ZN4TTabC2Eiiiii {
}
Symbol _ZN4TTabD1Ev {
}
Symbol _ZN4TTabD0Ev {
}
Symbol _ZN4TTabD2Ev {
}
Symbol _ZNK4TTab11GetPropertyEv {
}
Symbol _ZN4TTab13RemoveControlEiP8TControl {
}
Symbol _ZN4TTab11SetTabWidthEii {
}
Symbol _ZN4TTab13ResizeHandlerER10EventParam {
}
Symbol _ZN4TTab18HeaderPaintHandlerER10EventParam {
}
Symbol _ZN4TTab18HeaderMouseHandlerER10EventParam {
}
Symbol _ZN4TTab11NodeHandlerER10EventParam {
}
Symbol _ZN4TTab8PropertyC2Ev {
}
Symbol _ZN4TTab8PropertyD2Ev {
}
Symbol _ZTV10TTextTable {
}
Symbol _ZTV6TArrayIN10TTextTable9ColHeaderEE {
}
Symbol _ZTVN7_TEventI10EventParamE17MemberFuncHandlerI10TTextTableEE {
}
Symbol _ZTIN7_TEventI10EventParamE17MemberFuncHandlerI10TTextTableEE {
}
Symbol _ZTI6TArrayIN10TTextTable9ColHeaderEE {
}
Symbol _ZTI10TTextTable {
}
Symbol _ZTSN7_TEventI10EventParamE17MemberFuncHandlerI10TTextTableEE {
}
Symbol _ZTS6TArrayIN10TTextTable9ColHeaderEE {
}
Symbol _ZTS10TTextTable {
}
Symbol _ZN7_TEventI10EventParamE10SetHandlerI10TTextTableEEvPT_NS1_17MemberFuncHandlerIS4_E8FuncTypeE {
}
Symbol _ZN7_TEventI10EventParamE17MemberFuncHandlerI10TTextTableED1Ev {
}
Symbol _ZN7_TEventI10EventParamE17MemberFuncHandlerI10TTextTableED0Ev {
}
Symbol _ZNK7_TEventI10EventParamE17MemberFuncHandlerI10TTextTableE6InvokeERS0_ {
}
Symbol _ZN7_TEventI10EventParamE17MemberFuncHandlerI10TTextTableE3dupEv {
}
Symbol _ZN6TArrayI8TWStringEC1Ei {
}
Symbol _ZN6TArrayIN10TTextTable9ColHeaderEE13RoundCapacityEi {
}
Symbol _ZN10TTextTable9ColHeaderaSERKS0_ {
}
Symbol _ZN6TArrayIN10TTextTable9ColHeaderEE8ExpandAtEii {
}
Symbol _ZN10TTextTable9ColHeaderD1Ev {
}
Symbol _ZN10TTextTable9ColHeaderC1Ev {
}
Symbol _ZN6TArrayIN10TTextTable9ColHeaderEEC1Ei {
}
Symbol _ZN6TArrayIN10TTextTable9ColHeaderEED1Ev {
}
Symbol _ZN6TArrayIN10TTextTable9ColHeaderEED0Ev {
}
Symbol _ZNK6TArrayIN10TTextTable9ColHeaderEEixEi {
}
Symbol _ZN10TTextTable11SetPropertyERKNS_8PropertyE {
}
Symbol _ZN10TTextTable8PropertyC1Ev {
}
Symbol _ZN10TTextTable8PropertyD1Ev {
}
Symbol _ZN10TTextTable8PropertyC1ERKS0_ {
}
Symbol _ZN10TTextTableC1Eiiiiii {
}
Symbol _ZN10TTextTableC2Eiiiiii {
}
Symbol _ZN10TTextTableD1Ev {
}
Symbol _ZN10TTextTableD0Ev {
}
Symbol _ZN10TTextTableD2Ev {
}
Symbol _ZNK10TTextTable11GetPropertyEv {
}
Symbol _ZN10TTextTable11SetCellTextEiiRK8TWString {
}
Symbol _ZNK10TTextTable11GetCellTextEii {
}
Symbol _ZN10TTextTable16SetRowHeaderTextEiRK8TWString {
}
Symbol _ZNK10TTextTable16GetRowHeaderTextEi {
}
Symbol _ZN10TTextTable19SetColumnHeaderTextEiRK8TWString {
}
Symbol _ZNK10TTextTable19GetColumnHeaderTextEi {
}
Symbol _ZN10TTextTable19SetFixedColumnWidthEii {
}
Symbol _ZNK10TTextTable19GetFixedColumnWidthEi {
}
Symbol _ZN10TTextTable24SetProportionColumnWidthEij {
}
Symbol _ZNK10TTextTable24GetProportionColumnWidthEi {
}
Symbol _ZN10TTextTable12UpdateLayoutERK6_TSizeIiE {
}
Symbol _ZN10TTextTable19ClientResizeHandlerER10EventParam {
}
Symbol _ZN10TTextTable21ColHeaderPaintHandlerER10EventParam {
}
Symbol _ZN10TTextTable21RowHeaderPaintHandlerER10EventParam {
}
Symbol _ZN10TTextTable20CellAreaPaintHandlerER10EventParam {
}
Symbol _ZN10TTextTable11NodeHandlerER10EventParam {
}
Symbol _ZN10TTextTable22ScrollBarChangeHandlerER10EventParam {
}
Symbol _ZN10TTextTable26ScrollContentChangeHandlerER10EventParam {
}
Symbol _ZN10TTextTable14HScrollHandlerER10EventParam {
}
Symbol _ZN10TTextTable14VScrollHandlerER10EventParam {
}
Symbol _ZN10TTextTable21ViewportResizeHandlerER10EventParam {
}
Symbol _ZN10TTextTable8PropertyC2Ev {
}
Symbol _ZN10TTextTable8PropertyD2Ev {
}
Symbol _ZTV16TTextDataAdaptor {
}
Symbol _ZTV14TMultiLineEdit {
}
Symbol _ZTVN14TMultiLineEdit14TMultiLineDataE {
}
Symbol _ZTI16TTextDataAdaptor {
}
Symbol _ZTI14TMultiLineEdit {
}
Symbol _ZTIN14TMultiLineEdit14TMultiLineDataE {
}
Symbol _ZTS16TTextDataAdaptor {
}
Symbol _ZTS14TMultiLineEdit {
}
Symbol _ZTSN14TMultiLineEdit14TMultiLineDataE {
}
Symbol _ZN16TTextDataAdaptorD1Ev {
}
Symbol _ZN16TTextDataAdaptorD0Ev {
}
Symbol _ZN14TMultiLineEdit14TMultiLineDataC1Ev {
}
Symbol _ZN14TMultiLineEdit14TMultiLineDataD1Ev {
}
Symbol _ZN14TMultiLineEditC1Eiiii {
}
Symbol _ZN14TMultiLineViewC1EiiiiR8_TMarginIiER7TVisualR12TextPropertyP16TTextDataAdaptor {
}
Symbol _ZN14TMultiLineViewD1Ev {
}
Symbol _ZN14TMultiLineEditC2Eiiii {
}
Symbol _ZN14TMultiLineEditD1Ev {
}
Symbol _ZN14TMultiLineEditD0Ev {
}
Symbol _ZN14TMultiLineEditD2Ev {
}
Symbol _ZN14TMultiLineEdit7AddLineERK8TWString {
}
Symbol _ZN14TMultiLineView13UpdateContentEv {
}
Symbol _ZN14TMultiLineEdit10SetContentEPKc {
}
Symbol _ZN14TMultiLineEdit12ClearContentEv {
}
Symbol _ZN14TMultiLineEdit13UpdateContentEv {
}
Symbol _ZN14TMultiLineEdit14TMultiLineDataC2Ev {
}
Symbol _ZN14TMultiLineEdit14TMultiLineDataD0Ev {
}
Symbol _ZN14TMultiLineEdit14TMultiLineDataD2Ev {
}
Symbol _ZNK14TMultiLineEdit14TMultiLineData5CountEv {
}
Symbol _ZNK14TMultiLineEdit14TMultiLineData4ItemEi {
}
Symbol _ZTV9TEditNode {
}
Symbol _ZTVN7_TEventI10EventParamE17MemberFuncHandlerI9TEditNodeEE {
}
Symbol _ZTIN7_TEventI10EventParamE17MemberFuncHandlerI9TEditNodeEE {
}
Symbol _ZTI9TEditNode {
}
Symbol _ZTSN7_TEventI10EventParamE17MemberFuncHandlerI9TEditNodeEE {
}
Symbol _ZTS9TEditNode {
}
Symbol _ZNK8TWString4LeftEi {
}
Symbol _ZN8TWString7ReplaceEiiRKS_ {
}
Symbol _ZN7_TEventI10EventParamE10SetHandlerI9TEditNodeEEvPT_NS1_17MemberFuncHandlerIS4_E8FuncTypeE {
}
Symbol _ZN7_TEventI10EventParamE17MemberFuncHandlerI9TEditNodeED1Ev {
}
Symbol _ZN7_TEventI10EventParamE17MemberFuncHandlerI9TEditNodeED0Ev {
}
Symbol _ZNK7_TEventI10EventParamE17MemberFuncHandlerI9TEditNodeE6InvokeERS0_ {
}
Symbol _ZN7_TEventI10EventParamE17MemberFuncHandlerI9TEditNodeE3dupEv {
}
Symbol _ZN9TEditNode12ResetSelInfoEv {
}
Symbol _ZN9TEditNode18MoveCursorIntoViewEv {
}
Symbol _ZN9TEditNode10LayoutTextEv {
}
Symbol _ZN9TEditNodeC2EiiiiR8_TMarginIiER7TVisualR12TextPropertyRK8TWString {
}
Symbol _ZN9TEditNodeD0Ev {
}
Symbol _ZN9TEditNodeD2Ev {
}
Symbol _ZNK9TEditNode7GetTextEv {
}
Symbol _ZN9TEditNode9ClearTextEv {
}
Symbol _ZN9TEditNode16SetMaxTextLengthEi {
}
Symbol _ZN9TEditNode17TextResizeHandlerER10EventParam {
}
Symbol _ZNK9TEditNode18DrawBlinkingCursorER8TPainter {
}
Symbol _ZN9TEditNode16TextPaintHandlerER10EventParam {
}
Symbol _ZN9TEditNode16TextMouseHandlerER10EventParam {
}
Symbol _ZN9TEditNode7AddCharEw {
}
Symbol _ZN9TEditNode9BackspaceEv {
}
Symbol _ZN9TEditNode6DeleteEv {
}
Symbol _ZN9TEditNode14MoveCursorHomeEv {
}
Symbol _ZN9TEditNode13MoveCursorEndEv {
}
Symbol _ZN9TEditNode14MoveCursorLeftEv {
}
Symbol _ZN9TEditNode15MoveCursorRightEv {
}
Symbol _ZN9TEditNode15KeyboardHandlerER10EventParam {
}
Symbol _ZN9TEditNode9SelectAllEv {
}
Symbol _ZN9TEditNode16GainFocusHandlerER10EventParam {
}
Symbol _ZN9TEditNode16LoseFocusHandlerER10EventParam {
}
Symbol _ZN9TEditNode11NodeHandlerER10EventParam {
}
Symbol _ZN9TEditNode18CursorTimerHandlerER10EventParam {
}
Symbol _ZN9TEditNode16DragTimerHandlerER10EventParam {
}
Symbol _ZTV10TLabelNode {
}
Symbol _ZTVN7_TEventI10EventParamE17MemberFuncHandlerI10TLabelNodeEE {
}
Symbol _ZTIN7_TEventI10EventParamE17MemberFuncHandlerI10TLabelNodeEE {
}
Symbol _ZTI10TLabelNode {
}
Symbol _ZTSN7_TEventI10EventParamE17MemberFuncHandlerI10TLabelNodeEE {
}
Symbol _ZTS10TLabelNode {
}
Symbol _ZN7_TEventI10EventParamE10SetHandlerI10TLabelNodeEEvPT_NS1_17MemberFuncHandlerIS4_E8FuncTypeE {
}
Symbol _ZN7_TEventI10EventParamE17MemberFuncHandlerI10TLabelNodeED1Ev {
}
Symbol _ZN7_TEventI10EventParamE17MemberFuncHandlerI10TLabelNodeED0Ev {
}
Symbol _ZNK7_TEventI10EventParamE17MemberFuncHandlerI10TLabelNodeE6InvokeERS0_ {
}
Symbol _ZN7_TEventI10EventParamE17MemberFuncHandlerI10TLabelNodeE3dupEv {
}
Symbol _ZN10TLabelNodeC2EiiiiRK8TWStringR8_TMarginIiER7TVisualR12TextProperty {
}
Symbol _ZN10TLabelNodeD0Ev {
}
Symbol _ZN10TLabelNodeD2Ev {
}
Symbol _ZN10TLabelNode11NodeHandlerER10EventParam {
}
Symbol _ZTV15TSingleLineEdit {
}
Symbol _ZTI15TSingleLineEdit {
}
Symbol _ZTS15TSingleLineEdit {
}
Symbol _ZN15TSingleLineEdit11SetPropertyERKNS_8PropertyE {
}
Symbol _ZN15TSingleLineEdit8PropertyC1Ev {
}
Symbol _ZN15TSingleLineEdit8PropertyD1Ev {
}
Symbol _ZN15TSingleLineEdit8PropertyC1ERKS0_ {
}
Symbol _ZN15TSingleLineEditC2EiiiiRK8TWString {
}
Symbol _ZN15TSingleLineEditD1Ev {
}
Symbol _ZN15TSingleLineEditD0Ev {
}
Symbol _ZN15TSingleLineEditD2Ev {
}
Symbol _ZNK15TSingleLineEdit11GetPropertyEv {
}
Symbol _ZN15TSingleLineEdit16SetTextFromFloatEf {
}
Symbol _ZN15TSingleLineEdit8PropertyC2Ev {
}
Symbol _ZN15TSingleLineEdit8PropertyD2Ev {
}
Symbol _ZTV6TLabel {
}
Symbol _ZTVN7_TEventI10EventParamE17MemberFuncHandlerI6TLabelEE {
}
Symbol _ZTIN7_TEventI10EventParamE17MemberFuncHandlerI6TLabelEE {
}
Symbol _ZTI6TLabel {
}
Symbol _ZTSN7_TEventI10EventParamE17MemberFuncHandlerI6TLabelEE {
}
Symbol _ZTS6TLabel {
}
Symbol _ZN7_TEventI10EventParamE10SetHandlerI6TLabelEEvPT_NS1_17MemberFuncHandlerIS4_E8FuncTypeE {
}
Symbol _ZN7_TEventI10EventParamE17MemberFuncHandlerI6TLabelED1Ev {
}
Symbol _ZN7_TEventI10EventParamE17MemberFuncHandlerI6TLabelED0Ev {
}
Symbol _ZNK7_TEventI10EventParamE17MemberFuncHandlerI6TLabelE6InvokeERS0_ {
}
Symbol _ZN7_TEventI10EventParamE17MemberFuncHandlerI6TLabelE3dupEv {
}
Symbol _ZN6TLabel8PropertyC1Ev {
}
Symbol _ZN6TLabel8PropertyC1ERKS0_ {
}
Symbol _ZN6TLabelC2EiiiiRK8TWString {
}
Symbol _ZN6TLabelD1Ev {
}
Symbol _ZN6TLabelD0Ev {
}
Symbol _ZN6TLabelD2Ev {
}
Symbol _ZN6TLabel7OnPaintERN5TNode15PaintEventParamE {
}
Symbol _ZN6TLabel11NodeHandlerER10EventParam {
}
Symbol _ZN6TLabel8PropertyC2Ev {
}
Symbol _ZN6TLabel8PropertyD2Ev {
}
Symbol _ZTV14TMultiLineView {
}
Symbol _ZTV6TArrayIN14TMultiLineView8LineInfoEE {
}
Symbol _ZTV6TArrayIN14TMultiLineView7RowInfoEE {
}
Symbol _ZTVN7_TEventI10EventParamE17MemberFuncHandlerI14TMultiLineViewEE {
}
Symbol _ZTIN7_TEventI10EventParamE17MemberFuncHandlerI14TMultiLineViewEE {
}
Symbol _ZTI6TArrayIN14TMultiLineView8LineInfoEE {
}
Symbol _ZTI6TArrayIN14TMultiLineView7RowInfoEE {
}
Symbol _ZTI14TMultiLineView {
}
Symbol _ZTSN7_TEventI10EventParamE17MemberFuncHandlerI14TMultiLineViewEE {
}
Symbol _ZTS6TArrayIN14TMultiLineView8LineInfoEE {
}
Symbol _ZTS6TArrayIN14TMultiLineView7RowInfoEE {
}
Symbol _ZTS14TMultiLineView {
}
Symbol _ZN7_TEventI10EventParamE10SetHandlerI14TMultiLineViewEEvPT_NS1_17MemberFuncHandlerIS4_E8FuncTypeE {
}
Symbol _ZN7_TEventI10EventParamE17MemberFuncHandlerI14TMultiLineViewED1Ev {
}
Symbol _ZN7_TEventI10EventParamE17MemberFuncHandlerI14TMultiLineViewED0Ev {
}
Symbol _ZNK7_TEventI10EventParamE17MemberFuncHandlerI14TMultiLineViewE6InvokeERS0_ {
}
Symbol _ZN7_TEventI10EventParamE17MemberFuncHandlerI14TMultiLineViewE3dupEv {
}
Symbol _ZN6TArrayIN14TMultiLineView8LineInfoEED1Ev {
}
Symbol _ZN6TArrayIN14TMultiLineView8LineInfoEED0Ev {
}
Symbol _ZN6TArrayIN14TMultiLineView8LineInfoEE13RoundCapacityEi {
}
Symbol _ZN6TArrayIN14TMultiLineView8LineInfoEE8ExpandAtEii {
}
Symbol _ZN6TArrayIN14TMultiLineView8LineInfoEE8InsertAtEiRKS1_ {
}
Symbol _ZNK6TArrayIN14TMultiLineView8LineInfoEEixEi {
}
Symbol _ZN6TArrayIN14TMultiLineView8LineInfoEE8InsertAtEiRKS2_ {
}
Symbol _ZN6TArrayIN14TMultiLineView8LineInfoEE8ShrinkAtEii {
}
Symbol _ZN6TArrayIN14TMultiLineView8LineInfoEE8RemoveAtEii {
}
Symbol _ZN6TArrayIN14TMultiLineView8LineInfoEE5ClearEv {
}
Symbol _ZN6TArrayIN14TMultiLineView7RowInfoEED1Ev {
}
Symbol _ZN6TArrayIN14TMultiLineView7RowInfoEED0Ev {
}
Symbol _ZN6TArrayIN14TMultiLineView7RowInfoEE13RoundCapacityEi {
}
Symbol _ZN6TArrayIN14TMultiLineView7RowInfoEE8ExpandAtEii {
}
Symbol _ZN6TArrayIN14TMultiLineView7RowInfoEE8InsertAtEiRKS1_ {
}
Symbol _ZNK6TArrayIN14TMultiLineView7RowInfoEEixEi {
}
Symbol _ZN6TArrayIN14TMultiLineView7RowInfoEE8InsertAtEiRKS2_ {
}
Symbol _ZN6TArrayIN14TMultiLineView7RowInfoEE8ShrinkAtEii {
}
Symbol _ZN6TArrayIN14TMultiLineView7RowInfoEE8RemoveAtEii {
}
Symbol _ZN6TArrayIN14TMultiLineView7RowInfoEE5ClearEv {
}
Symbol _ZN14TMultiLineViewC2EiiiiR8_TMarginIiER7TVisualR12TextPropertyP16TTextDataAdaptor {
}
Symbol _ZN14TMultiLineViewD0Ev {
}
Symbol _ZN14TMultiLineViewD2Ev {
}
Symbol _ZN14TMultiLineView17AddLineAndRowInfoEiRK6TArrayINS_8LineInfoEERKS0_INS_7RowInfoEE {
}
Symbol _ZN14TMultiLineView17ParseLineIntoRowsERK8TWStringRNS_8LineInfoER6TArrayINS_7RowInfoEE {
}
Symbol _ZN14TMultiLineView11OnLineAddedEii {
}
Symbol _ZN14TMultiLineView8ParseAllEv {
}
Symbol _ZN14TMultiLineView11SetWrapModeENS_8WrapModeE {
}
Symbol _ZN14TMultiLineView16EditPaintHandlerER10EventParam {
}
Symbol _ZN14TMultiLineView16ConvertRowToLineEiiRiS0_ {
}
Symbol _ZN14TMultiLineView18ConvertPosToRowColERK7_TPointIiERiS4_S4_ {
}
Symbol _ZN14TMultiLineView19EditMouseMsgHandlerER10EventParam {
}
Symbol _ZN14TMultiLineView16GainFocusHandlerER10EventParam {
}
Symbol _ZN14TMultiLineView16LoseFocusHandlerER10EventParam {
}
Symbol _ZN14TMultiLineView11NodeHandlerER10EventParam {
}
Symbol _ZN14TMultiLineView14HScrollHandlerER10EventParam {
}
Symbol _ZN14TMultiLineView14VScrollHandlerER10EventParam {
}
Symbol _ZN14TMultiLineView18CursorTimerHandlerER10EventParam {
}
Symbol _ZN14TMultiLineView16DragTimerHandlerER10EventParam {
}
Symbol _ZN14TMultiLineView16ConvertLineToRowEiiRiS0_ {
}
Symbol _ZN14TMultiLineView11SetEditSizeERK6_TSizeIiE {
}
Symbol _ZN14TMultiLineView28TScrollViewportResizeHandlerER10EventParam {
}
Symbol _ZN14TMultiLineView26ScrollContentChangeHandlerER10EventParam {
}
Symbol _ZN14TMultiLineView22ScrollBarChangeHandlerER10EventParam {
}
Symbol _ZN14TMultiLineView19ListMouseMsgHandlerER10EventParam {
}
Symbol _ZN14TMultiLineView17MouseLeaveHandlerER10EventParam {
}
Symbol _ZN14TMultiLineView20RemoveLineAndRowInfoEii {
}
Symbol _ZN14TMultiLineView13OnLineRemovedEii {
}
Symbol _ZN14TMultiLineView14ScrollTextViewEii {
}
Symbol _ZN14TMultiLineView18MoveCursorIntoViewEv {
}
Symbol _ZNK14TMultiLineView18DrawBlinkingCursorER8TPainter {
}
ObjectFile libtilcon.a::ufhbr24.o {
	NAME Object file ufhbr24.o from archive libtilcon.a
	EXPORTS uglBMFFont_Helvetica_Bold_24
	IMPORTS _ZTVSt9exception _ZTVSt13bad_exception _ZTVSt9bad_alloc _ZTV10TException _ZTI10TException _ZTISt9exception _ZTISt13bad_exception _ZTISt9bad_alloc _ZTS10TException _ZTSSt9exception _ZTSSt13bad_exception _ZTSSt9bad_alloc
	DECLARES 
	USES 
}
Module ufhbr24.o {
	OBJECT += libtilcon.a::ufhbr24.o
}
ObjectFile libtilcon.a::ufcni14.o {
	NAME Object file ufcni14.o from archive libtilcon.a
	EXPORTS uglBMFFont_Courier_Oblique_14
	IMPORTS _ZTVSt9exception _ZTVSt13bad_exception _ZTVSt9bad_alloc _ZTV10TException _ZTI10TException _ZTISt9exception _ZTISt13bad_exception _ZTISt9bad_alloc _ZTS10TException _ZTSSt9exception _ZTSSt13bad_exception _ZTSSt9bad_alloc
	DECLARES 
	USES 
}
Module ufcni14.o {
	OBJECT += libtilcon.a::ufcni14.o
}
ObjectFile libtilcon.a::uflbi08.o {
	NAME Object file uflbi08.o from archive libtilcon.a
	EXPORTS uglBMFFont_Lucida_Sans_Bold_Italic_8
	IMPORTS _ZTVSt9exception _ZTVSt13bad_exception _ZTVSt9bad_alloc _ZTV10TException _ZTI10TException _ZTISt9exception _ZTISt13bad_exception _ZTISt9bad_alloc _ZTS10TException _ZTSSt9exception _ZTSSt13bad_exception _ZTSSt9bad_alloc
	DECLARES 
	USES 
}
Module uflbi08.o {
	OBJECT += libtilcon.a::uflbi08.o
}
ObjectFile libtilcon.a::uftbi08.o {
	NAME Object file uftbi08.o from archive libtilcon.a
	EXPORTS uglBMFFont_Times_Bold_Italic_8
	IMPORTS _ZTVSt9exception _ZTVSt13bad_exception _ZTVSt9bad_alloc _ZTV10TException _ZTI10TException _ZTISt9exception _ZTISt13bad_exception _ZTISt9bad_alloc _ZTS10TException _ZTSSt9exception _ZTSSt13bad_exception _ZTSSt9bad_alloc
	DECLARES 
	USES 
}
Module uftbi08.o {
	OBJECT += libtilcon.a::uftbi08.o
}
ObjectFile libtilcon.a::ufhbr14.o {
	NAME Object file ufhbr14.o from archive libtilcon.a
	EXPORTS uglBMFFont_Helvetica_Bold_14
	IMPORTS _ZTVSt9exception _ZTVSt13bad_exception _ZTVSt9bad_alloc _ZTV10TException _ZTI10TException _ZTISt9exception _ZTISt13bad_exception _ZTISt9bad_alloc _ZTS10TException _ZTSSt9exception _ZTSSt13bad_exception _ZTSSt9bad_alloc
	DECLARES 
	USES 
}
Module ufhbr14.o {
	OBJECT += libtilcon.a::ufhbr14.o
}
ObjectFile libtilcon.a::uftnr18.o {
	NAME Object file uftnr18.o from archive libtilcon.a
	EXPORTS uglBMFFont_Times_Roman_18
	IMPORTS _ZTVSt9exception _ZTVSt13bad_exception _ZTVSt9bad_alloc _ZTV10TException _ZTI10TException _ZTISt9exception _ZTISt13bad_exception _ZTISt9bad_alloc _ZTS10TException _ZTSSt9exception _ZTSSt13bad_exception _ZTSSt9bad_alloc
	DECLARES 
	USES 
}
Module uftnr18.o {
	OBJECT += libtilcon.a::uftnr18.o
}
ObjectFile libtilcon.a::uftbi10.o {
	NAME Object file uftbi10.o from archive libtilcon.a
	EXPORTS uglBMFFont_Times_Bold_Italic_10
	IMPORTS _ZTVSt9exception _ZTVSt13bad_exception _ZTVSt9bad_alloc _ZTV10TException _ZTI10TException _ZTISt9exception _ZTISt13bad_exception _ZTISt9bad_alloc _ZTS10TException _ZTSSt9exception _ZTSSt13bad_exception _ZTSSt9bad_alloc
	DECLARES 
	USES 
}
Module uftbi10.o {
	OBJECT += libtilcon.a::uftbi10.o
}
ObjectFile libtilcon.a::uflbr24.o {
	NAME Object file uflbr24.o from archive libtilcon.a
	EXPORTS uglBMFFont_Lucida_Sans_Bold_24
	IMPORTS _ZTVSt9exception _ZTVSt13bad_exception _ZTVSt9bad_alloc _ZTV10TException _ZTI10TException _ZTISt9exception _ZTISt13bad_exception _ZTISt9bad_alloc _ZTS10TException _ZTSSt9exception _ZTSSt13bad_exception _ZTSSt9bad_alloc
	DECLARES 
	USES 
}
Module uflbr24.o {
	OBJECT += libtilcon.a::uflbr24.o
}
ObjectFile libtilcon.a::ufhbi14.o {
	NAME Object file ufhbi14.o from archive libtilcon.a
	EXPORTS uglBMFFont_Helvetica_Bold_Oblique_14
	IMPORTS _ZTVSt9exception _ZTVSt13bad_exception _ZTVSt9bad_alloc _ZTV10TException _ZTI10TException _ZTISt9exception _ZTISt13bad_exception _ZTISt9bad_alloc _ZTS10TException _ZTSSt9exception _ZTSSt13bad_exception _ZTSSt9bad_alloc
	DECLARES 
	USES 
}
Module ufhbi14.o {
	OBJECT += libtilcon.a::ufhbi14.o
}
ObjectFile libtilcon.a::uflbi12.o {
	NAME Object file uflbi12.o from archive libtilcon.a
	EXPORTS uglBMFFont_Lucida_Sans_Bold_Italic_12
	IMPORTS _ZTVSt9exception _ZTVSt13bad_exception _ZTVSt9bad_alloc _ZTV10TException _ZTI10TException _ZTISt9exception _ZTISt13bad_exception _ZTISt9bad_alloc _ZTS10TException _ZTSSt9exception _ZTSSt13bad_exception _ZTSSt9bad_alloc
	DECLARES 
	USES 
}
Module uflbi12.o {
	OBJECT += libtilcon.a::uflbi12.o
}
ObjectFile libtilcon.a::uftni24.o {
	NAME Object file uftni24.o from archive libtilcon.a
	EXPORTS uglBMFFont_Times_Italic_24
	IMPORTS _ZTVSt9exception _ZTVSt13bad_exception _ZTVSt9bad_alloc _ZTV10TException _ZTI10TException _ZTISt9exception _ZTISt13bad_exception _ZTISt9bad_alloc _ZTS10TException _ZTSSt9exception _ZTSSt13bad_exception _ZTSSt9bad_alloc
	DECLARES 
	USES 
}
Module uftni24.o {
	OBJECT += libtilcon.a::uftni24.o
}
ObjectFile libtilcon.a::ufcbi08.o {
	NAME Object file ufcbi08.o from archive libtilcon.a
	EXPORTS uglBMFFont_Courier_Bold_Oblique_8
	IMPORTS _ZTVSt9exception _ZTVSt13bad_exception _ZTVSt9bad_alloc _ZTV10TException _ZTI10TException _ZTISt9exception _ZTISt13bad_exception _ZTISt9bad_alloc _ZTS10TException _ZTSSt9exception _ZTSSt13bad_exception _ZTSSt9bad_alloc
	DECLARES 
	USES 
}
Module ufcbi08.o {
	OBJECT += libtilcon.a::ufcbi08.o
}
ObjectFile libtilcon.a::ufcbr18.o {
	NAME Object file ufcbr18.o from archive libtilcon.a
	EXPORTS uglBMFFont_Courier_Bold_18
	IMPORTS _ZTVSt9exception _ZTVSt13bad_exception _ZTVSt9bad_alloc _ZTV10TException _ZTI10TException _ZTISt9exception _ZTISt13bad_exception _ZTISt9bad_alloc _ZTS10TException _ZTSSt9exception _ZTSSt13bad_exception _ZTSSt9bad_alloc
	DECLARES 
	USES 
}
Module ufcbr18.o {
	OBJECT += libtilcon.a::ufcbr18.o
}
ObjectFile libtilcon.a::ufhnr08.o {
	NAME Object file ufhnr08.o from archive libtilcon.a
	EXPORTS uglBMFFont_Helvetica_8
	IMPORTS _ZTVSt9exception _ZTVSt13bad_exception _ZTVSt9bad_alloc _ZTV10TException _ZTI10TException _ZTISt9exception _ZTISt13bad_exception _ZTISt9bad_alloc _ZTS10TException _ZTSSt9exception _ZTSSt13bad_exception _ZTSSt9bad_alloc
	DECLARES 
	USES 
}
Module ufhnr08.o {
	OBJECT += libtilcon.a::ufhnr08.o
}
ObjectFile libtilcon.a::uflbr14.o {
	NAME Object file uflbr14.o from archive libtilcon.a
	EXPORTS uglBMFFont_Lucida_Sans_Bold_14
	IMPORTS _ZTVSt9exception _ZTVSt13bad_exception _ZTVSt9bad_alloc _ZTV10TException _ZTI10TException _ZTISt9exception _ZTISt13bad_exception _ZTISt9bad_alloc _ZTS10TException _ZTSSt9exception _ZTSSt13bad_exception _ZTSSt9bad_alloc
	DECLARES 
	USES 
}
Module uflbr14.o {
	OBJECT += libtilcon.a::uflbr14.o
}
ObjectFile libtilcon.a::uflbr19.o {
	NAME Object file uflbr19.o from archive libtilcon.a
	EXPORTS uglBMFFont_Lucida_Sans_Bold_19
	IMPORTS _ZTVSt9exception _ZTVSt13bad_exception _ZTVSt9bad_alloc _ZTV10TException _ZTI10TException _ZTISt9exception _ZTISt13bad_exception _ZTISt9bad_alloc _ZTS10TException _ZTSSt9exception _ZTSSt13bad_exception _ZTSSt9bad_alloc
	DECLARES 
	USES 
}
Module uflbr19.o {
	OBJECT += libtilcon.a::uflbr19.o
}
ObjectFile libtilcon.a::uflbbr08.o {
	NAME Object file uflbbr08.o from archive libtilcon.a
	EXPORTS uglBMFFont_Lucida_Bright_Demibold_8
	IMPORTS _ZTVSt9exception _ZTVSt13bad_exception _ZTVSt9bad_alloc _ZTV10TException _ZTI10TException _ZTISt9exception _ZTISt13bad_exception _ZTISt9bad_alloc _ZTS10TException _ZTSSt9exception _ZTSSt13bad_exception _ZTSSt9bad_alloc
	DECLARES 
	USES 
}
Module uflbbr08.o {
	OBJECT += libtilcon.a::uflbbr08.o
}
ObjectFile libtilcon.a::ufcni10.o {
	NAME Object file ufcni10.o from archive libtilcon.a
	EXPORTS uglBMFFont_Courier_Oblique_10
	IMPORTS _ZTVSt9exception _ZTVSt13bad_exception _ZTVSt9bad_alloc _ZTV10TException _ZTI10TException _ZTISt9exception _ZTISt13bad_exception _ZTISt9bad_alloc _ZTS10TException _ZTSSt9exception _ZTSSt13bad_exception _ZTSSt9bad_alloc
	DECLARES 
	USES 
}
Module ufcni10.o {
	OBJECT += libtilcon.a::ufcni10.o
}
ObjectFile libtilcon.a::ufhbi12.o {
	NAME Object file ufhbi12.o from archive libtilcon.a
	EXPORTS uglBMFFont_Helvetica_Bold_Oblique_12
	IMPORTS _ZTVSt9exception _ZTVSt13bad_exception _ZTVSt9bad_alloc _ZTV10TException _ZTI10TException _ZTISt9exception _ZTISt13bad_exception _ZTISt9bad_alloc _ZTS10TException _ZTSSt9exception _ZTSSt13bad_exception _ZTSSt9bad_alloc
	DECLARES 
	USES 
}
Module ufhbi12.o {
	OBJECT += libtilcon.a::ufhbi12.o
}
ObjectFile libtilcon.a::ufcbr14.o {
	NAME Object file ufcbr14.o from archive libtilcon.a
	EXPORTS uglBMFFont_Courier_Bold_14
	IMPORTS _ZTVSt9exception _ZTVSt13bad_exception _ZTVSt9bad_alloc _ZTV10TException _ZTI10TException _ZTISt9exception _ZTISt13bad_exception _ZTISt9bad_alloc _ZTS10TException _ZTSSt9exception _ZTSSt13bad_exception _ZTSSt9bad_alloc
	DECLARES 
	USES 
}
Module ufcbr14.o {
	OBJECT += libtilcon.a::ufcbr14.o
}
ObjectFile libtilcon.a::ufhni10.o {
	NAME Object file ufhni10.o from archive libtilcon.a
	EXPORTS uglBMFFont_Helvetica_Oblique_10
	IMPORTS _ZTVSt9exception _ZTVSt13bad_exception _ZTVSt9bad_alloc _ZTV10TException _ZTI10TException _ZTISt9exception _ZTISt13bad_exception _ZTISt9bad_alloc _ZTS10TException _ZTSSt9exception _ZTSSt13bad_exception _ZTSSt9bad_alloc
	DECLARES 
	USES 
}
Module ufhni10.o {
	OBJECT += libtilcon.a::ufhni10.o
}
ObjectFile libtilcon.a::ufhbr10.o {
	NAME Object file ufhbr10.o from archive libtilcon.a
	EXPORTS uglBMFFont_Helvetica_Bold_10
	IMPORTS _ZTVSt9exception _ZTVSt13bad_exception _ZTVSt9bad_alloc _ZTV10TException _ZTI10TException _ZTISt9exception _ZTISt13bad_exception _ZTISt9bad_alloc _ZTS10TException _ZTSSt9exception _ZTSSt13bad_exception _ZTSSt9bad_alloc
	DECLARES 
	USES 
}
Module ufhbr10.o {
	OBJECT += libtilcon.a::ufhbr10.o
}
ObjectFile libtilcon.a::uftni14.o {
	NAME Object file uftni14.o from archive libtilcon.a
	EXPORTS uglBMFFont_Times_Italic_14
	IMPORTS _ZTVSt9exception _ZTVSt13bad_exception _ZTVSt9bad_alloc _ZTV10TException _ZTI10TException _ZTISt9exception _ZTISt13bad_exception _ZTISt9bad_alloc _ZTS10TException _ZTSSt9exception _ZTSSt13bad_exception _ZTSSt9bad_alloc
	DECLARES 
	USES 
}
Module uftni14.o {
	OBJECT += libtilcon.a::uftni14.o
}
ObjectFile libtilcon.a::ufhni18.o {
	NAME Object file ufhni18.o from archive libtilcon.a
	EXPORTS uglBMFFont_Helvetica_Oblique_18
	IMPORTS _ZTVSt9exception _ZTVSt13bad_exception _ZTVSt9bad_alloc _ZTV10TException _ZTI10TException _ZTISt9exception _ZTISt13bad_exception _ZTISt9bad_alloc _ZTS10TException _ZTSSt9exception _ZTSSt13bad_exception _ZTSSt9bad_alloc
	DECLARES 
	USES 
}
Module ufhni18.o {
	OBJECT += libtilcon.a::ufhni18.o
}
ObjectFile libtilcon.a::uflbni12.o {
	NAME Object file uflbni12.o from archive libtilcon.a
	EXPORTS uglBMFFont_Lucida_Bright_Italic_12
	IMPORTS _ZTVSt9exception _ZTVSt13bad_exception _ZTVSt9bad_alloc _ZTV10TException _ZTI10TException _ZTISt9exception _ZTISt13bad_exception _ZTISt9bad_alloc _ZTS10TException _ZTSSt9exception _ZTSSt13bad_exception _ZTSSt9bad_alloc
	DECLARES 
	USES 
}
Module uflbni12.o {
	OBJECT += libtilcon.a::uflbni12.o
}
ObjectFile libtilcon.a::ufcbr24.o {
	NAME Object file ufcbr24.o from archive libtilcon.a
	EXPORTS uglBMFFont_Courier_Bold_24
	IMPORTS _ZTVSt9exception _ZTVSt13bad_exception _ZTVSt9bad_alloc _ZTV10TException _ZTI10TException _ZTISt9exception _ZTISt13bad_exception _ZTISt9bad_alloc _ZTS10TException _ZTSSt9exception _ZTSSt13bad_exception _ZTSSt9bad_alloc
	DECLARES 
	USES 
}
Module ufcbr24.o {
	OBJECT += libtilcon.a::ufcbr24.o
}
ObjectFile libtilcon.a::uflbnr19.o {
	NAME Object file uflbnr19.o from archive libtilcon.a
	EXPORTS uglBMFFont_Lucida_Bright_19
	IMPORTS _ZTVSt9exception _ZTVSt13bad_exception _ZTVSt9bad_alloc _ZTV10TException _ZTI10TException _ZTISt9exception _ZTISt13bad_exception _ZTISt9bad_alloc _ZTS10TException _ZTSSt9exception _ZTSSt13bad_exception _ZTSSt9bad_alloc
	DECLARES 
	USES 
}
Module uflbnr19.o {
	OBJECT += libtilcon.a::uflbnr19.o
}
ObjectFile libtilcon.a::uflbr10.o {
	NAME Object file uflbr10.o from archive libtilcon.a
	EXPORTS uglBMFFont_Lucida_Sans_Bold_10
	IMPORTS _ZTVSt9exception _ZTVSt13bad_exception _ZTVSt9bad_alloc _ZTV10TException _ZTI10TException _ZTISt9exception _ZTISt13bad_exception _ZTISt9bad_alloc _ZTS10TException _ZTSSt9exception _ZTSSt13bad_exception _ZTSSt9bad_alloc
	DECLARES 
	USES 
}
Module uflbr10.o {
	OBJECT += libtilcon.a::uflbr10.o
}
ObjectFile libtilcon.a::uftnr10.o {
	NAME Object file uftnr10.o from archive libtilcon.a
	EXPORTS uglBMFFont_Times_Roman_10
	IMPORTS _ZTVSt9exception _ZTVSt13bad_exception _ZTVSt9bad_alloc _ZTV10TException _ZTI10TException _ZTISt9exception _ZTISt13bad_exception _ZTISt9bad_alloc _ZTS10TException _ZTSSt9exception _ZTSSt13bad_exception _ZTSSt9bad_alloc
	DECLARES 
	USES 
}
Module uftnr10.o {
	OBJECT += libtilcon.a::uftnr10.o
}
ObjectFile libtilcon.a::uftbr10.o {
	NAME Object file uftbr10.o from archive libtilcon.a
	EXPORTS uglBMFFont_Times_Bold_10
	IMPORTS _ZTVSt9exception _ZTVSt13bad_exception _ZTVSt9bad_alloc _ZTV10TException _ZTI10TException _ZTISt9exception _ZTISt13bad_exception _ZTISt9bad_alloc _ZTS10TException _ZTSSt9exception _ZTSSt13bad_exception _ZTSSt9bad_alloc
	DECLARES 
	USES 
}
Module uftbr10.o {
	OBJECT += libtilcon.a::uftbr10.o
}
ObjectFile libtilcon.a::uflbnr24.o {
	NAME Object file uflbnr24.o from archive libtilcon.a
	EXPORTS uglBMFFont_Lucida_Bright_24
	IMPORTS _ZTVSt9exception _ZTVSt13bad_exception _ZTVSt9bad_alloc _ZTV10TException _ZTI10TException _ZTISt9exception _ZTISt13bad_exception _ZTISt9bad_alloc _ZTS10TException _ZTSSt9exception _ZTSSt13bad_exception _ZTSSt9bad_alloc
	DECLARES 
	USES 
}
Module uflbnr24.o {
	OBJECT += libtilcon.a::uflbnr24.o
}
ObjectFile libtilcon.a::ufcbi12.o {
	NAME Object file ufcbi12.o from archive libtilcon.a
	EXPORTS uglBMFFont_Courier_Bold_Oblique_12
	IMPORTS _ZTVSt9exception _ZTVSt13bad_exception _ZTVSt9bad_alloc _ZTV10TException _ZTI10TException _ZTISt9exception _ZTISt13bad_exception _ZTISt9bad_alloc _ZTS10TException _ZTSSt9exception _ZTSSt13bad_exception _ZTSSt9bad_alloc
	DECLARES 
	USES 
}
Module ufcbi12.o {
	OBJECT += libtilcon.a::ufcbi12.o
}
ObjectFile libtilcon.a::uflbni19.o {
	NAME Object file uflbni19.o from archive libtilcon.a
	EXPORTS uglBMFFont_Lucida_Bright_Italic_19
	IMPORTS _ZTVSt9exception _ZTVSt13bad_exception _ZTVSt9bad_alloc _ZTV10TException _ZTI10TException _ZTISt9exception _ZTISt13bad_exception _ZTISt9bad_alloc _ZTS10TException _ZTSSt9exception _ZTSSt13bad_exception _ZTSSt9bad_alloc
	DECLARES 
	USES 
}
Module uflbni19.o {
	OBJECT += libtilcon.a::uflbni19.o
}
ObjectFile libtilcon.a::uftbr24.o {
	NAME Object file uftbr24.o from archive libtilcon.a
	EXPORTS uglBMFFont_Times_Bold_24
	IMPORTS _ZTVSt9exception _ZTVSt13bad_exception _ZTVSt9bad_alloc _ZTV10TException _ZTI10TException _ZTISt9exception _ZTISt13bad_exception _ZTISt9bad_alloc _ZTS10TException _ZTSSt9exception _ZTSSt13bad_exception _ZTSSt9bad_alloc
	DECLARES 
	USES 
}
Module uftbr24.o {
	OBJECT += libtilcon.a::uftbr24.o
}
ObjectFile libtilcon.a::ufcnr08.o {
	NAME Object file ufcnr08.o from archive libtilcon.a
	EXPORTS uglBMFFont_Courier_8
	IMPORTS _ZTVSt9exception _ZTVSt13bad_exception _ZTVSt9bad_alloc _ZTV10TException _ZTI10TException _ZTISt9exception _ZTISt13bad_exception _ZTISt9bad_alloc _ZTS10TException _ZTSSt9exception _ZTSSt13bad_exception _ZTSSt9bad_alloc
	DECLARES 
	USES 
}
Module ufcnr08.o {
	OBJECT += libtilcon.a::ufcnr08.o
}
ObjectFile libtilcon.a::uflbnr14.o {
	NAME Object file uflbnr14.o from archive libtilcon.a
	EXPORTS uglBMFFont_Lucida_Bright_14
	IMPORTS _ZTVSt9exception _ZTVSt13bad_exception _ZTVSt9bad_alloc _ZTV10TException _ZTI10TException _ZTISt9exception _ZTISt13bad_exception _ZTISt9bad_alloc _ZTS10TException _ZTSSt9exception _ZTSSt13bad_exception _ZTSSt9bad_alloc
	DECLARES 
	USES 
}
Module uflbnr14.o {
	OBJECT += libtilcon.a::uflbnr14.o
}
ObjectFile libtilcon.a::uflbbi18.o {
	NAME Object file uflbbi18.o from archive libtilcon.a
	EXPORTS uglBMFFont_Lucida_Bright_Demibold_Italic_18
	IMPORTS _ZTVSt9exception _ZTVSt13bad_exception _ZTVSt9bad_alloc _ZTV10TException _ZTI10TException _ZTISt9exception _ZTISt13bad_exception _ZTISt9bad_alloc _ZTS10TException _ZTSSt9exception _ZTSSt13bad_exception _ZTSSt9bad_alloc
	DECLARES 
	USES 
}
Module uflbbi18.o {
	OBJECT += libtilcon.a::uflbbi18.o
}
ObjectFile libtilcon.a::uflnr12.o {
	NAME Object file uflnr12.o from archive libtilcon.a
	EXPORTS uglBMFFont_Lucida_Sans_12
	IMPORTS _ZTVSt9exception _ZTVSt13bad_exception _ZTVSt9bad_alloc _ZTV10TException _ZTI10TException _ZTISt9exception _ZTISt13bad_exception _ZTISt9bad_alloc _ZTS10TException _ZTSSt9exception _ZTSSt13bad_exception _ZTSSt9bad_alloc
	DECLARES 
	USES 
}
Module uflnr12.o {
	OBJECT += libtilcon.a::uflnr12.o
}
ObjectFile libtilcon.a::uftni10.o {
	NAME Object file uftni10.o from archive libtilcon.a
	EXPORTS uglBMFFont_Times_Italic_10
	IMPORTS _ZTVSt9exception _ZTVSt13bad_exception _ZTVSt9bad_alloc _ZTV10TException _ZTI10TException _ZTISt9exception _ZTISt13bad_exception _ZTISt9bad_alloc _ZTS10TException _ZTSSt9exception _ZTSSt13bad_exception _ZTSSt9bad_alloc
	DECLARES 
	USES 
}
Module uftni10.o {
	OBJECT += libtilcon.a::uftni10.o
}
ObjectFile libtilcon.a::ufhbi24.o {
	NAME Object file ufhbi24.o from archive libtilcon.a
	EXPORTS uglBMFFont_Helvetica_Bold_Oblique_24
	IMPORTS _ZTVSt9exception _ZTVSt13bad_exception _ZTVSt9bad_alloc _ZTV10TException _ZTI10TException _ZTISt9exception _ZTISt13bad_exception _ZTISt9bad_alloc _ZTS10TException _ZTSSt9exception _ZTSSt13bad_exception _ZTSSt9bad_alloc
	DECLARES 
	USES 
}
Module ufhbi24.o {
	OBJECT += libtilcon.a::ufhbi24.o
}
ObjectFile libtilcon.a::uftni18.o {
	NAME Object file uftni18.o from archive libtilcon.a
	EXPORTS uglBMFFont_Times_Italic_18
	IMPORTS _ZTVSt9exception _ZTVSt13bad_exception _ZTVSt9bad_alloc _ZTV10TException _ZTI10TException _ZTISt9exception _ZTISt13bad_exception _ZTISt9bad_alloc _ZTS10TException _ZTSSt9exception _ZTSSt13bad_exception _ZTSSt9bad_alloc
	DECLARES 
	USES 
}
Module uftni18.o {
	OBJECT += libtilcon.a::uftni18.o
}
ObjectFile libtilcon.a::uflbbr12.o {
	NAME Object file uflbbr12.o from archive libtilcon.a
	EXPORTS uglBMFFont_Lucida_Bright_Demibold_12
	IMPORTS _ZTVSt9exception _ZTVSt13bad_exception _ZTVSt9bad_alloc _ZTV10TException _ZTI10TException _ZTISt9exception _ZTISt13bad_exception _ZTISt9bad_alloc _ZTS10TException _ZTSSt9exception _ZTSSt13bad_exception _ZTSSt9bad_alloc
	DECLARES 
	USES 
}
Module uflbbr12.o {
	OBJECT += libtilcon.a::uflbbr12.o
}
ObjectFile libtilcon.a::uflni08.o {
	NAME Object file uflni08.o from archive libtilcon.a
	EXPORTS uglBMFFont_Lucida_Sans_Italic_8
	IMPORTS _ZTVSt9exception _ZTVSt13bad_exception _ZTVSt9bad_alloc _ZTV10TException _ZTI10TException _ZTISt9exception _ZTISt13bad_exception _ZTISt9bad_alloc _ZTS10TException _ZTSSt9exception _ZTSSt13bad_exception _ZTSSt9bad_alloc
	DECLARES 
	USES 
}
Module uflni08.o {
	OBJECT += libtilcon.a::uflni08.o
}
ObjectFile libtilcon.a::uftbi14.o {
	NAME Object file uftbi14.o from archive libtilcon.a
	EXPORTS uglBMFFont_Times_Bold_Italic_14
	IMPORTS _ZTVSt9exception _ZTVSt13bad_exception _ZTVSt9bad_alloc _ZTV10TException _ZTI10TException _ZTISt9exception _ZTISt13bad_exception _ZTISt9bad_alloc _ZTS10TException _ZTSSt9exception _ZTSSt13bad_exception _ZTSSt9bad_alloc
	DECLARES 
	USES 
}
Module uftbi14.o {
	OBJECT += libtilcon.a::uftbi14.o
}
ObjectFile libtilcon.a::ufhbi18.o {
	NAME Object file ufhbi18.o from archive libtilcon.a
	EXPORTS uglBMFFont_Helvetica_Bold_Oblique_18
	IMPORTS _ZTVSt9exception _ZTVSt13bad_exception _ZTVSt9bad_alloc _ZTV10TException _ZTI10TException _ZTISt9exception _ZTISt13bad_exception _ZTISt9bad_alloc _ZTS10TException _ZTSSt9exception _ZTSSt13bad_exception _ZTSSt9bad_alloc
	DECLARES 
	USES 
}
Module ufhbi18.o {
	OBJECT += libtilcon.a::ufhbi18.o
}
ObjectFile libtilcon.a::uflbnr12.o {
	NAME Object file uflbnr12.o from archive libtilcon.a
	EXPORTS uglBMFFont_Lucida_Bright_12
	IMPORTS _ZTVSt9exception _ZTVSt13bad_exception _ZTVSt9bad_alloc _ZTV10TException _ZTI10TException _ZTISt9exception _ZTISt13bad_exception _ZTISt9bad_alloc _ZTS10TException _ZTSSt9exception _ZTSSt13bad_exception _ZTSSt9bad_alloc
	DECLARES 
	USES 
}
Module uflbnr12.o {
	OBJECT += libtilcon.a::uflbnr12.o
}
ObjectFile libtilcon.a::uflbni24.o {
	NAME Object file uflbni24.o from archive libtilcon.a
	EXPORTS uglBMFFont_Lucida_Bright_Italic_24
	IMPORTS _ZTVSt9exception _ZTVSt13bad_exception _ZTVSt9bad_alloc _ZTV10TException _ZTI10TException _ZTISt9exception _ZTISt13bad_exception _ZTISt9bad_alloc _ZTS10TException _ZTSSt9exception _ZTSSt13bad_exception _ZTSSt9bad_alloc
	DECLARES 
	USES 
}
Module uflbni24.o {
	OBJECT += libtilcon.a::uflbni24.o
}
ObjectFile libtilcon.a::uflni19.o {
	NAME Object file uflni19.o from archive libtilcon.a
	EXPORTS uglBMFFont_Lucida_Sans_Italic_19
	IMPORTS _ZTVSt9exception _ZTVSt13bad_exception _ZTVSt9bad_alloc _ZTV10TException _ZTI10TException _ZTISt9exception _ZTISt13bad_exception _ZTISt9bad_alloc _ZTS10TException _ZTSSt9exception _ZTSSt13bad_exception _ZTSSt9bad_alloc
	DECLARES 
	USES 
}
Module uflni19.o {
	OBJECT += libtilcon.a::uflni19.o
}
ObjectFile libtilcon.a::uftbr08.o {
	NAME Object file uftbr08.o from archive libtilcon.a
	EXPORTS uglBMFFont_Times_Bold_8
	IMPORTS _ZTVSt9exception _ZTVSt13bad_exception _ZTVSt9bad_alloc _ZTV10TException _ZTI10TException _ZTISt9exception _ZTISt13bad_exception _ZTISt9bad_alloc _ZTS10TException _ZTSSt9exception _ZTSSt13bad_exception _ZTSSt9bad_alloc
	DECLARES 
	USES 
}
Module uftbr08.o {
	OBJECT += libtilcon.a::uftbr08.o
}
ObjectFile libtilcon.a::ufhbr12.o {
	NAME Object file ufhbr12.o from archive libtilcon.a
	EXPORTS uglBMFFont_Helvetica_Bold_12
	IMPORTS _ZTVSt9exception _ZTVSt13bad_exception _ZTVSt9bad_alloc _ZTV10TException _ZTI10TException _ZTISt9exception _ZTISt13bad_exception _ZTISt9bad_alloc _ZTS10TException _ZTSSt9exception _ZTSSt13bad_exception _ZTSSt9bad_alloc
	DECLARES 
	USES 
}
Module ufhbr12.o {
	OBJECT += libtilcon.a::ufhbr12.o
}
ObjectFile libtilcon.a::uflbbi14.o {
	NAME Object file uflbbi14.o from archive libtilcon.a
	EXPORTS uglBMFFont_Lucida_Bright_Demibold_Italic_14
	IMPORTS _ZTVSt9exception _ZTVSt13bad_exception _ZTVSt9bad_alloc _ZTV10TException _ZTI10TException _ZTISt9exception _ZTISt13bad_exception _ZTISt9bad_alloc _ZTS10TException _ZTSSt9exception _ZTSSt13bad_exception _ZTSSt9bad_alloc
	DECLARES 
	USES 
}
Module uflbbi14.o {
	OBJECT += libtilcon.a::uflbbi14.o
}
ObjectFile libtilcon.a::uflbnr10.o {
	NAME Object file uflbnr10.o from archive libtilcon.a
	EXPORTS uglBMFFont_Lucida_Bright_10
	IMPORTS _ZTVSt9exception _ZTVSt13bad_exception _ZTVSt9bad_alloc _ZTV10TException _ZTI10TException _ZTISt9exception _ZTISt13bad_exception _ZTISt9bad_alloc _ZTS10TException _ZTSSt9exception _ZTSSt13bad_exception _ZTSSt9bad_alloc
	DECLARES 
	USES 
}
Module uflbnr10.o {
	OBJECT += libtilcon.a::uflbnr10.o
}
ObjectFile libtilcon.a::uflbi10.o {
	NAME Object file uflbi10.o from archive libtilcon.a
	EXPORTS uglBMFFont_Lucida_Sans_Bold_Italic_10
	IMPORTS _ZTVSt9exception _ZTVSt13bad_exception _ZTVSt9bad_alloc _ZTV10TException _ZTI10TException _ZTISt9exception _ZTISt13bad_exception _ZTISt9bad_alloc _ZTS10TException _ZTSSt9exception _ZTSSt13bad_exception _ZTSSt9bad_alloc
	DECLARES 
	USES 
}
Module uflbi10.o {
	OBJECT += libtilcon.a::uflbi10.o
}
ObjectFile libtilcon.a::ufcbi24.o {
	NAME Object file ufcbi24.o from archive libtilcon.a
	EXPORTS uglBMFFont_Courier_Bold_Oblique_24
	IMPORTS _ZTVSt9exception _ZTVSt13bad_exception _ZTVSt9bad_alloc _ZTV10TException _ZTI10TException _ZTISt9exception _ZTISt13bad_exception _ZTISt9bad_alloc _ZTS10TException _ZTSSt9exception _ZTSSt13bad_exception _ZTSSt9bad_alloc
	DECLARES 
	USES 
}
Module ufcbi24.o {
	OBJECT += libtilcon.a::ufcbi24.o
}
ObjectFile libtilcon.a::uflbi18.o {
	NAME Object file uflbi18.o from archive libtilcon.a
	EXPORTS uglBMFFont_Lucida_Sans_Bold_Italic_18
	IMPORTS _ZTVSt9exception _ZTVSt13bad_exception _ZTVSt9bad_alloc _ZTV10TException _ZTI10TException _ZTISt9exception _ZTISt13bad_exception _ZTISt9bad_alloc _ZTS10TException _ZTSSt9exception _ZTSSt13bad_exception _ZTSSt9bad_alloc
	DECLARES 
	USES 
}
Module uflbi18.o {
	OBJECT += libtilcon.a::uflbi18.o
}
ObjectFile libtilcon.a::uftnr08.o {
	NAME Object file uftnr08.o from archive libtilcon.a
	EXPORTS uglBMFFont_Times_Roman_8
	IMPORTS _ZTVSt9exception _ZTVSt13bad_exception _ZTVSt9bad_alloc _ZTV10TException _ZTI10TException _ZTISt9exception _ZTISt13bad_exception _ZTISt9bad_alloc _ZTS10TException _ZTSSt9exception _ZTSSt13bad_exception _ZTSSt9bad_alloc
	DECLARES 
	USES 
}
Module uftnr08.o {
	OBJECT += libtilcon.a::uftnr08.o
}
ObjectFile libtilcon.a::ufcbi18.o {
	NAME Object file ufcbi18.o from archive libtilcon.a
	EXPORTS uglBMFFont_Courier_Bold_Oblique_18
	IMPORTS _ZTVSt9exception _ZTVSt13bad_exception _ZTVSt9bad_alloc _ZTV10TException _ZTI10TException _ZTISt9exception _ZTISt13bad_exception _ZTISt9bad_alloc _ZTS10TException _ZTSSt9exception _ZTSSt13bad_exception _ZTSSt9bad_alloc
	DECLARES 
	USES 
}
Module ufcbi18.o {
	OBJECT += libtilcon.a::ufcbi18.o
}
ObjectFile libtilcon.a::ufcnr12.o {
	NAME Object file ufcnr12.o from archive libtilcon.a
	EXPORTS uglBMFFont_Courier_12
	IMPORTS _ZTVSt9exception _ZTVSt13bad_exception _ZTVSt9bad_alloc _ZTV10TException _ZTI10TException _ZTISt9exception _ZTISt13bad_exception _ZTISt9bad_alloc _ZTS10TException _ZTSSt9exception _ZTSSt13bad_exception _ZTSSt9bad_alloc
	DECLARES 
	USES 
}
Module ufcnr12.o {
	OBJECT += libtilcon.a::ufcnr12.o
}
ObjectFile libtilcon.a::uflbi14.o {
	NAME Object file uflbi14.o from archive libtilcon.a
	EXPORTS uglBMFFont_Lucida_Sans_Bold_Italic_14
	IMPORTS _ZTVSt9exception _ZTVSt13bad_exception _ZTVSt9bad_alloc _ZTV10TException _ZTI10TException _ZTISt9exception _ZTISt13bad_exception _ZTISt9bad_alloc _ZTS10TException _ZTSSt9exception _ZTSSt13bad_exception _ZTSSt9bad_alloc
	DECLARES 
	USES 
}
Module uflbi14.o {
	OBJECT += libtilcon.a::uflbi14.o
}
ObjectFile libtilcon.a::uflnr24.o {
	NAME Object file uflnr24.o from archive libtilcon.a
	EXPORTS uglBMFFont_Lucida_Sans_24
	IMPORTS _ZTVSt9exception _ZTVSt13bad_exception _ZTVSt9bad_alloc _ZTV10TException _ZTI10TException _ZTISt9exception _ZTISt13bad_exception _ZTISt9bad_alloc _ZTS10TException _ZTSSt9exception _ZTSSt13bad_exception _ZTSSt9bad_alloc
	DECLARES 
	USES 
}
Module uflnr24.o {
	OBJECT += libtilcon.a::uflnr24.o
}
ObjectFile libtilcon.a::ufhni12.o {
	NAME Object file ufhni12.o from archive libtilcon.a
	EXPORTS uglBMFFont_Helvetica_Oblique_12
	IMPORTS _ZTVSt9exception _ZTVSt13bad_exception _ZTVSt9bad_alloc _ZTV10TException _ZTI10TException _ZTISt9exception _ZTISt13bad_exception _ZTISt9bad_alloc _ZTS10TException _ZTSSt9exception _ZTSSt13bad_exception _ZTSSt9bad_alloc
	DECLARES 
	USES 
}
Module ufhni12.o {
	OBJECT += libtilcon.a::ufhni12.o
}
ObjectFile libtilcon.a::ufcni08.o {
	NAME Object file ufcni08.o from archive libtilcon.a
	EXPORTS uglBMFFont_Courier_Oblique_8
	IMPORTS _ZTVSt9exception _ZTVSt13bad_exception _ZTVSt9bad_alloc _ZTV10TException _ZTI10TException _ZTISt9exception _ZTISt13bad_exception _ZTISt9bad_alloc _ZTS10TException _ZTSSt9exception _ZTSSt13bad_exception _ZTSSt9bad_alloc
	DECLARES 
	USES 
}
Module ufcni08.o {
	OBJECT += libtilcon.a::ufcni08.o
}
ObjectFile libtilcon.a::ufhbr08.o {
	NAME Object file ufhbr08.o from archive libtilcon.a
	EXPORTS uglBMFFont_Helvetica_Bold_8
	IMPORTS _ZTVSt9exception _ZTVSt13bad_exception _ZTVSt9bad_alloc _ZTV10TException _ZTI10TException _ZTISt9exception _ZTISt13bad_exception _ZTISt9bad_alloc _ZTS10TException _ZTSSt9exception _ZTSSt13bad_exception _ZTSSt9bad_alloc
	DECLARES 
	USES 
}
Module ufhbr08.o {
	OBJECT += libtilcon.a::ufhbr08.o
}
ObjectFile libtilcon.a::ufcni12.o {
	NAME Object file ufcni12.o from archive libtilcon.a
	EXPORTS uglBMFFont_Courier_Oblique_12
	IMPORTS _ZTVSt9exception _ZTVSt13bad_exception _ZTVSt9bad_alloc _ZTV10TException _ZTI10TException _ZTISt9exception _ZTISt13bad_exception _ZTISt9bad_alloc _ZTS10TException _ZTSSt9exception _ZTSSt13bad_exception _ZTSSt9bad_alloc
	DECLARES 
	USES 
}
Module ufcni12.o {
	OBJECT += libtilcon.a::ufcni12.o
}
ObjectFile libtilcon.a::uflnr19.o {
	NAME Object file uflnr19.o from archive libtilcon.a
	EXPORTS uglBMFFont_Lucida_Sans_19
	IMPORTS _ZTVSt9exception _ZTVSt13bad_exception _ZTVSt9bad_alloc _ZTV10TException _ZTI10TException _ZTISt9exception _ZTISt13bad_exception _ZTISt9bad_alloc _ZTS10TException _ZTSSt9exception _ZTSSt13bad_exception _ZTSSt9bad_alloc
	DECLARES 
	USES 
}
Module uflnr19.o {
	OBJECT += libtilcon.a::uflnr19.o
}
ObjectFile libtilcon.a::uflbnr18.o {
	NAME Object file uflbnr18.o from archive libtilcon.a
	EXPORTS uglBMFFont_Lucida_Bright_18
	IMPORTS _ZTVSt9exception _ZTVSt13bad_exception _ZTVSt9bad_alloc _ZTV10TException _ZTI10TException _ZTISt9exception _ZTISt13bad_exception _ZTISt9bad_alloc _ZTS10TException _ZTSSt9exception _ZTSSt13bad_exception _ZTSSt9bad_alloc
	DECLARES 
	USES 
}
Module uflbnr18.o {
	OBJECT += libtilcon.a::uflbnr18.o
}
ObjectFile libtilcon.a::ufcbi14.o {
	NAME Object file ufcbi14.o from archive libtilcon.a
	EXPORTS uglBMFFont_Courier_Bold_Oblique_14
	IMPORTS _ZTVSt9exception _ZTVSt13bad_exception _ZTVSt9bad_alloc _ZTV10TException _ZTI10TException _ZTISt9exception _ZTISt13bad_exception _ZTISt9bad_alloc _ZTS10TException _ZTSSt9exception _ZTSSt13bad_exception _ZTSSt9bad_alloc
	DECLARES 
	USES 
}
Module ufcbi14.o {
	OBJECT += libtilcon.a::ufcbi14.o
}
ObjectFile libtilcon.a::uftbi24.o {
	NAME Object file uftbi24.o from archive libtilcon.a
	EXPORTS uglBMFFont_Times_Bold_Italic_24
	IMPORTS _ZTVSt9exception _ZTVSt13bad_exception _ZTVSt9bad_alloc _ZTV10TException _ZTI10TException _ZTISt9exception _ZTISt13bad_exception _ZTISt9bad_alloc _ZTS10TException _ZTSSt9exception _ZTSSt13bad_exception _ZTSSt9bad_alloc
	DECLARES 
	USES 
}
Module uftbi24.o {
	OBJECT += libtilcon.a::uftbi24.o
}
ObjectFile libtilcon.a::ufhnr24.o {
	NAME Object file ufhnr24.o from archive libtilcon.a
	EXPORTS uglBMFFont_Helvetica_24
	IMPORTS _ZTVSt9exception _ZTVSt13bad_exception _ZTVSt9bad_alloc _ZTV10TException _ZTI10TException _ZTISt9exception _ZTISt13bad_exception _ZTISt9bad_alloc _ZTS10TException _ZTSSt9exception _ZTSSt13bad_exception _ZTSSt9bad_alloc
	DECLARES 
	USES 
}
Module ufhnr24.o {
	OBJECT += libtilcon.a::ufhnr24.o
}
ObjectFile libtilcon.a::uflbbi08.o {
	NAME Object file uflbbi08.o from archive libtilcon.a
	EXPORTS uglBMFFont_Lucida_Bright_Demibold_Italic_8
	IMPORTS _ZTVSt9exception _ZTVSt13bad_exception _ZTVSt9bad_alloc _ZTV10TException _ZTI10TException _ZTISt9exception _ZTISt13bad_exception _ZTISt9bad_alloc _ZTS10TException _ZTSSt9exception _ZTSSt13bad_exception _ZTSSt9bad_alloc
	DECLARES 
	USES 
}
Module uflbbi08.o {
	OBJECT += libtilcon.a::uflbbi08.o
}
ObjectFile libtilcon.a::ufhbi10.o {
	NAME Object file ufhbi10.o from archive libtilcon.a
	EXPORTS uglBMFFont_Helvetica_Bold_Oblique_10
	IMPORTS _ZTVSt9exception _ZTVSt13bad_exception _ZTVSt9bad_alloc _ZTV10TException _ZTI10TException _ZTISt9exception _ZTISt13bad_exception _ZTISt9bad_alloc _ZTS10TException _ZTSSt9exception _ZTSSt13bad_exception _ZTSSt9bad_alloc
	DECLARES 
	USES 
}
Module ufhbi10.o {
	OBJECT += libtilcon.a::ufhbi10.o
}
ObjectFile libtilcon.a::uflbbr18.o {
	NAME Object file uflbbr18.o from archive libtilcon.a
	EXPORTS uglBMFFont_Lucida_Bright_Demibold_18
	IMPORTS _ZTVSt9exception _ZTVSt13bad_exception _ZTVSt9bad_alloc _ZTV10TException _ZTI10TException _ZTISt9exception _ZTISt13bad_exception _ZTISt9bad_alloc _ZTS10TException _ZTSSt9exception _ZTSSt13bad_exception _ZTSSt9bad_alloc
	DECLARES 
	USES 
}
Module uflbbr18.o {
	OBJECT += libtilcon.a::uflbbr18.o
}
ObjectFile libtilcon.a::ufcbr10.o {
	NAME Object file ufcbr10.o from archive libtilcon.a
	EXPORTS uglBMFFont_Courier_Bold_10
	IMPORTS _ZTVSt9exception _ZTVSt13bad_exception _ZTVSt9bad_alloc _ZTV10TException _ZTI10TException _ZTISt9exception _ZTISt13bad_exception _ZTISt9bad_alloc _ZTS10TException _ZTSSt9exception _ZTSSt13bad_exception _ZTSSt9bad_alloc
	DECLARES 
	USES 
}
Module ufcbr10.o {
	OBJECT += libtilcon.a::ufcbr10.o
}
ObjectFile libtilcon.a::uflbbr24.o {
	NAME Object file uflbbr24.o from archive libtilcon.a
	EXPORTS uglBMFFont_Lucida_Bright_Demibold_24
	IMPORTS _ZTVSt9exception _ZTVSt13bad_exception _ZTVSt9bad_alloc _ZTV10TException _ZTI10TException _ZTISt9exception _ZTISt13bad_exception _ZTISt9bad_alloc _ZTS10TException _ZTSSt9exception _ZTSSt13bad_exception _ZTSSt9bad_alloc
	DECLARES 
	USES 
}
Module uflbbr24.o {
	OBJECT += libtilcon.a::uflbbr24.o
}
ObjectFile libtilcon.a::uflbr08.o {
	NAME Object file uflbr08.o from archive libtilcon.a
	EXPORTS uglBMFFont_Lucida_Sans_Bold_8
	IMPORTS _ZTVSt9exception _ZTVSt13bad_exception _ZTVSt9bad_alloc _ZTV10TException _ZTI10TException _ZTISt9exception _ZTISt13bad_exception _ZTISt9bad_alloc _ZTS10TException _ZTSSt9exception _ZTSSt13bad_exception _ZTSSt9bad_alloc
	DECLARES 
	USES 
}
Module uflbr08.o {
	OBJECT += libtilcon.a::uflbr08.o
}
ObjectFile libtilcon.a::uflnr14.o {
	NAME Object file uflnr14.o from archive libtilcon.a
	EXPORTS uglBMFFont_Lucida_Sans_14
	IMPORTS _ZTVSt9exception _ZTVSt13bad_exception _ZTVSt9bad_alloc _ZTV10TException _ZTI10TException _ZTISt9exception _ZTISt13bad_exception _ZTISt9bad_alloc _ZTS10TException _ZTSSt9exception _ZTSSt13bad_exception _ZTSSt9bad_alloc
	DECLARES 
	USES 
}
Module uflnr14.o {
	OBJECT += libtilcon.a::uflnr14.o
}
ObjectFile libtilcon.a::ufhnr14.o {
	NAME Object file ufhnr14.o from archive libtilcon.a
	EXPORTS uglBMFFont_Helvetica_14
	IMPORTS _ZTVSt9exception _ZTVSt13bad_exception _ZTVSt9bad_alloc _ZTV10TException _ZTI10TException _ZTISt9exception _ZTISt13bad_exception _ZTISt9bad_alloc _ZTS10TException _ZTSSt9exception _ZTSSt13bad_exception _ZTSSt9bad_alloc
	DECLARES 
	USES 
}
Module ufhnr14.o {
	OBJECT += libtilcon.a::ufhnr14.o
}
ObjectFile libtilcon.a::uflbni10.o {
	NAME Object file uflbni10.o from archive libtilcon.a
	EXPORTS uglBMFFont_Lucida_Bright_Italic_10
	IMPORTS _ZTVSt9exception _ZTVSt13bad_exception _ZTVSt9bad_alloc _ZTV10TException _ZTI10TException _ZTISt9exception _ZTISt13bad_exception _ZTISt9bad_alloc _ZTS10TException _ZTSSt9exception _ZTSSt13bad_exception _ZTSSt9bad_alloc
	DECLARES 
	USES 
}
Module uflbni10.o {
	OBJECT += libtilcon.a::uflbni10.o
}
ObjectFile libtilcon.a::uflbbr14.o {
	NAME Object file uflbbr14.o from archive libtilcon.a
	EXPORTS uglBMFFont_Lucida_Bright_Demibold_14
	IMPORTS _ZTVSt9exception _ZTVSt13bad_exception _ZTVSt9bad_alloc _ZTV10TException _ZTI10TException _ZTISt9exception _ZTISt13bad_exception _ZTISt9bad_alloc _ZTS10TException _ZTSSt9exception _ZTSSt13bad_exception _ZTSSt9bad_alloc
	DECLARES 
	USES 
}
Module uflbbr14.o {
	OBJECT += libtilcon.a::uflbbr14.o
}
ObjectFile libtilcon.a::ufcbr08.o {
	NAME Object file ufcbr08.o from archive libtilcon.a
	EXPORTS uglBMFFont_Courier_Bold_8
	IMPORTS _ZTVSt9exception _ZTVSt13bad_exception _ZTVSt9bad_alloc _ZTV10TException _ZTI10TException _ZTISt9exception _ZTISt13bad_exception _ZTISt9bad_alloc _ZTS10TException _ZTSSt9exception _ZTSSt13bad_exception _ZTSSt9bad_alloc
	DECLARES 
	USES 
}
Module ufcbr08.o {
	OBJECT += libtilcon.a::ufcbr08.o
}
ObjectFile libtilcon.a::uflni24.o {
	NAME Object file uflni24.o from archive libtilcon.a
	EXPORTS uglBMFFont_Lucida_Sans_Italic_24
	IMPORTS _ZTVSt9exception _ZTVSt13bad_exception _ZTVSt9bad_alloc _ZTV10TException _ZTI10TException _ZTISt9exception _ZTISt13bad_exception _ZTISt9bad_alloc _ZTS10TException _ZTSSt9exception _ZTSSt13bad_exception _ZTSSt9bad_alloc
	DECLARES 
	USES 
}
Module uflni24.o {
	OBJECT += libtilcon.a::uflni24.o
}
ObjectFile libtilcon.a::uflbr18.o {
	NAME Object file uflbr18.o from archive libtilcon.a
	EXPORTS uglBMFFont_Lucida_Sans_Bold_18
	IMPORTS _ZTVSt9exception _ZTVSt13bad_exception _ZTVSt9bad_alloc _ZTV10TException _ZTI10TException _ZTISt9exception _ZTISt13bad_exception _ZTISt9bad_alloc _ZTS10TException _ZTSSt9exception _ZTSSt13bad_exception _ZTSSt9bad_alloc
	DECLARES 
	USES 
}
Module uflbr18.o {
	OBJECT += libtilcon.a::uflbr18.o
}
ObjectFile libtilcon.a::ufcbi10.o {
	NAME Object file ufcbi10.o from archive libtilcon.a
	EXPORTS uglBMFFont_Courier_Bold_Oblique_10
	IMPORTS _ZTVSt9exception _ZTVSt13bad_exception _ZTVSt9bad_alloc _ZTV10TException _ZTI10TException _ZTISt9exception _ZTISt13bad_exception _ZTISt9bad_alloc _ZTS10TException _ZTSSt9exception _ZTSSt13bad_exception _ZTSSt9bad_alloc
	DECLARES 
	USES 
}
Module ufcbi10.o {
	OBJECT += libtilcon.a::ufcbi10.o
}
ObjectFile libtilcon.a::uftnr12.o {
	NAME Object file uftnr12.o from archive libtilcon.a
	EXPORTS uglBMFFont_Times_Roman_12
	IMPORTS _ZTVSt9exception _ZTVSt13bad_exception _ZTVSt9bad_alloc _ZTV10TException _ZTI10TException _ZTISt9exception _ZTISt13bad_exception _ZTISt9bad_alloc _ZTS10TException _ZTSSt9exception _ZTSSt13bad_exception _ZTSSt9bad_alloc
	DECLARES 
	USES 
}
Module uftnr12.o {
	OBJECT += libtilcon.a::uftnr12.o
}
ObjectFile libtilcon.a::ufhnr18.o {
	NAME Object file ufhnr18.o from archive libtilcon.a
	EXPORTS uglBMFFont_Helvetica_18
	IMPORTS _ZTVSt9exception _ZTVSt13bad_exception _ZTVSt9bad_alloc _ZTV10TException _ZTI10TException _ZTISt9exception _ZTISt13bad_exception _ZTISt9bad_alloc _ZTS10TException _ZTSSt9exception _ZTSSt13bad_exception _ZTSSt9bad_alloc
	DECLARES 
	USES 
}
Module ufhnr18.o {
	OBJECT += libtilcon.a::ufhnr18.o
}
ObjectFile libtilcon.a::ufhni24.o {
	NAME Object file ufhni24.o from archive libtilcon.a
	EXPORTS uglBMFFont_Helvetica_Oblique_24
	IMPORTS _ZTVSt9exception _ZTVSt13bad_exception _ZTVSt9bad_alloc _ZTV10TException _ZTI10TException _ZTISt9exception _ZTISt13bad_exception _ZTISt9bad_alloc _ZTS10TException _ZTSSt9exception _ZTSSt13bad_exception _ZTSSt9bad_alloc
	DECLARES 
	USES 
}
Module ufhni24.o {
	OBJECT += libtilcon.a::ufhni24.o
}
ObjectFile libtilcon.a::ufcni18.o {
	NAME Object file ufcni18.o from archive libtilcon.a
	EXPORTS uglBMFFont_Courier_Oblique_18
	IMPORTS _ZTVSt9exception _ZTVSt13bad_exception _ZTVSt9bad_alloc _ZTV10TException _ZTI10TException _ZTISt9exception _ZTISt13bad_exception _ZTISt9bad_alloc _ZTS10TException _ZTSSt9exception _ZTSSt13bad_exception _ZTSSt9bad_alloc
	DECLARES 
	USES 
}
Module ufcni18.o {
	OBJECT += libtilcon.a::ufcni18.o
}
ObjectFile libtilcon.a::uftbi12.o {
	NAME Object file uftbi12.o from archive libtilcon.a
	EXPORTS uglBMFFont_Times_Bold_Italic_12
	IMPORTS _ZTVSt9exception _ZTVSt13bad_exception _ZTVSt9bad_alloc _ZTV10TException _ZTI10TException _ZTISt9exception _ZTISt13bad_exception _ZTISt9bad_alloc _ZTS10TException _ZTSSt9exception _ZTSSt13bad_exception _ZTSSt9bad_alloc
	DECLARES 
	USES 
}
Module uftbi12.o {
	OBJECT += libtilcon.a::uftbi12.o
}
ObjectFile libtilcon.a::uftni08.o {
	NAME Object file uftni08.o from archive libtilcon.a
	EXPORTS uglBMFFont_Times_Italic_8
	IMPORTS _ZTVSt9exception _ZTVSt13bad_exception _ZTVSt9bad_alloc _ZTV10TException _ZTI10TException _ZTISt9exception _ZTISt13bad_exception _ZTISt9bad_alloc _ZTS10TException _ZTSSt9exception _ZTSSt13bad_exception _ZTSSt9bad_alloc
	DECLARES 
	USES 
}
Module uftni08.o {
	OBJECT += libtilcon.a::uftni08.o
}
ObjectFile libtilcon.a::ufcnr18.o {
	NAME Object file ufcnr18.o from archive libtilcon.a
	EXPORTS uglBMFFont_Courier_18
	IMPORTS _ZTVSt9exception _ZTVSt13bad_exception _ZTVSt9bad_alloc _ZTV10TException _ZTI10TException _ZTISt9exception _ZTISt13bad_exception _ZTISt9bad_alloc _ZTS10TException _ZTSSt9exception _ZTSSt13bad_exception _ZTSSt9bad_alloc
	DECLARES 
	USES 
}
Module ufcnr18.o {
	OBJECT += libtilcon.a::ufcnr18.o
}
ObjectFile libtilcon.a::uflnr10.o {
	NAME Object file uflnr10.o from archive libtilcon.a
	EXPORTS uglBMFFont_Lucida_Sans_10
	IMPORTS _ZTVSt9exception _ZTVSt13bad_exception _ZTVSt9bad_alloc _ZTV10TException _ZTI10TException _ZTISt9exception _ZTISt13bad_exception _ZTISt9bad_alloc _ZTS10TException _ZTSSt9exception _ZTSSt13bad_exception _ZTSSt9bad_alloc
	DECLARES 
	USES 
}
Module uflnr10.o {
	OBJECT += libtilcon.a::uflnr10.o
}
ObjectFile libtilcon.a::uflbbi12.o {
	NAME Object file uflbbi12.o from archive libtilcon.a
	EXPORTS uglBMFFont_Lucida_Bright_Demibold_Italic_12
	IMPORTS _ZTVSt9exception _ZTVSt13bad_exception _ZTVSt9bad_alloc _ZTV10TException _ZTI10TException _ZTISt9exception _ZTISt13bad_exception _ZTISt9bad_alloc _ZTS10TException _ZTSSt9exception _ZTSSt13bad_exception _ZTSSt9bad_alloc
	DECLARES 
	USES 
}
Module uflbbi12.o {
	OBJECT += libtilcon.a::uflbbi12.o
}
ObjectFile libtilcon.a::ufcnr24.o {
	NAME Object file ufcnr24.o from archive libtilcon.a
	EXPORTS uglBMFFont_Courier_24
	IMPORTS _ZTVSt9exception _ZTVSt13bad_exception _ZTVSt9bad_alloc _ZTV10TException _ZTI10TException _ZTISt9exception _ZTISt13bad_exception _ZTISt9bad_alloc _ZTS10TException _ZTSSt9exception _ZTSSt13bad_exception _ZTSSt9bad_alloc
	DECLARES 
	USES 
}
Module ufcnr24.o {
	OBJECT += libtilcon.a::ufcnr24.o
}
ObjectFile libtilcon.a::ufhnr12.o {
	NAME Object file ufhnr12.o from archive libtilcon.a
	EXPORTS uglBMFFont_Helvetica_12
	IMPORTS _ZTVSt9exception _ZTVSt13bad_exception _ZTVSt9bad_alloc _ZTV10TException _ZTI10TException _ZTISt9exception _ZTISt13bad_exception _ZTISt9bad_alloc _ZTS10TException _ZTSSt9exception _ZTSSt13bad_exception _ZTSSt9bad_alloc
	DECLARES 
	USES 
}
Module ufhnr12.o {
	OBJECT += libtilcon.a::ufhnr12.o
}
ObjectFile libtilcon.a::uflbni14.o {
	NAME Object file uflbni14.o from archive libtilcon.a
	EXPORTS uglBMFFont_Lucida_Bright_Italic_14
	IMPORTS _ZTVSt9exception _ZTVSt13bad_exception _ZTVSt9bad_alloc _ZTV10TException _ZTI10TException _ZTISt9exception _ZTISt13bad_exception _ZTISt9bad_alloc _ZTS10TException _ZTSSt9exception _ZTSSt13bad_exception _ZTSSt9bad_alloc
	DECLARES 
	USES 
}
Module uflbni14.o {
	OBJECT += libtilcon.a::uflbni14.o
}
ObjectFile libtilcon.a::uflbbr10.o {
	NAME Object file uflbbr10.o from archive libtilcon.a
	EXPORTS uglBMFFont_Lucida_Bright_Demibold_10
	IMPORTS _ZTVSt9exception _ZTVSt13bad_exception _ZTVSt9bad_alloc _ZTV10TException _ZTI10TException _ZTISt9exception _ZTISt13bad_exception _ZTISt9bad_alloc _ZTS10TException _ZTSSt9exception _ZTSSt13bad_exception _ZTSSt9bad_alloc
	DECLARES 
	USES 
}
Module uflbbr10.o {
	OBJECT += libtilcon.a::uflbbr10.o
}
ObjectFile libtilcon.a::uflbbr19.o {
	NAME Object file uflbbr19.o from archive libtilcon.a
	EXPORTS uglBMFFont_Lucida_Bright_Demibold_19
	IMPORTS _ZTVSt9exception _ZTVSt13bad_exception _ZTVSt9bad_alloc _ZTV10TException _ZTI10TException _ZTISt9exception _ZTISt13bad_exception _ZTISt9bad_alloc _ZTS10TException _ZTSSt9exception _ZTSSt13bad_exception _ZTSSt9bad_alloc
	DECLARES 
	USES 
}
Module uflbbr19.o {
	OBJECT += libtilcon.a::uflbbr19.o
}
ObjectFile libtilcon.a::uflnr08.o {
	NAME Object file uflnr08.o from archive libtilcon.a
	EXPORTS uglBMFFont_Lucida_Sans_8
	IMPORTS _ZTVSt9exception _ZTVSt13bad_exception _ZTVSt9bad_alloc _ZTV10TException _ZTI10TException _ZTISt9exception _ZTISt13bad_exception _ZTISt9bad_alloc _ZTS10TException _ZTSSt9exception _ZTSSt13bad_exception _ZTSSt9bad_alloc
	DECLARES 
	USES 
}
Module uflnr08.o {
	OBJECT += libtilcon.a::uflnr08.o
}
ObjectFile libtilcon.a::uflbnr08.o {
	NAME Object file uflbnr08.o from archive libtilcon.a
	EXPORTS uglBMFFont_Lucida_Bright_8
	IMPORTS _ZTVSt9exception _ZTVSt13bad_exception _ZTVSt9bad_alloc _ZTV10TException _ZTI10TException _ZTISt9exception _ZTISt13bad_exception _ZTISt9bad_alloc _ZTS10TException _ZTSSt9exception _ZTSSt13bad_exception _ZTSSt9bad_alloc
	DECLARES 
	USES 
}
Module uflbnr08.o {
	OBJECT += libtilcon.a::uflbnr08.o
}
ObjectFile libtilcon.a::uflni12.o {
	NAME Object file uflni12.o from archive libtilcon.a
	EXPORTS uglBMFFont_Lucida_Sans_Italic_12
	IMPORTS _ZTVSt9exception _ZTVSt13bad_exception _ZTVSt9bad_alloc _ZTV10TException _ZTI10TException _ZTISt9exception _ZTISt13bad_exception _ZTISt9bad_alloc _ZTS10TException _ZTSSt9exception _ZTSSt13bad_exception _ZTSSt9bad_alloc
	DECLARES 
	USES 
}
Module uflni12.o {
	OBJECT += libtilcon.a::uflni12.o
}
ObjectFile libtilcon.a::ufcnr14.o {
	NAME Object file ufcnr14.o from archive libtilcon.a
	EXPORTS uglBMFFont_Courier_14
	IMPORTS _ZTVSt9exception _ZTVSt13bad_exception _ZTVSt9bad_alloc _ZTV10TException _ZTI10TException _ZTISt9exception _ZTISt13bad_exception _ZTISt9bad_alloc _ZTS10TException _ZTSSt9exception _ZTSSt13bad_exception _ZTSSt9bad_alloc
	DECLARES 
	USES 
}
Module ufcnr14.o {
	OBJECT += libtilcon.a::ufcnr14.o
}
ObjectFile libtilcon.a::uflnr18.o {
	NAME Object file uflnr18.o from archive libtilcon.a
	EXPORTS uglBMFFont_Lucida_Sans_18
	IMPORTS _ZTVSt9exception _ZTVSt13bad_exception _ZTVSt9bad_alloc _ZTV10TException _ZTI10TException _ZTISt9exception _ZTISt13bad_exception _ZTISt9bad_alloc _ZTS10TException _ZTSSt9exception _ZTSSt13bad_exception _ZTSSt9bad_alloc
	DECLARES 
	USES 
}
Module uflnr18.o {
	OBJECT += libtilcon.a::uflnr18.o
}
ObjectFile libtilcon.a::uftbr18.o {
	NAME Object file uftbr18.o from archive libtilcon.a
	EXPORTS uglBMFFont_Times_Bold_18
	IMPORTS _ZTVSt9exception _ZTVSt13bad_exception _ZTVSt9bad_alloc _ZTV10TException _ZTI10TException _ZTISt9exception _ZTISt13bad_exception _ZTISt9bad_alloc _ZTS10TException _ZTSSt9exception _ZTSSt13bad_exception _ZTSSt9bad_alloc
	DECLARES 
	USES 
}
Module uftbr18.o {
	OBJECT += libtilcon.a::uftbr18.o
}
ObjectFile libtilcon.a::uflbr12.o {
	NAME Object file uflbr12.o from archive libtilcon.a
	EXPORTS uglBMFFont_Lucida_Sans_Bold_12
	IMPORTS _ZTVSt9exception _ZTVSt13bad_exception _ZTVSt9bad_alloc _ZTV10TException _ZTI10TException _ZTISt9exception _ZTISt13bad_exception _ZTISt9bad_alloc _ZTS10TException _ZTSSt9exception _ZTSSt13bad_exception _ZTSSt9bad_alloc
	DECLARES 
	USES 
}
Module uflbr12.o {
	OBJECT += libtilcon.a::uflbr12.o
}
ObjectFile libtilcon.a::uflbbi10.o {
	NAME Object file uflbbi10.o from archive libtilcon.a
	EXPORTS uglBMFFont_Lucida_Bright_Demibold_Italic_10
	IMPORTS _ZTVSt9exception _ZTVSt13bad_exception _ZTVSt9bad_alloc _ZTV10TException _ZTI10TException _ZTISt9exception _ZTISt13bad_exception _ZTISt9bad_alloc _ZTS10TException _ZTSSt9exception _ZTSSt13bad_exception _ZTSSt9bad_alloc
	DECLARES 
	USES 
}
Module uflbbi10.o {
	OBJECT += libtilcon.a::uflbbi10.o
}
ObjectFile libtilcon.a::uflni14.o {
	NAME Object file uflni14.o from archive libtilcon.a
	EXPORTS uglBMFFont_Lucida_Sans_Italic_14
	IMPORTS _ZTVSt9exception _ZTVSt13bad_exception _ZTVSt9bad_alloc _ZTV10TException _ZTI10TException _ZTISt9exception _ZTISt13bad_exception _ZTISt9bad_alloc _ZTS10TException _ZTSSt9exception _ZTSSt13bad_exception _ZTSSt9bad_alloc
	DECLARES 
	USES 
}
Module uflni14.o {
	OBJECT += libtilcon.a::uflni14.o
}
ObjectFile libtilcon.a::uflbni18.o {
	NAME Object file uflbni18.o from archive libtilcon.a
	EXPORTS uglBMFFont_Lucida_Bright_Italic_18
	IMPORTS _ZTVSt9exception _ZTVSt13bad_exception _ZTVSt9bad_alloc _ZTV10TException _ZTI10TException _ZTISt9exception _ZTISt13bad_exception _ZTISt9bad_alloc _ZTS10TException _ZTSSt9exception _ZTSSt13bad_exception _ZTSSt9bad_alloc
	DECLARES 
	USES 
}
Module uflbni18.o {
	OBJECT += libtilcon.a::uflbni18.o
}
ObjectFile libtilcon.a::uftbr14.o {
	NAME Object file uftbr14.o from archive libtilcon.a
	EXPORTS uglBMFFont_Times_Bold_14
	IMPORTS _ZTVSt9exception _ZTVSt13bad_exception _ZTVSt9bad_alloc _ZTV10TException _ZTI10TException _ZTISt9exception _ZTISt13bad_exception _ZTISt9bad_alloc _ZTS10TException _ZTSSt9exception _ZTSSt13bad_exception _ZTSSt9bad_alloc
	DECLARES 
	USES 
}
Module uftbr14.o {
	OBJECT += libtilcon.a::uftbr14.o
}
ObjectFile libtilcon.a::ufcbr12.o {
	NAME Object file ufcbr12.o from archive libtilcon.a
	EXPORTS uglBMFFont_Courier_Bold_12
	IMPORTS _ZTVSt9exception _ZTVSt13bad_exception _ZTVSt9bad_alloc _ZTV10TException _ZTI10TException _ZTISt9exception _ZTISt13bad_exception _ZTISt9bad_alloc _ZTS10TException _ZTSSt9exception _ZTSSt13bad_exception _ZTSSt9bad_alloc
	DECLARES 
	USES 
}
Module ufcbr12.o {
	OBJECT += libtilcon.a::ufcbr12.o
}
ObjectFile libtilcon.a::ufhnr10.o {
	NAME Object file ufhnr10.o from archive libtilcon.a
	EXPORTS uglBMFFont_Helvetica_10
	IMPORTS _ZTVSt9exception _ZTVSt13bad_exception _ZTVSt9bad_alloc _ZTV10TException _ZTI10TException _ZTISt9exception _ZTISt13bad_exception _ZTISt9bad_alloc _ZTS10TException _ZTSSt9exception _ZTSSt13bad_exception _ZTSSt9bad_alloc
	DECLARES 
	USES 
}
Module ufhnr10.o {
	OBJECT += libtilcon.a::ufhnr10.o
}
ObjectFile libtilcon.a::uftni12.o {
	NAME Object file uftni12.o from archive libtilcon.a
	EXPORTS uglBMFFont_Times_Italic_12
	IMPORTS _ZTVSt9exception _ZTVSt13bad_exception _ZTVSt9bad_alloc _ZTV10TException _ZTI10TException _ZTISt9exception _ZTISt13bad_exception _ZTISt9bad_alloc _ZTS10TException _ZTSSt9exception _ZTSSt13bad_exception _ZTSSt9bad_alloc
	DECLARES 
	USES 
}
Module uftni12.o {
	OBJECT += libtilcon.a::uftni12.o
}
ObjectFile libtilcon.a::uflbi19.o {
	NAME Object file uflbi19.o from archive libtilcon.a
	EXPORTS uglBMFFont_Lucida_Sans_Bold_Italic_19
	IMPORTS _ZTVSt9exception _ZTVSt13bad_exception _ZTVSt9bad_alloc _ZTV10TException _ZTI10TException _ZTISt9exception _ZTISt13bad_exception _ZTISt9bad_alloc _ZTS10TException _ZTSSt9exception _ZTSSt13bad_exception _ZTSSt9bad_alloc
	DECLARES 
	USES 
}
Module uflbi19.o {
	OBJECT += libtilcon.a::uflbi19.o
}
ObjectFile libtilcon.a::ufhni14.o {
	NAME Object file ufhni14.o from archive libtilcon.a
	EXPORTS uglBMFFont_Helvetica_Oblique_14
	IMPORTS _ZTVSt9exception _ZTVSt13bad_exception _ZTVSt9bad_alloc _ZTV10TException _ZTI10TException _ZTISt9exception _ZTISt13bad_exception _ZTISt9bad_alloc _ZTS10TException _ZTSSt9exception _ZTSSt13bad_exception _ZTSSt9bad_alloc
	DECLARES 
	USES 
}
Module ufhni14.o {
	OBJECT += libtilcon.a::ufhni14.o
}
ObjectFile libtilcon.a::ufcni24.o {
	NAME Object file ufcni24.o from archive libtilcon.a
	EXPORTS uglBMFFont_Courier_Oblique_24
	IMPORTS _ZTVSt9exception _ZTVSt13bad_exception _ZTVSt9bad_alloc _ZTV10TException _ZTI10TException _ZTISt9exception _ZTISt13bad_exception _ZTISt9bad_alloc _ZTS10TException _ZTSSt9exception _ZTSSt13bad_exception _ZTSSt9bad_alloc
	DECLARES 
	USES 
}
Module ufcni24.o {
	OBJECT += libtilcon.a::ufcni24.o
}
ObjectFile libtilcon.a::uflbbi24.o {
	NAME Object file uflbbi24.o from archive libtilcon.a
	EXPORTS uglBMFFont_Lucida_Bright_Demibold_Italic_24
	IMPORTS _ZTVSt9exception _ZTVSt13bad_exception _ZTVSt9bad_alloc _ZTV10TException _ZTI10TException _ZTISt9exception _ZTISt13bad_exception _ZTISt9bad_alloc _ZTS10TException _ZTSSt9exception _ZTSSt13bad_exception _ZTSSt9bad_alloc
	DECLARES 
	USES 
}
Module uflbbi24.o {
	OBJECT += libtilcon.a::uflbbi24.o
}
ObjectFile libtilcon.a::ufcnr10.o {
	NAME Object file ufcnr10.o from archive libtilcon.a
	EXPORTS uglBMFFont_Courier_10
	IMPORTS _ZTVSt9exception _ZTVSt13bad_exception _ZTVSt9bad_alloc _ZTV10TException _ZTI10TException _ZTISt9exception _ZTISt13bad_exception _ZTISt9bad_alloc _ZTS10TException _ZTSSt9exception _ZTSSt13bad_exception _ZTSSt9bad_alloc
	DECLARES 
	USES 
}
Module ufcnr10.o {
	OBJECT += libtilcon.a::ufcnr10.o
}
ObjectFile libtilcon.a::uflbi24.o {
	NAME Object file uflbi24.o from archive libtilcon.a
	EXPORTS uglBMFFont_Lucida_Sans_Bold_Italic_24
	IMPORTS _ZTVSt9exception _ZTVSt13bad_exception _ZTVSt9bad_alloc _ZTV10TException _ZTI10TException _ZTISt9exception _ZTISt13bad_exception _ZTISt9bad_alloc _ZTS10TException _ZTSSt9exception _ZTSSt13bad_exception _ZTSSt9bad_alloc
	DECLARES 
	USES 
}
Module uflbi24.o {
	OBJECT += libtilcon.a::uflbi24.o
}
ObjectFile libtilcon.a::uftnr24.o {
	NAME Object file uftnr24.o from archive libtilcon.a
	EXPORTS uglBMFFont_Times_Roman_24
	IMPORTS _ZTVSt9exception _ZTVSt13bad_exception _ZTVSt9bad_alloc _ZTV10TException _ZTI10TException _ZTISt9exception _ZTISt13bad_exception _ZTISt9bad_alloc _ZTS10TException _ZTSSt9exception _ZTSSt13bad_exception _ZTSSt9bad_alloc
	DECLARES 
	USES 
}
Module uftnr24.o {
	OBJECT += libtilcon.a::uftnr24.o
}
ObjectFile libtilcon.a::uftbi18.o {
	NAME Object file uftbi18.o from archive libtilcon.a
	EXPORTS uglBMFFont_Times_Bold_Italic_18
	IMPORTS _ZTVSt9exception _ZTVSt13bad_exception _ZTVSt9bad_alloc _ZTV10TException _ZTI10TException _ZTISt9exception _ZTISt13bad_exception _ZTISt9bad_alloc _ZTS10TException _ZTSSt9exception _ZTSSt13bad_exception _ZTSSt9bad_alloc
	DECLARES 
	USES 
}
Module uftbi18.o {
	OBJECT += libtilcon.a::uftbi18.o
}
ObjectFile libtilcon.a::uflni10.o {
	NAME Object file uflni10.o from archive libtilcon.a
	EXPORTS uglBMFFont_Lucida_Sans_Italic_10
	IMPORTS _ZTVSt9exception _ZTVSt13bad_exception _ZTVSt9bad_alloc _ZTV10TException _ZTI10TException _ZTISt9exception _ZTISt13bad_exception _ZTISt9bad_alloc _ZTS10TException _ZTSSt9exception _ZTSSt13bad_exception _ZTSSt9bad_alloc
	DECLARES 
	USES 
}
Module uflni10.o {
	OBJECT += libtilcon.a::uflni10.o
}
ObjectFile libtilcon.a::uflbni08.o {
	NAME Object file uflbni08.o from archive libtilcon.a
	EXPORTS uglBMFFont_Lucida_Bright_Italic_8
	IMPORTS _ZTVSt9exception _ZTVSt13bad_exception _ZTVSt9bad_alloc _ZTV10TException _ZTI10TException _ZTISt9exception _ZTISt13bad_exception _ZTISt9bad_alloc _ZTS10TException _ZTSSt9exception _ZTSSt13bad_exception _ZTSSt9bad_alloc
	DECLARES 
	USES 
}
Module uflbni08.o {
	OBJECT += libtilcon.a::uflbni08.o
}
ObjectFile libtilcon.a::uflni18.o {
	NAME Object file uflni18.o from archive libtilcon.a
	EXPORTS uglBMFFont_Lucida_Sans_Italic_18
	IMPORTS _ZTVSt9exception _ZTVSt13bad_exception _ZTVSt9bad_alloc _ZTV10TException _ZTI10TException _ZTISt9exception _ZTISt13bad_exception _ZTISt9bad_alloc _ZTS10TException _ZTSSt9exception _ZTSSt13bad_exception _ZTSSt9bad_alloc
	DECLARES 
	USES 
}
Module uflni18.o {
	OBJECT += libtilcon.a::uflni18.o
}
ObjectFile libtilcon.a::uftbr12.o {
	NAME Object file uftbr12.o from archive libtilcon.a
	EXPORTS uglBMFFont_Times_Bold_12
	IMPORTS _ZTVSt9exception _ZTVSt13bad_exception _ZTVSt9bad_alloc _ZTV10TException _ZTI10TException _ZTISt9exception _ZTISt13bad_exception _ZTISt9bad_alloc _ZTS10TException _ZTSSt9exception _ZTSSt13bad_exception _ZTSSt9bad_alloc
	DECLARES 
	USES 
}
Module uftbr12.o {
	OBJECT += libtilcon.a::uftbr12.o
}
ObjectFile libtilcon.a::ufhni08.o {
	NAME Object file ufhni08.o from archive libtilcon.a
	EXPORTS uglBMFFont_Helvetica_Oblique_8
	IMPORTS _ZTVSt9exception _ZTVSt13bad_exception _ZTVSt9bad_alloc _ZTV10TException _ZTI10TException _ZTISt9exception _ZTISt13bad_exception _ZTISt9bad_alloc _ZTS10TException _ZTSSt9exception _ZTSSt13bad_exception _ZTSSt9bad_alloc
	DECLARES 
	USES 
}
Module ufhni08.o {
	OBJECT += libtilcon.a::ufhni08.o
}
ObjectFile libtilcon.a::uftnr14.o {
	NAME Object file uftnr14.o from archive libtilcon.a
	EXPORTS uglBMFFont_Times_Roman_14
	IMPORTS _ZTVSt9exception _ZTVSt13bad_exception _ZTVSt9bad_alloc _ZTV10TException _ZTI10TException _ZTISt9exception _ZTISt13bad_exception _ZTISt9bad_alloc _ZTS10TException _ZTSSt9exception _ZTSSt13bad_exception _ZTSSt9bad_alloc
	DECLARES 
	USES 
}
Module uftnr14.o {
	OBJECT += libtilcon.a::uftnr14.o
}
ObjectFile libtilcon.a::ufhbi08.o {
	NAME Object file ufhbi08.o from archive libtilcon.a
	EXPORTS uglBMFFont_Helvetica_Bold_Oblique_8
	IMPORTS _ZTVSt9exception _ZTVSt13bad_exception _ZTVSt9bad_alloc _ZTV10TException _ZTI10TException _ZTISt9exception _ZTISt13bad_exception _ZTISt9bad_alloc _ZTS10TException _ZTSSt9exception _ZTSSt13bad_exception _ZTSSt9bad_alloc
	DECLARES 
	USES 
}
Module ufhbi08.o {
	OBJECT += libtilcon.a::ufhbi08.o
}
ObjectFile libtilcon.a::uflbbi19.o {
	NAME Object file uflbbi19.o from archive libtilcon.a
	EXPORTS uglBMFFont_Lucida_Bright_Demibold_Italic_19
	IMPORTS _ZTVSt9exception _ZTVSt13bad_exception _ZTVSt9bad_alloc _ZTV10TException _ZTI10TException _ZTISt9exception _ZTISt13bad_exception _ZTISt9bad_alloc _ZTS10TException _ZTSSt9exception _ZTSSt13bad_exception _ZTSSt9bad_alloc
	DECLARES 
	USES 
}
Module uflbbi19.o {
	OBJECT += libtilcon.a::uflbbi19.o
}
ObjectFile libtilcon.a::ufhbr18.o {
	NAME Object file ufhbr18.o from archive libtilcon.a
	EXPORTS uglBMFFont_Helvetica_Bold_18
	IMPORTS _ZTVSt9exception _ZTVSt13bad_exception _ZTVSt9bad_alloc _ZTV10TException _ZTI10TException _ZTISt9exception _ZTISt13bad_exception _ZTISt9bad_alloc _ZTS10TException _ZTSSt9exception _ZTSSt13bad_exception _ZTSSt9bad_alloc
	DECLARES 
	USES 
}
Module ufhbr18.o {
	OBJECT += libtilcon.a::ufhbr18.o
}
ObjectFile libtilcon.a::BuiltInTtfFont.o {
	NAME Object file BuiltInTtfFont.o from archive libtilcon.a
	EXPORTS startLuxirr endLuxirr startLuxisr endLuxisr startLuximr endLuximr
	IMPORTS 
	DECLARES 
	USES 
}
Module BuiltInTtfFont.o {
	OBJECT += libtilcon.a::BuiltInTtfFont.o
}
ObjectFile libtilcon.a::vxfbPlatformSupport.o {
	NAME Object file vxfbPlatformSupport.o from archive libtilcon.a
	EXPORTS _ZTV10TException _ZTV20TVXFBPlatformSupport _ZTI10TException _ZTI9TPlatform _ZTI20TVXFBPlatformSupport _ZTS10TException _ZTIN10TException4TypeE _ZTSN10TException4TypeE _ZTS9TPlatform _ZTS20TVXFBPlatformSupport _Z26DestroyVXFBPlatformSupportP9TPlatform _ZN6_TRectIiEC1Ev _ZN20TVXFBPlatformSupport8InstanceEv _ZN20TVXFBPlatformSupport19vxfbPlatformSupportE _ZN10TExceptionD1Ev _ZN20TVXFBPlatformSupport12VXFBTimerSetEv _ZN20TVXFBPlatformSupport23VXFBTimerSignalCallbackEiP7siginfoPv _ZN20TVXFBPlatformSupport4InitEv _ZN20TVXFBPlatformSupport13VXFBInputTaskEv _ZN20TVXFBPlatformSupport6DeinitEv _ZN20TVXFBPlatformSupportC1ERK9TAppParam _Z25CreateVXFBPlatformSupportRK9TAppParam _ZN10TExceptionD0Ev _ZN7_TPointIiED1Ev _ZN20TVXFBPlatformSupportC2ERK9TAppParam _ZN20TVXFBPlatformSupportD1Ev _ZN20TVXFBPlatformSupportD2Ev _ZN20TVXFBPlatformSupportD0Ev _ZN20TVXFBPlatformSupport13GetScreenInfoER11TScreenInfo _ZN20TVXFBPlatformSupport11SaveSurfaceEPvRK7_TPointIiES4_RK6_TSizeIiE _ZN20TVXFBPlatformSupport11BlitSurfaceEPvRK7_TPointIiES4_RK6_TSizeIiE _ZN20TVXFBPlatformSupport10PostScreenEiPKi _ZN20TVXFBPlatformSupport10SwapScreenEv _ZN20TVXFBPlatformSupport11WaitMessageER8_app_msgi _ZN20TVXFBPlatformSupport11SendMessageERK8_app_msgi _ZN20TVXFBPlatformSupport10GetDisplayEv
	IMPORTS _ZTVSt9exception _ZTVSt13bad_exception _ZTVSt9bad_alloc _ZTV17TChildrenDelegate _ZTV6TImage _ZTV9TPlatform _ZTV6TArrayIP5TNodeE _ZTV6TArrayI9ColorStopE _ZTI17TChildrenDelegate _ZTI6TArrayIP5TNodeE _ZTI6TImage _ZTI6TArrayI9ColorStopE _ZTISt9exception _ZTISt13bad_exception _ZTISt9bad_alloc _ZTS17TChildrenDelegate _ZTS6TArrayIP5TNodeE _ZTS6TImage _ZTS6TArrayI9ColorStopE _ZTSSt9exception _ZTSSt13bad_exception _ZTSSt9bad_alloc __frameinfo_used _ZN6_TRectIiE8nullRectE open printf ioctl close read __cxa_allocate_exception __cxa_throw clock_gettime __div32 sigemptyset sigaction memset timer_create timer_settime msgQCreate _ZN7TStringC1EPKc _ZNK7TStringeqERKS_ free memcpy taskSpawn __diab_Unwind_Resume __diab_personality_v0 taskWait timer_delete msgQDelete _ZN7TStringC1Ev _ZN7TStringaSERKS_ _Z17InitDisplaySystemPhiii __cxa_end_catch __cxa_begin_catch _Z19DeinitDisplaySystemP8TDisplay __cxa_rethrow _Znwj _ZdlPv msgQReceive msgQSend __cxa_guard_acquire __cxa_atexit __dso_handle __cxa_guard_release sigaddset sigprocmask errnoGet __cxa_guard_abort _ZTVN10__cxxabiv117__class_type_infoE _ZTVN10__cxxabiv120__si_class_type_infoE _ZTVN10__cxxabiv116__enum_type_infoE
	DECLARES 
	USES 
}
Module vxfbPlatformSupport.o {
	OBJECT += libtilcon.a::vxfbPlatformSupport.o
}
ObjectFile libtilcon.a::tilconConfig.o {
	NAME Object file tilconConfig.o from archive libtilcon.a
	EXPORTS _Z22DestroyPlatformSupportP9TPlatform _Z21CreatePlatformSupportRK9TAppParam _STI___16_tilconConfig_cpp_d31d4a20 luxirrFontDesc luxisrFontDesc luximrFontDesc bmfFontDescs ttfFontDescs
	IMPORTS _ZTVSt9exception _ZTVSt13bad_exception _ZTVSt9bad_alloc _ZTV10TException _ZTV17TChildrenDelegate _ZTV6TImage _ZTV6TArrayIP5TNodeE _ZTV6TArrayI9ColorStopE _ZTI10TException _ZTI17TChildrenDelegate _ZTI6TArrayIP5TNodeE _ZTI6TImage _ZTI6TArrayI9ColorStopE _ZTISt9exception _ZTISt13bad_exception _ZTISt9bad_alloc _ZTS10TException _ZTS17TChildrenDelegate _ZTS6TArrayIP5TNodeE _ZTS6TImage _ZTS6TArrayI9ColorStopE _ZTSSt9exception _ZTSSt13bad_exception _ZTSSt9bad_alloc __frameinfo_used _Z26DestroyVXFBPlatformSupportP9TPlatform _Z25CreateVXFBPlatformSupportRK9TAppParam endLuxirr startLuxirr endLuxisr startLuxisr endLuximr startLuximr uglBMFFont_Courier_10 uglBMFFont_Courier_12 uglBMFFont_Courier_14 uglBMFFont_Courier_18 uglBMFFont_Courier_24 uglBMFFont_Courier_8 uglBMFFont_Courier_Bold_10 uglBMFFont_Courier_Bold_12 uglBMFFont_Courier_Bold_14 uglBMFFont_Courier_Bold_18 uglBMFFont_Courier_Bold_24 uglBMFFont_Courier_Bold_8 uglBMFFont_Courier_Bold_Oblique_10 uglBMFFont_Courier_Bold_Oblique_12 uglBMFFont_Courier_Bold_Oblique_14 uglBMFFont_Courier_Bold_Oblique_18 uglBMFFont_Courier_Bold_Oblique_24 uglBMFFont_Courier_Bold_Oblique_8 uglBMFFont_Courier_Oblique_10 uglBMFFont_Courier_Oblique_12 uglBMFFont_Courier_Oblique_14 uglBMFFont_Courier_Oblique_18 uglBMFFont_Courier_Oblique_24 uglBMFFont_Courier_Oblique_8 uglBMFFont_Helvetica_10 uglBMFFont_Helvetica_12 uglBMFFont_Helvetica_14 uglBMFFont_Helvetica_18 uglBMFFont_Helvetica_24 uglBMFFont_Helvetica_8 uglBMFFont_Helvetica_Bold_10 uglBMFFont_Helvetica_Bold_12 uglBMFFont_Helvetica_Bold_14 uglBMFFont_Helvetica_Bold_18 uglBMFFont_Helvetica_Bold_24 uglBMFFont_Helvetica_Bold_8 uglBMFFont_Helvetica_Bold_Oblique_10 uglBMFFont_Helvetica_Bold_Oblique_12 uglBMFFont_Helvetica_Bold_Oblique_14 uglBMFFont_Helvetica_Bold_Oblique_18 uglBMFFont_Helvetica_Bold_Oblique_24 uglBMFFont_Helvetica_Bold_Oblique_8 uglBMFFont_Helvetica_Oblique_10 uglBMFFont_Helvetica_Oblique_12 uglBMFFont_Helvetica_Oblique_14 uglBMFFont_Helvetica_Oblique_18 uglBMFFont_Helvetica_Oblique_24 uglBMFFont_Helvetica_Oblique_8 uglBMFFont_Lucida_Bright_10 uglBMFFont_Lucida_Bright_12 uglBMFFont_Lucida_Bright_14 uglBMFFont_Lucida_Bright_18 uglBMFFont_Lucida_Bright_19 uglBMFFont_Lucida_Bright_24 uglBMFFont_Lucida_Bright_8 uglBMFFont_Lucida_Bright_Demibold_10 uglBMFFont_Lucida_Bright_Demibold_12 uglBMFFont_Lucida_Bright_Demibold_14 uglBMFFont_Lucida_Bright_Demibold_18 uglBMFFont_Lucida_Bright_Demibold_19 uglBMFFont_Lucida_Bright_Demibold_24 uglBMFFont_Lucida_Bright_Demibold_8 uglBMFFont_Lucida_Bright_Demibold_Italic_10 uglBMFFont_Lucida_Bright_Demibold_Italic_12 uglBMFFont_Lucida_Bright_Demibold_Italic_14 uglBMFFont_Lucida_Bright_Demibold_Italic_18 uglBMFFont_Lucida_Bright_Demibold_Italic_19 uglBMFFont_Lucida_Bright_Demibold_Italic_24 uglBMFFont_Lucida_Bright_Demibold_Italic_8 uglBMFFont_Lucida_Bright_Italic_10 uglBMFFont_Lucida_Bright_Italic_12 uglBMFFont_Lucida_Bright_Italic_14 uglBMFFont_Lucida_Bright_Italic_18 uglBMFFont_Lucida_Bright_Italic_19 uglBMFFont_Lucida_Bright_Italic_24 uglBMFFont_Lucida_Bright_Italic_8 uglBMFFont_Lucida_Sans_10 uglBMFFont_Lucida_Sans_12 uglBMFFont_Lucida_Sans_14 uglBMFFont_Lucida_Sans_18 uglBMFFont_Lucida_Sans_19 uglBMFFont_Lucida_Sans_24 uglBMFFont_Lucida_Sans_8 uglBMFFont_Lucida_Sans_Bold_10 uglBMFFont_Lucida_Sans_Bold_12 uglBMFFont_Lucida_Sans_Bold_14 uglBMFFont_Lucida_Sans_Bold_18 uglBMFFont_Lucida_Sans_Bold_19 uglBMFFont_Lucida_Sans_Bold_24 uglBMFFont_Lucida_Sans_Bold_8 uglBMFFont_Lucida_Sans_Bold_Italic_10 uglBMFFont_Lucida_Sans_Bold_Italic_12 uglBMFFont_Lucida_Sans_Bold_Italic_14 uglBMFFont_Lucida_Sans_Bold_Italic_18 uglBMFFont_Lucida_Sans_Bold_Italic_19 uglBMFFont_Lucida_Sans_Bold_Italic_24 uglBMFFont_Lucida_Sans_Bold_Italic_8 uglBMFFont_Lucida_Sans_Italic_10 uglBMFFont_Lucida_Sans_Italic_12 uglBMFFont_Lucida_Sans_Italic_14 uglBMFFont_Lucida_Sans_Italic_18 uglBMFFont_Lucida_Sans_Italic_19 uglBMFFont_Lucida_Sans_Italic_24 uglBMFFont_Lucida_Sans_Italic_8 uglBMFFont_Times_Bold_10 uglBMFFont_Times_Bold_12 uglBMFFont_Times_Bold_14 uglBMFFont_Times_Bold_18 uglBMFFont_Times_Bold_24 uglBMFFont_Times_Bold_8 uglBMFFont_Times_Bold_Italic_10 uglBMFFont_Times_Bold_Italic_12 uglBMFFont_Times_Bold_Italic_14 uglBMFFont_Times_Bold_Italic_18 uglBMFFont_Times_Bold_Italic_24 uglBMFFont_Times_Bold_Italic_8 uglBMFFont_Times_Italic_10 uglBMFFont_Times_Italic_12 uglBMFFont_Times_Italic_14 uglBMFFont_Times_Italic_18 uglBMFFont_Times_Italic_24 uglBMFFont_Times_Italic_8 uglBMFFont_Times_Roman_10 uglBMFFont_Times_Roman_12 uglBMFFont_Times_Roman_14 uglBMFFont_Times_Roman_18 uglBMFFont_Times_Roman_24 uglBMFFont_Times_Roman_8
	DECLARES 
	USES 
}
Module tilconConfig.o {
	OBJECT += libtilcon.a::tilconConfig.o
}
ObjectFile libtilcon.a::trPainter.o {
	NAME Object file trPainter.o from archive libtilcon.a
	EXPORTS _ZTV10TException _ZTI10TException _ZTS10TException _ZN10TExceptionD1Ev _ZN10TExceptionD0Ev _ZN10TMatrix3x3C1Ev _ZN10TMatrix3x3C1ERKS_ _ZN10TMatrix3x3C1Efffffffff _ZN10TMatrix3x3aSERKS_ _ZNK10TMatrix3x3mlERK8TVector2 _ZNK10TMatrix3x3mlERKS_ _ZN10TMatrix3x39TranslateEff _ZN10TMatrix3x35ScaleEff _ZN6TColorC1ERKS_ _ZN6_TRectIiEC1Ev _ZN6_TRectIiEC1ERKS0_ _ZN6_TRectIiEC1ERK7_TPointIiERK6_TSizeIiE _ZN6_TRectIiEC1ERK7_TPointIiES4_ _ZNK6_TRectIiEplERK7_TPointIiE _ZNK6_TRectIiEmiERK7_TPointIiE _ZNK6_TRectIiE9IntersectERKS0_ _ZN6_TRectIiEpLERK7_TPointIiE _ZNK6TArrayIN3tds4Path7SegmentEEixEi _ZNK6TArrayI9ColorStopEixEi _ZN7_TPointIiEC1Ev _ZN7_TPointIiED1Ev _ZN3tds7Context13ClearClipRectEv _ZN3tds7Context13SetRenderAreaERK7_TPointIiERK6_TRectIiE _ZN3tds7Context15ResetRenderAreaEv _ZN3tds7Context11SetClipRectERK6_TRectIiE _ZN3tds7PainterC1Eii _ZN3tds7PainterC2Eii _ZN3tds7PainterD1Ev _ZN3tds7PainterD2Ev _ZN3tds7Painter10BeginPaintERNS_7ContextERNS_11ColorBufferE _ZN3tds7Painter8EndPaintERNS_7ContextE _ZN3tds7Painter13RasterSegmentERK8TVector2S3_ _ZN3tds7Painter8TessLineERK8TVector2S3_ _ZN3tds7Painter18TessStrokeInternalENS0_11TessCommandERK8TVector2RNS0_13StrokePainterE _ZN3tds7Painter13StrokePainterC1Ev _ZN3tds7Painter14TessStrokePathEPK7_TPointIfEji _ZN3tds7Painter10StrokePathERNS_7ContextEPK7_TPointIfEji _ZN3tds7Painter12TessFillPathEPK7_TPointIfEj _ZN3tds7Painter8FillPathERNS_7ContextEPK7_TPointIfEj _ZN3tds7Painter10SplitCurveEPi _ZN3tds7Painter21TessStrokeCubicBezierERK8TVector2S3_S3_S3_RNS0_13StrokePainterE _ZN3tds7Painter14TessStrokePathERKNS_4PathE _ZN3tds7Painter10StrokePathERNS_7ContextERKNS_4PathE _ZN3tds7Painter15TessCubicBezierERK8TVector2S3_S3_S3_ _ZN3tds7Painter12TessFillPathERKNS_4PathE _ZN3tds7Painter8FillPathERNS_7ContextERKNS_4PathE _ZN3tds7Painter13FillSolidRectERNS_7ContextERK6_TRectIiERK6TColor _ZN3tds7Painter9DrawVLineERNS_7ContextEiii _ZN3tds7Painter12DrawDashLineERNS_7ContextERK7_TPointIiES6_ _ZN3tds7Painter28BresenhanLineBoundaryDataGetER7_TPointIiES3_PPS2_iPj _ZN3tds7Painter16DrawScanLineDataERNS_7ContextEPPiii _ZN3tds7Painter11DrawPolygonERNS_7ContextEPK7_TPointIiEi _ZN3tds7Painter11DrawLineExeERNS_7ContextERK7_TPointIiES6_ _ZN3tds7Painter20BresenhanLineDataGetERK7_TPointIiES4_PPS2_iPj _ZN3tds7Painter9DrawHLineERNS_7ContextEiii _ZN3tds7Painter17DrawBresenhanLineERNS_7ContextERK7_TPointIiES6_ _ZN3tds7Painter8DrawLineERNS_7ContextERK7_TPointIiES6_ _ZN3tds7Painter8DrawRectERNS_7ContextERK6_TRectIiEi _ZN3tds7Painter9DrawImageERNS_7ContextERK6TImageii _ZN3tds7Painter15DrawPixelBufferERNS_7ContextERKNS_11ColorBufferEii _ZN3tds7Painter10DrawCircleERNS_7ContextERK6_TRectIiE _ZN3tds7Painter11DrawEllipseERNS_7ContextERK6_TRectIiE _ZN3tds7Painter7DrawArcERNS_7ContextERK6_TRectIiERK7_TPointIiESA_ _ZN3tds7Painter7DrawPieERNS_7ContextERK6_TRectIiERK7_TPointIiESA_ _ZN3tds7Painter14DrawVectorTextERNS_7ContextERKNS_10VectorFontEfffPKwi _ZN3tds7Painter11DrawBmfTextERNS_7ContextERKNS_7BmfFontEffPKwi _ZN3tds7Painter11DrawUCSTextERNS_7ContextEffPKwi _ZN3tds7Painter14MeasureUCSTextERNS_7ContextEPKwi _ZN3tds7Painter6CopyToERNS_7ContextERNS_11ColorBufferEiiiiii _ZN3tds7Painter8CopyFromERNS_7ContextERKNS_11ColorBufferEiiiiii _ZN3tds7Painter17TessPathByCommandEiPKNS_4Path7SegmentE _ZN3tds16GetGradientColorERK9TGradientff10TMatrix3x3
	IMPORTS _ZTVSt9exception _ZTVSt13bad_exception _ZTVSt9bad_alloc _ZTV6TImage _ZTV6TArrayIN3tds4Path7SegmentEE _ZTV6TArrayI9ColorStopE _ZTI6TImage _ZTI6TArrayIN3tds4Path7SegmentEE _ZTI6TArrayI9ColorStopE _ZTISt9exception _ZTISt13bad_exception _ZTISt9bad_alloc _ZTS6TImage _ZTS6TArrayIN3tds4Path7SegmentEE _ZTS6TArrayI9ColorStopE _ZTSSt9exception _ZTSSt13bad_exception _ZTSSt9bad_alloc _ZdlPv _ZN6_TRectIiE8nullRectE __frameinfo_used __cxa_allocate_exception __cxa_throw _ZN6_TRectIiE7maxRectE _Znwj _ZN3tds10RasterizerC1Eii __diab_Unwind_Resume __diab_personality_v0 _ZN3tds10RasterizerD1Ev _ZN3tds10Rasterizer11TessSegmentEiiii _ZN8TVector29NormalizeEv _ZN3tds10Rasterizer5BeginEPNS_7ContextE _ZN3tds10Rasterizer8ScanlineEv labs abs _ZN3tds11ColorBuffer8SetColorERK6TColorii _ZN3tds11ColorBuffer10BlendColorERK6TColorii __div32 malloc memmove free __cxa_vec_ctor __cxa_vec_dtor _ZNK6TImage9GetHeightEv _ZNK6TImage8GetWidthEv _ZNK6TImage9GetBufferEii _ZNK6TImage9GetStrideEv _ZNK6TImage9GetFormatEv _ZN3tds11ColorBuffer9BlendFromEPKh11ColorFormatiRK7_TPointIiERK6_TSizeIiE _ZN3tds11ColorBuffer9BlendFromERKS0_iiiiii _ZN3tds8TEllipseC1ERNS_7ContextERK6_TRectIiERK7_TPointIiESA_b _ZN3tds8TEllipse11EllipseDrawEv _ZN3tds8TEllipseD1Ev _ZNK3tds10VectorFont8GetGlyphEj _ZNK8TBmfFont10GetMetricsER11FontMetrics _ZNK8TBmfFont8GetGlyphEw _ZNK5TFont7GetTypeEv _ZNK5TFont12GetPointSizeEv _ZNK8TTtfFont9GetHeightEv _ZNK3tds10VectorFont16MeasureTextWidthEPKwi _ZNK3tds11ColorBuffer6CopyToERS0_iiiiii _ZN3tds11ColorBuffer8CopyFromERKS0_iiiiii _ZNK9TGradient12GetColorStopEv _ZNK9TGradient13GetLinearDataEv _ZNK9TGradient13GetRadialDataEv sqrt floor _ZN6TColor11InterpolateEfRKS_ _ZTVN10__cxxabiv117__class_type_infoE
	DECLARES 
	USES 
}
Module trPainter.o {
	OBJECT += libtilcon.a::trPainter.o
}
ObjectFile libtilcon.a::trEllipse.o {
	NAME Object file trEllipse.o from archive libtilcon.a
	EXPORTS _ZN10TMatrix3x3C1ERKS_ _ZN10TMatrix3x3C1Efffffffff _ZNK10TMatrix3x3mlERKS_ _ZN6TColorC1ERKS_ _ZN6_TRectIiEC1Ev _ZN6_TRectIiEC1ERKS0_ _ZNK6_TRectIiEplERK7_TPointIiE _ZN6_TRectIiEpLERK7_TPointIiE _ZN3tds8TEllipseC1ERNS_7ContextERK6_TRectIiERK7_TPointIiESA_b _ZN3tds8TEllipseC2ERNS_7ContextERK6_TRectIiERK7_TPointIiESA_b _ZN3tds8TEllipseD1Ev _ZN3tds8TEllipseD2Ev _ZN3tds8TEllipse15GeneralScanLineEiiii _ZN3tds8TEllipse11GenericFillEPPiiii _ZN3tds8TEllipse19LineDataGetBoundaryEP7_TPointIiES3_PS3_iPi _ZN3tds8TEllipse11GenericLineER7_TPointIiES3_R6TColor _ZN3tds8TEllipse12GenericPointER7_TPointIiER6TColor _ZN3tds8TEllipse16EllipseDataGetSCEPiii _ZN3tds8TEllipse17AngleReferenceGetEiiii _ZN3tds8TEllipse16EllipseDataAllocEv _ZN3tds8TEllipse15EllipseDataFreeEv _ZN3tds8TEllipse18SpecialEllipseDrawEv _ZN3tds8TEllipse14intersectStartEiiii _ZN3tds8TEllipse12intersectEndEiiii _ZN3tds8TEllipse14EllipseDataGetEi _ZN3tds8TEllipse7fixFlatEv _ZN3tds8TEllipse12EllipseFGGetEv _ZN3tds8TEllipse8goAroundEv _ZN3tds8TEllipse16intersectTogglesEi _ZN3tds8TEllipse16EllipseBGGetPartEi _ZN3tds8TEllipse16EllipseFGGetPartEv _ZN3tds8TEllipse8fixLinesEv _ZN3tds8TEllipse11EllipseDrawEv _ZN3tds8TEllipse18EllipseFGDrawPart2Ev
	IMPORTS _ZTVSt9exception _ZTVSt13bad_exception _ZTVSt9bad_alloc _ZTV10TException _ZTV6TImage _ZTV6TArrayIN3tds4Path7SegmentEE _ZTV6TArrayI9ColorStopE _ZTI10TException _ZTI6TImage _ZTI6TArrayIN3tds4Path7SegmentEE _ZTI6TArrayI9ColorStopE _ZTISt9exception _ZTISt13bad_exception _ZTISt9bad_alloc _ZTS10TException _ZTS6TImage _ZTS6TArrayIN3tds4Path7SegmentEE _ZTS6TArrayI9ColorStopE _ZTSSt9exception _ZTSSt13bad_exception _ZTSSt9bad_alloc _ZN6_TRectIiE8nullRectE __frameinfo_used _ZN10TMatrix3x36InvertEv _ZNK3tds11ColorBuffer15GetPatternColorEff10TMatrix3x3 _ZN3tds11ColorBuffer8SetColorERK6TColorii _ZN3tds11ColorBuffer10BlendColorERK6TColorii __div32 abs __mul64 malloc memset free __rem32 memmove __diab_Unwind_Resume __diab_personality_v0
	DECLARES 
	USES 
}
Module trEllipse.o {
	OBJECT += libtilcon.a::trEllipse.o
}
ObjectFile libtilcon.a::trRasterizer.o {
	NAME Object file trRasterizer.o from archive libtilcon.a
	EXPORTS _ZN10TMatrix3x3C1ERKS_ _ZN10TMatrix3x3C1Efffffffff _ZNK10TMatrix3x3mlERKS_ _ZN6_TRectIiEC1ERKS0_ _ZN3tds10RasterizerC1Eii _ZN3tds10RasterizerC2Eii _ZN3tds10RasterizerD1Ev _ZN3tds10RasterizerD2Ev _ZN3tds10Rasterizer5BeginEPNS_7ContextE _ZN3tds10Rasterizer5tessHEiiiiRKNS0_7segmentE _ZN3tds10Rasterizer5tessVEiiiii _ZN3tds10Rasterizer11TessSegmentEiiii _ZN3tds10Rasterizer13SolidScanlineERK6TColor _ZN3tds10Rasterizer15GeneralScanlineEv _ZN3tds10Rasterizer8ScanlineEv
	IMPORTS _ZTVSt9exception _ZTVSt13bad_exception _ZTVSt9bad_alloc _ZTV10TException _ZTV6TImage _ZTV6TArrayIN3tds4Path7SegmentEE _ZTV6TArrayI9ColorStopE _ZTI10TException _ZTI6TImage _ZTI6TArrayIN3tds4Path7SegmentEE _ZTI6TArrayI9ColorStopE _ZTISt9exception _ZTISt13bad_exception _ZTISt9bad_alloc _ZTS10TException _ZTS6TImage _ZTS6TArrayIN3tds4Path7SegmentEE _ZTS6TArrayI9ColorStopE _ZTSSt9exception _ZTSSt13bad_exception _ZTSSt9bad_alloc __frameinfo_used _Znaj _ZdaPv memset abs __mul64 __div64 __div32 _ZN6TColor7Fade256EiRKS_ _ZN3tds11ColorBuffer8SetColorERK6TColorii _ZN3tds11ColorBuffer10BlendColorERK6TColorii _ZN10TMatrix3x36InvertEv _ZN3tds16GetGradientColorERK9TGradientff10TMatrix3x3 _ZNK3tds11ColorBuffer15GetPatternColorEff10TMatrix3x3
	DECLARES 
	USES 
}
Module trRasterizer.o {
	OBJECT += libtilcon.a::trRasterizer.o
}
ObjectFile libtilcon.a::trPath.o {
	NAME Object file trPath.o from archive libtilcon.a
	EXPORTS _ZTV10TException _ZTV6TArrayIN3tds4Path7SegmentEE _ZTI10TException _ZTI6TArrayIN3tds4Path7SegmentEE _ZTS10TException _ZTS6TArrayIN3tds4Path7SegmentEE _ZN10TExceptionD1Ev _ZN10TExceptionD0Ev _ZNK10TMatrix3x3mlERK8TVector2 _ZN6TArrayIN3tds4Path7SegmentEED1Ev _ZN6TArrayIN3tds4Path7SegmentEED0Ev _ZN6TArrayIN3tds4Path7SegmentEE13RoundCapacityEi _ZN6TArrayIN3tds4Path7SegmentEE8ExpandAtEii _ZN3tds4Path7SegmentC1Ev _ZN6TArrayIN3tds4Path7SegmentEE8InsertAtEiRKS2_ _ZNK6TArrayIN3tds4Path7SegmentEEixEi _ZN6TArrayIN3tds4Path7SegmentEE8InsertAtEiRKS3_ _ZN6TArrayIN3tds4Path7SegmentEE5ClearEv _ZN6_TRectIfEC1Ev _ZN6_TRectIfEC1ERK7_TPointIfES4_ _ZNK6_TRectIfE7CombineERKS0_ _ZN3tds4PathC1Ev _ZN3tds4PathC2Ev _ZN3tds4PathD1Ev _ZN3tds4PathD2Ev _ZN3tds4Path5ClearEv _ZN3tds4Path10AppendDataEjPKhPKf _ZN3tds4Path10AppendPathERKS0_ _ZN3tds4Path9TransformERK10TMatrix3x3 _ZNK3tds4Path12GetBoundRectEv
	IMPORTS _ZTVSt9exception _ZTVSt13bad_exception _ZTVSt9bad_alloc _ZTISt9exception _ZTISt13bad_exception _ZTISt9bad_alloc _ZTSSt9exception _ZTSSt13bad_exception _ZTSSt9bad_alloc _ZdlPv _ZdaPv __frameinfo_used _Znaj __cxa_vec_new2 __cxa_allocate_exception __cxa_throw _ZN6_TRectIfE8nullRectE __diab_Unwind_Resume __diab_personality_v0 _ZTVN10__cxxabiv117__class_type_infoE
	DECLARES 
	USES 
}
Module trPath.o {
	OBJECT += libtilcon.a::trPath.o
}
ObjectFile libtilcon.a::trVectorFont.o {
	NAME Object file trVectorFont.o from archive libtilcon.a
	EXPORTS _ZTV10TException _ZTVN3tds10VectorFontE _ZTV6TArrayIN3tds4Path7SegmentEE _ZTV6TArrayIhE _ZTV6TArrayIfE _ZTI10TException _ZTI6TArrayIN3tds4Path7SegmentEE _ZTI6TArrayIhE _ZTI6TArrayIfE _ZTIN3tds10VectorFontE _ZTS10TException _ZTIN10TException4TypeE _ZTSN10TException4TypeE _ZTS6TArrayIN3tds4Path7SegmentEE _ZTS6TArrayIhE _ZTS6TArrayIfE _ZTSN3tds10VectorFontE _ZN10TExceptionD1Ev _ZN10TExceptionD0Ev _ZNK6TArrayIN3tds4Path7SegmentEEixEi _ZN6TArrayIN3tds4Path7SegmentEE8CopyFromERKS3_ _ZN3tds4Path7SegmentC1Ev _ZN6TArrayIN3tds4Path7SegmentEEC1ERKS3_ _ZN6TArrayIN3tds4Path7SegmentEED1Ev _ZN6TArrayIN3tds4Path7SegmentEED0Ev _ZN6TArrayIhED1Ev _ZN6TArrayIhED0Ev _ZNK6TArrayIhEixEi _ZN6TArrayIfED1Ev _ZN6TArrayIfED0Ev _ZNK6TArrayIfEixEi _ZN3tds4PathaSERKS0_ _ZN3tds10VectorFont5GlyphC1Ev _ZN3tds10VectorFont5GlyphC1ERK7_TPointIfERKNS_4PathE _ZN3tds10VectorFont5GlyphD1Ev _ZN3tds10VectorFontC1ERK8TTtfFont _ZN3tds10VectorFontC2ERK8TTtfFont _ZN3tds10VectorFontD1Ev _ZN3tds10VectorFontD0Ev _ZN3tds10VectorFontD2Ev _ZNK3tds10VectorFont8GetGlyphEj _ZNK3tds10VectorFont16MeasureTextWidthEPKwi
	IMPORTS _ZTVSt9exception _ZTVSt13bad_exception _ZTVSt9bad_alloc _ZTV6TImage _ZTV17TChildrenDelegate _ZTV6TArrayIP5TNodeE _ZTV6TArrayI9ColorStopE _ZTI6TImage _ZTI17TChildrenDelegate _ZTI6TArrayIP5TNodeE _ZTI6TArrayI9ColorStopE _ZTISt9exception _ZTISt13bad_exception _ZTISt9bad_alloc _ZTS6TImage _ZTS17TChildrenDelegate _ZTS6TArrayIP5TNodeE _ZTS6TArrayI9ColorStopE _ZTSSt9exception _ZTSSt13bad_exception _ZTSSt9bad_alloc _ZdlPv __frameinfo_used __cxa_allocate_exception __cxa_throw _Znaj _ZdaPv __cxa_vec_new2 __diab_Unwind_Resume __diab_personality_v0 _ZN3tds4PathC1Ev _ZN3tds4PathD1Ev _ZNK8TTtfFont6IsNullEv memset _ZNK8TTtfFont12GetGlyphPathEwR6TArrayIhERS0_IfER7_TPointIfE _Znwj __cxa_vec_ctor _ZN3tds4Path10AppendDataEjPKhPKf _ZN8TTtfFontD1Ev __cxa_vec_dtor _ZTVN10__cxxabiv117__class_type_infoE _ZTVN10__cxxabiv116__enum_type_infoE
	DECLARES 
	USES 
}
Module trVectorFont.o {
	OBJECT += libtilcon.a::trVectorFont.o
}
ObjectFile libtilcon.a::trColorBuffer.o {
	NAME Object file trColorBuffer.o from archive libtilcon.a
	EXPORTS _ZNK10TMatrix3x3mlERK8TVector2 _ZN6TColorC1Ej _ZN6_TRectIiEC1Ev _ZN6_TRectIiEC1ERKS0_ _ZN6_TRectIiEC1ERK7_TPointIiERK6_TSizeIiE _ZNK6_TRectIiEmiERK7_TPointIiE _ZNK6_TRectIiE9IntersectERKS0_ _ZN3tds11ColorBufferC1Eii _ZN3tds11ColorBufferC2Eii _ZN3tds11ColorBufferD1Ev _ZN3tds11ColorBufferD2Ev _ZNK3tds11ColorBuffer15GetPatternColorEff _ZNK3tds11ColorBuffer15GetPatternColorEff10TMatrix3x3 _ZNK3tds11ColorBuffer17GetTransformColorEff10TMatrix3x3 _ZNK3tds11ColorBuffer8GetColorEii _ZN3tds11ColorBuffer8SetColorERK6TColorii _ZN3tds11ColorBuffer10BlendColorERK6TColorii _ZN3tds11ColorBuffer16GetBlockCopyRectERK6_TSizeIiERK7_TPointIiES4_S8_S4_ _ZNK3tds11ColorBuffer6CopyToERS0_iiiiii _ZN3tds11ColorBuffer8CopyFromERKS0_iiiiii _ZN3tds11ColorBuffer9BlendFromERKS0_iiiiii _ZNK3tds11ColorBuffer6CopyToEPh11ColorFormatiRK7_TPointIiERK6_TSizeIiE _ZN3tds11ColorBuffer8CopyFromEPKh11ColorFormatiRK7_TPointIiERK6_TSizeIiE _ZN3tds11ColorBuffer9BlendFromEPKh11ColorFormatiRK7_TPointIiERK6_TSizeIiE _ZN3tds11ColorBuffer9CopyColorERK6TColorRK6_TRectIiE _ZN3tds11ColorBuffer16GetBlockCopyRectERK6_TRectIiEiiiiS4_ii
	IMPORTS _ZTVSt9exception _ZTVSt13bad_exception _ZTVSt9bad_alloc _ZTV10TException _ZTV6TImage _ZTV6TArrayI9ColorStopE _ZTI10TException _ZTI6TImage _ZTI6TArrayI9ColorStopE _ZTISt9exception _ZTISt13bad_exception _ZTISt9bad_alloc _ZTS10TException _ZTS6TImage _ZTS6TArrayI9ColorStopE _ZTSSt9exception _ZTSSt13bad_exception _ZTSSt9bad_alloc _ZN6_TRectIiE8nullRectE __frameinfo_used _Znaj _ZdaPv __div32 __udiv32
	DECLARES 
	USES 
}
Module trColorBuffer.o {
	OBJECT += libtilcon.a::trColorBuffer.o
}
ObjectFile libtilcon.a::trBmfFont.o {
	NAME Object file trBmfFont.o from archive libtilcon.a
	EXPORTS _ZTVN3tds7BmfFontE _ZTIN3tds7BmfFontE _ZTSN3tds7BmfFontE _ZN3tds7BmfFontC1ERK8TBmfFont _ZN3tds7BmfFontC2ERK8TBmfFont _ZN3tds7BmfFontD1Ev _ZN3tds7BmfFontD0Ev _ZN3tds7BmfFontD2Ev
	IMPORTS _ZTVSt9exception _ZTVSt13bad_exception _ZTVSt9bad_alloc _ZTV10TException _ZTI10TException _ZTISt9exception _ZTISt13bad_exception _ZTISt9bad_alloc _ZTS10TException _ZTSSt9exception _ZTSSt13bad_exception _ZTSSt9bad_alloc __frameinfo_used _ZN8TBmfFontD1Ev _ZdlPv _ZTVN10__cxxabiv117__class_type_infoE
	DECLARES 
	USES 
}
Module trBmfFont.o {
	OBJECT += libtilcon.a::trBmfFont.o
}
ObjectFile libtilcon.a::trDisplaySystem.o {
	NAME Object file trDisplaySystem.o from archive libtilcon.a
	EXPORTS _ZTV10TException _ZTVN3tds13DisplaySystemE _ZTV6TArrayI9ColorStopE _ZTV6TArrayIPN3tds10VectorFontEE _ZTV6TArrayIPN3tds7BmfFontEE _ZTV6TArrayI10TSharedPtrIN3tds11ColorBufferEEE _ZTV6TArrayI10TSharedPtrIN3tds7ContextEEE _ZTI10TException _ZTI6TArrayI9ColorStopE _ZTI8TDisplay _ZTI6TArrayIPN3tds10VectorFontEE _ZTI6TArrayIPN3tds7BmfFontEE _ZTI6TArrayI10TSharedPtrIN3tds11ColorBufferEEE _ZTI6TArrayI10TSharedPtrIN3tds7ContextEEE _ZTIN3tds13DisplaySystemE _ZTS10TException _ZTS6TArrayI9ColorStopE _ZTS8TDisplay _ZTS6TArrayIPN3tds10VectorFontEE _ZTS6TArrayIPN3tds7BmfFontEE _ZTS6TArrayI10TSharedPtrIN3tds11ColorBufferEEE _ZTS6TArrayI10TSharedPtrIN3tds7ContextEEE _ZTSN3tds13DisplaySystemE _ZN6TArrayI10TSharedPtrIN3tds11ColorBufferEEED1Ev _ZN10TSharedPtrIN3tds11ColorBufferEED1Ev _ZN6TArrayI10TSharedPtrIN3tds7ContextEEED1Ev _ZN10TSharedPtrIN3tds7ContextEED1Ev _ZN3tds13DisplaySystemC1EPhiii _Z17InitDisplaySystemPhiii _Z19DeinitDisplaySystemP8TDisplay _ZN10TExceptionD1Ev _ZN10TExceptionD0Ev _ZN10TMatrix3x3C1Ev _ZN10TMatrix3x3aSERKS_ _ZN6TColorC1Ej _ZN6_TRectIiEC1Ev _ZN10TSharedPtrI18LinearGradientDataEaSERKS1_ _ZN10TSharedPtrI18RadialGradientDataEaSERKS1_ _ZN6TArrayI9ColorStopED1Ev _ZNK10TSharedPtrI13ColorStopDataE5DerefEv _ZN10TSharedPtrI13ColorStopDataEaSERKS1_ _ZN9TGradientaSERKS_ _ZN6TArrayI9ColorStopED0Ev _ZN6TPaintC1Ev _ZN6TPaintD1Ev _ZN6TPaintaSERKS_ _ZN6TArrayIPN3tds10VectorFontEED1Ev _ZN6TArrayIPN3tds10VectorFontEED0Ev _ZN6TArrayIPN3tds10VectorFontEE13RoundCapacityEi _ZN6TArrayIPN3tds10VectorFontEE8ExpandAtEii _ZN6TArrayIPN3tds10VectorFontEE8InsertAtEiRKS2_ _ZNK6TArrayIPN3tds10VectorFontEEixEi _ZN6TArrayIPN3tds7BmfFontEED1Ev _ZN6TArrayIPN3tds7BmfFontEED0Ev _ZN6TArrayIPN3tds7BmfFontEE13RoundCapacityEi _ZN6TArrayIPN3tds7BmfFontEE8ExpandAtEii _ZN6TArrayIPN3tds7BmfFontEE8InsertAtEiRKS2_ _ZNK6TArrayIPN3tds7BmfFontEEixEi _ZN6TArrayI10TSharedPtrIN3tds11ColorBufferEEED0Ev _ZN6TArrayI10TSharedPtrIN3tds11ColorBufferEEE13RoundCapacityEi _ZNK10TSharedPtrIN3tds11ColorBufferEE5DerefEv _ZN10TSharedPtrIN3tds11ColorBufferEEaSERKS2_ _ZN6TArrayI10TSharedPtrIN3tds11ColorBufferEEE8ExpandAtEii _ZN10TSharedPtrIN3tds11ColorBufferEEC1Ev _ZN6TArrayI10TSharedPtrIN3tds11ColorBufferEEE8InsertAtEiRKS3_ _ZN6TArrayI10TSharedPtrIN3tds11ColorBufferEEE8ShrinkAtEii _ZN6TArrayI10TSharedPtrIN3tds11ColorBufferEEE8RemoveAtEi _ZNK6TArrayI10TSharedPtrIN3tds11ColorBufferEEE7IndexOfERKS3_ _ZN6TArrayI10TSharedPtrIN3tds11ColorBufferEEE6RemoveERKS3_ _ZNK6TArrayI10TSharedPtrIN3tds11ColorBufferEEEixEi _ZN6TArrayI10TSharedPtrIN3tds7ContextEEED0Ev _ZN6TArrayI10TSharedPtrIN3tds7ContextEEE13RoundCapacityEi _ZN3tds7ContextD1Ev _ZNK10TSharedPtrIN3tds7ContextEE5DerefEv _ZN10TSharedPtrIN3tds7ContextEEaSERKS2_ _ZN6TArrayI10TSharedPtrIN3tds7ContextEEE8ExpandAtEii _ZN10TSharedPtrIN3tds7ContextEEC1Ev _ZN6TArrayI10TSharedPtrIN3tds7ContextEEE8InsertAtEiRKS3_ _ZN6TArrayI10TSharedPtrIN3tds7ContextEEE8ShrinkAtEii _ZN6TArrayI10TSharedPtrIN3tds7ContextEEE8RemoveAtEi _ZNK6TArrayI10TSharedPtrIN3tds7ContextEEE7IndexOfERKS3_ _ZN6TArrayI10TSharedPtrIN3tds7ContextEEE6RemoveERKS3_ _ZNK6TArrayI10TSharedPtrIN3tds7ContextEEEixEi _ZN10TSharedPtrIN3tds11ColorBufferEEC1EPS1_ _ZN10TSharedPtrIN3tds7ContextEEC1EPS1_ _ZN3tds7ContextC1Ev _ZN3tds13DisplaySystem15ValidateContextEPv _ZN3tds13DisplaySystem19ValidateColorBufferEPv _ZN3tds13DisplaySystemC2EPhiii _ZN3tds13DisplaySystemD1Ev _ZN3tds13DisplaySystemD2Ev _ZN3tds13DisplaySystemD0Ev _ZN3tds13DisplaySystem17CreatePixelBufferEii _ZN3tds13DisplaySystem18DestroyPixelBufferEPv _ZN3tds13DisplaySystem18GetPixelBufferSizeEPv _ZN3tds13DisplaySystem15CopyPixelBufferEPvRK7_TPointIiES1_S5_RK6_TSizeIiE _ZN3tds13DisplaySystem15ReadPixelBufferEPvRK7_TPointIiERK6_TSizeIiEPh11ColorFormati _ZN3tds13DisplaySystem16WritePixelBufferEPvRK7_TPointIiERK6_TSizeIiEPKh11ColorFormati _ZN3tds13DisplaySystem10CreatePathEv _ZN3tds13DisplaySystem11DestroyPathEPv _ZN3tds13DisplaySystem9ClearPathEPv _ZN3tds13DisplaySystem16AppendDataToPathEPvjPKhPKf _ZN3tds13DisplaySystem16AppendPathToPathEPvS1_ _ZN3tds13DisplaySystem13TransformPathEPvRK10TMatrix3x3 _ZN3tds13DisplaySystem16GetPathBoundRectEPv _ZN3tds13DisplaySystem15RegisterTtfFontERK8TTtfFont _ZN3tds13DisplaySystem13CreateTtfFontERK8TTtfFont _ZN3tds13DisplaySystem14DestroyTtfFontEPv _ZN3tds13DisplaySystem13GetTtfMetricsEPvRK5TFontR11FontMetrics _ZN3tds13DisplaySystem15MeasureTtfWidthEPvRK5TFontPKwi _ZN3tds13DisplaySystem15RegisterBmfFontERK8TBmfFont _ZN3tds13DisplaySystem13CreateBmfFontERK8TBmfFont _ZN3tds13DisplaySystem14DestroyBmfFontEPv _ZN3tds13DisplaySystem13GetBmfMetricsEPvRK5TFontR11FontMetrics _ZN3tds13DisplaySystem15MeasureBmfWidthEPvRK5TFontPKwi _ZN3tds13DisplaySystem18CreatePaintContextEv _ZN3tds13DisplaySystem19DestroyPaintContextEPv _ZN3tds13DisplaySystem10BeginPaintEPvS1_ _ZN3tds13DisplaySystem8EndPaintEPv _ZN3tds13DisplaySystem11SetViewportEPvRK7_TPointIiERK6_TRectIiE _ZN3tds13DisplaySystem11SetClipRectEPvRK6_TRectIiE _ZN3tds13DisplaySystem13ClearClipRectEPv _ZN3tds13DisplaySystem6SetPenEPvRK4TPen _ZN3tds13DisplaySystem8SetBrushEPvRK6TBrush _ZN3tds13DisplaySystem12SetTextColorEPvRK6TColor _ZN3tds13DisplaySystem7SetFontEPvRK5TFont _ZN3tds13DisplaySystem13SetRasterModeEPv10RasterMode _ZN3tds13DisplaySystem12SetPathWidthEPvf _ZN3tds13DisplaySystem11SetFillRuleEPv8FillRule _ZN3tds13DisplaySystem12SetBlendModeEPv9BlendMode _ZN3tds13DisplaySystem12SetDashStyleEPv9DashStyle _ZN3tds13DisplaySystem13SetJointStyleEPv10JointStyle _ZN3tds13DisplaySystem11SetCapStyleEPv8CapStyle _ZN3tds13DisplaySystem12SetFillPaintEPvRK6TPaint _ZN3tds13DisplaySystem14SetStrokePaintEPvRK6TPaint _ZN3tds13DisplaySystem9SetMatrixEPvRK10TMatrix3x3 _ZN3tds13DisplaySystem14SetPaintMatrixEPvRK10TMatrix3x3 _ZN3tds13DisplaySystem8DrawLineEPvRK7_TPointIiES5_ _ZN3tds13DisplaySystem8DrawRectEPvRK6_TRectIiEi _ZN3tds13DisplaySystem11DrawUCSTextEPvPKwiii _ZN3tds13DisplaySystem14MeasureUCSTextEPvPKwi _ZN3tds13DisplaySystem9DrawImageEPvRK6TImageii _ZN3tds13DisplaySystem15DrawPixelBufferEPvS1_ii _ZN3tds13DisplaySystem10DrawCircleEPvRK6_TRectIiE _ZN3tds13DisplaySystem11DrawEllipseEPvRK6_TRectIiE _ZN3tds13DisplaySystem7DrawArcEPvRK6_TRectIiERK7_TPointIiES9_ _ZN3tds13DisplaySystem7DrawPieEPvRK6_TRectIiERK7_TPointIiES9_ _ZN3tds13DisplaySystem10StrokePathEPvS1_ _ZN3tds13DisplaySystem10StrokePathEPvPK7_TPointIfEji _ZN3tds13DisplaySystem8FillPathEPvS1_ _ZN3tds13DisplaySystem8FillPathEPvPK7_TPointIfEj _ZN3tds13DisplaySystem17CopyToPixelBufferEPvS1_iiiiii _ZN3tds13DisplaySystem19CopyFromPixelBufferEPvS1_iiiiii
	IMPORTS _ZTVSt9exception _ZTVSt13bad_exception _ZTVSt9bad_alloc _ZTV17TChildrenDelegate _ZTV6TImage _ZTVSt11logic_error _ZTVSt12domain_error _ZTVSt16invalid_argument _ZTVSt12length_error _ZTVSt12out_of_range _ZTVSt13runtime_error _ZTVSt14overflow_error _ZTVSt15underflow_error _ZTVSt11range_error _ZTV8TDisplay _ZTV6TArrayIP5TNodeE _ZTV6TArrayIN3tds4Path7SegmentEE _ZTI17TChildrenDelegate _ZTI6TArrayIP5TNodeE _ZTI6TImage _ZTI6TArrayIN3tds4Path7SegmentEE _ZTISt9exception _ZTISt13bad_exception _ZTISt9bad_alloc _ZTISt11logic_error _ZTISt12domain_error _ZTISt16invalid_argument _ZTISt12length_error _ZTISt12out_of_range _ZTISt13runtime_error _ZTISt14overflow_error _ZTISt15underflow_error _ZTISt11range_error _ZTS17TChildrenDelegate _ZTS6TArrayIP5TNodeE _ZTS6TImage _ZTS6TArrayIN3tds4Path7SegmentEE _ZTSSt9exception _ZTSSt13bad_exception _ZTSSt9bad_alloc _ZTSSt11logic_error _ZTSSt12domain_error _ZTSSt16invalid_argument _ZTSSt12length_error _ZTSSt12out_of_range _ZTSSt13runtime_error _ZTSSt14overflow_error _ZTSSt15underflow_error _ZTSSt11range_error __frameinfo_used __cxa_vec_delete _Znwj _ZN3tds7PainterC1Eii _ZdlPv _ZdaPv __diab_Unwind_Resume __diab_personality_v0 _ZN6_TRectIiE8nullRectE _ZN9TGradientC1Ev _ZN12TPixelBufferC1Ev _ZN9TGradientD1Ev _ZN12TPixelBufferD1Ev _ZN12TPixelBufferaSERKS_ _Znaj __cxa_allocate_exception __cxa_throw _ZN3tds11ColorBufferD1Ev __cxa_vec_new2 _ZN5TFontD1Ev _ZN5TFontC1Ev _ZN3tds7PainterD1Ev _ZN3tds11ColorBufferC1Eii _ZN3tds11ColorBuffer8CopyFromERKS0_iiiiii _ZNK3tds11ColorBuffer6CopyToEPh11ColorFormatiRK7_TPointIiERK6_TSizeIiE _ZN3tds11ColorBuffer8CopyFromEPKh11ColorFormatiRK7_TPointIiERK6_TSizeIiE _ZN3tds4PathC1Ev _ZN3tds4PathD1Ev _ZN3tds4Path5ClearEv _ZN3tds4Path10AppendDataEjPKhPKf _ZN3tds4Path10AppendPathERKS0_ _ZN3tds4Path9TransformERK10TMatrix3x3 _ZNK3tds4Path12GetBoundRectEv _ZN3tds10VectorFontC1ERK8TTtfFont __cxa_end_catch __cxa_begin_catch _ZNK8TTtfFonteqERKS_ _ZNK5TFont12GetPointSizeEv _ZNK8TTtfFont10GetMetricsER11FontMetrics __div32 _ZNK3tds10VectorFont16MeasureTextWidthEPKwi _ZN3tds7BmfFontC1ERK8TBmfFont _ZNK8TBmfFonteqERKS_ _ZNK8TBmfFont10GetMetricsER11FontMetrics _ZNK8TBmfFont15GetGlyphAdvanceEwR7_TPointIiE _ZN3tds7Painter10BeginPaintERNS_7ContextERNS_11ColorBufferE _ZN3tds7Painter8EndPaintERNS_7ContextE _ZN3tds7Context13SetRenderAreaERK7_TPointIiERK6_TRectIiE _ZN3tds7Context11SetClipRectERK6_TRectIiE _ZN3tds7Context13ClearClipRectEv _ZNK5TFont7GetTypeEv _ZN5TFontaSERKS_ _ZN3tds7Painter9DrawHLineERNS_7ContextEiii _ZN3tds7Painter9DrawVLineERNS_7ContextEiii _ZN3tds7Painter8DrawLineERNS_7ContextERK7_TPointIiES6_ _ZN3tds7Painter8DrawRectERNS_7ContextERK6_TRectIiEi _ZN3tds7Painter11DrawUCSTextERNS_7ContextEffPKwi _ZN3tds7Painter14MeasureUCSTextERNS_7ContextEPKwi _ZNK6TImage6IsNullEv _ZN3tds7Painter9DrawImageERNS_7ContextERK6TImageii _ZN3tds7Painter15DrawPixelBufferERNS_7ContextERKNS_11ColorBufferEii _ZN3tds7Painter10DrawCircleERNS_7ContextERK6_TRectIiE _ZN3tds7Painter11DrawEllipseERNS_7ContextERK6_TRectIiE _ZN3tds7Painter7DrawArcERNS_7ContextERK6_TRectIiERK7_TPointIiESA_ _ZN3tds7Painter7DrawPieERNS_7ContextERK6_TRectIiERK7_TPointIiESA_ _ZN3tds7Painter10StrokePathERNS_7ContextERKNS_4PathE _ZN3tds7Painter10StrokePathERNS_7ContextEPK7_TPointIfEji _ZN3tds7Painter8FillPathERNS_7ContextERKNS_4PathE _ZN3tds7Painter8FillPathERNS_7ContextEPK7_TPointIfEj _ZN3tds7Painter6CopyToERNS_7ContextERNS_11ColorBufferEiiiiii _ZN3tds7Painter8CopyFromERNS_7ContextERKNS_11ColorBufferEiiiiii _ZTVN10__cxxabiv117__class_type_infoE _ZTVN10__cxxabiv120__si_class_type_infoE
	DECLARES 
	USES 
}
Module trDisplaySystem.o {
	OBJECT += libtilcon.a::trDisplaySystem.o
}
ObjectFile libtilcon.a::tgsClassicVisual.o {
	NAME Object file tgsClassicVisual.o from archive libtilcon.a
	EXPORTS _ZTV20TClassicVisualEngine _ZTV6TArrayI9ColorStopE _ZTI6TArrayI9ColorStopE _ZTI20TClassicVisualEngine _ZTS6TArrayI9ColorStopE _ZTS20TClassicVisualEngine _ZN6TColorC1Ev _ZN6TColorC1Ej _ZN6TColorC1ERKS_ _ZN7_TPointIiEC1Ev _ZN7_TPointIiED1Ev _ZN10TSharedPtrI18LinearGradientDataEaSERKS1_ _ZN10TSharedPtrI18RadialGradientDataEaSERKS1_ _ZN6TArrayI9ColorStopED1Ev _ZNK10TSharedPtrI13ColorStopDataE5DerefEv _ZN10TSharedPtrI13ColorStopDataEaSERKS1_ _ZN9TGradientC1ERKS_ _ZN9TGradientaSERKS_ _ZN6TArrayI9ColorStopED0Ev _ZN6TPaintC1Ev _ZN6TPaintC1ERK6TColor _ZN6TPaintC1ERK9TGradient _ZN6TPaintD1Ev _ZN6TPaintaSERKS_ _ZN20TClassicVisualEngineC1Ev _ZN20TClassicVisualEngineC2Ev _ZN20TClassicVisualEngineD1Ev _ZN20TClassicVisualEngineD0Ev _ZN20TClassicVisualEngineD2Ev _ZN20TClassicVisualEngine11DrawHorRectER8TPainterRK11VisualStateRK6_TRectIiE _ZN20TClassicVisualEngine16DrawToggleButtonER8TPainterRK11VisualStateRK6_TRectIiEi _ZN20TClassicVisualEngine15DrawProgressBarER8TPainterRK11VisualStateRK6_TRectIiE15OrientationType _ZN20TClassicVisualEngine11DrawVerRectER8TPainterRK11VisualStateRK6_TRectIiE _ZN20TClassicVisualEngine9DrawFrameE9FrameTypeR8TPainterRK11VisualStateRK6_TRectIiE _ZNK20TClassicVisualEngine15DrawRoundBorderER8TPainterRK11VisualStateRK6_TRectIiE
	IMPORTS _ZTVSt9exception _ZTVSt13bad_exception _ZTVSt9bad_alloc _ZTV10TException _ZTV17TChildrenDelegate _ZTV6TImage _ZTV6TArrayIP5TNodeE _ZTI10TException _ZTI17TChildrenDelegate _ZTI6TArrayIP5TNodeE _ZTI6TImage _ZTISt9exception _ZTISt13bad_exception _ZTISt9bad_alloc _ZTS10TException _ZTS17TChildrenDelegate _ZTS6TArrayIP5TNodeE _ZTS6TImage _ZTI13TVisualEngine _ZTS13TVisualEngine _ZTSSt9exception _ZTSSt13bad_exception _ZTSSt9bad_alloc _ZdlPv __frameinfo_used __cxa_vec_delete _ZN9TGradientC1Ev _ZN12TPixelBufferC1Ev _ZN9TGradientD1Ev __diab_Unwind_Resume __diab_personality_v0 _ZN12TPixelBufferD1Ev _ZN12TPixelBufferaSERKS_ _ZN20TDefaultVisualEngineC2Ev __cxa_vec_ctor _ZN9TGradientC1EffffjPK6TColorPKf _ZN20TDefaultVisualEngineD2Ev _ZN14TVectorPainter15TranslateMatrixEff _ZN14TVectorPainter11ScaleMatrixEff _ZN14TVectorPainter12SetFillPaintERK6TPaint _ZN5TPathC1ERK6_TRectIiE _ZN14TVectorPainter8FillPathERK5TPath _ZN5TPathD1Ev _ZN14TVectorPainter16ResetPaintMatrixEv _ZNK20TDefaultVisualEngine12Draw3DBorderER8TPainterRK6_TRectIiEii _ZN20TDefaultVisualEngine9DrawFrameE9FrameTypeR8TPainterRK11VisualStateRK6_TRectIiE _ZNK20TDefaultVisualEngine13DrawDownArrowER8TPainterRK6_TRectIiERK6TColor _ZNK20TDefaultVisualEngine11DrawUpArrowER8TPainterRK6_TRectIiERK6TColor _ZNK20TDefaultVisualEngine13DrawLeftArrowER8TPainterRK6_TRectIiERK6TColor _ZNK20TDefaultVisualEngine14DrawRightArrowER8TPainterRK6_TRectIiERK6TColor _ZN20TDefaultVisualEngine15DrawScrollTrackER8TPainterRK11VisualStateRK6_TRectIiE15OrientationType _ZN20TDefaultVisualEngine15DrawSliderTrackER8TPainterRK11VisualStateRK6_TRectIiE15OrientationType _ZNK20TDefaultVisualEngine13DrawSolidRectER8TPainterRK6_TRectIiERK6TColor _ZN8TPainter6SetPenERK4TPen _ZN8TPainter8DrawLineERK7_TPointIiES3_ __cxa_vec_dtor _ZTVN10__cxxabiv117__class_type_infoE _ZTVN10__cxxabiv120__si_class_type_infoE _ZTI20TDefaultVisualEngine
	DECLARES 
	USES 
}
Module tgsClassicVisual.o {
	OBJECT += libtilcon.a::tgsClassicVisual.o
}
ObjectFile libtilcon.a::tgsDefaultVisual.o {
	NAME Object file tgsDefaultVisual.o from archive libtilcon.a
	EXPORTS _ZTV6TImage _ZTV20TDefaultVisualEngine _ZTI6TImage _ZTI13TVisualEngine _ZTI20TDefaultVisualEngine _ZTS6TImage _ZTS13TVisualEngine _ZTS20TDefaultVisualEngine _ZN6TColorC1Ej _ZN6TColorC1ERKS_ _ZN6_TRectIiEC1Ev _ZNK10TSharedPtrI9ImageDataE5DerefEv _ZN6TImageD1Ev _ZN6TImageD0Ev _ZN8TPainter8DrawLineEiiii _ZN7_TPointIiEC1Ev _ZN7_TPointIiED1Ev _ZN20TDefaultVisualEngineC1Ev _ZN20TDefaultVisualEngine13bufferCheck_dE _ZN20TDefaultVisualEngine13bufferCheck_hE _ZN20TDefaultVisualEngine13bufferCheck_pE _ZN20TDefaultVisualEngine14bufferCheck_cnE _ZN20TDefaultVisualEngine14bufferCheck_cdE _ZN20TDefaultVisualEngine14bufferCheck_chE _ZN20TDefaultVisualEngine14bufferCheck_cpE _ZN20TDefaultVisualEngine13bufferRadio_nE _ZN20TDefaultVisualEngine13bufferRadio_dE _ZN20TDefaultVisualEngine13bufferRadio_hE _ZN20TDefaultVisualEngine13bufferRadio_pE _ZN20TDefaultVisualEngine14bufferRadio_cnE _ZN20TDefaultVisualEngine14bufferRadio_cdE _ZN20TDefaultVisualEngine14bufferRadio_chE _ZN20TDefaultVisualEngine14bufferRadio_cpE _ZN20TDefaultVisualEngineC2Ev _ZN20TDefaultVisualEngineD1Ev _ZN20TDefaultVisualEngineD0Ev _ZN20TDefaultVisualEngineD2Ev _ZNK20TDefaultVisualEngine12Draw3DBorderER8TPainterRK6_TRectIiEii _ZNK20TDefaultVisualEngine13DrawSolidRectER8TPainterRK6_TRectIiERK6TColor _ZN20TDefaultVisualEngine14DrawPushButtonER8TPainterRK11VisualStateRK6_TRectIiE _ZN20TDefaultVisualEngine16DrawToggleButtonER8TPainterRK11VisualStateRK6_TRectIiEi _ZN20TDefaultVisualEngine18DrawCheckIndicatorER8TPainterRK11VisualStateRK6_TRectIiEi _ZN20TDefaultVisualEngine18DrawRadioIndicatorER8TPainterRK11VisualStateRK6_TRectIiEi _ZN20TDefaultVisualEngine15DrawScrollTrackER8TPainterRK11VisualStateRK6_TRectIiE15OrientationType _ZN20TDefaultVisualEngine15DrawScrollThumbER8TPainterRK11VisualStateRK6_TRectIiE15OrientationType _ZN20TDefaultVisualEngine15DrawSliderTrackER8TPainterRK11VisualStateRK6_TRectIiE15OrientationType _ZN20TDefaultVisualEngine15DrawSliderThumbER8TPainterRK11VisualStateRK6_TRectIiE15OrientationType _ZNK20TDefaultVisualEngine14DrawFlatBorderER8TPainterRK6_TRectIiEiRK6TColor _ZNK20TDefaultVisualEngine13DrawLeftArrowER8TPainterRK6_TRectIiERK6TColor _ZNK20TDefaultVisualEngine14DrawRightArrowER8TPainterRK6_TRectIiERK6TColor _ZNK20TDefaultVisualEngine11DrawUpArrowER8TPainterRK6_TRectIiERK6TColor _ZNK20TDefaultVisualEngine13DrawDownArrowER8TPainterRK6_TRectIiERK6TColor _ZN20TDefaultVisualEngine9DrawFrameE9FrameTypeR8TPainterRK11VisualStateRK6_TRectIiE _ZN20TDefaultVisualEngine15DrawHeaderPanelER8TPainterRK11VisualStateRK6_TRectIiE _ZN20TDefaultVisualEngine18DrawComboboxButtonER8TPainterRK11VisualStateRK6_TRectIiE _ZNK20TDefaultVisualEngine14DrawEtchBorderER8TPainterRK6_TRectIiEii _ZNK20TDefaultVisualEngine12Draw3DCircleER8TPainterRK6_TRectIiEii _ZNK20TDefaultVisualEngine15DrawSolidCircleER8TPainterRK6_TRectIiERK6TColor
	IMPORTS _ZTVSt9exception _ZTVSt13bad_exception _ZTVSt9bad_alloc _ZTV10TException _ZTV17TChildrenDelegate _ZTV13TVisualEngine _ZTV6TArrayI9ColorStopE _ZTV6TArrayIP5TNodeE _ZTI10TException _ZTI6TArrayI9ColorStopE _ZTI17TChildrenDelegate _ZTI6TArrayIP5TNodeE _ZTISt9exception _ZTISt13bad_exception _ZTISt9bad_alloc _ZTS10TException _ZTS6TArrayI9ColorStopE _ZTS17TChildrenDelegate _ZTS6TArrayIP5TNodeE _ZTSSt9exception _ZTSSt13bad_exception _ZTSSt9bad_alloc _ZN6_TRectIiE8nullRectE __frameinfo_used _ZN9ImageDataD1Ev _ZdlPv _ZN8TPainter8DrawLineERK7_TPointIiES3_ __diab_Unwind_Resume __diab_personality_v0 _ZN6TImageC1EPhiii11ColorFormatS1_ _ZN12TPixelBufferC1ERK6TImage _ZN12TPixelBufferD1Ev _ZN8TPainter6SetPenERK4TPen __div32 _ZN12TPixelBufferC1Ev _ZN8TPainter8SetBrushERK6TBrush _ZN8TPainter8FillRectERK6_TRectIiE _ZN8TPainter15DrawPixelBufferERK12TPixelBufferii __cxa_vec_ctor __cxa_vec_dtor _ZTVN10__cxxabiv117__class_type_infoE _ZTVN10__cxxabiv120__si_class_type_infoE
	DECLARES 
	USES 
}
Module tgsDefaultVisual.o {
	OBJECT += libtilcon.a::tgsDefaultVisual.o
}
ObjectFile libtilcon.a::tgsContainer.o {
	NAME Object file tgsContainer.o from archive libtilcon.a
	EXPORTS _ZTV10TException _ZTV6TGroup _ZTVN6TGroup21GroupChildrenDelegateE _ZTV6TPanel _ZTVN7_TEventI10EventParamE15THandlerAdaptorE _ZTV6TArrayIP8TControlE _ZTVN7_TEventI10EventParamE17MemberFuncHandlerI6TGroupEE _ZTI10TException _ZTI17TChildrenDelegate _ZTIN7_TEventI10EventParamE15THandlerAdaptorE _ZTIN7_TEventI10EventParamE17MemberFuncHandlerI6TGroupEE _ZTI6TArrayIP8TControlE _ZTI6TGroup _ZTIN6TGroup21GroupChildrenDelegateE _ZTI6TPanel _ZTS10TException _ZTS17TChildrenDelegate _ZTSN7_TEventI10EventParamE15THandlerAdaptorE _ZTSN7_TEventI10EventParamE17MemberFuncHandlerI6TGroupEE _ZTS6TArrayIP8TControlE _ZTS6TGroup _ZTSN6TGroup21GroupChildrenDelegateE _ZTS6TPanel _ZN10TExceptionD1Ev _ZN10TExceptionD0Ev _ZN6_TRectIiEC1Ev _ZN6_TRectIiEC1ERK7_TPointIiERK6_TSizeIiE _ZNK6_TRectIiE6AdjustERK8_TMarginIiE _ZNK6_TRectIiEmiERK7_TPointIiE _ZN7_TEventI10EventParamE10SetHandlerI6TGroupEEvPT_NS1_17MemberFuncHandlerIS4_E8FuncTypeE _ZN7_TEventI10EventParamE15THandlerAdaptorD1Ev _ZN7_TEventI10EventParamE15THandlerAdaptorD0Ev _ZN7_TEventI10EventParamE17MemberFuncHandlerI6TGroupED1Ev _ZN7_TEventI10EventParamE17MemberFuncHandlerI6TGroupED0Ev _ZNK7_TEventI10EventParamE17MemberFuncHandlerI6TGroupE6InvokeERS0_ _ZN7_TEventI10EventParamE17MemberFuncHandlerI6TGroupE3dupEv _ZN6TArrayIP8TControlED1Ev _ZN6TArrayIP8TControlED0Ev _ZN6TArrayIP8TControlE13RoundCapacityEi _ZN6TArrayIP8TControlE8ExpandAtEii _ZN6TArrayIP8TControlE8InsertAtEiRKS1_ _ZN6TArrayIP8TControlE8ShrinkAtEii _ZN6TArrayIP8TControlE8RemoveAtEi _ZN6TArrayIP8TControlE5ClearEv _ZNK6TArrayIP8TControlEixEi _ZN13TControlArray10AddControlEP8TControli _ZN13TControlArray15AddControlAtTopEP8TControl _ZN13TControlArray18AddControlAtBottomEP8TControl _ZN13TControlArray13RemoveControlEP8TControl _ZN13TControlArray17RemoveAllControlsEv _ZNK13TControlArrayixEi _ZNK13TControlArray7IndexOfEPK8TControl _ZN6TGroupC1Eiiii _ZN6TGroupC2Eiiii _ZN6TGroupD1Ev _ZN6TGroupD0Ev _ZN6TGroupD2Ev _ZN6TGroup18CalculateBoundRectERK6_TRectIiES3_RK15AlignmentPolicy _ZN6TGroup18OnChildBoundChangeEP8TControl _ZN6TGroup10AddControlEP8TControli _ZN6TGroup13RemoveControlEP8TControl _ZN6TGroup17RemoveAllControlsEv _ZN6TGroup8OnResizeEv _ZN6TGroup11NodeHandlerER10EventParam _ZNK6TGroup21GroupChildrenDelegate8GetCountEv _ZN6TGroup21GroupChildrenDelegate7GetNodeEi _ZN6TPanelC1Eiiii _ZN6TPanelC2Eiiii _ZN6TPanelD1Ev _ZN6TPanelD0Ev _ZN6TPanelD2Ev
	IMPORTS _ZTVSt9exception _ZTVSt13bad_exception _ZTVSt9bad_alloc _ZTV17TChildrenDelegate _ZTV6TImage _ZTV14TEventDelegate _ZTV6TArrayIP5TNodeE _ZTV6TArrayI9ColorStopE _ZTI14TEventDelegate _ZTI6TArrayIP5TNodeE _ZTI6TImage _ZTI6TArrayI9ColorStopE _ZTISt9exception _ZTISt13bad_exception _ZTISt9bad_alloc _ZTS14TEventDelegate _ZTS6TArrayIP5TNodeE _ZTS6TImage _ZTS6TArrayI9ColorStopE _ZTSSt9exception _ZTSSt13bad_exception _ZTSSt9bad_alloc _ZdlPv _ZN6_TRectIiE8nullRectE __frameinfo_used _Znwj __diab_Unwind_Resume __diab_personality_v0 _ZdaPv _Znaj __cxa_allocate_exception __cxa_throw _ZN8TControlC2EiiiiR5TNode _ZTV18TNodeEventDelegate _ZN5TNodeC1EiiiiP14TEventDelegateP17TChildrenDelegate _ZN5TNodeD1Ev _ZN8TControlD2Ev _ZN8TControl13GetHintedSizeEv _ZN5TNode12SetBoundRectERK6_TRectIiE _ZN5TNode11AddToParentEPS_ _ZN5TNode16RemoveFromParentEv _ZNK7TVisual4DrawER8TPainterRK11VisualStateRK6_TRectIiE _ZN5TNode6UpdateEv __cxa_pure_virtual _ZTVN10__cxxabiv117__class_type_infoE _ZTVN10__cxxabiv120__si_class_type_infoE _ZTI8TControl
	DECLARES 
	USES 
}
Module tgsContainer.o {
	OBJECT += libtilcon.a::tgsContainer.o
}
ObjectFile libtilcon.a::tgsVectorPainter.o {
	NAME Object file tgsVectorPainter.o from archive libtilcon.a
	EXPORTS _ZTV10TException _ZTV6TArrayI9ColorStopE _ZTI10TException _ZTI6TArrayI9ColorStopE _ZTS10TException _ZTS6TArrayI9ColorStopE _ZN10TExceptionD1Ev _ZN10TExceptionD0Ev _ZN10TMatrix3x3C1Ev _ZN10TMatrix3x3C1Efffffffff _ZN10TMatrix3x3aSERKS_ _ZNK10TMatrix3x3mlERKS_ _ZN10TMatrix3x39TranslateEff _ZN10TMatrix3x35ScaleEff _ZN9ColorStopC1Ev _ZN10TSharedPtrI18LinearGradientDataEC1EPS0_ _ZN10TSharedPtrI18LinearGradientDataED1Ev _ZN10TSharedPtrI18LinearGradientDataEaSEPS0_ _ZN10TSharedPtrI18RadialGradientDataEC1EPS0_ _ZN10TSharedPtrI18RadialGradientDataED1Ev _ZN10TSharedPtrI18RadialGradientDataEaSEPS0_ _ZN10TSharedPtrI13ColorStopDataEC1EPS0_ _ZN6TArrayI9ColorStopED1Ev _ZNK10TSharedPtrI13ColorStopDataE5DerefEv _ZN10TSharedPtrI13ColorStopDataED1Ev _ZN10TSharedPtrI13ColorStopDataEaSEPS0_ _ZN10TSharedPtrI13ColorStopDataEaSERKS1_ _ZN9TGradientC1Ev _ZN9TGradientC2Ev _ZN9TGradientC1ENS_12GradientTypeE _ZN9TGradientC2ENS_12GradientTypeE _ZN18LinearGradientDataC1Effff _ZN6TArrayI9ColorStopE13RoundCapacityEi _ZN6TArrayI9ColorStopE8ExpandAtEii _ZN6TArrayI9ColorStopEC1Ei _ZNK6TArrayI9ColorStopEixEi _ZN13ColorStopDataC1EjPK6TColorPKf _ZN9TGradientC1EffffjPK6TColorPKf _ZN9TGradientC2EffffjPK6TColorPKf _ZN18RadialGradientDataC1Efffff _ZN9TGradientC1EfffffjPK6TColorPKf _ZN9TGradientC2EfffffjPK6TColorPKf _ZN9TGradientD1Ev _ZN9TGradientD2Ev _ZN9TGradient13SetLinearDataEffff _ZNK9TGradient13GetLinearDataEv _ZN9TGradient13SetRadialDataEfffff _ZNK9TGradient13GetRadialDataEv _ZN9TGradient15ClearColorStopsEv _ZN6TArrayI9ColorStopE8CopyFromERKS1_ _ZN6TArrayI9ColorStopEC1ERKS1_ _ZN9TGradient12SetColorStopERK13ColorStopData _ZNK9TGradient12GetColorStopEv _ZN18LinearGradientDataC1Ev _ZN18LinearGradientDataC2Ev _ZN18LinearGradientDataC2Effff _ZN18RadialGradientDataC1Ev _ZN18RadialGradientDataC2Ev _ZN18RadialGradientDataC2Efffff _ZN6TArrayI9ColorStopED0Ev _ZN13ColorStopDataC1Ev _ZN13ColorStopDataC2EjPK6TColorPKf _ZN14TVectorPainter12SetDashStyleE9DashStyle _ZN14TVectorPainter13SetJointStyleE10JointStyle _ZN14TVectorPainter11SetCapStyleE8CapStyle _ZN14TVectorPainter12SetFillPaintERK6TPaint _ZN14TVectorPainter14SetStrokePaintERK6TPaint _ZN14TVectorPainter12SetPathWidthEf _ZN14TVectorPainter15TranslateMatrixEff _ZN14TVectorPainter11ScaleMatrixEff _ZN14TVectorPainter12RotateMatrixEf _ZN14TVectorPainter9SetMatrixERK10TMatrix3x3 _ZN14TVectorPainter11ResetMatrixEv _ZN14TVectorPainter20TranslatePaintMatrixEff _ZN14TVectorPainter16ScalePaintMatrixEff _ZN14TVectorPainter17RotatePaintMatrixEf _ZN14TVectorPainter14SetPaintMatrixERK10TMatrix3x3 _ZN14TVectorPainter16ResetPaintMatrixEv _ZN14TVectorPainter11SetFillRuleE8FillRule _ZN14TVectorPainter12SetBlendModeE9BlendMode _ZN14TVectorPainter8FillPathERK5TPath _ZN14TVectorPainter8FillPathEPK7_TPointIfEj _ZN14TVectorPainter10StrokePathERK5TPath _ZN14TVectorPainter10StrokePathEPK7_TPointIfEji _STI___20_tgsVectorPainter_cpp_0407dd98
	IMPORTS _ZTVSt9exception _ZTVSt13bad_exception _ZTVSt9bad_alloc _ZTV17TChildrenDelegate _ZTV6TImage _ZTV6TArrayIP5TNodeE _ZTI17TChildrenDelegate _ZTI6TArrayIP5TNodeE _ZTI6TImage _ZTISt9exception _ZTISt13bad_exception _ZTISt9bad_alloc _ZTS17TChildrenDelegate _ZTS6TArrayIP5TNodeE _ZTS6TImage _ZTSSt9exception _ZTSSt13bad_exception _ZTSSt9bad_alloc _ZdlPv __frameinfo_used _Znwj __diab_Unwind_Resume __diab_personality_v0 __cxa_vec_delete _Znaj _ZdaPv __cxa_vec_new2 __cxa_allocate_exception __cxa_throw _ZN10TMatrix3x36RotateEf __dso_handle __cxa_atexit _ZTVN10__cxxabiv117__class_type_infoE
	DECLARES _ZN9TGradient25defaultLinearGradientDataE _ZN9TGradient25defaultRadialGradientDataE _ZN9TGradient20defaultColorStopDataE
	USES 
}
Module tgsVectorPainter.o {
	OBJECT += libtilcon.a::tgsVectorPainter.o
}
ObjectFile libtilcon.a::tgsAnsiString.o {
	NAME Object file tgsAnsiString.o from archive libtilcon.a
	EXPORTS _ZTV10TException _ZTI10TException _ZTS10TException _ZN10TExceptionD1Ev _ZN10TExceptionD0Ev _ZN7TStringC1Ev _ZN7TStringC2Ev _ZN7TStringC1EPKc _ZN7TStringC2EPKc _ZN7TStringC1EPKci _ZN7TStringC2EPKci _ZN7TStringC1ERKS_ _ZN7TStringC2ERKS_ _ZN7TStringC1ERK8TWString _ZN7TStringC2ERK8TWString _ZN7TStringaSERKS_ _ZN7TString7SetTextEPKc _ZN7TString7ReplaceEiiRKS_ _ZN7TString4LeftEi _ZN7TString6RemoveEii _ZN7TString3AddERKS_ _ZNK7TStringneERKS_ _ZNK7TStringeqERKS_ _ZNK7TString4FindEic _ZN7TString6FormatEiPKcz
	IMPORTS _ZTVSt9exception _ZTVSt13bad_exception _ZTVSt9bad_alloc _ZTISt9exception _ZTISt13bad_exception _ZTISt9bad_alloc _ZTSSt9exception _ZTSSt13bad_exception _ZTSSt9bad_alloc _ZdlPv __frameinfo_used calloc __cxa_allocate_exception __cxa_throw strlen strncpy free _Znaj vsnprintf _ZdaPv _ZTVN10__cxxabiv117__class_type_infoE
	DECLARES 
	USES 
}
Module tgsAnsiString.o {
	OBJECT += libtilcon.a::tgsAnsiString.o
}
ObjectFile libtilcon.a::tgsBasic.o {
	NAME Object file tgsBasic.o from archive libtilcon.a
	EXPORTS _ZN6_TRectIiE8nullRectE _ZN6_TRectIiE7maxRectE _ZN6_TRectIfE8nullRectE _ZN6_TRectIfE7maxRectE _Z11trt_stricmpPKcS0_ _Z9round_intf _Z6endianv _Z7get_u32Phi _Z7get_u16Phi _ZN8TVector29NormalizeEv _ZN10TMatrix3x3C1Ev _ZN10TMatrix3x3C1Efffffffff _ZN10TMatrix3x3aSERKS_ _ZNK10TMatrix3x3mlERKS_ _ZN10TMatrix3x36InvertEv _ZN10TMatrix3x36RotateEf _ZN6_TRectIiEC1Eiiii _ZN6_TRectIfEC1Effff _STI___12_tgsBasic_cpp_02d26153 _ZGVN6_TRectIiE8nullRectE _ZGVN6_TRectIiE7maxRectE _ZGVN6_TRectIfE8nullRectE _ZGVN6_TRectIfE7maxRectE
	IMPORTS _ZTVSt9exception _ZTVSt13bad_exception _ZTVSt9bad_alloc _ZTV10TException _ZTI10TException _ZTISt9exception _ZTISt13bad_exception _ZTISt9bad_alloc _ZTS10TException _ZTSSt9exception _ZTSSt13bad_exception _ZTSSt9bad_alloc __frameinfo_used tolower sqrt cos sin
	DECLARES 
	USES 
}
Module tgsBasic.o {
	OBJECT += libtilcon.a::tgsBasic.o
}
ObjectFile libtilcon.a::tgsPath.o {
	NAME Object file tgsPath.o from archive libtilcon.a
	EXPORTS _ZTV10TException _ZTV6TArrayIhE _ZTV6TArrayIfE _ZTI10TException _ZTI6TArrayIhE _ZTI6TArrayIfE _ZTS10TException _ZTS6TArrayIhE _ZTS6TArrayIfE _ZN10TExceptionD1Ev _ZN10TExceptionD0Ev _ZN10TMatrix3x3C1Efffffffff _ZN5TPath4DataD1Ev _ZNK10TSharedPtrIN5TPath4DataEE5DerefEv _ZN10TSharedPtrIN5TPath4DataEEaSEPS1_ _ZN5TPathC1Ev _ZN5TPathC2Ev _ZN5TPathC1ERKS_ _ZN5TPathC2ERKS_ _ZN5TPathC1EjPK7_TPointIfE _ZN5TPathC2EjPK7_TPointIfE _ZN5TPathC1EjPKhPKf _ZN5TPathC2EjPKhPKf _ZN5TPathC1ERK6_TRectIiE _ZN5TPathC2ERK6_TRectIiE _ZN5TPath6AppendERKS_ _ZN5TPath10AppendDataEjPKhPKf _ZN5TPath9TranslateEff _ZN5TPath5ScaleEff _ZNK6TArrayIhEixEi _ZNK6TArrayIfEixEi _ZN5TPathC1ERK5TFontRK8TWString _ZN5TPathC2ERK5TFontRK8TWString _ZN5TPathD1Ev _ZN5TPathD2Ev _ZN5TPathaSERKS_ _ZN5TPath6MoveToEff _ZN5TPath6LineToEff _ZN5TPath6QuadToEffff _ZN5TPath7CubicToEffffff _ZN5TPath7AddTextERK5TFontRK8TWString _ZN5TPath5CloseEv _ZN5TPath5ClearEv _ZN5TPath6RotateEf _ZN5TPath9TransformERK10TMatrix3x3 _ZNK5TPath12GetBoundRectEv _ZN5TPath4DataC1EPv _ZN5TPath4DataC2EPv _ZN5TPath4DataD2Ev _ZN6TArrayIhED1Ev _ZN6TArrayIhED0Ev _ZN6TArrayIfED1Ev _ZN6TArrayIfED0Ev
	IMPORTS _ZTVSt9exception _ZTVSt13bad_exception _ZTVSt9bad_alloc _ZTV17TChildrenDelegate _ZTV6TImage _ZTV6TArrayIP5TNodeE _ZTV6TArrayI9ColorStopE _ZTI17TChildrenDelegate _ZTI6TArrayIP5TNodeE _ZTI6TImage _ZTI6TArrayI9ColorStopE _ZTISt9exception _ZTISt13bad_exception _ZTISt9bad_alloc _ZTS17TChildrenDelegate _ZTS6TArrayIP5TNodeE _ZTS6TImage _ZTS6TArrayI9ColorStopE _ZTSSt9exception _ZTSSt13bad_exception _ZTSSt9bad_alloc _ZdlPv __frameinfo_used _ZN12TApplication8InstanceEv _Znwj __diab_Unwind_Resume __diab_personality_v0 _Znaj _ZdaPv __cxa_allocate_exception __cxa_throw _ZNK5TFont11GetFaceNameEv _ZN8TTtfFontC1ERK7TString _ZNK8TTtfFont6IsNullEv _ZNK8TTtfFont12GetGlyphPathEwR6TArrayIhERS0_IfER7_TPointIfE _ZNK5TFont12GetPointSizeEv _ZN8TTtfFontD1Ev cos sin _ZTVN10__cxxabiv117__class_type_infoE
	DECLARES 
	USES 
}
Module tgsPath.o {
	OBJECT += libtilcon.a::tgsPath.o
}
ObjectFile libtilcon.a::tgsBmfFontEngine.o {
	NAME Object file tgsBmfFontEngine.o from archive libtilcon.a
	EXPORTS _ZTV10TException _ZTV6TArrayIPN14TBmfFontEngine4FontEE _ZTI10TException _ZTI6TArrayIPN14TBmfFontEngine4FontEE _ZTS10TException _ZTS6TArrayIPN14TBmfFontEngine4FontEE _ZN10TExceptionD1Ev _ZN10TExceptionD0Ev _ZNK6TArrayIPN14TBmfFontEngine4FontEEixEi _ZN14TBmfFontEngine11AcquireFontERK7TStringi _ZN8TBmfFontC1ERK7TStringi _ZN8TBmfFontC2ERK7TStringi _ZN8TBmfFontD1Ev _ZN8TBmfFontD2Ev _ZNK8TBmfFonteqERKS_ _ZNK8TBmfFont6IsNullEv _ZNK14TBmfFontEngine10GetMetricsEPvR11FontMetrics _ZNK8TBmfFont10GetMetricsER11FontMetrics _ZNK14TBmfFontEngine8GetGlyphEPvw _ZNK8TBmfFont8GetGlyphEw _ZNK14TBmfFontEngine15GetGlyphAdvanceEPvwR7_TPointIiE _ZNK8TBmfFont15GetGlyphAdvanceEwR7_TPointIiE _ZN6TArrayIPN14TBmfFontEngine4FontEED1Ev _ZN6TArrayIPN14TBmfFontEngine4FontEED0Ev _ZN6TArrayIPN14TBmfFontEngine4FontEE13RoundCapacityEi _ZN6TArrayIPN14TBmfFontEngine4FontEE8ExpandAtEii _ZN6TArrayIPN14TBmfFontEngine4FontEE8InsertAtEiRKS2_ _ZN14TBmfFontEngineC1Ev _ZN14TBmfFontEngineC2Ev _ZN14TBmfFontEngine4FontD1Ev _ZN14TBmfFontEngineD1Ev _ZN14TBmfFontEngineD2Ev _ZN14TBmfFontEngine4FontC1ERK17UGL_BMF_FONT_DESC _ZN14TBmfFontEngine15RegisterBmfFontERK17UGL_BMF_FONT_DESC _ZN14TBmfFontEngine11ReleaseFontEPv _ZN14TBmfFontEngine4FontC2ERK17UGL_BMF_FONT_DESC _ZN14TBmfFontEngine4FontD2Ev
	IMPORTS _ZTVSt9exception _ZTVSt13bad_exception _ZTVSt9bad_alloc _ZTV17TChildrenDelegate _ZTV6TImage _ZTV6TArrayIP5TNodeE _ZTV6TArrayI9ColorStopE _ZTI17TChildrenDelegate _ZTI6TArrayIP5TNodeE _ZTI6TImage _ZTI6TArrayI9ColorStopE _ZTISt9exception _ZTISt13bad_exception _ZTISt9bad_alloc _ZTS17TChildrenDelegate _ZTS6TArrayIP5TNodeE _ZTS6TImage _ZTS6TArrayI9ColorStopE _ZTSSt9exception _ZTSSt13bad_exception _ZTSSt9bad_alloc _ZdlPv __frameinfo_used __cxa_allocate_exception __cxa_throw _ZNK7TStringeqERKS_ abs _ZN12TApplication8InstanceEv _ZdaPv _Znaj free __diab_Unwind_Resume __diab_personality_v0 _ZN7TStringC1EPKc memset _Znwj _ZTVN10__cxxabiv117__class_type_infoE
	DECLARES 
	USES 
}
Module tgsBmfFontEngine.o {
	OBJECT += libtilcon.a::tgsBmfFontEngine.o
}
ObjectFile libtilcon.a::tgsApplication.o {
	NAME Object file tgsApplication.o from archive libtilcon.a
	EXPORTS _ZTV10TException _ZTV6TArrayIPK15ControlPropertyE _ZTV6TArrayIP6TTimerE _ZTV6TArrayIP7TWindowE _ZTV6TArrayIPcE _ZTI10TException _ZTI6TArrayIPK15ControlPropertyE _ZTI6TArrayIP6TTimerE _ZTI6TArrayIP7TWindowE _ZTI6TArrayIPcE _ZTS10TException _ZTS6TArrayIPK15ControlPropertyE _ZTS6TArrayIP6TTimerE _ZTS6TArrayIP7TWindowE _ZTS6TArrayIPcE _ZN10TExceptionD1Ev _ZN10TExceptionD0Ev _ZN6TColorC1Ej _ZN6TColorC1ERKS_ _ZN6_TRectIiEC1Ev _ZN6_TRectIiEC1ERKS0_ _ZN6_TRectIiEC1ERK7_TPointIiERK6_TSizeIiE _ZNK6_TRectIiE7CombineERKS0_ _ZNK6_TRectIiEplERK7_TPointIiE _ZNK6_TRectIiE9IntersectERKS0_ _ZN7_TPointIfEC1Ev _ZN7_TPointIfED1Ev _ZN6TPaintC1ERK6TColor _ZN6TPaintD1Ev _ZN9TAppParamC1Ev _ZN9TAppParamC2Ev _ZN6TArrayIPcE13RoundCapacityEi _ZN6TArrayIPcE8ExpandAtEii _ZN6TArrayIPcE8InsertAtEiRKS0_ _ZNK6TArrayIPcEixEi _ZN9TAppParam3AddEPKc _ZN9TAppParamC1EPKc _ZN9TAppParamC2EPKc _ZN9TAppParam3AddEiPPc _ZN9TAppParamC1EiPPc _ZN9TAppParamC2EiPPc _ZN9TAppParamD1Ev _ZN9TAppParamD2Ev _ZN9TAppParamC1ERKS_ _ZN6TArrayIPK15ControlPropertyED1Ev _ZN6TArrayIPK15ControlPropertyED0Ev _ZN6TArrayIPK15ControlPropertyE13RoundCapacityEi _ZN6TArrayIPK15ControlPropertyE8ExpandAtEii _ZN6TArrayIPK15ControlPropertyE8InsertAtEiRKS2_ _ZN6TArrayIPK15ControlPropertyE8ShrinkAtEii _ZN6TArrayIPK15ControlPropertyE8RemoveAtEi _ZNK6TArrayIPK15ControlPropertyEixEi _ZNK6TArrayIP6TTimerEixEi _ZN6TArrayIP6TTimerE8CopyFromERKS2_ _ZN6TArrayIP6TTimerEC1ERKS2_ _ZN6TArrayIP6TTimerED1Ev _ZN6TArrayIP6TTimerED0Ev _ZN6TArrayIP6TTimerE13RoundCapacityEi _ZN6TArrayIP6TTimerE8ExpandAtEii _ZN6TArrayIP6TTimerE8InsertAtEiRKS1_ _ZN6TArrayIP6TTimerE8ShrinkAtEii _ZN6TArrayIP6TTimerE8RemoveAtEi _ZNK6TArrayIP6TTimerE7IndexOfERKS1_ _ZN6TArrayIP7TWindowED1Ev _ZN6TArrayIP7TWindowED0Ev _ZN6TArrayIP7TWindowE13RoundCapacityEi _ZN6TArrayIP7TWindowE8ExpandAtEii _ZN6TArrayIP7TWindowE8InsertAtEiRKS1_ _ZN6TArrayIP7TWindowE8ShrinkAtEii _ZN6TArrayIP7TWindowE8RemoveAtEi _ZNK6TArrayIP7TWindowE7IndexOfERKS1_ _ZNK6TArrayIP7TWindowEixEi _ZN12TApplication8InstanceEv _ZN12TApplication11applicationE _ZN12TApplication15RegisterTtfFontEPK13TTF_FONT_DESC _ZN12TApplication15RegisterBmfFontEPK17UGL_BMF_FONT_DESC _ZN12TApplication14DestroyPrivateEv _ZN12TApplication13CreatePrivateEv _ZN12TApplicationC1ERK9TAppParam _ZN12TApplication6CreateERK9TAppParam _ZN12TApplicationD1Ev _ZN12TApplication7DestroyEPS_ _ZN12TApplicationC1ERK7TStringjj _ZN12TApplicationC2ERK7TStringjj _ZN12TApplicationC2ERK9TAppParam _ZN12TApplicationD2Ev _ZNK10TSharedPtrI8TSurfaceE5DerefEv _ZN12TApplication13UpdateWindowsEv _ZN12TApplication11WaitMessageER8_app_msgi _ZN12TApplication14ProcessMessageER8_app_msg _ZN12TApplication3RunEv _ZN12TApplication4StopEi _ZN12TApplication11SendMessageERK8_app_msgi _ZN12TApplication19RegisterMessageHookEPFiPvR8_app_msgES0_ _ZN12TApplication16RegisterPropertyE11ControlTypePK15ControlProperty _ZN12TApplication18UnregisterPropertyE11ControlType _ZNK12TApplication11GetPropertyE11ControlType _ZN12TApplication10ShowCursorEi _ZN12TApplication10StepTimersEi _ZN12TApplication12GuiHeartBeatEi _ZN12TApplication8AddTimerEP6TTimer _ZN12TApplication11RemoveTimerEP6TTimer _ZN12TApplication7AddHostEP7TWindow _ZN12TApplication10RemoveHostEP7TWindow _ZN12TApplication15GetVisualEngineEv _ZN6TArrayIPcED1Ev _ZN6TArrayIPcED0Ev
	IMPORTS _ZTVSt9exception _ZTVSt13bad_exception _ZTVSt9bad_alloc _ZTV17TChildrenDelegate _ZTV6TImage _ZTV14TEventDelegate _ZTV7TWSRoot _ZTVSt11logic_error _ZTVSt12domain_error _ZTVSt16invalid_argument _ZTVSt12length_error _ZTVSt12out_of_range _ZTVSt13runtime_error _ZTVSt14overflow_error _ZTVSt15underflow_error _ZTVSt11range_error _ZTV6TArrayIP5TNodeE _ZTV6TArrayI9ColorStopE _ZTI14TEventDelegate _ZTI17TChildrenDelegate _ZTI6TArrayIP5TNodeE _ZTI6TImage _ZTI6TArrayI9ColorStopE _ZTI7TWSRoot _ZTISt9exception _ZTISt13bad_exception _ZTISt9bad_alloc _ZTISt11logic_error _ZTISt12domain_error _ZTISt16invalid_argument _ZTISt12length_error _ZTISt12out_of_range _ZTISt13runtime_error _ZTISt14overflow_error _ZTISt15underflow_error _ZTISt11range_error _ZTS14TEventDelegate _ZTS17TChildrenDelegate _ZTS6TArrayIP5TNodeE _ZTS6TImage _ZTS6TArrayI9ColorStopE _ZTS7TWSRoot _ZTSSt9exception _ZTSSt13bad_exception _ZTSSt9bad_alloc _ZTSSt11logic_error _ZTSSt12domain_error _ZTSSt16invalid_argument _ZTSSt12length_error _ZTSSt12out_of_range _ZTSSt13runtime_error _ZTSSt14overflow_error _ZTSSt15underflow_error _ZTSSt11range_error _ZdlPv _ZN6_TRectIiE8nullRectE __frameinfo_used _ZN9TGradientC1Ev _ZN12TPixelBufferC1Ev _ZN9TGradientD1Ev __diab_Unwind_Resume __diab_personality_v0 _ZN12TPixelBufferD1Ev _ZN7TStringC1EPKc free _Znaj __cxa_allocate_exception __cxa_throw _ZdaPv strlen memcpy strtok strcmp _ZN7TStringaSERKS_ atoi _ZN7TStringC1ERKS_ _ZN14TTtfFontEngine15RegisterTtfFontERK13TTF_FONT_DESC _ZN8TTtfFontC1ERK7TString _ZN8TTtfFontD1Ev _ZN14TBmfFontEngine15RegisterBmfFontERK17UGL_BMF_FONT_DESC _ZN8TBmfFontC1ERK7TStringi _ZN8TBmfFontD1Ev _ZN7TWindow7DestroyEv _ZN7TWindow4rootE _ZN8TSurface4rootE _ZN8TSurfaceD1Ev _ZN7TWSHost6DeinitEv _ZN14TTtfFontEngineD1Ev _ZN14TBmfFontEngineD1Ev _Z22DestroyPlatformSupportP9TPlatform printf _Z21CreatePlatformSupportRK9TAppParam _Znwj _ZN20TDefaultVisualEngineC1Ev _ZN14TTtfFontEngineC1Ev ttfFontDescs _ZN14TBmfFontEngineC1Ev bmfFontDescs __div32 _ZN12TPixelBufferC1Eii _ZN8TSurfaceC1ERK6_TRectIiE _ZN8TSurface10SetVisibleEi _ZN7TWSHost4InitEii _ZN7TWindowC1EiiiiPS_NS_12WindowSizingENS_10WindowTypeE _ZN7TWindow4ShowEi _ZN8TPainterC1Ev _ZN8TPainter10BeginPaintER7TWindow _ZN8TPainter8SetBrushERK6TBrush _ZN8TPainter8FillRectERK6_TRectIiE _ZN8TPainter8EndPaintEv __cxa_vec_ctor _ZN8TPainter10BeginPaintER12TPixelBuffer _ZN14TVectorPainter12SetBlendModeE9BlendMode _ZN14TVectorPainter12SetFillPaintERK6TPaint _ZN5TPathC1ERK6_TRectIiE _ZN14TVectorPainter8FillPathERK5TPath _ZN5TPathD1Ev _ZN14TVectorPainter15TranslateMatrixEff _ZN14TVectorPainter12RotateMatrixEf _ZN14TVectorPainter8FillPathEPK7_TPointIfEj _ZN14TVectorPainter11ResetMatrixEv _ZN14TVectorPainter14SetStrokePaintERK6TPaint _ZN14TVectorPainter10StrokePathEPK7_TPointIfEji __cxa_vec_dtor _ZN8TPainterD1Ev __cxa_end_catch __cxa_begin_catch __cxa_rethrow _ZN7TWSHost13UpdateWindowsEv _ZN8TSurface16ResolveDirtyAreaEv _ZN8TSurface15ValidateSurfaceEPv _ZN8TPainter5ResetEv _ZN8TPainter15DrawPixelBufferERK12TPixelBufferii _ZN7TWSHost14ProcessMessageERK8_app_msg _ZN6TTimer4StepEi _ZTVN10__cxxabiv117__class_type_infoE
	DECLARES 
	USES 
}
Module tgsApplication.o {
	OBJECT += libtilcon.a::tgsApplication.o
}
ObjectFile libtilcon.a::tgsLoaderBmp.o {
	NAME Object file tgsLoaderBmp.o from archive libtilcon.a
	EXPORTS _Z25trt_bmp_parse_file_headerP16BMPFileHeaderRawR13BMPFileHeader _Z25trt_bmp_parse_info_headerP16BMPInfoHeaderRawR13BMPInfoHeader trt_bmp_load trt_bmp_free
	IMPORTS _ZTVSt9exception _ZTVSt13bad_exception _ZTVSt9bad_alloc _ZTV10TException _ZTI10TException _ZTISt9exception _ZTISt13bad_exception _ZTISt9bad_alloc _ZTS10TException _ZTSSt9exception _ZTSSt13bad_exception _ZTSSt9bad_alloc __frameinfo_used _Z7get_u32Phi _Z7get_u16Phi fopen fread _Znaj fseek _ZdaPv fclose memcpy
	DECLARES 
	USES 
}
Module tgsLoaderBmp.o {
	OBJECT += libtilcon.a::tgsLoaderBmp.o
}
ObjectFile libtilcon.a::tgsImage.o {
	NAME Object file tgsImage.o from archive libtilcon.a
	EXPORTS _ZTVSt9exception _ZTVSt9bad_alloc _ZTV6TImage _ZTI6TImage _ZTISt9exception _ZTISt9bad_alloc _ZTS6TImage _ZTSSt9exception _ZTSSt9bad_alloc _ZN9ImageDataC1Ev _ZN9ImageDataC2Ev _ZN9ImageDataC1EPhiii11ColorFormat _ZN9ImageDataC2EPhiii11ColorFormat _ZN9ImageDataD1Ev _ZN9ImageDataD2Ev _ZN10TSharedPtrI9ImageDataEC1EPS0_ _ZNK10TSharedPtrI9ImageDataE5DerefEv _ZN10TSharedPtrI9ImageDataED1Ev _ZN10TSharedPtrI9ImageDataEaSEPS0_ _ZN10TSharedPtrI9ImageDataEaSERKS1_ _ZN6TImage14LoadFromBufferEPKhiii10ColorOrder11ColorFormat _ZN6TImageC1EPhiii10ColorOrder11ColorFormat _ZNSt9bad_allocD1Ev _ZN6TImageC2EPhiii10ColorOrder11ColorFormat _ZN6TImage14LoadFromBufferEPKhiii11ColorFormatS2_ _ZN6TImageC1EPhiii11ColorFormatS1_ _ZN6TImageC2EPhiii11ColorFormatS1_ _ZN6TImageC1ERK12TPixelBuffer _ZN6TImageC2ERK12TPixelBuffer _ZN6TImageD1Ev _ZN6TImageD0Ev _ZN6TImage12LoadBMPImageEPKc11ColorFormat _ZN6TImage12LoadPNGImageEPKc11ColorFormat _ZN6TImage13LoadJPEGImageEPKc11ColorFormat _ZN6TImage12LoadFromFileENS_9ImageTypeEPKc11ColorFormat _ZN6TImage6UnloadEv _ZNK6TImage8GetWidthEv _ZNK6TImage9GetHeightEv _ZNK6TImage9GetStrideEv _ZNK6TImage9GetBufferEv _ZNK6TImage9GetBufferEii _ZNK6TImage9GetFormatEv _ZNK6TImage8GetColorEii _ZNK6TImage6IsNullEv _ZN6TImage7ConvertEPhi11ColorFormatPKhiS1_ii _ZNK6TImage4DumpEv _ZNSt9exceptionD1Ev _ZNSt9exceptionD0Ev _ZNKSt9exception4whatEv _ZNSt9bad_allocD0Ev _STI___12_tgsImage_cpp_18acb989
	IMPORTS _ZTVSt13bad_exception _ZTV10TException _ZTI10TException _ZTISt13bad_exception _ZTS10TException _ZTSSt13bad_exception _ZdaPv __frameinfo_used _Znwj __diab_Unwind_Resume __diab_personality_v0 _ZdlPv _Znaj _ZNK6TColor6Pack32E11ColorFormat __cxa_begin_catch __cxa_end_catch __cxa_allocate_exception __cxa_throw _ZN6TColor8Unpack32Ej11ColorFormat _ZNK12TPixelBuffer8GetWidthEv _ZNK12TPixelBuffer9GetHeightEv _ZNK12TPixelBuffer4ReadERK7_TPointIiERK6_TSizeIiEPh11ColorFormati trt_bmp_load trt_bmp_free trt_png_load trt_png_free trt_jpeg_load trt_jpeg_free printf __cxa_atexit __dso_handle _ZTVN10__cxxabiv117__class_type_infoE _ZTVN10__cxxabiv120__si_class_type_infoE
	DECLARES _ZN6TImage16defaultImageDataE
	USES 
}
Module tgsImage.o {
	OBJECT += libtilcon.a::tgsImage.o
}
ObjectFile libtilcon.a::tgsControl.o {
	NAME Object file tgsControl.o from archive libtilcon.a
	EXPORTS _ZTV8TControl _ZTI8TControl _ZTS8TControl _ZN6TColorC1Ej _ZN15ControlPropertyC1E11ControlType _ZN15ControlPropertyC2E11ControlType _ZN15ControlPropertyD1Ev _ZN15ControlPropertyD2Ev _ZN6_TRectIiEC1ERK7_TPointIiERK6_TSizeIiE _ZNK6_TRectIiEneERKS0_ _ZN8TControlC1EiiiiR5TNode _ZN8TControlC2EiiiiR5TNode _ZN8TControlD1Ev _ZN8TControlD0Ev _ZN8TControlD2Ev _ZN8TControl11SetPositionERK7_TPointIiE _ZN8TControl7SetSizeERK6_TSizeIiE _ZN8TControl7SetRectERK6_TRectIiE _ZN8TControl18SetAlignmentPolicyE19HorizontalAlignment17VerticalAlignment _ZN8TControl13SetSizeSourceE10SizeSource _ZN8TControl13GetHintedSizeEv
	IMPORTS _ZTVSt9exception _ZTVSt13bad_exception _ZTVSt9bad_alloc _ZTV10TException _ZTV17TChildrenDelegate _ZTV6TImage _ZTV6TArrayIP5TNodeE _ZTV6TArrayI9ColorStopE _ZTI10TException _ZTI17TChildrenDelegate _ZTI6TArrayIP5TNodeE _ZTI6TImage _ZTI6TArrayI9ColorStopE _ZTISt9exception _ZTISt13bad_exception _ZTISt9bad_alloc _ZTS10TException _ZTS17TChildrenDelegate _ZTS6TArrayIP5TNodeE _ZTS6TImage _ZTS6TArrayI9ColorStopE _ZTSSt9exception _ZTSSt13bad_exception _ZTSSt9bad_alloc __frameinfo_used _ZN5TFontC1Ev _ZN7TVisualC1E9FrameType _ZN5TFontD1Ev __diab_Unwind_Resume __diab_personality_v0 _ZN7TVisualD1Ev _ZdlPv _ZN5TNode18OnChildBoundChangeEP8TControl _ZN5TNode8OnResizeEv _ZN5TNode6UpdateEv _ZTVN10__cxxabiv117__class_type_infoE
	DECLARES 
	USES 
}
Module tgsControl.o {
	OBJECT += libtilcon.a::tgsControl.o
}
ObjectFile libtilcon.a::tgsLoaderJpeg.o {
	NAME Object file tgsLoaderJpeg.o from archive libtilcon.a
	EXPORTS _Z13my_error_exitP18jpeg_common_struct trt_jpeg_load trt_jpeg_free
	IMPORTS __frameinfo_used longjmp fopen jpeg_std_error setjmp jpeg_destroy_decompress fclose jpeg_CreateDecompress jpeg_stdio_src jpeg_read_header jpeg_start_decompress _Znaj jpeg_read_scanlines jpeg_finish_decompress _ZdaPv
	DECLARES 
	USES 
}
Module tgsLoaderJpeg.o {
	OBJECT += libtilcon.a::tgsLoaderJpeg.o
}
ObjectFile libtilcon.a::tgsVisual.o {
	NAME Object file tgsVisual.o from archive libtilcon.a
	EXPORTS _ZTV7TVisual _ZTI7TVisual _ZTS7TVisual _ZN13TCustomVisualC1Ev _ZN13TCustomVisualD1Ev _ZN7TVisualC1E9FrameType _ZN7TVisualC2E9FrameType _ZN7TVisualD1Ev _ZN7TVisualD0Ev _ZN7TVisualD2Ev _ZNK7TVisual10DrawCustomER8TPainterRK11VisualStateRK6_TRectIiE _ZNK7TVisual4DrawER8TPainterRK11VisualStateRK6_TRectIiE
	IMPORTS _ZTVSt9exception _ZTVSt13bad_exception _ZTVSt9bad_alloc _ZTV10TException _ZTV17TChildrenDelegate _ZTV6TImage _ZTV6TArrayIP5TNodeE _ZTV6TArrayI9ColorStopE _ZTI10TException _ZTI17TChildrenDelegate _ZTI6TArrayIP5TNodeE _ZTI6TImage _ZTI6TArrayI9ColorStopE _ZTISt9exception _ZTISt13bad_exception _ZTISt9bad_alloc _ZTS10TException _ZTS17TChildrenDelegate _ZTS6TArrayIP5TNodeE _ZTS6TImage _ZTS6TArrayI9ColorStopE _ZTSSt9exception _ZTSSt13bad_exception _ZTSSt9bad_alloc __frameinfo_used _ZN11TCustomFillC1Ev _ZN11TCustomFillD1Ev __diab_Unwind_Resume __diab_personality_v0 _ZdlPv _ZNK11TCustomFill15IsDefualtVisualEv _ZNK11TCustomFill8FillRectER8TPainterRK6_TRectIiE _ZN12TApplication8InstanceEv _ZN12TApplication15GetVisualEngineEv _ZTVN10__cxxabiv117__class_type_infoE
	DECLARES 
	USES 
}
Module tgsVisual.o {
	OBJECT += libtilcon.a::tgsVisual.o
}
ObjectFile libtilcon.a::tgsColor.o {
	NAME Object file tgsColor.o from archive libtilcon.a
	EXPORTS _ZN6TColorC1Ej _ZN6TColorC1ERKS_ _ZN6TColor11InterpolateEfRKS_ _ZN6TColor5BlendERKS_ _ZN6TColor5BlendEiRKS_ _ZN6TColor8Blend256EiRKS_ _ZNK6TColor6Pack32E11ColorFormat _ZN6TColor8Unpack32Ej11ColorFormat _ZN6TColor7Fade256EiRKS_
	IMPORTS _ZTVSt9exception _ZTVSt13bad_exception _ZTVSt9bad_alloc _ZTV10TException _ZTI10TException _ZTISt9exception _ZTISt13bad_exception _ZTISt9bad_alloc _ZTS10TException _ZTSSt9exception _ZTSSt13bad_exception _ZTSSt9bad_alloc __div32
	DECLARES 
	USES 
}
Module tgsColor.o {
	OBJECT += libtilcon.a::tgsColor.o
}
ObjectFile libtilcon.a::tgsTtfFontEngine.o {
	NAME Object file tgsTtfFontEngine.o from archive libtilcon.a
	EXPORTS _ZTV10TException _ZTV6TArrayIPN14TTtfFontEngine4FONTEE _ZTI10TException _ZTI6TArrayIPN14TTtfFontEngine4FONTEE _ZTS10TException _ZTS6TArrayIPN14TTtfFontEngine4FONTEE _ZN10TExceptionD1Ev _ZN10TExceptionD0Ev _ZNK6TArrayIPN14TTtfFontEngine4FONTEEixEi _ZN14TTtfFontEngine11AcquireFontERK7TString _ZN8TTtfFontC1ERK7TString _ZN8TTtfFontC2ERK7TString _ZN8TTtfFontD1Ev _ZN8TTtfFontD2Ev _ZNK8TTtfFonteqERKS_ _ZNK8TTtfFont6IsNullEv _ZNK14TTtfFontEngine9GetHeightEPv _ZNK8TTtfFont9GetHeightEv _ZNK14TTtfFontEngine10GetMetricsEPvR11FontMetrics _ZNK8TTtfFont10GetMetricsER11FontMetrics _ZNK8TTtfFont13GetGlyphImageEwR6TImage _ZNK8TTtfFont15GetGlyphAdvanceEwR7_TPointIfE _ZNK14TTtfFontEngine12GetGlyphPathEPvwR6TArrayIhERS1_IfER7_TPointIfE _ZN14TTtfFontEngine12outlineFuncsE _ZNK8TTtfFont12GetGlyphPathEwR6TArrayIhERS0_IfER7_TPointIfE _ZN6TArrayIPN14TTtfFontEngine4FONTEED1Ev _ZN6TArrayIPN14TTtfFontEngine4FONTEED0Ev _ZN6TArrayIPN14TTtfFontEngine4FONTEE13RoundCapacityEi _ZN6TArrayIPN14TTtfFontEngine4FONTEE8ExpandAtEii _ZN6TArrayIPN14TTtfFontEngine4FONTEE8InsertAtEiRKS2_ _ZN14TTtfFontEngineC1Ev _ZN14TTtfFontEngineC2Ev _ZN14TTtfFontEngineD1Ev _ZN14TTtfFontEngineD2Ev _ZN14TTtfFontEngine13CreateTtfFontERK13TTF_FONT_DESC _ZN14TTtfFontEngine15RegisterTtfFontERK13TTF_FONT_DESC _ZN14TTtfFontEngine11ReleaseFontEPv _ZNK14TTtfFontEngine13GetGlyphImageEPvwR6TImage _ZNK14TTtfFontEngine15GetGlyphAdvanceEPvwR7_TPointIfE _ZN14TTtfFontEngine10AddCubicToEPK10FT_Vector_S2_S2_PNS_9FuncParamE _ZN6TArrayIhE13RoundCapacityEi _ZN6TArrayIhE8ExpandAtEii _ZN6TArrayIhE8InsertAtEiRKh _ZN6TArrayIfE13RoundCapacityEi _ZN6TArrayIfE8ExpandAtEii _ZN6TArrayIfE8InsertAtEiRKf _ZN14TTtfFontEngine9AddLineToEPK10FT_Vector_PNS_9FuncParamE _ZN14TTtfFontEngine9AddMoveToEPK10FT_Vector_PNS_9FuncParamE _ZN14TTtfFontEngine9AddQuadToEPK10FT_Vector_S2_PNS_9FuncParamE _ZN14TTtfFontEngine14DestroyTtfFontEPNS_4FONTE
	IMPORTS _ZTVSt9exception _ZTVSt13bad_exception _ZTVSt9bad_alloc _ZTV6TImage _ZTV17TChildrenDelegate _ZTV6TArrayIP5TNodeE _ZTV6TArrayI9ColorStopE _ZTI6TImage _ZTI17TChildrenDelegate _ZTI6TArrayIP5TNodeE _ZTI6TArrayI9ColorStopE _ZTISt9exception _ZTISt13bad_exception _ZTISt9bad_alloc _ZTS6TImage _ZTS17TChildrenDelegate _ZTS6TArrayIP5TNodeE _ZTS6TArrayI9ColorStopE _ZTSSt9exception _ZTSSt13bad_exception _ZTSSt9bad_alloc _ZdlPv __frameinfo_used __cxa_allocate_exception __cxa_throw _ZNK7TStringeqERKS_ _ZN12TApplication8InstanceEv FT_Get_Char_Index FT_Load_Glyph printf FT_Outline_Check FT_Outline_Decompose _ZdaPv _Znaj FT_Init_FreeType __diab_Unwind_Resume __diab_personality_v0 free FT_Done_FreeType _Znwj _ZN7TStringC1EPKc _ZN7TStringC1ERKS_ FT_New_Memory_Face FT_Select_Charmap FT_Set_Char_Size FT_Done_Face FT_Set_Transform _ZTVN10__cxxabiv117__class_type_infoE
	DECLARES 
	USES 
}
Module tgsTtfFontEngine.o {
	OBJECT += libtilcon.a::tgsTtfFontEngine.o
}
ObjectFile libtilcon.a::tgsWindow.o {
	NAME Object file tgsWindow.o from archive libtilcon.a
	EXPORTS _ZTV10TException _ZTV11TWindowHost _ZTV7TWindow _ZTV6TArrayIP5TNodeE _ZTVN7_TEventI10EventParamE15THandlerAdaptorE _ZTVN7_TEventI10EventParamE17MemberFuncHandlerI7TWindowEE _ZTI10TException _ZTI6TArrayIP5TNodeE _ZTIN7_TEventI10EventParamE15THandlerAdaptorE _ZTIN7_TEventI10EventParamE17MemberFuncHandlerI7TWindowEE _ZTI11TWindowHost _ZTI7TWindow _ZTS10TException _ZTS6TArrayIP5TNodeE _ZTSN7_TEventI10EventParamE15THandlerAdaptorE _ZTSN7_TEventI10EventParamE17MemberFuncHandlerI7TWindowEE _ZTS11TWindowHost _ZTS7TWindow _ZN10TExceptionD1Ev _ZN10TExceptionD0Ev _ZN6_TRectIiEC1Ev _ZN6_TRectIiEC1ERKS0_ _ZN6_TRectIiEC1ERK7_TPointIiERK6_TSizeIiE _ZNK6_TRectIiE7CombineERKS0_ _ZNK6_TRectIiEmiERK7_TPointIiE _ZNK6_TRectIiE9IntersectERKS0_ _ZNK6_TRectIiEeqERKS0_ _ZNK6TArrayIP5TNodeEixEi _ZN6TArrayIP5TNodeE8CopyFromERKS2_ _ZN6TArrayIP5TNodeEC1ERKS2_ _ZN6TArrayIP5TNodeED1Ev _ZN6TArrayIP5TNodeED0Ev _ZN6TArrayIP5TNodeE13RoundCapacityEi _ZN6TArrayIP5TNodeE8ExpandAtEii _ZN6TArrayIP5TNodeE8InsertAtEiRKS1_ _ZN6TArrayIP5TNodeE5ClearEv _ZN7_TEventI10EventParamE10SetHandlerI7TWindowEEvPT_NS1_17MemberFuncHandlerIS4_E8FuncTypeE _ZN7_TEventI10EventParamE15THandlerAdaptorD1Ev _ZN7_TEventI10EventParamE15THandlerAdaptorD0Ev _ZN7_TEventI10EventParamE17MemberFuncHandlerI7TWindowED1Ev _ZN7_TEventI10EventParamE17MemberFuncHandlerI7TWindowED0Ev _ZNK7_TEventI10EventParamE17MemberFuncHandlerI7TWindowE6InvokeERS0_ _ZN7_TEventI10EventParamE17MemberFuncHandlerI7TWindowE3dupEv _ZN11TWindowHostC1Eii _ZN11TWindowHostC2Eii _ZN11TWindowHostD1Ev _ZN11TWindowHostD0Ev _ZN11TWindowHostD2Ev _ZN11TWindowHost14InvalidateRectERK6_TRectIiE _ZN11TWindowHost12HostToScreenERK7_TPointIiE _ZN11TWindowHost13ActivateChildEP5TNode _ZN11TWindowHost15DeactivateChildEP5TNode _ZN11TWindowHost17ProcessMouseTrackEP5TNode _ZN11TWindowHost25FindMouseResponsiveNodeAtERK7_TPointIiE _ZN11TWindowHost16UpdateMouseTrackEv _ZN11TWindowHost15RouteMouseEventEP5TNodeRNS0_15MouseEventParamE _ZN11TWindowHost23RouteMouseActivateEventEP5TNode _ZN11TWindowHost15ClearMouseTrackEv _ZN11TWindowHost7OnPaintER8TPainterRK6_TRectIiE _ZN11TWindowHost7OnMouseER10EventParam _ZN11TWindowHost10OnKeyboardER10EventParam _ZN11TWindowHost8OnResizeER10EventParam _ZN11TWindowHost10OnActivateER10EventParam _ZN11TWindowHost12OnDeactivateER10EventParam _ZN11TWindowHost18WindowEventHandlerER10EventParam _ZN11TWindowHost12OnMouseLeaveER10EventParam _ZN11TWindowHost6OnShowER10EventParam _ZN11TWindowHost6OnHideER10EventParam _ZN11TWindowHost6AttachEv _ZN11TWindowHost6DetachEv _ZN7TWindowC1EiiiiPS_NS_12WindowSizingENS_10WindowTypeE _ZN7TWindowC2EiiiiPS_NS_12WindowSizingENS_10WindowTypeE _ZN7TWindow7DestroyEv _ZN7TWindowD1Ev _ZN7TWindowD0Ev _ZN7TWindowD2Ev _ZN7TWindow6CreateEv _ZN7TWindow14InvalidateRectERK6_TRectIiE _ZN7TWindow4ShowEi _ZN7TWindow4HideEv _ZN7TWindow13SetWindowRectERK6_TRectIiE _ZNK7TWindow13GetWindowRectEv _ZN7TWindow18WindowEventHandlerER10EventParam _ZN7TWindow17InvalidateHandlerER10EventParam _ZN7TWindow15ToScreenHandlerER10EventParam _ZN7TWindow4rootE
	IMPORTS _ZTVSt9exception _ZTVSt13bad_exception _ZTVSt9bad_alloc _ZTV17TChildrenDelegate _ZTV6TImage _ZTV14TEventDelegate _ZTV7TWSRoot _ZTVSt11logic_error _ZTVSt12domain_error _ZTVSt16invalid_argument _ZTVSt12length_error _ZTVSt12out_of_range _ZTVSt13runtime_error _ZTVSt14overflow_error _ZTVSt15underflow_error _ZTVSt11range_error _ZTV6TArrayI9ColorStopE _ZTI14TEventDelegate _ZTI17TChildrenDelegate _ZTI6TImage _ZTI6TArrayI9ColorStopE _ZTI7TWSRoot _ZTISt9exception _ZTISt13bad_exception _ZTISt9bad_alloc _ZTISt11logic_error _ZTISt12domain_error _ZTISt16invalid_argument _ZTISt12length_error _ZTISt12out_of_range _ZTISt13runtime_error _ZTISt14overflow_error _ZTISt15underflow_error _ZTISt11range_error _ZTS14TEventDelegate _ZTS17TChildrenDelegate _ZTS6TImage _ZTS6TArrayI9ColorStopE _ZTS7TWSRoot _ZTSSt9exception _ZTSSt13bad_exception _ZTSSt9bad_alloc _ZTSSt11logic_error _ZTSSt12domain_error _ZTSSt16invalid_argument _ZTSSt12length_error _ZTSSt12out_of_range _ZTSSt13runtime_error _ZTSSt14overflow_error _ZTSSt15underflow_error _ZTSSt11range_error _ZdlPv _ZN6_TRectIiE8nullRectE __frameinfo_used __cxa_allocate_exception __cxa_throw _Znaj _ZdaPv _Znwj __diab_Unwind_Resume __diab_personality_v0 _ZN5TNode11OnLoseFocusEv _ZN5TNode11OnGainFocusEv _ZN5TNode12OnMouseLeaveEv _ZN5TNode12OnMouseEnterEv _ZN5TNode25FindMouseResponsiveNodeAtERK7_TPointIiE _ZNK5TNode12OffsetToNodeEPS_RK7_TPointIiE _ZN5TNode7OnMouseERNS_15MouseEventParamE _ZN5TNode15RoutePaintEventERNS_15PaintEventParamE _ZN5TNode10OnKeyboardERNS_18KeyboardEventParamE _ZN5TNode12SetBoundRectERK6_TRectIiE _ZN5TNode6UpdateEv _ZN5TNode16RouteAttachEventEP11TWindowHost _ZN5TNode16RouteDetachEventEv _ZN6TPanelC1Eiiii _ZN12TApplication8InstanceEv _ZN8TControl7SetRectERK6_TRectIiE _ZN7TWSHost12CreateWindowERK6_TRectIiEN7TWindow10WindowTypeEP9TWSWindow _ZN8TSurface13CreateSurfaceERK6_TRectIiEPv _ZN6TPanelD1Ev _ZN12TApplication10RemoveHostEP7TWindow _ZN8TSurface14DestroySurfaceEPv _ZN7TWSHost13DestroyWindowEP9TWSWindow _ZN12TApplication7AddHostEP7TWindow _ZN7TWSHost13SetWindowZPosEP9TWSWindowi _ZN7TWSHost10ShowWindowEP9TWSWindowi _ZN8TSurface16MoveSurfaceFrontEPv _ZN8TSurface17SetSurfaceVisibleEPvi _ZN7TWSHost13SetWindowRectEP9TWSWindowRK6_TRectIiE _ZN8TSurface14SetSurfaceRectEPvRK6_TRectIiE _ZN8TSurface17InvalidateSurfaceEPvRK6_TRectIiE _ZN6_TRectIiE7maxRectE _ZN8TPainterC1Ev _ZN8TPainter10BeginPaintER7TWindow _ZN8TPainter8EndPaintEv _ZN8TPainterD1Ev _ZN7TWSHost14OffsetToScreenEP9TWSWindowRK7_TPointIiE __cxa_pure_virtual _ZTVN10__cxxabiv117__class_type_infoE _ZTVN10__cxxabiv120__si_class_type_infoE
	DECLARES 
	USES 
}
Module tgsWindow.o {
	OBJECT += libtilcon.a::tgsWindow.o
}
ObjectFile libtilcon.a::tgsTimer.o {
	NAME Object file tgsTimer.o from archive libtilcon.a
	EXPORTS _ZN6TTimer5StartEv _ZN6TTimer4StopEv _ZN6TTimer5PauseEv _ZN6TTimer6ResumeEv _ZN6TTimer4StepEi
	IMPORTS _ZTVSt9exception _ZTVSt13bad_exception _ZTVSt9bad_alloc _ZTV10TException _ZTV17TChildrenDelegate _ZTV6TImage _ZTV6TArrayIP5TNodeE _ZTV6TArrayI9ColorStopE _ZTI10TException _ZTI17TChildrenDelegate _ZTI6TArrayIP5TNodeE _ZTI6TImage _ZTI6TArrayI9ColorStopE _ZTISt9exception _ZTISt13bad_exception _ZTISt9bad_alloc _ZTS10TException _ZTS17TChildrenDelegate _ZTS6TArrayIP5TNodeE _ZTS6TImage _ZTS6TArrayI9ColorStopE _ZTSSt9exception _ZTSSt13bad_exception _ZTSSt9bad_alloc __frameinfo_used _ZN12TApplication8InstanceEv _ZN12TApplication8AddTimerEP6TTimer _ZN12TApplication11RemoveTimerEP6TTimer
	DECLARES 
	USES 
}
Module tgsTimer.o {
	OBJECT += libtilcon.a::tgsTimer.o
}
ObjectFile libtilcon.a::tgsTextUtility.o {
	NAME Object file tgsTextUtility.o from archive libtilcon.a
	EXPORTS _ZTV10TException _ZTI10TException _ZTS10TException _ZNK8TWString4FindEiw _Z16FindParagraphEndRK8TWStringi _ZNK6TArrayI8LineInfoEixEi _ZN10TExceptionD1Ev _Z11IndexToLineRK6TArrayI8LineInfoEi _Z15GetLineEndIndexRK5TFontRK8TWStringiii _ZN6TArrayI8LineInfoE13RoundCapacityEi _ZN6TArrayI8LineInfoE8ExpandAtEii _ZN8LineInfoC1Ev _ZN6TArrayI8LineInfoE8InsertAtEiRKS0_ _ZN6TArrayI8LineInfoE5ClearEv _Z18ParseTextIntoLinesRK5TFontRK8TWStringiiiiR6TArrayI8LineInfoE _Z16TextWidthToIndexRK5TFontPKwiiRi _Z10AnsiToWidePwPKci _ZN10TExceptionD0Ev
	IMPORTS _ZTVSt9exception _ZTVSt13bad_exception _ZTVSt9bad_alloc _ZTV6TImage _ZTV6TArrayI9ColorStopE _ZTI6TImage _ZTI6TArrayI9ColorStopE _ZTISt9exception _ZTISt13bad_exception _ZTISt9bad_alloc _ZTS6TImage _ZTS6TArrayI9ColorStopE _ZTSSt9exception _ZTSSt13bad_exception _ZTSSt9bad_alloc __frameinfo_used __cxa_allocate_exception __cxa_throw _ZNK5TFont12GetTextWidthEPKwj _Znaj _ZdaPv __cxa_vec_new2 __div32 _ZdlPv _ZTVN10__cxxabiv117__class_type_infoE
	DECLARES 
	USES 
}
Module tgsTextUtility.o {
	OBJECT += libtilcon.a::tgsTextUtility.o
}
ObjectFile libtilcon.a::tgsFont.o {
	NAME Object file tgsFont.o from archive libtilcon.a
	EXPORTS _ZTV5TFont _ZTI5TFont _ZTS5TFont _ZN6_TRectIiEC1Ev _ZN6_TRectIiEC1ERKS0_ _ZNK10TSharedPtrIKN5TFont8FontDataEE5DerefEv _ZN10TSharedPtrIKN5TFont8FontDataEEaSEPS2_ _ZN10TSharedPtrIKN5TFont8FontDataEEaSERKS3_ _ZN5TFontC1Ev _ZN5TFontC2Ev _ZN5TFontC1EPKcj _ZN5TFontC2EPKcj _ZN5TFontD1Ev _ZN5TFontD0Ev _ZN5TFontD2Ev _ZN5TFontaSERKS_ _ZNK5TFonteqERKS_ _ZNK5TFontneERKS_ _ZNK5TFont7GetTypeEv _ZNK5TFont12GetPointSizeEv _ZNK5TFont11GetFaceNameEv _ZNK5TFont10GetMetricsER11FontMetrics _ZNK5TFont12GetTextWidthEPKwj _ZN5TFont18CalculateTextBoundERK6_TRectIiERK6_TSizeIiE23TextHorizontalAlignment21TextVerticalAlignment _ZNK5TFont12GetTextBoundERK6_TRectIiE23TextHorizontalAlignment21TextVerticalAlignmentPKwj _ZNK5TFont12WidthToIndexEiRiPKwi
	IMPORTS _ZTVSt9exception _ZTVSt13bad_exception _ZTVSt9bad_alloc _ZTV10TException _ZTV17TChildrenDelegate _ZTV6TImage _ZTV6TArrayIP5TNodeE _ZTV6TArrayI9ColorStopE _ZTI10TException _ZTI17TChildrenDelegate _ZTI6TArrayIP5TNodeE _ZTI6TImage _ZTI6TArrayI9ColorStopE _ZTISt9exception _ZTISt13bad_exception _ZTISt9bad_alloc _ZTS10TException _ZTS17TChildrenDelegate _ZTS6TArrayIP5TNodeE _ZTS6TImage _ZTS6TArrayI9ColorStopE _ZTSSt9exception _ZTSSt13bad_exception _ZTSSt9bad_alloc _ZN6_TRectIiE8nullRectE __frameinfo_used free _ZdlPv _Znwj __diab_Unwind_Resume __diab_personality_v0 _ZN7TStringC1EPKc _ZN8TTtfFontC1ERK7TString _ZN12TApplication8InstanceEv _ZN7TStringC1ERKS_ _ZN8TTtfFontD1Ev _ZN8TBmfFontC1ERK7TStringi _ZN8TBmfFontD1Ev _ZNK7TStringeqERKS_ _ZNK7TStringneERKS_ __div32 _ZTVN10__cxxabiv117__class_type_infoE
	DECLARES 
	USES 
}
Module tgsFont.o {
	OBJECT += libtilcon.a::tgsFont.o
}
ObjectFile libtilcon.a::tgsNode.o {
	NAME Object file tgsNode.o from archive libtilcon.a
	EXPORTS _ZTV10TException _ZTV5TNode _ZTV14TNodeContainer _ZTV10TNodeArray _ZTV18TNodeEventDelegate _ZTV6TArrayIP5TNodeE _ZTI10TException _ZTI5TNode _ZTI17TChildrenDelegate _ZTI6TArrayIP5TNodeE _ZTI14TNodeContainer _ZTI10TNodeArray _ZTI18TNodeEventDelegate _ZTS10TException _ZTS5TNode _ZTS17TChildrenDelegate _ZTS6TArrayIP5TNodeE _ZTS14TNodeContainer _ZTS10TNodeArray _ZTI14TEventDelegate _ZTS14TEventDelegate _ZTS18TNodeEventDelegate _ZN10TExceptionD1Ev _ZN10TExceptionD0Ev _ZN6_TRectIiEC1Ev _ZN6_TRectIiEC1ERKS0_ _ZN6_TRectIiEC1ERK7_TPointIiERK6_TSizeIiE _ZNK6_TRectIiEplERK7_TPointIiE _ZNK6_TRectIiEmiERK7_TPointIiE _ZNK6_TRectIiE9IntersectERKS0_ _ZNK6_TRectIiE8ContainsERK7_TPointIiE _ZNK6_TRectIiEneERKS0_ _ZN6_TRectIiEpLERK7_TPointIiE _ZN5TNodeC1EiiiiP14TEventDelegateP17TChildrenDelegate _ZN5TNodeC2EiiiiP14TEventDelegateP17TChildrenDelegate _ZN5TNodeD1Ev _ZN5TNodeD0Ev _ZN5TNodeD2Ev _ZNK5TNode12OffsetToNodeEPS_RK7_TPointIiE _ZNK5TNode14OffsetToWindowERK7_TPointIiE _ZNK5TNode14OffsetToScreenERK7_TPointIiE _ZNK5TNode16GetParentVisibleEv _ZNK5TNode12UpliftToNodeEPS_RK6_TRectIiE _ZN5TNode6UpdateERK6_TRectIiE _ZN5TNode6UpdateEv _ZNK5TNode16GetParentEnabledEv _ZN5TNode8ActivateEv _ZN5TNode10DeactivateEv _ZN5TNode18SetVisualStateMaskEiiii _ZN5TNode10SetFocusedEi _ZN5TNode14SetHighlightedEi _ZN5TNode9SetDimmedEi _ZN5TNode9SetActiveEi _ZN5TNode8OnResizeEv _ZN5TNode12SetBoundRectERK6_TRectIiE _ZN5TNode16SetBoundPositionERK7_TPointIiE _ZN5TNode12SetBoundSizeERK6_TSizeIiE _ZN5TNode14OnAttachToHostEv _ZN5TNode16OnDimStateChangeEv _ZN5TNode16RouteAttachEventEP11TWindowHost _ZN5TNode11AddToParentEPS_ _ZN5TNode16OnDetachFromHostEv _ZN5TNode16RouteDetachEventEv _ZN5TNode16RemoveFromParentEv _ZN5TNode14AddToMouseHookEv _ZN5TNode19RemoveFromMouseHookEv _ZN5TNode17RouteGenericEventEPFvRS_PvES1_ _ZN5TNode7OnPaintERNS_15PaintEventParamE _ZN5TNode15RoutePaintEventERNS_15PaintEventParamE _ZN5TNode24RouteDimStateChangeEventEv _ZN5TNode6ToNodeER8TControl _ZN5TNode25FindMouseResponsiveNodeAtERK7_TPointIiE _ZN5TNode11OnGainFocusEv _ZN5TNode11OnLoseFocusEv _ZN5TNode10OnKeyboardERNS_18KeyboardEventParamE _ZN5TNode7OnMouseERNS_15MouseEventParamE _ZN5TNode12OnMouseEnterEv _ZN5TNode12OnMouseLeaveEv _ZN5TNode18OnChildBoundChangeEP8TControl _ZN6TArrayIP5TNodeED1Ev _ZN6TArrayIP5TNodeED0Ev _ZN6TArrayIP5TNodeE13RoundCapacityEi _ZN6TArrayIP5TNodeE8ExpandAtEii _ZN6TArrayIP5TNodeE8InsertAtEiRKS1_ _ZN6TArrayIP5TNodeE8ShrinkAtEii _ZN6TArrayIP5TNodeE8RemoveAtEi _ZNK6TArrayIP5TNodeE7IndexOfERKS1_ _ZN6TArrayIP5TNodeE6RemoveERKS1_ _ZNK6TArrayIP5TNodeE8ContainsERKS1_ _ZNK6TArrayIP5TNodeEixEi _ZN14TNodeContainerD1Ev _ZN14TNodeContainerD0Ev _ZN14TNodeContainer8AddChildEP5TNodei _ZN14TNodeContainer11RemoveChildEP5TNode _ZN14TNodeContainer12SetChildZPosEP5TNodei _ZNK14TNodeContainerixEi _ZNK14TNodeContainer7IndexOfEPK5TNode _ZNK14TNodeContainer8GetCountEv _ZThn40_NK14TNodeContainer8GetCountEv _ZN14TNodeContainer7GetNodeEi _ZThn40_N14TNodeContainer7GetNodeEi _ZN10TNodeArrayD1Ev _ZN10TNodeArrayD0Ev _ZNK10TNodeArray8GetCountEv _ZThn40_NK10TNodeArray8GetCountEv _ZN10TNodeArray7GetNodeEi _ZThn40_N10TNodeArray7GetNodeEi _ZN18TNodeEventDelegate7OnEventER10EventParam
	IMPORTS _ZTVSt9exception _ZTVSt13bad_exception _ZTVSt9bad_alloc _ZTV17TChildrenDelegate _ZTV6TImage _ZTV6TArrayI9ColorStopE _ZTI6TImage _ZTI6TArrayI9ColorStopE _ZTISt9exception _ZTISt13bad_exception _ZTISt9bad_alloc _ZTS6TImage _ZTS6TArrayI9ColorStopE _ZTSSt9exception _ZTSSt13bad_exception _ZTSSt9bad_alloc _ZdlPv _ZN6_TRectIiE8nullRectE __frameinfo_used _ZN11TWindowHost12HostToScreenERK7_TPointIiE __diab_Unwind_Resume __diab_personality_v0 _ZN11TWindowHost14InvalidateRectERK6_TRectIiE _ZN11TWindowHost13ActivateChildEP5TNode _ZN11TWindowHost15DeactivateChildEP5TNode _ZN11TWindowHost16UpdateMouseTrackEv _ZN8TPainter5ResetEv _ZN8TPainter11SetViewportERK7_TPointIiERK6_TRectIiE _ZdaPv _Znaj __cxa_allocate_exception __cxa_throw _ZTVN10__cxxabiv117__class_type_infoE _ZTVN10__cxxabiv121__vmi_class_type_infoE _ZTVN10__cxxabiv120__si_class_type_infoE
	DECLARES 
	USES 
}
Module tgsNode.o {
	OBJECT += libtilcon.a::tgsNode.o
}
ObjectFile libtilcon.a::tgsGridLayout.o {
	NAME Object file tgsGridLayout.o from archive libtilcon.a
	EXPORTS _ZTV10TException _ZTV11TGridLayout _ZTV6TArrayIN11TGridLayout10LayoutInfoEE _ZTI10TException _ZTI6TArrayIN11TGridLayout10LayoutInfoEE _ZTI11TGridLayout _ZTS10TException _ZTS6TArrayIN11TGridLayout10LayoutInfoEE _ZTS11TGridLayout _ZN10TExceptionD1Ev _ZN10TExceptionD0Ev _ZN6TArrayIN11TGridLayout10LayoutInfoEE13RoundCapacityEi _ZN6TArrayIN11TGridLayout10LayoutInfoEE8ExpandAtEii _ZN11TGridLayout10LayoutInfoC1Ev _ZN6TArrayIN11TGridLayout10LayoutInfoEEC1Ei _ZN6TArrayIN11TGridLayout10LayoutInfoEED1Ev _ZN6TArrayIN11TGridLayout10LayoutInfoEED0Ev _ZNK6TArrayIN11TGridLayout10LayoutInfoEEixEi _ZN11TGridLayoutC1Eii _ZN11TGridLayoutC2Eii _ZN11TGridLayoutD1Ev _ZN11TGridLayoutD0Ev _ZN11TGridLayoutD2Ev _ZN11TGridLayout8DoLayoutERK6_TRectIiE _ZN6_TRectIiEC1Ev _ZN6_TRectIiEC1ERKS0_ _ZNK6_TRectIiE6AdjustERK8_TMarginIiE _ZNK11TGridLayout11GetCellRectERK8GridCell
	IMPORTS _ZTVSt9exception _ZTVSt13bad_exception _ZTVSt9bad_alloc _ZTISt9exception _ZTISt13bad_exception _ZTISt9bad_alloc _ZTSSt9exception _ZTSSt13bad_exception _ZTSSt9bad_alloc _ZdlPv __frameinfo_used _Znaj _ZdaPv __cxa_vec_new2 __cxa_allocate_exception __cxa_throw __diab_Unwind_Resume __diab_personality_v0 _ZN6_TRectIiE8nullRectE _ZTVN10__cxxabiv117__class_type_infoE
	DECLARES 
	USES 
}
Module tgsGridLayout.o {
	OBJECT += libtilcon.a::tgsGridLayout.o
}
ObjectFile libtilcon.a::tgsPixelBuffer.o {
	NAME Object file tgsPixelBuffer.o from archive libtilcon.a
	EXPORTS _ZN12TPixelBuffer4DataD1Ev _ZNK10TSharedPtrIN12TPixelBuffer4DataEE5DerefEv _ZN10TSharedPtrIN12TPixelBuffer4DataEEaSEPS1_ _ZN10TSharedPtrIN12TPixelBuffer4DataEEaSERKS2_ _ZN12TPixelBufferC1Ev _ZN12TPixelBufferC2Ev _ZN12TPixelBufferC1Eii _ZN12TPixelBufferC2Eii _ZN12TPixelBufferC1ERKS_ _ZN12TPixelBufferC2ERKS_ _ZN12TPixelBufferC1ERK6TImage _ZN12TPixelBufferC2ERK6TImage _ZN12TPixelBufferD1Ev _ZN12TPixelBufferD2Ev _ZN12TPixelBufferaSERKS_ _ZNK12TPixelBuffer8GetWidthEv _ZNK12TPixelBuffer9GetHeightEv _ZN12TPixelBuffer9DuplicateERKS_ _ZN12TPixelBuffer4BlitERK7_TPointIiES3_RK6_TSizeIiE _ZNK12TPixelBuffer4ReadERK7_TPointIiERK6_TSizeIiEPh11ColorFormati _ZN12TPixelBuffer5WriteERK7_TPointIiERK6_TSizeIiEPKh11ColorFormati _ZN12TPixelBuffer4DataC1EPv _ZN12TPixelBuffer4DataC2EPv _ZN12TPixelBuffer4DataD2Ev
	IMPORTS _ZTVSt9exception _ZTVSt13bad_exception _ZTVSt9bad_alloc _ZTV10TException _ZTV17TChildrenDelegate _ZTV6TImage _ZTV6TArrayIP5TNodeE _ZTV6TArrayI9ColorStopE _ZTI10TException _ZTI17TChildrenDelegate _ZTI6TArrayIP5TNodeE _ZTI6TImage _ZTI6TArrayI9ColorStopE _ZTISt9exception _ZTISt13bad_exception _ZTISt9bad_alloc _ZTS10TException _ZTS17TChildrenDelegate _ZTS6TArrayIP5TNodeE _ZTS6TImage _ZTS6TArrayI9ColorStopE _ZTSSt9exception _ZTSSt13bad_exception _ZTSSt9bad_alloc __frameinfo_used _ZN12TApplication8InstanceEv _ZdlPv _Znwj __diab_Unwind_Resume __diab_personality_v0 _ZNK6TImage9GetHeightEv _ZNK6TImage8GetWidthEv _ZNK6TImage9GetStrideEv _ZNK6TImage9GetFormatEv _ZNK6TImage9GetBufferEv
	DECLARES 
	USES 
}
Module tgsPixelBuffer.o {
	OBJECT += libtilcon.a::tgsPixelBuffer.o
}
ObjectFile libtilcon.a::tgsWindowSystem.o {
	NAME Object file tgsWindowSystem.o from archive libtilcon.a
	EXPORTS _ZTV17TChildrenDelegate _ZTV9TWSWindow _ZTV7TWSRoot _ZTV6TArrayIP5TNodeE _ZTI17TChildrenDelegate _ZTI6TArrayIP5TNodeE _ZTI9TWSWindow _ZTI7TWSRoot _ZTS17TChildrenDelegate _ZTS6TArrayIP5TNodeE _ZTS9TWSWindow _ZTS7TWSRoot _ZN6_TRectIiEC1Ev _ZN6_TRectIiEC1ERKS0_ _ZNK6_TRectIiEplERK7_TPointIiE _ZNK6_TRectIiEmiERK7_TPointIiE _ZNK6_TRectIiE9IntersectERKS0_ _ZNK6_TRectIiEeqERKS0_ _ZN5TNode10SetVisibleEi _ZN5TNode15MouseEventParamC1Ev _ZN6TArrayIP5TNodeED1Ev _ZN6TArrayIP5TNodeED0Ev _ZN14TNodeContainerC1EiiiiP14TEventDelegate _ZN9TWSWindowC1ERK6_TRectIiEN7TWindow10WindowTypeE _ZN9TWSWindowC2ERK6_TRectIiEN7TWindow10WindowTypeE _ZN9TWSWindowD1Ev _ZN9TWSWindowD0Ev _ZN9TWSWindowD2Ev _ZN9TWSWindow12RedrawWindowER8TPainterRK6_TRectIiE _ZN7TWSRootC1ERK6_TRectIiE _ZN7TWSRootD1Ev _ZN7TWSRootD0Ev _ZN7TWSHost4InitEii _ZN7TWSHost10windowHostE _ZN7TWSHost10rootWindowE _ZN7TWSHost6DeinitEv _ZN7TWSHost12CreateWindowERK6_TRectIiEN7TWindow10WindowTypeEP9TWSWindow _ZN7TWSHost10ShowWindowEP9TWSWindowi _ZN7TWSHost13DestroyWindowEP9TWSWindow _ZN7TWSHost14ActivateWindowEP9TWSWindow _ZN7TWSHost16DeactivateWindowEP9TWSWindow _ZN7TWSHost15SetWindowParentEP9TWSWindowS1_ _ZN7TWSHost13SetWindowZPosEP9TWSWindowi _ZN7TWSHost13SetWindowRectEP9TWSWindowRK6_TRectIiE _ZN7TWSHost13GetWindowRectEP9TWSWindow _ZN7TWSHost14OffsetToScreenEP9TWSWindowRK7_TPointIiE _ZN7TWSHost17ProcessMouseEventERK8_app_msg _ZN7TWSHost20ProcessKeyboardEventERK8_app_msg _ZN7TWSHost17ProcessTimerEventERK8_app_msg _ZN7TWSHost16ProcessQuitEventERK8_app_msg _ZN7TWSHost14ProcessMessageERK8_app_msg _ZN7TWSHost14RedrawCallbackER5TNodePv _ZN7TWSHost13UpdateWindowsEv _STI___19_tgsWindowSystem_cpp_d2b310e3
	IMPORTS _ZTVSt9exception _ZTVSt13bad_exception _ZTVSt9bad_alloc _ZTV10TException _ZTV6TImage _ZTV14TEventDelegate _ZTV6TArrayI9ColorStopE _ZTI10TException _ZTI6TImage _ZTI6TArrayI9ColorStopE _ZTI14TEventDelegate _ZTISt9exception _ZTISt13bad_exception _ZTISt9bad_alloc _ZTS10TException _ZTS6TImage _ZTS6TArrayI9ColorStopE _ZTS14TEventDelegate _ZTSSt9exception _ZTSSt13bad_exception _ZTSSt9bad_alloc _ZN6_TRectIiE8nullRectE __frameinfo_used _ZN5TNode6UpdateEv _ZdaPv _ZdlPv _ZN5TNodeC2EiiiiP14TEventDelegateP17TChildrenDelegate _ZTV14TNodeContainer _ZTV18TNodeEventDelegate _ZN5TNodeD2Ev __diab_Unwind_Resume __diab_personality_v0 _ZNK5TNode16GetParentVisibleEv _ZNK5TNode14OffsetToScreenERK7_TPointIiE _ZN5TNode7OnPaintERNS_15PaintEventParamE _Znwj _ZN11TWindowHostC1Eii _ZN5TNode12SetBoundRectERK6_TRectIiE _ZN11TWindowHost6AttachEv _ZN11TWindowHost6DetachEv _ZN14TNodeContainer8AddChildEP5TNodei _ZN5TNode8ActivateEv _ZN5TNode10DeactivateEv _ZN14TNodeContainer11RemoveChildEP5TNode _ZN14TNodeContainer12SetChildZPosEP5TNodei _ZNK5TNode14OffsetToWindowERK7_TPointIiE _ZN11TWindowHost7OnMouseER10EventParam memcpy _ZN11TWindowHost10OnKeyboardER10EventParam _ZN12TApplication8InstanceEv _ZN12TApplication12GuiHeartBeatEi _ZN12TApplication4StopEi _ZN5TNode17RouteGenericEventEPFvRS_PvES1_ __cxa_pure_virtual _ZNK14TNodeContainer8GetCountEv _ZN14TNodeContainer7GetNodeEi _ZThn40_NK14TNodeContainer8GetCountEv _ZThn40_N14TNodeContainer7GetNodeEi _ZTVN10__cxxabiv117__class_type_infoE _ZTVN10__cxxabiv120__si_class_type_infoE _ZTI14TNodeContainer
	DECLARES _ZN7TWSHost10screenRectE
	USES 
}
Module tgsWindowSystem.o {
	OBJECT += libtilcon.a::tgsWindowSystem.o
}
ObjectFile libtilcon.a::tgsSurface.o {
	NAME Object file tgsSurface.o from archive libtilcon.a
	EXPORTS _ZTVSt9exception _ZTV10TException _ZTVSt11logic_error _ZTVSt12length_error _ZZNSt4listI6_TRectIiESaIS1_EE8_IncsizeEjEs _ZZNSt4listIP8TSurfaceSaIS1_EE8_IncsizeEjEs _ZTV6TArrayI10TSharedPtrI8TSurfaceEE _ZTI10TException _ZTI6TArrayI10TSharedPtrI8TSurfaceEE _ZTISt9exception _ZTISt11logic_error _ZTISt12length_error _ZTS10TException _ZTS6TArrayI10TSharedPtrI8TSurfaceEE _ZTSSt9exception _ZTSSt11logic_error _ZTSSt12length_error _ZN10TExceptionD1Ev _ZN10TExceptionD0Ev _ZN6_TRectIiEC1Ev _ZN6_TRectIiEC1ERKS0_ _ZNK6_TRectIiE7CombineERKS0_ _ZNK6_TRectIiEplERK7_TPointIiE _ZNK6_TRectIiE9IntersectERKS0_ _ZNK6_TRectIiEeqERKS0_ _ZNSt4listI6_TRectIiESaIS1_EE8_BuynodeEv _ZNSt4listI6_TRectIiESaIS1_EE5clearEv _ZNSt4listI6_TRectIiESaIS1_EE5_TidyEv _ZNSt4listIP8TSurfaceSaIS1_EE8_BuynodeEv _ZN8TSurfaceC1ERK6_TRectIiE _ZN8TSurfaceC2ERK6_TRectIiE _ZNSt4listIP8TSurfaceSaIS1_EE5clearEv _ZNSt4listIP8TSurfaceSaIS1_EE5_TidyEv _ZN8TSurfaceD1Ev _ZN8TSurfaceD2Ev _ZN8TSurface12AddDirtyRectERK6_TRectIiE _ZN8TSurface5dirtyE _ZN8TSurface12ForEachChildEPS_PFPvS0_S1_ES1_S3_S1_ _ZN8TSurface10SetVisibleEi _ZN8TSurface22UpdatePositionCallbackEPS_Pv _ZN8TSurface7SetRectERK6_TRectIiE _ZNSt4listIP8TSurfaceSaIS1_EE8_BuynodeEPNSt9_List_nodIS1_S2_E5_NodeES7_RKS1_ _ZNSs5eraseEjj _ZNSs5_TidyEbj _ZNSs5_CopyEjj _ZNSs5_GrowEjb _ZNSs6assignERKSsjj _ZNSs7_InsideEPKc _ZNSs6assignEPKcj _ZNSt11logic_errorC1ERKSs _ZNSt4listIP8TSurfaceSaIS1_EE8_IncsizeEj _ZNSt12length_errorD1Ev _ZNSt4listIP8TSurfaceSaIS1_EE7_InsertENS3_8iteratorERKS1_ _ZNSt4listIP8TSurfaceSaIS1_EE5eraseENS3_8iteratorE _ZNSt4listIP8TSurfaceSaIS1_EE6removeERKS1_ _ZN8TSurface9SetParentEPS_ _ZN8TSurface14RemoveChildrenEv _ZN8TSurface9MoveFrontEv _ZNK6TArrayI10TSharedPtrI8TSurfaceEEixEi _ZN8TSurface15ValidateSurfaceEPv _ZN6TArrayI10TSharedPtrI8TSurfaceEE13RoundCapacityEi _ZNK10TSharedPtrI8TSurfaceE5DerefEv _ZN10TSharedPtrI8TSurfaceEaSERKS1_ _ZN6TArrayI10TSharedPtrI8TSurfaceEE8ExpandAtEii _ZN10TSharedPtrI8TSurfaceED1Ev _ZN10TSharedPtrI8TSurfaceEC1Ev _ZN6TArrayI10TSharedPtrI8TSurfaceEE8InsertAtEiRKS2_ _ZN10TSharedPtrI8TSurfaceEC1EPS0_ _ZN8TSurface13CreateSurfaceERK6_TRectIiEPv _ZN8TSurface4rootE _ZN6TArrayI10TSharedPtrI8TSurfaceEE8ShrinkAtEii _ZN6TArrayI10TSharedPtrI8TSurfaceEE8RemoveAtEi _ZNK6TArrayI10TSharedPtrI8TSurfaceEE7IndexOfERKS2_ _ZN6TArrayI10TSharedPtrI8TSurfaceEE6RemoveERKS2_ _ZN8TSurface14DestroySurfaceEPv _ZN8TSurface17SetSurfaceVisibleEPvi _ZN8TSurface14SetSurfaceRectEPvRK6_TRectIiE _ZN8TSurface16MoveSurfaceFrontEPv _ZN8TSurface17InvalidateSurfaceEPvRK6_TRectIiE _ZN8TSurface20UpdateWindowPositionEv _ZSt10_ConstructI6_TRectIiES1_EvPT_RKT0_ _ZNSt4listI6_TRectIiESaIS1_EE8_BuynodeEPNSt9_List_nodIS1_S2_E5_NodeES7_RKS1_ _ZNSt4listI6_TRectIiESaIS1_EE8_IncsizeEj _ZNSt4listI6_TRectIiESaIS1_EE7_InsertENS3_8iteratorERKS1_ _ZNSt4listI6_TRectIiESaIS1_EE5eraseENS3_8iteratorE _ZN8TSurface8ClipRectERSt4listI6_TRectIiESaIS2_EERKS2_ _ZN8TSurface22UpdateWindowClipRegionEv _ZN8TSurface16ResolveDirtyAreaEv _ZN8TSurface24ResolveDirtyAreaCallbackEPS_Pv _ZN8TSurface24UpdateClipRegionCallbackEPS_Pv _ZN6TArrayI10TSharedPtrI8TSurfaceEEC1Ev _ZN6TArrayI10TSharedPtrI8TSurfaceEED1Ev _ZN6TArrayI10TSharedPtrI8TSurfaceEED0Ev _ZNSt9exceptionD1Ev _ZNSt9exceptionD0Ev _ZNKSt9exception4whatEv _ZNSt11logic_errorD1Ev _ZNSt11logic_errorD0Ev _ZNKSt11logic_error4whatEv _ZNSt12length_errorD0Ev _STI___14_tgsSurface_cpp_813aba1e
	IMPORTS _ZTVSt13bad_exception _ZTVSt9bad_alloc _ZTVSt12domain_error _ZTVSt16invalid_argument _ZTVSt12out_of_range _ZTVSt13runtime_error _ZTVSt14overflow_error _ZTVSt15underflow_error _ZTVSt11range_error _ZTV17TChildrenDelegate _ZTV6TImage _ZTV6TArrayIP5TNodeE _ZTV6TArrayI9ColorStopE _ZTI17TChildrenDelegate _ZTI6TArrayIP5TNodeE _ZTI6TImage _ZTI6TArrayI9ColorStopE _ZTISt13bad_exception _ZTISt9bad_alloc _ZTISt12domain_error _ZTISt16invalid_argument _ZTISt12out_of_range _ZTISt13runtime_error _ZTISt14overflow_error _ZTISt15underflow_error _ZTISt11range_error _ZTS17TChildrenDelegate _ZTS6TArrayIP5TNodeE _ZTS6TImage _ZTS6TArrayI9ColorStopE _ZTSSt13bad_exception _ZTSSt9bad_alloc _ZTSSt12domain_error _ZTSSt16invalid_argument _ZTSSt12out_of_range _ZTSSt13runtime_error _ZTSSt14overflow_error _ZTSSt15underflow_error _ZTSSt11range_error _ZdlPv _ZN6_TRectIiE8nullRectE __frameinfo_used _Znwj __diab_Unwind_Resume __diab_personality_v0 _ZNKSt12_String_base5_XranEv memmove memcpy __udiv32 __cxa_end_catch __cxa_begin_catch __cxa_rethrow _ZNKSt12_String_base5_XlenEv __cxa_allocate_exception strlen __cxa_throw __cxa_free_exception _Znaj _ZdaPv __cxa_vec_new2 __cxa_vec_delete __cxa_call_unexpected __cxa_atexit __dso_handle _ZTVN10__cxxabiv117__class_type_infoE _ZTVN10__cxxabiv120__si_class_type_infoE
	DECLARES _ZN8TSurface12surfaceArrayE
	USES 
}
Module tgsSurface.o {
	OBJECT += libtilcon.a::tgsSurface.o
}
ObjectFile libtilcon.a::tgsPainter.o {
	NAME Object file tgsPainter.o from archive libtilcon.a
	EXPORTS _ZN10TMatrix3x3C1Ev _ZN6TColorC1Ej _ZN6TColorC1ERKS_ _ZN8TPainterC1Ev _ZN8TPainterC2Ev _ZN8TPainter8EndPaintEv _ZN8TPainterD1Ev _ZN8TPainterD2Ev _ZN8TPainter11SetViewportERK7_TPointIiERK6_TRectIiE _ZN8TPainter13ClearClipRectEv _ZN8TPainter6SetPenERK4TPen _ZN8TPainter8SetBrushERK6TBrush _ZN8TPainter7SetFontERK5TFont _ZN8TPainter13SetRasterModeE10RasterMode _ZN8TPainter5ResetEv _ZN8TPainter10BeginPaintER12TPixelBuffer _ZN8TPainter10BeginPaintER7TWindow _ZN8TPainter11SetClipRectERK6_TRectIiE _ZN8TPainter12SetTextColorERK6TColor _ZN8TPainter10ResetBrushEv _ZN8TPainter9ResetFontEv _ZN8TPainter8DrawLineERK7_TPointIiES3_ _ZN8TPainter10DrawCircleERK6_TRectIiE _ZN8TPainter11DrawEllipseEiiii _ZN8TPainter11DrawEllipseERK6_TRectIiE _ZN8TPainter7DrawArcERK6_TRectIiERK7_TPointIiES7_ _ZN8TPainter7DrawPieERK6_TRectIiERK7_TPointIiES7_ _ZN8TPainter8DrawRectERK6_TRectIiE _ZN8TPainter8DrawRectEiiii _ZN8TPainter8FillRectERK6_TRectIiE _ZN8TPainter8FillRectEiiii _ZN8TPainter11DrawUCSTextERK8TWStringii _ZN8TPainter11DrawUCSTextEPKwiii _ZN8TPainter11DrawUCSTextEPKwiRK6_TRectIiE23TextHorizontalAlignment21TextVerticalAlignment _ZN8TPainter11DrawUCSTextERK8TWStringRK6_TRectIiE23TextHorizontalAlignment21TextVerticalAlignment _ZN8TPainter9DrawImageERK6TImageii _ZN8TPainter15DrawPixelBufferERK12TPixelBufferii _ZN8TPainter17CopyToPixelBufferER12TPixelBufferiiiiii _ZN8TPainter19CopyFromPixelBufferERK12TPixelBufferiiiiii
	IMPORTS _ZTVSt9exception _ZTVSt13bad_exception _ZTVSt9bad_alloc _ZTV10TException _ZTV6TImage _ZTV17TChildrenDelegate _ZTV6TArrayI9ColorStopE _ZTV6TArrayIP5TNodeE _ZTI10TException _ZTI6TImage _ZTI6TArrayI9ColorStopE _ZTI17TChildrenDelegate _ZTI6TArrayIP5TNodeE _ZTISt9exception _ZTISt13bad_exception _ZTISt9bad_alloc _ZTS10TException _ZTS6TImage _ZTS6TArrayI9ColorStopE _ZTS17TChildrenDelegate _ZTS6TArrayIP5TNodeE _ZTSSt9exception _ZTSSt13bad_exception _ZTSSt9bad_alloc __frameinfo_used _ZN12TApplication8InstanceEv _ZN12TPixelBufferC1Ev _ZN5TFontC1Ev _ZN12TPixelBufferD1Ev __diab_Unwind_Resume __diab_personality_v0 _ZN5TFontD1Ev _ZN6_TRectIiE7maxRectE _ZN14TVectorPainter9SetMatrixERK10TMatrix3x3 _ZN14TVectorPainter14SetPaintMatrixERK10TMatrix3x3 _ZN14TVectorPainter12SetPathWidthEf _ZN14TVectorPainter12SetDashStyleE9DashStyle _ZN14TVectorPainter13SetJointStyleE10JointStyle _ZN14TVectorPainter11SetCapStyleE8CapStyle _ZN14TVectorPainter11SetFillRuleE8FillRule _ZN14TVectorPainter12SetBlendModeE9BlendMode _ZN5TFont18CalculateTextBoundERK6_TRectIiERK6_TSizeIiE23TextHorizontalAlignment21TextVerticalAlignment
	DECLARES 
	USES 
}
Module tgsPainter.o {
	OBJECT += libtilcon.a::tgsPainter.o
}
ObjectFile libtilcon.a::tgsCustomFill.o {
	NAME Object file tgsCustomFill.o from archive libtilcon.a
	EXPORTS _ZTV10TException _ZTV10TSolidFill _ZTV12TPatternFill _ZTV10TImageFill _ZTV10TEmptyFill _ZTI10TException _ZTI10TEmptyFill _ZTI10TSolidFill _ZTI12TPatternFill _ZTI10TImageFill _ZTS10TException _ZTIN11TCustomFill18TCustomFillAdaptorE _ZTSN11TCustomFill18TCustomFillAdaptorE _ZTS10TEmptyFill _ZTS10TSolidFill _ZTS12TPatternFill _ZTS10TImageFill _ZN10TExceptionD1Ev _ZN10TExceptionD0Ev _ZN6TColorC1ERKS_ _ZN11TCustomFillC1Ev _ZN11TCustomFillC2Ev _ZN11TCustomFill13DeleteAdaptorEv _ZN10TSolidFillC1ERK6TColor _ZNK10TSolidFill3dupEv _ZN12TPatternFillC1ERKS_ _ZNK12TPatternFill3dupEv _ZN10TImageFillC1ERKS_ _ZNK10TImageFill3dupEv _ZN11TCustomFill11CopyAdaptorENS_14CustomFillTypeEPKNS_18TCustomFillAdaptorE _ZN11TCustomFillC1ERKS_ _ZN11TCustomFillC2ERKS_ _ZN11TCustomFillC1ERK10TEmptyFill _ZN11TCustomFillC2ERK10TEmptyFill _ZN11TCustomFillC1ERK10TSolidFill _ZN11TCustomFillC2ERK10TSolidFill _ZN11TCustomFillC1ERK12TPatternFill _ZN11TCustomFillC2ERK12TPatternFill _ZN11TCustomFillC1ERK10TImageFill _ZN11TCustomFillC2ERK10TImageFill _ZN11TCustomFillD1Ev _ZN11TCustomFillD2Ev _ZNK11TCustomFill15IsDefualtVisualEv _ZN11TCustomFillaSERKS_ _ZN11TCustomFillaSERK10TEmptyFill _ZN11TCustomFillaSERK10TSolidFill _ZN11TCustomFillaSERK10TImageFill _ZN11TCustomFillaSERK12TPatternFill _ZNK10TSolidFill8FillRectER8TPainterRK6_TRectIiE _ZNK12TPatternFill8FillRectER8TPainterRK6_TRectIiE _ZNK10TImageFill8FillRectER8TPainterRK6_TRectIiE _ZNK11TCustomFill8FillRectER8TPainterRK6_TRectIiE _ZN10TEmptyFillC1Ev _ZN10TEmptyFillC2Ev _ZN10TEmptyFillD1Ev _ZN10TEmptyFillD0Ev _ZN10TEmptyFillD2Ev _ZN10TSolidFillC2ERK6TColor _ZN10TSolidFillD1Ev _ZN10TSolidFillD2Ev _ZN10TSolidFillD0Ev _ZN12TPatternFillC1ERK12TPixelBuffer _ZN12TPatternFillC2ERK12TPixelBuffer _ZN12TPatternFillD1Ev _ZN12TPatternFillD2Ev _ZN12TPatternFillD0Ev _ZN10TImageFillC1ERK12TPixelBuffer _ZN10TImageFillC2ERK12TPixelBuffer _ZN10TImageFillC2ERKS_ _ZN10TImageFillD1Ev _ZN10TImageFillD2Ev _ZN10TImageFillD0Ev
	IMPORTS _ZTVSt9exception _ZTVSt13bad_exception _ZTVSt9bad_alloc _ZTV6TImage _ZTV6TArrayI9ColorStopE _ZTI6TImage _ZTI6TArrayI9ColorStopE _ZTISt9exception _ZTISt13bad_exception _ZTISt9bad_alloc _ZTS6TImage _ZTS6TArrayI9ColorStopE _ZTSSt9exception _ZTSSt13bad_exception _ZTSSt9bad_alloc _ZdlPv __frameinfo_used _Znwj __cxa_allocate_exception __cxa_throw __diab_Unwind_Resume __diab_personality_v0 _ZN12TPixelBufferC1ERKS_ __cxa_call_unexpected _ZN12TPixelBufferC1Ev _ZN8TPainter8SetBrushERK6TBrush _ZN12TPixelBufferD1Ev _ZN8TPainter8FillRectERK6_TRectIiE _ZN8TPainter15DrawPixelBufferERK12TPixelBufferii _ZTVN10__cxxabiv117__class_type_infoE _ZTVN10__cxxabiv120__si_class_type_infoE
	DECLARES 
	USES 
}
Module tgsCustomFill.o {
	OBJECT += libtilcon.a::tgsCustomFill.o
}
ObjectFile libtilcon.a::tgsLoaderPng.o {
	NAME Object file tgsLoaderPng.o from archive libtilcon.a
	EXPORTS trt_png_load trt_png_free
	IMPORTS __frameinfo_used fopen png_create_read_struct png_create_info_struct png_destroy_read_struct free fclose png_set_longjmp_fn longjmp setjmp png_init_io png_read_info png_get_IHDR png_set_IHDR png_set_scale_16 png_set_expand png_set_gray_to_rgb png_set_bgr _Znaj png_read_image png_read_end _ZdaPv png_get_valid
	DECLARES 
	USES 
}
Module tgsLoaderPng.o {
	OBJECT += libtilcon.a::tgsLoaderPng.o
}
ObjectFile libtilcon.a::twdButton.o {
	NAME Object file twdButton.o from archive libtilcon.a
	EXPORTS _ZTV10TException _ZTV6TImage _ZTI10TException _ZTI6TImage _ZTS10TException _ZTS6TImage _ZN10TExceptionD1Ev _ZN10TExceptionD0Ev _ZN7TStringD1Ev _ZN8TWStringC1Ev _ZN8TWStringC1EPKw _ZN8TWStringaSERKS_ _ZNK8TWStringneERKS_ _ZN7TWDFile12BranchButtonEiPiRNS_15ButtonAttributeE _ZN7TWDFile11ParseButtonEPhiRNS_15ButtonAttributeE _ZN7TWDFile14ImageAttributeD1Ev _ZN7TWDFile15ButtonAttributeC1Ev _ZN7TWDFile15ButtonAttributeD1Ev _ZN7TWDFile11ControlInfoC1Ev _ZN7TWDFile11ControlInfoD1Ev _ZN6_TRectIiEC1Eiiii _ZNK6_TRectIiE5WidthEv _ZNK6_TRectIiE6HeightEv _ZN6TImageC1Ev _ZNK10TSharedPtrI9ImageDataE5DerefEv _ZN6TImageD1Ev _ZN8TControl15UpdateBoundRectEv _ZN15TPushButtonNode7SetTextERK8TWString _ZN7TWDFile19CreateButtonFromAttERKNS_10TwdSegmentE _ZN7TWDFile15ButtonAttributeC2Ev _ZN6TImageD0Ev
	IMPORTS _ZTVSt9exception _ZTVSt13bad_exception _ZTVSt9bad_alloc _ZTV17TChildrenDelegate _ZTV6TArrayIP5TNodeE _ZTV6TArrayI9ColorStopE _ZTI17TChildrenDelegate _ZTI6TArrayIP5TNodeE _ZTI6TArrayI9ColorStopE _ZTISt9exception _ZTISt13bad_exception _ZTISt9bad_alloc _ZTS17TChildrenDelegate _ZTS6TArrayIP5TNodeE _ZTS6TArrayI9ColorStopE _ZTSSt9exception _ZTSSt13bad_exception _ZTSSt9bad_alloc _ZdlPv __frameinfo_used free _Znaj __cxa_allocate_exception __cxa_throw memcpy _ZdaPv _ZN7TWDFile11BranchImageEiPiRNS_14ImageAttributeE _Z10DataLengthiPi _ZN7TWDFile12BranchBorderEiPiRNS_15BorderAttributeE _ZN7TWDFile10BranchFontEiPiRNS_13FontAttributeE _ZN7TWDFile13BranchRealObjEiPiRNS_16RealObjAttributeE __diab_Unwind_Resume __diab_personality_v0 _ZN7TWDFile16RealObjAttributeC2Ev _ZN7TWDFile15BorderAttributeC1Ev _ZN7TWDFile13FontAttributeC1Ev _ZN7TWDFile14ImageAttributeC1Ev _ZN7TStringC1Ev _ZN6TImage16defaultImageDataE _ZN9ImageDataD1Ev _ZN5TNode18OnChildBoundChangeEP8TControl _ZN5TNode8OnResizeEv _ZN5TNode6UpdateEv _ZN7TStringC1EPKci _ZN7TStringaSERKS_ _Znwj _ZN9TCheckBoxC1EiiiiRK8TWString strlen _Z12UCS2FromUTF8PKciR8TWString _ZN7TWDFile14AddControlInfoERKNS_11ControlInfoE _ZN13TToggleButtonC1Eiiii _ZNK13TToggleButton11GetPropertyEv _ZN7TWDFile21ApplyRealObjAttributeER8TControlRKNS_16RealObjAttributeE _ZN7TWDFile9LoadImageEPhiR6TImage _ZN12TPixelBufferC1ERK6TImage _ZN10TImageFillC1ERK12TPixelBuffer _ZN11TCustomFillaSERK10TImageFill _ZN10TImageFillD1Ev _ZN12TPixelBufferD1Ev _ZN13TToggleButton11SetPropertyERKNS_8PropertyE _ZN13TToggleButton8PropertyD1Ev _ZN11TPushButtonC1Eiiii _ZNK11TPushButton11GetPropertyEv _ZN11TPushButton11SetPropertyERKNS_8PropertyE _ZN11TPushButton8PropertyD1Ev _ZTVN10__cxxabiv117__class_type_infoE
	DECLARES 
	USES 
}
Module twdButton.o {
	OBJECT += libtilcon.a::twdButton.o
}
ObjectFile libtilcon.a::twdTab.o {
	NAME Object file twdTab.o from archive libtilcon.a
	EXPORTS _ZN7TWDFile9BranchTabEiPiRNS_12TabAttributeE _ZN7TWDFile8ParseTabEPhiRNS_12TabAttributeE _ZN7TWDFile12TabAttributeC1Ev _ZN7TWDFile12TabAttributeD1Ev _ZN7TWDFile11ControlInfoC1Ev _ZN7TWDFile11ControlInfoD1Ev _ZN7TWDFile16CreateTabFromAttERKNS_10TwdSegmentE _ZN7TWDFile12TabAttributeC2Ev _ZN7TWDFile12TabAttributeD2Ev
	IMPORTS _ZTVSt9exception _ZTVSt13bad_exception _ZTVSt9bad_alloc _ZTV10TException _ZTV17TChildrenDelegate _ZTV6TImage _ZTV6TArrayIP5TNodeE _ZTV6TArrayI9ColorStopE _ZTI10TException _ZTI17TChildrenDelegate _ZTI6TArrayIP5TNodeE _ZTI6TImage _ZTI6TArrayI9ColorStopE _ZTISt9exception _ZTISt13bad_exception _ZTISt9bad_alloc _ZTS10TException _ZTS17TChildrenDelegate _ZTS6TArrayIP5TNodeE _ZTS6TImage _ZTS6TArrayI9ColorStopE _ZTSSt9exception _ZTSSt13bad_exception _ZTSSt9bad_alloc __frameinfo_used _Znaj _Z10DataLengthiPi _ZN7TWDFile10BranchFontEiPiRNS_13FontAttributeE _ZN7TWDFile13BranchRealObjEiPiRNS_16RealObjAttributeE _ZN7TWDFile16RealObjAttributeC2Ev _ZN7TWDFile13FontAttributeC1Ev free __diab_Unwind_Resume __diab_personality_v0 _ZdaPv _ZN7TStringC1Ev _ZN7TStringC1EPKci _ZN7TStringaSERKS_ _Znwj _ZN4TTabC1Eiiiii strlen _Z12UCS2FromUTF8PKciR8TWString _ZN4TTab10SetTabTextEiRK8TWString _ZN7TWDFile14AddControlInfoERKNS_11ControlInfoE _ZN7TWDFile21ApplyRealObjAttributeER8TControlRKNS_16RealObjAttributeE snprintf _ZN7TStringC1EPKc _ZdlPv
	DECLARES 
	USES 
}
Module twdTab.o {
	OBJECT += libtilcon.a::twdTab.o
}
ObjectFile libtilcon.a::twdList.o {
	NAME Object file twdList.o from archive libtilcon.a
	EXPORTS _ZTV10TException _ZTV6TArrayIN7TWDFile17ListItemAttributeEE _ZTI10TException _ZTI6TArrayIN7TWDFile17ListItemAttributeEE _ZTS10TException _ZTS6TArrayIN7TWDFile17ListItemAttributeEE _ZN10TExceptionD1Ev _ZN10TExceptionD0Ev _ZN6TArrayIN7TWDFile17ListItemAttributeEED1Ev _ZN6TArrayIN7TWDFile17ListItemAttributeEED0Ev _ZN6TArrayIN7TWDFile17ListItemAttributeEE13RoundCapacityEi _ZN6TArrayIN7TWDFile17ListItemAttributeEE8ExpandAtEii _ZN7TWDFile17ListItemAttributeC1Ev _ZN6TArrayIN7TWDFile17ListItemAttributeEE8InsertAtEiRKS1_ _ZNK6TArrayIN7TWDFile17ListItemAttributeEEixEi _ZN7TWDFile14BranchListItemEiPiRNS_17ListItemAttributeE _ZN7TWDFile10BranchListEiPiRNS_13ListAttributeE _ZN7TWDFile9ParseListEPhiRNS_13ListAttributeE _ZN7TWDFile14ImageAttributeD1Ev _ZN7TWDFile15WindowAttributeD1Ev _ZN7TWDFile13ListAttributeC1Ev _ZN7TWDFile13ListAttributeD1Ev _ZN7TWDFile11ControlInfoC1Ev _ZN7TWDFile11ControlInfoD1Ev _ZN7TWDFile17CreateListFromAttERKNS_10TwdSegmentE _ZN7TWDFile17ListItemAttributeC2Ev _ZN7TWDFile13ListAttributeC2Ev _ZN7TWDFile13ListAttributeD2Ev
	IMPORTS _ZTVSt9exception _ZTVSt13bad_exception _ZTVSt9bad_alloc _ZTV17TChildrenDelegate _ZTV6TImage _ZTV6TArrayIP5TNodeE _ZTV6TArrayI9ColorStopE _ZTI17TChildrenDelegate _ZTI6TArrayIP5TNodeE _ZTI6TImage _ZTI6TArrayI9ColorStopE _ZTISt9exception _ZTISt13bad_exception _ZTISt9bad_alloc _ZTS17TChildrenDelegate _ZTS6TArrayIP5TNodeE _ZTS6TImage _ZTS6TArrayI9ColorStopE _ZTSSt9exception _ZTSSt13bad_exception _ZTSSt9bad_alloc _ZdlPv _ZdaPv __frameinfo_used _Znaj __cxa_vec_new2 __cxa_allocate_exception __cxa_throw _ZN7TWDFile10BranchFontEiPiRNS_13FontAttributeE memset _ZN7TWDFile19BranchScrollBarPairEiPiRNS_19ScrollAreaAttributeE _Z10DataLengthiPi _ZN7TWDFile13BranchRealObjEiPiRNS_16RealObjAttributeE free __diab_Unwind_Resume __diab_personality_v0 _ZN7TWDFile19ScrollAreaAttributeC2Ev _ZN7TWDFile13FontAttributeC1Ev _ZN7TStringC1Ev _ZN7TStringC1EPKci _ZN7TStringaSERKS_ _Znwj _ZN8TListBoxC1Eiiiii _ZN7TWDFile21ApplyRealObjAttributeER8TControlRKNS_16RealObjAttributeE _ZN5TNode18OnChildBoundChangeEP8TControl _ZN5TNode8OnResizeEv _ZN5TNode6UpdateEv strlen _Z12UCS2FromUTF8PKciR8TWString _ZN8TListBox6AddRowERK8TWStringi _ZN7TWDFile14AddControlInfoERKNS_11ControlInfoE _ZTVN10__cxxabiv117__class_type_infoE
	DECLARES 
	USES 
}
Module twdList.o {
	OBJECT += libtilcon.a::twdList.o
}
ObjectFile libtilcon.a::twdFile.o {
	NAME Object file twdFile.o from archive libtilcon.a
	EXPORTS _ZTV10TException _ZTV7TWDFile _ZTV6TArrayIN7TWDFile23MultiStateItemAttributeEE _ZTV6TArrayIN7TWDFile11ControlInfoEE _ZTI10TException _ZTI6TArrayIN7TWDFile23MultiStateItemAttributeEE _ZTI6TArrayIN7TWDFile11ControlInfoEE _ZTI7TWDFile _ZTS10TException _ZTS6TArrayIN7TWDFile23MultiStateItemAttributeEE _ZTS6TArrayIN7TWDFile11ControlInfoEE _ZTS7TWDFile _ZN10TExceptionD1Ev _ZN10TExceptionD0Ev _ZN6TColorC1Ej _ZN6TArrayIN7TWDFile23MultiStateItemAttributeEED1Ev _ZN7TWDFile23MultiStateItemAttributeD1Ev _ZN6TArrayIN7TWDFile23MultiStateItemAttributeEED0Ev _ZN6TArrayIN7TWDFile11ControlInfoEED1Ev _ZN7TWDFile11ControlInfoD1Ev _ZN6TArrayIN7TWDFile11ControlInfoEED0Ev _ZN6TArrayIN7TWDFile11ControlInfoEE13RoundCapacityEi _ZN7TWDFile11ControlInfoaSERKS0_ _ZN6TArrayIN7TWDFile11ControlInfoEE8ExpandAtEii _ZN7TWDFile11ControlInfoC1Ev _ZN6TArrayIN7TWDFile11ControlInfoEE8InsertAtEiRKS1_ _ZN6TArrayIN7TWDFile11ControlInfoEE5ClearEv _ZNK6TArrayIN7TWDFile11ControlInfoEEixEi _ZN7TWDFileC1Ev _ZN7TWDFileC2Ev _ZN7TWDFile6UnloadEv _ZN7TWDFileD1Ev _ZN7TWDFileD0Ev _ZN7TWDFileD2Ev _ZN7TWDFile16CheckFileVersionEPh _ZN7TWDFile11ParseHeaderEPh _ZN7TWDFile12ParseSegmentERNS_10TwdSegmentE _ZN7TWDFile9ParseBodyEPh _ZN7TWDFile4LoadERK7TString _ZNK7TWDFile13GetTypeByNameERK7TString _ZNK7TWDFile16GetControlByNameERK7TString _ZN7TWDFile14BranchPositionEiPiRNS_17PositionAttributeE _ZN7TWDFile10BranchFontEiPiRNS_13FontAttributeE _ZN7TWDFile13BranchRealObjEiPiRNS_16RealObjAttributeE _ZN5TNode10SetEnabledEi _ZN5TNode10SetVisibleEi _ZN7TWDFile21ApplyRealObjAttributeER8TControlRKNS_16RealObjAttributeE _ZN7TWDFile11GetTWDColorEj _ZN7TWDFile18ApplyTextAttributeER12TextPropertyRKNS_13FontAttributeE _ZNK7TWDFile13GetInfoByNameERK7TString _ZN7TWDFile14AddControlInfoERKNS_11ControlInfoE _ZN7TWDFile13FontAttributeC1Ev _ZN7TWDFile13FontAttributeC2Ev _ZN7TWDFile17PositionAttributeC1Ev _ZN7TWDFile17PositionAttributeC2Ev _ZN7TWDFile14ImageAttributeC1Ev _ZN7TWDFile14ImageAttributeC2Ev _ZN7TWDFile14ImageAttributeD1Ev _ZN7TWDFile16RealObjAttributeC1Ev _ZN7TWDFile16RealObjAttributeC2Ev _ZN7TWDFile15WindowAttributeC1Ev _ZN7TWDFile15WindowAttributeC2Ev _ZN7TWDFile14PanelAttributeC1Ev _ZN7TWDFile14PanelAttributeC2Ev _ZN7TWDFile14LabelAttributeC1Ev _ZN7TWDFile14LabelAttributeC2Ev _ZN7TWDFile13EditAttributeC1Ev _ZN7TWDFile13EditAttributeC2Ev _ZN7TWDFile19MultiStateAttributeC1Ev _ZN7TWDFile19MultiStateAttributeC2Ev
	IMPORTS _ZTVSt9exception _ZTVSt13bad_exception _ZTVSt9bad_alloc _ZTV17TChildrenDelegate _ZTV6TImage _ZTV6TArrayIP5TNodeE _ZTV6TArrayI9ColorStopE _ZTI17TChildrenDelegate _ZTI6TArrayIP5TNodeE _ZTI6TImage _ZTI6TArrayI9ColorStopE _ZTISt9exception _ZTISt13bad_exception _ZTISt9bad_alloc _ZTS17TChildrenDelegate _ZTS6TArrayIP5TNodeE _ZTS6TImage _ZTS6TArrayI9ColorStopE _ZTSSt9exception _ZTSSt13bad_exception _ZTSSt9bad_alloc _ZdlPv __frameinfo_used __cxa_vec_delete _ZN7TStringaSERKS_ _Znaj _ZdaPv __cxa_vec_new2 __cxa_allocate_exception __cxa_throw _ZN7TStringC1Ev free __diab_Unwind_Resume __diab_personality_v0 memset _Z13TestByteOrderv _Z16ENDIAN_CONVERT32j _Z13ConvertEndianPh _ZN7TWDFile19CreateWindowFromAttERKNS_10TwdSegmentE _ZN7TWDFile19CreateButtonFromAttERKNS_10TwdSegmentE _ZN7TWDFile18CreateLabelFromAttERKNS_10TwdSegmentE _ZN7TWDFile24CreateRadioButtonFromAttERKNS_10TwdSegmentE _ZN7TWDFile21CreateComboBoxFromAttERKNS_10TwdSegmentE _ZN7TWDFile22CreateNumberBoxFromAttERKNS_10TwdSegmentE _ZN7TWDFile19CreateSliderFromAttERKNS_10TwdSegmentE _ZN7TWDFile17CreateEditFromAttERKNS_10TwdSegmentE _ZN7TWDFile17CreateListFromAttERKNS_10TwdSegmentE _ZN7TWDFile18CreatePanelFromAttERKNS_10TwdSegmentE _ZN7TWDFile23CreateScrollAreaFromAttERKNS_10TwdSegmentE _ZN7TWDFile16CreateTabFromAttERKNS_10TwdSegmentE _ZN7TWDFile20CreatePictureFromAttERKNS_10TwdSegmentE _ZN7TWDFile23CreateMultiStateFromAttERKNS_10TwdSegmentE _ZN7TWDFile18CreateChartFromAttERKNS_10TwdSegmentE _ZN7TStringC1EPKci fopen fread fclose _ZNK7TStringeqERKS_ _ZN7TStringC1EPKc _ZN5TNode24RouteDimStateChangeEventEv _ZN5TNode6UpdateEv _ZN5TFontC1EPKcj _ZN5TFontaSERKS_ _ZN5TFontD1Ev _ZN6TGroup10AddControlEP8TControli _ZN4TTab10AddControlEiP8TControli _ZN7TWDFile15BorderAttributeC1Ev _ZTVN10__cxxabiv117__class_type_infoE
	DECLARES 
	USES 
}
Module twdFile.o {
	OBJECT += libtilcon.a::twdFile.o
}
ObjectFile libtilcon.a::twdBorder.o {
	NAME Object file twdBorder.o from archive libtilcon.a
	EXPORTS _ZN7TWDFile12BranchBorderEiPiRNS_15BorderAttributeE _ZN7TWDFile15BorderAttributeC1Ev _ZN7TWDFile15BorderAttributeC2Ev
	IMPORTS _ZTVSt9exception _ZTVSt13bad_exception _ZTVSt9bad_alloc _ZTV10TException _ZTI10TException _ZTISt9exception _ZTISt13bad_exception _ZTISt9bad_alloc _ZTS10TException _ZTSSt9exception _ZTSSt13bad_exception _ZTSSt9bad_alloc
	DECLARES 
	USES 
}
Module twdBorder.o {
	OBJECT += libtilcon.a::twdBorder.o
}
ObjectFile libtilcon.a::twdComboBox.o {
	NAME Object file twdComboBox.o from archive libtilcon.a
	EXPORTS _ZTV10TException _ZTI10TException _ZTS10TException _ZN10TExceptionD1Ev _ZN10TExceptionD0Ev _ZNK6TArrayIN7TWDFile17ListItemAttributeEEixEi _ZN7TWDFile14BranchComboBoxEiPiRNS_17ComboBoxAttributeE _ZN7TWDFile13ParseComboBoxEPhiRNS_17ComboBoxAttributeE _ZN7TWDFile17ComboBoxAttributeC1Ev _ZN7TWDFile17ComboBoxAttributeD1Ev _ZN7TWDFile11ControlInfoC1Ev _ZN7TWDFile11ControlInfoD1Ev _ZN7TWDFile21CreateComboBoxFromAttERKNS_10TwdSegmentE _ZN7TWDFile17ComboBoxAttributeC2Ev
	IMPORTS _ZTVSt9exception _ZTVSt13bad_exception _ZTVSt9bad_alloc _ZTV17TChildrenDelegate _ZTV6TImage _ZTV6TArrayIP5TNodeE _ZTV6TArrayI9ColorStopE _ZTI17TChildrenDelegate _ZTI6TArrayIP5TNodeE _ZTI6TImage _ZTI6TArrayI9ColorStopE _ZTISt9exception _ZTISt13bad_exception _ZTISt9bad_alloc _ZTS17TChildrenDelegate _ZTS6TArrayIP5TNodeE _ZTS6TImage _ZTS6TArrayI9ColorStopE _ZTSSt9exception _ZTSSt13bad_exception _ZTSSt9bad_alloc _ZdlPv __frameinfo_used __cxa_allocate_exception __cxa_throw _ZN7TWDFile10BranchListEiPiRNS_13ListAttributeE _ZN7TWDFile10BranchFontEiPiRNS_13FontAttributeE _ZN7TWDFile10BranchEditEiPiRNS_13EditAttributeE _Z10DataLengthiPi _ZN7TWDFile13BranchRealObjEiPiRNS_16RealObjAttributeE _ZN7TWDFile16RealObjAttributeC2Ev _ZN7TWDFile13EditAttributeC1Ev _ZN7TWDFile13ListAttributeC1Ev free __diab_Unwind_Resume __diab_personality_v0 _ZN7TWDFile13ListAttributeD1Ev _ZN7TStringC1Ev _ZN7TStringC1EPKci _ZN7TStringaSERKS_ _Znwj _ZN9TComboBoxC1Eiiii _ZN7TWDFile21ApplyRealObjAttributeER8TControlRKNS_16RealObjAttributeE _Znaj strlen _Z12UCS2FromUTF8PKciR8TWString _ZN8TListBox6AddRowERK8TWStringi _ZdaPv _ZN7TWDFile14AddControlInfoERKNS_11ControlInfoE _ZTVN10__cxxabiv117__class_type_infoE
	DECLARES 
	USES 
}
Module twdComboBox.o {
	OBJECT += libtilcon.a::twdComboBox.o
}
ObjectFile libtilcon.a::twdWindow.o {
	NAME Object file twdWindow.o from archive libtilcon.a
	EXPORTS _ZTV6TImage _ZTI6TImage _ZTS6TImage _ZN7TWDFile12BranchWindowEiPiRNS_15WindowAttributeE _ZN7TWDFile11ParseWindowEPhiRNS_15WindowAttributeE _ZN7TWDFile14ImageAttributeD1Ev _ZN7TWDFile15WindowAttributeD1Ev _ZNK10TSharedPtrI9ImageDataE5DerefEv _ZN13TCustomVisualC1ERK11TCustomFill _ZN13TCustomVisualD1Ev _ZN13TCustomVisualaSERKS_ _ZN7TWDFile19CreateWindowFromAttERKNS_10TwdSegmentE _ZN6TImageD1Ev _ZN6TImageD0Ev
	IMPORTS _ZTVSt9exception _ZTVSt13bad_exception _ZTVSt9bad_alloc _ZTV10TException _ZTV17TChildrenDelegate _ZTV6TArrayIP5TNodeE _ZTV6TArrayI9ColorStopE _ZTI10TException _ZTI17TChildrenDelegate _ZTI6TArrayIP5TNodeE _ZTI6TArrayI9ColorStopE _ZTISt9exception _ZTISt13bad_exception _ZTISt9bad_alloc _ZTS10TException _ZTS17TChildrenDelegate _ZTS6TArrayIP5TNodeE _ZTS6TArrayI9ColorStopE _ZTSSt9exception _ZTSSt13bad_exception _ZTSSt9bad_alloc __frameinfo_used _ZN7TWDFile11BranchImageEiPiRNS_14ImageAttributeE _Z10DataLengthiPi _ZN7TWDFile13BranchRealObjEiPiRNS_16RealObjAttributeE free __diab_Unwind_Resume __diab_personality_v0 _ZN9ImageDataD1Ev _ZdlPv _ZN11TCustomFillC1ERKS_ _ZN11TCustomFillD1Ev _ZN11TCustomFillaSERKS_ _ZN7TWDFile15WindowAttributeC1Ev _ZN7TStringC1EPKci _Znwj _ZN7TWindowC1EiiiiPS_NS_12WindowSizingENS_10WindowTypeE _ZN7TStringaSERKS_ _ZN6TImage16defaultImageDataE _ZN7TWDFile9LoadImageEPhiR6TImage _ZN12TPixelBufferC1ERK6TImage _ZN10TImageFillC1ERK12TPixelBuffer _ZN11TCustomFillC1ERK10TImageFill _ZN5TNode6UpdateEv _ZN10TImageFillD1Ev _ZN12TPixelBufferD1Ev _ZTVN10__cxxabiv117__class_type_infoE
	DECLARES 
	USES 
}
Module twdWindow.o {
	OBJECT += libtilcon.a::twdWindow.o
}
ObjectFile libtilcon.a::twdChart.o {
	NAME Object file twdChart.o from archive libtilcon.a
	EXPORTS _ZNK8_TMarginIiEneERKS0_ _ZN7TWDFile10ParseChartEPhiRNS_14ChartAttributeE _ZN7TWDFile14ChartAttributeC1Ev _ZN7TWDFile11ControlInfoC1Ev _ZN7TWDFile11ControlInfoD1Ev _ZN7TWDFile18CreateChartFromAttERKNS_10TwdSegmentE
	IMPORTS _ZTVSt9exception _ZTVSt13bad_exception _ZTVSt9bad_alloc _ZTV10TException _ZTV17TChildrenDelegate _ZTV6TImage _ZTV6TArrayIP5TNodeE _ZTV6TArrayI9ColorStopE _ZTI10TException _ZTI17TChildrenDelegate _ZTI6TArrayIP5TNodeE _ZTI6TImage _ZTI6TArrayI9ColorStopE _ZTISt9exception _ZTISt13bad_exception _ZTISt9bad_alloc _ZTS10TException _ZTS17TChildrenDelegate _ZTS6TArrayIP5TNodeE _ZTS6TImage _ZTS6TArrayI9ColorStopE _ZTSSt9exception _ZTSSt13bad_exception _ZTSSt9bad_alloc __frameinfo_used _Z10DataLengthiPi _ZN7TWDFile12BranchBorderEiPiRNS_15BorderAttributeE _ZN7TWDFile10BranchFontEiPiRNS_13FontAttributeE _ZN7TWDFile13BranchRealObjEiPiRNS_16RealObjAttributeE _ZN7TWDFile16RealObjAttributeC2Ev _ZN7TWDFile15BorderAttributeC1Ev _ZN7TWDFile13FontAttributeC1Ev free __diab_Unwind_Resume __diab_personality_v0 _ZN7TStringC1Ev _ZN7TStringC1EPKci _ZN7TStringaSERKS_ _Znwj _ZN10TLineChartC1Eiiiijj _ZN5TNode6UpdateEv _ZN7TWDFile14AddControlInfoERKNS_11ControlInfoE _ZdlPv
	DECLARES 
	USES 
}
Module twdChart.o {
	OBJECT += libtilcon.a::twdChart.o
}
ObjectFile libtilcon.a::twdSingleLineEdit.o {
	NAME Object file twdSingleLineEdit.o from archive libtilcon.a
	EXPORTS _ZTV10TException _ZTI10TException _ZTS10TException _ZN10TExceptionD1Ev _ZN10TExceptionD0Ev _ZN6TColorC1Ej _ZNK6TColorneERKS_ _ZN8TWStringC1EPKw _ZN7TWDFile10BranchEditEiPiRNS_13EditAttributeE _ZN7TWDFile9ParseEditEPhiRNS_13EditAttributeE _ZN7TWDFile11ControlInfoC1Ev _ZN7TWDFile11ControlInfoD1Ev _ZN13TCustomVisualC1Ev _ZN13TCustomVisualD1Ev _ZN13TCustomVisualaSERKS_ _ZNK12TextPropertyneERKS_ _ZN12TextPropertyaSERKS_ _ZN7TWDFile17CreateEditFromAttERKNS_10TwdSegmentE
	IMPORTS _ZTVSt9exception _ZTVSt13bad_exception _ZTVSt9bad_alloc _ZTV17TChildrenDelegate _ZTV6TImage _ZTV6TArrayIP5TNodeE _ZTV6TArrayI9ColorStopE _ZTI17TChildrenDelegate _ZTI6TArrayIP5TNodeE _ZTI6TImage _ZTI6TArrayI9ColorStopE _ZTISt9exception _ZTISt13bad_exception _ZTISt9bad_alloc _ZTS17TChildrenDelegate _ZTS6TArrayIP5TNodeE _ZTS6TImage _ZTS6TArrayI9ColorStopE _ZTSSt9exception _ZTSSt13bad_exception _ZTSSt9bad_alloc _ZdlPv __frameinfo_used __cxa_allocate_exception __cxa_throw _Znaj memcpy _ZN7TWDFile12BranchBorderEiPiRNS_15BorderAttributeE _Z10DataLengthiPi _ZN7TWDFile10BranchFontEiPiRNS_13FontAttributeE _ZN7TWDFile13BranchRealObjEiPiRNS_16RealObjAttributeE _ZN7TStringC1Ev free __diab_Unwind_Resume __diab_personality_v0 _ZN11TCustomFillC1Ev _ZN11TCustomFillD1Ev _ZN11TCustomFillaSERKS_ _ZNK5TFontneERKS_ _ZN5TFontaSERKS_ _ZN7TWDFile13EditAttributeC1Ev _ZN7TStringC1EPKci _ZN7TStringaSERKS_ _Znwj _ZN15TSingleLineEditC1EiiiiRK8TWString _ZdaPv _ZN7TWDFile21ApplyRealObjAttributeER8TControlRKNS_16RealObjAttributeE strlen _Z12UCS2FromUTF8PKciR8TWString _ZN9TEditNode7SetTextERK8TWString _ZN5TFontC1Ev _ZN7TWDFile18ApplyTextAttributeER12TextPropertyRKNS_13FontAttributeE _ZN5TNode18OnChildBoundChangeEP8TControl _ZN5TNode8OnResizeEv _ZN5TNode6UpdateEv _ZN10TEmptyFillC1Ev _ZN11TCustomFillaSERK10TEmptyFill _ZN10TEmptyFillD1Ev _ZN7TWDFile14AddControlInfoERKNS_11ControlInfoE _ZN5TFontD1Ev _ZTVN10__cxxabiv117__class_type_infoE
	DECLARES 
	USES 
}
Module twdSingleLineEdit.o {
	OBJECT += libtilcon.a::twdSingleLineEdit.o
}
ObjectFile libtilcon.a::twdScrollArea.o {
	NAME Object file twdScrollArea.o from archive libtilcon.a
	EXPORTS _ZN7TWDFile15BranchScrollBarEiPiRNS_18ScrollBarAttributeE _ZN7TWDFile19BranchScrollBarPairEiPiRNS_19ScrollAreaAttributeE _ZN7TWDFile16BranchScrollAreaEiPiRNS_19ScrollAreaAttributeE _ZN7TWDFile15ParseScrollAreaEPhiRNS_19ScrollAreaAttributeE _ZN7TWDFile14ImageAttributeD1Ev _ZN7TWDFile15WindowAttributeD1Ev _ZN7TWDFile18ScrollBarAttributeC1Ev _ZN7TWDFile19ScrollAreaAttributeC1Ev _ZN7TWDFile11ControlInfoC1Ev _ZN7TWDFile11ControlInfoD1Ev _ZN7TWDFile23CreateScrollAreaFromAttERKNS_10TwdSegmentE _ZN7TWDFile18ScrollBarAttributeC2Ev _ZN7TWDFile19ScrollAreaAttributeC2Ev
	IMPORTS _ZTVSt9exception _ZTVSt13bad_exception _ZTVSt9bad_alloc _ZTV10TException _ZTV17TChildrenDelegate _ZTV6TImage _ZTV6TArrayIP5TNodeE _ZTV6TArrayI9ColorStopE _ZTI10TException _ZTI17TChildrenDelegate _ZTI6TArrayIP5TNodeE _ZTI6TImage _ZTI6TArrayI9ColorStopE _ZTISt9exception _ZTISt13bad_exception _ZTISt9bad_alloc _ZTS10TException _ZTS17TChildrenDelegate _ZTS6TArrayIP5TNodeE _ZTS6TImage _ZTS6TArrayI9ColorStopE _ZTSSt9exception _ZTSSt13bad_exception _ZTSSt9bad_alloc __frameinfo_used _Z10DataLengthiPi _ZN7TWDFile10BranchFontEiPiRNS_13FontAttributeE _ZN7TWDFile12BranchWindowEiPiRNS_15WindowAttributeE _ZN7TWDFile13BranchRealObjEiPiRNS_16RealObjAttributeE free __diab_Unwind_Resume __diab_personality_v0 _ZN7TWDFile15WindowAttributeC2Ev _ZN7TStringC1Ev _ZN7TStringC1EPKci _ZN7TStringaSERKS_ _Znwj _ZN11TScrollAreaC1Eiiiiii _ZN7TWDFile21ApplyRealObjAttributeER8TControlRKNS_16RealObjAttributeE _ZN11TScrollArea17SetScrollAreaSizeERK6_TSizeIiE _ZN7TWDFile14AddControlInfoERKNS_11ControlInfoE _ZdlPv
	DECLARES 
	USES 
}
Module twdScrollArea.o {
	OBJECT += libtilcon.a::twdScrollArea.o
}
ObjectFile libtilcon.a::twdSlider.o {
	NAME Object file twdSlider.o from archive libtilcon.a
	EXPORTS _ZTV6TImage _ZTI6TImage _ZTS6TImage _ZN7TWDFile12BranchSliderEiPiRNS_15SliderAttributeE _ZN7TWDFile11ParseSliderEPhiRNS_15SliderAttributeE _ZN7TWDFile15SliderAttributeC1Ev _ZN7TWDFile14ImageAttributeD1Ev _ZN7TWDFile15SliderAttributeD1Ev _ZN7TWDFile11ControlInfoC1Ev _ZN7TWDFile11ControlInfoD1Ev _ZNK10TSharedPtrI9ImageDataE5DerefEv _ZN13TCustomVisualC1Ev _ZN13TCustomVisualD1Ev _ZN13TCustomVisualaSERKS_ _ZN7TWDFile19CreateSliderFromAttERKNS_10TwdSegmentE _ZN7TWDFile15SliderAttributeC2Ev _ZN6TImageD1Ev _ZN6TImageD0Ev
	IMPORTS _ZTVSt9exception _ZTVSt13bad_exception _ZTVSt9bad_alloc _ZTV10TException _ZTV17TChildrenDelegate _ZTV6TArrayIP5TNodeE _ZTV6TArrayI9ColorStopE _ZTI10TException _ZTI17TChildrenDelegate _ZTI6TArrayIP5TNodeE _ZTI6TArrayI9ColorStopE _ZTISt9exception _ZTISt13bad_exception _ZTISt9bad_alloc _ZTS10TException _ZTS17TChildrenDelegate _ZTS6TArrayIP5TNodeE _ZTS6TArrayI9ColorStopE _ZTSSt9exception _ZTSSt13bad_exception _ZTSSt9bad_alloc __frameinfo_used _ZN7TWDFile12BranchBorderEiPiRNS_15BorderAttributeE _ZN7TWDFile11BranchImageEiPiRNS_14ImageAttributeE _Z10DataLengthiPi _ZN7TWDFile13BranchRealObjEiPiRNS_16RealObjAttributeE _ZN7TWDFile16RealObjAttributeC2Ev _ZN7TWDFile15BorderAttributeC1Ev _ZN7TWDFile14ImageAttributeC1Ev free __diab_Unwind_Resume __diab_personality_v0 _ZN7TStringC1Ev _ZN9ImageDataD1Ev _ZdlPv _ZN11TCustomFillC1Ev _ZN11TCustomFillD1Ev _ZN11TCustomFillaSERKS_ _ZN7TStringC1EPKci _ZN7TStringaSERKS_ _Znwj _ZN7TSliderC1Eiiii15OrientationTypeiii _ZN7TWDFile21ApplyRealObjAttributeER8TControlRKNS_16RealObjAttributeE _ZN6TImage16defaultImageDataE _ZN7TWDFile9LoadImageEPhiR6TImage _ZN12TPixelBufferC1ERK6TImage _ZN10TImageFillC1ERK12TPixelBuffer _ZN11TCustomFillaSERK10TImageFill _ZN10TImageFillD1Ev _ZN12TPixelBufferD1Ev _ZN5TNode6UpdateEv _ZN10TEmptyFillC1Ev _ZN11TCustomFillaSERK10TEmptyFill _ZN10TEmptyFillD1Ev _ZN5TNode18OnChildBoundChangeEP8TControl _ZN5TNode8OnResizeEv _ZN7TWDFile14AddControlInfoERKNS_11ControlInfoE _ZTVN10__cxxabiv117__class_type_infoE
	DECLARES 
	USES 
}
Module twdSlider.o {
	OBJECT += libtilcon.a::twdSlider.o
}
ObjectFile libtilcon.a::twdFileUtility.o {
	NAME Object file twdFileUtility.o from archive libtilcon.a
	EXPORTS _ZTV10TException _ZTI10TException _ZTS10TException _Z13TestByteOrderv _Z16ENDIAN_CONVERT16j _Z16ENDIAN_CONVERT32j _Z17ENDIAN_CONVERT32Ff _Z16ENDIAN_CONVERT64d _Z13ConvertEndianPh _Z10DataLengthiPi _Z12UTF8FromUCS2PKwjPcj _Z12UCS2FromUTF8PKciPwi _ZN8TWStringC1EPKwi _ZN10TExceptionD1Ev _ZN8TWStringaSERKS_ _Z12UCS2FromUTF8PKciR8TWString _ZN10TExceptionD0Ev
	IMPORTS _ZTVSt9exception _ZTVSt13bad_exception _ZTVSt9bad_alloc _ZTISt9exception _ZTISt13bad_exception _ZTISt9bad_alloc _ZTSSt9exception _ZTSSt13bad_exception _ZTSSt9bad_alloc __frameinfo_used strlen __div32 __cxa_allocate_exception __cxa_throw _Znaj memcpy _ZdaPv __diab_Unwind_Resume __diab_personality_v0 _ZdlPv _ZTVN10__cxxabiv117__class_type_infoE
	DECLARES 
	USES 
}
Module twdFileUtility.o {
	OBJECT += libtilcon.a::twdFileUtility.o
}
ObjectFile libtilcon.a::twdImage.o {
	NAME Object file twdImage.o from archive libtilcon.a
	EXPORTS _ZTV6TImage _ZTI6TImage _ZTS6TImage _Z15LoadTilconImagePhiR6TImage _ZN7TWDFile11BranchImageEiPiRNS_14ImageAttributeE _ZN7TWDFile12ParsePictureEPhiRNS_16PictureAttributeE _ZN7TWDFile9LoadImageEPhiR6TImage _ZN7TWDFile16PictureAttributeC1Ev _ZN7TWDFile14ImageAttributeD1Ev _ZN7TWDFile16PictureAttributeD1Ev _ZN7TWDFile11ControlInfoC1Ev _ZN7TWDFile11ControlInfoD1Ev _ZNK10TSharedPtrI9ImageDataE5DerefEv _ZN7TWDFile20CreatePictureFromAttERKNS_10TwdSegmentE _ZN6TImageD1Ev _ZN6TImageD0Ev
	IMPORTS _ZTVSt9exception _ZTVSt13bad_exception _ZTVSt9bad_alloc _ZTV10TException _ZTV17TChildrenDelegate _ZTV6TArrayIP5TNodeE _ZTV6TArrayI9ColorStopE _ZTI10TException _ZTI17TChildrenDelegate _ZTI6TArrayIP5TNodeE _ZTI6TArrayI9ColorStopE _ZTISt9exception _ZTISt13bad_exception _ZTISt9bad_alloc _ZTS10TException _ZTS17TChildrenDelegate _ZTS6TArrayIP5TNodeE _ZTS6TArrayI9ColorStopE _ZTSSt9exception _ZTSSt13bad_exception _ZTSSt9bad_alloc __frameinfo_used _ZN6TImage14LoadFromBufferEPKhiii10ColorOrder11ColorFormat _ZN7TStringC1EPKc _ZN7TStringaSERKS_ free __diab_Unwind_Resume __diab_personality_v0 _Z10DataLengthiPi _ZN7TWDFile13BranchRealObjEiPiRNS_16RealObjAttributeE _ZN7TWDFile16RealObjAttributeC2Ev _ZN7TWDFile14ImageAttributeC1Ev _ZN7TStringC1Ev _ZN9ImageDataD1Ev _ZdlPv _ZN7TStringC1EPKci _Znwj _ZN6TImage16defaultImageDataE _ZN8TPictureC1EiiiiRK6TImage _ZN8TPicture8SetImageERK6TImage _ZN7TWDFile14AddControlInfoERKNS_11ControlInfoE _ZTVN10__cxxabiv117__class_type_infoE
	DECLARES 
	USES 
}
Module twdImage.o {
	OBJECT += libtilcon.a::twdImage.o
}
ObjectFile libtilcon.a::twdPanel.o {
	NAME Object file twdPanel.o from archive libtilcon.a
	EXPORTS _ZN7TWDFile10ParsePanelEPhiRNS_14PanelAttributeE _ZN7TWDFile11BranchPanelEiPiRNS_14PanelAttributeE _ZN7TWDFile14ImageAttributeD1Ev _ZN7TWDFile15WindowAttributeD1Ev _ZN7TWDFile11ControlInfoC1Ev _ZN7TWDFile11ControlInfoD1Ev _ZN7TWDFile18CreatePanelFromAttERKNS_10TwdSegmentE
	IMPORTS _ZTVSt9exception _ZTVSt13bad_exception _ZTVSt9bad_alloc _ZTV10TException _ZTV17TChildrenDelegate _ZTV6TImage _ZTV6TArrayIP5TNodeE _ZTV6TArrayI9ColorStopE _ZTI10TException _ZTI17TChildrenDelegate _ZTI6TArrayIP5TNodeE _ZTI6TImage _ZTI6TArrayI9ColorStopE _ZTISt9exception _ZTISt13bad_exception _ZTISt9bad_alloc _ZTS10TException _ZTS17TChildrenDelegate _ZTS6TArrayIP5TNodeE _ZTS6TImage _ZTS6TArrayI9ColorStopE _ZTSSt9exception _ZTSSt13bad_exception _ZTSSt9bad_alloc __frameinfo_used _Z10DataLengthiPi _ZN7TWDFile10BranchFontEiPiRNS_13FontAttributeE _ZN7TWDFile12BranchWindowEiPiRNS_15WindowAttributeE _ZN7TWDFile13BranchRealObjEiPiRNS_16RealObjAttributeE free __diab_Unwind_Resume __diab_personality_v0 _ZN7TStringC1Ev _ZN7TWDFile14PanelAttributeC1Ev _ZN7TStringC1EPKci _ZN7TStringaSERKS_ _Znwj _ZN6TPanelC1Eiiii _ZN7TWDFile21ApplyRealObjAttributeER8TControlRKNS_16RealObjAttributeE _ZN7TWDFile14AddControlInfoERKNS_11ControlInfoE _ZdlPv
	DECLARES 
	USES 
}
Module twdPanel.o {
	OBJECT += libtilcon.a::twdPanel.o
}
ObjectFile libtilcon.a::twdRadioButton.o {
	NAME Object file twdRadioButton.o from archive libtilcon.a
	EXPORTS _ZTV10TException _ZTV6TImage _ZTV6TArrayIN7TWDFile18RadioItemAttributeEE _ZTI10TException _ZTI6TArrayIN7TWDFile18RadioItemAttributeEE _ZTI6TImage _ZTS10TException _ZTS6TArrayIN7TWDFile18RadioItemAttributeEE _ZTS6TImage _ZN10TExceptionD1Ev _ZN10TExceptionD0Ev _ZN8TWStringC1EPKw _ZN6TArrayIN7TWDFile18RadioItemAttributeEED1Ev _ZN7TWDFile18RadioItemAttributeD1Ev _ZN6TArrayIN7TWDFile18RadioItemAttributeEED0Ev _ZN6TArrayIN7TWDFile18RadioItemAttributeEE13RoundCapacityEi _ZN7TWDFile14ImageAttributeaSERKS0_ _ZN7TWDFile18RadioItemAttributeaSERKS0_ _ZN6TArrayIN7TWDFile18RadioItemAttributeEE8ExpandAtEii _ZN7TWDFile18RadioItemAttributeC1Ev _ZN6TArrayIN7TWDFile18RadioItemAttributeEE8InsertAtEiRKS1_ _ZNK6TArrayIN7TWDFile18RadioItemAttributeEEixEi _ZN7TWDFile14ImageAttributeD1Ev _ZN7TWDFile17BranchRadioButtonEiPiRNS_20RadioButtonAttributeE _ZN7TWDFile16ParseRadioButtonEPhiRNS_20RadioButtonAttributeE _ZN7TWDFile20RadioButtonAttributeC1Ev _ZN7TWDFile20RadioButtonAttributeD1Ev _ZN7TWDFile11ControlInfoC1Ev _ZN7TWDFile11ControlInfoD1Ev _ZNK10TSharedPtrI9ImageDataE5DerefEv _ZN13TCustomVisualC1Ev _ZN13TCustomVisualD1Ev _ZN7TWDFile24CreateRadioButtonFromAttERKNS_10TwdSegmentE _ZN7TWDFile18RadioItemAttributeC2Ev _ZN7TWDFile20RadioButtonAttributeC2Ev _ZN6TImageD1Ev _ZN6TImageD0Ev
	IMPORTS _ZTVSt9exception _ZTVSt13bad_exception _ZTVSt9bad_alloc _ZTV17TChildrenDelegate _ZTV6TArrayIP5TNodeE _ZTV6TArrayI9ColorStopE _ZTI17TChildrenDelegate _ZTI6TArrayIP5TNodeE _ZTI6TArrayI9ColorStopE _ZTISt9exception _ZTISt13bad_exception _ZTISt9bad_alloc _ZTS17TChildrenDelegate _ZTS6TArrayIP5TNodeE _ZTS6TArrayI9ColorStopE _ZTSSt9exception _ZTSSt13bad_exception _ZTSSt9bad_alloc _ZdlPv __frameinfo_used __cxa_allocate_exception __cxa_throw _Znaj memcpy __cxa_vec_delete _ZN7TStringaSERKS_ _ZdaPv __cxa_vec_new2 free __diab_Unwind_Resume __diab_personality_v0 _ZN7TWDFile14ImageAttributeC1Ev _ZN7TWDFile11BranchImageEiPiRNS_14ImageAttributeE _Z10DataLengthiPi _ZN7TWDFile10BranchFontEiPiRNS_13FontAttributeE _ZN7TWDFile13BranchRealObjEiPiRNS_16RealObjAttributeE _ZN7TWDFile16RealObjAttributeC2Ev _ZN7TWDFile13FontAttributeC1Ev _ZN7TStringC1Ev _ZN9ImageDataD1Ev _ZN11TCustomFillC1Ev _ZN11TCustomFillD1Ev _ZN7TStringC1EPKci _Znwj _ZN12TRadioButtonC1Eiiii strlen _Z12UCS2FromUTF8PKciR8TWString _ZN12TRadioButton7AddItemERK8TWString _ZN6TImage16defaultImageDataE _ZN7TWDFile9LoadImageEPhiR6TImage _ZN12TPixelBufferC1ERK6TImage _ZN10TImageFillC1ERK12TPixelBuffer _ZN11TCustomFillaSERK10TImageFill _ZN10TImageFillD1Ev _ZN12TPixelBufferD1Ev _ZN12TRadioButton23SetUncheckedFrameVisualEiRK13TCustomVisual _ZN12TRadioButton21SetCheckedFrameVisualEiRK13TCustomVisual _ZN10TEmptyFillC1Ev _ZN11TCustomFillaSERK10TEmptyFill _ZN10TEmptyFillD1Ev _ZN12TRadioButton27SetUncheckedIndicatorVisualEiRK13TCustomVisual _ZN12TRadioButton25SetCheckedIndicatorVisualEiRK13TCustomVisual _ZN7TWDFile21ApplyRealObjAttributeER8TControlRKNS_16RealObjAttributeE _ZN12TRadioButton14SetItemsPerRowEi _ZN7TWDFile14AddControlInfoERKNS_11ControlInfoE _ZTVN10__cxxabiv117__class_type_infoE
	DECLARES 
	USES 
}
Module twdRadioButton.o {
	OBJECT += libtilcon.a::twdRadioButton.o
}
ObjectFile libtilcon.a::twdMultiState.o {
	NAME Object file twdMultiState.o from archive libtilcon.a
	EXPORTS _ZTV10TException _ZTV6TImage _ZTV6TArrayIN7TWDFile23MultiStateItemAttributeEE _ZTI10TException _ZTI6TArrayIN7TWDFile23MultiStateItemAttributeEE _ZTI6TImage _ZTS10TException _ZTS6TArrayIN7TWDFile23MultiStateItemAttributeEE _ZTS6TImage _ZN10TExceptionD1Ev _ZN10TExceptionD0Ev _ZN6TArrayIN7TWDFile23MultiStateItemAttributeEED1Ev _ZN7TWDFile23MultiStateItemAttributeD1Ev _ZN6TArrayIN7TWDFile23MultiStateItemAttributeEED0Ev _ZN6TArrayIN7TWDFile23MultiStateItemAttributeEE13RoundCapacityEi _ZN7TWDFile14ImageAttributeaSERKS0_ _ZN6TArrayIN7TWDFile23MultiStateItemAttributeEE8ExpandAtEii _ZN7TWDFile23MultiStateItemAttributeC1Ev _ZN6TArrayIN7TWDFile23MultiStateItemAttributeEE8InsertAtEiRKS1_ _ZNK6TArrayIN7TWDFile23MultiStateItemAttributeEEixEi _ZN7TWDFile14ImageAttributeD1Ev _ZN7TWDFile16BranchMultiStateEiPiRNS_19MultiStateAttributeE _ZN7TWDFile15ParseMultiStateEPhiRNS_19MultiStateAttributeE _ZN7TWDFile19MultiStateAttributeD1Ev _ZN7TWDFile11ControlInfoC1Ev _ZN7TWDFile11ControlInfoD1Ev _ZNK10TSharedPtrI9ImageDataE5DerefEv _ZN13TCustomVisualC1Ev _ZN13TCustomVisualD1Ev _ZN7TWDFile23CreateMultiStateFromAttERKNS_10TwdSegmentE _ZN6TImageD1Ev _ZN6TImageD0Ev
	IMPORTS _ZTVSt9exception _ZTVSt13bad_exception _ZTVSt9bad_alloc _ZTV17TChildrenDelegate _ZTV6TArrayIP5TNodeE _ZTV6TArrayI9ColorStopE _ZTI17TChildrenDelegate _ZTI6TArrayIP5TNodeE _ZTI6TArrayI9ColorStopE _ZTISt9exception _ZTISt13bad_exception _ZTISt9bad_alloc _ZTS17TChildrenDelegate _ZTS6TArrayIP5TNodeE _ZTS6TArrayI9ColorStopE _ZTSSt9exception _ZTSSt13bad_exception _ZTSSt9bad_alloc _ZdlPv __frameinfo_used __cxa_vec_delete _ZN7TStringaSERKS_ _Znaj _ZdaPv __cxa_vec_new2 __cxa_allocate_exception __cxa_throw free __diab_Unwind_Resume __diab_personality_v0 memset _ZN7TWDFile14ImageAttributeC1Ev _ZN7TWDFile11BranchImageEiPiRNS_14ImageAttributeE _Z10DataLengthiPi _ZN7TWDFile13BranchRealObjEiPiRNS_16RealObjAttributeE _ZN7TStringC1Ev _ZN9ImageDataD1Ev _ZN11TCustomFillC1Ev _ZN11TCustomFillD1Ev _ZN7TWDFile19MultiStateAttributeC1Ev _ZN7TStringC1EPKci _Znwj _ZN17TMultiStateButtonC1Eiiiii _ZN6TImage16defaultImageDataE _ZN7TWDFile9LoadImageEPhiR6TImage _ZN12TPixelBufferC1ERK6TImage _ZN10TImageFillC1ERK12TPixelBuffer _ZN11TCustomFillaSERK10TImageFill _ZN10TImageFillD1Ev _ZN12TPixelBufferD1Ev _ZN17TMultiStateButton14SetStateVisualEiRK13TCustomVisual _ZN7TWDFile14AddControlInfoERKNS_11ControlInfoE _ZTVN10__cxxabiv117__class_type_infoE
	DECLARES 
	USES 
}
Module twdMultiState.o {
	OBJECT += libtilcon.a::twdMultiState.o
}
ObjectFile libtilcon.a::twdNumberBox.o {
	NAME Object file twdNumberBox.o from archive libtilcon.a
	EXPORTS _ZTV6TImage _ZTI6TImage _ZTS6TImage _ZN7TWDFile15BranchNumberBoxEiPiRNS_18NumberBoxAttributeE _ZN7TWDFile14ParseNumberBoxEPhiRNS_18NumberBoxAttributeE _ZN7TWDFile14ImageAttributeD1Ev _ZN7TWDFile18NumberBoxAttributeC1Ev _ZN7TWDFile18NumberBoxAttributeD1Ev _ZN7TWDFile11ControlInfoC1Ev _ZN7TWDFile11ControlInfoD1Ev _ZNK10TSharedPtrI9ImageDataE5DerefEv _ZN13TCustomVisualC1Ev _ZN13TCustomVisualD1Ev _ZN7TWDFile22CreateNumberBoxFromAttERKNS_10TwdSegmentE _ZN7TWDFile18NumberBoxAttributeC2Ev _ZN6TImageD1Ev _ZN6TImageD0Ev
	IMPORTS _ZTVSt9exception _ZTVSt13bad_exception _ZTVSt9bad_alloc _ZTV10TException _ZTV17TChildrenDelegate _ZTV6TArrayIP5TNodeE _ZTV6TArrayI9ColorStopE _ZTI10TException _ZTI17TChildrenDelegate _ZTI6TArrayIP5TNodeE _ZTI6TArrayI9ColorStopE _ZTISt9exception _ZTISt13bad_exception _ZTISt9bad_alloc _ZTS10TException _ZTS17TChildrenDelegate _ZTS6TArrayIP5TNodeE _ZTS6TArrayI9ColorStopE _ZTSSt9exception _ZTSSt13bad_exception _ZTSSt9bad_alloc __frameinfo_used _ZN7TWDFile11BranchImageEiPiRNS_14ImageAttributeE _Z10DataLengthiPi _ZN7TWDFile12BranchBorderEiPiRNS_15BorderAttributeE _ZN7TWDFile10BranchFontEiPiRNS_13FontAttributeE _ZN7TWDFile13BranchRealObjEiPiRNS_16RealObjAttributeE free __diab_Unwind_Resume __diab_personality_v0 _ZN7TWDFile16RealObjAttributeC2Ev _ZN7TWDFile15BorderAttributeC1Ev _ZN7TWDFile13FontAttributeC1Ev _ZN7TWDFile14ImageAttributeC1Ev _ZN7TStringC1Ev _ZN9ImageDataD1Ev _ZdlPv _ZN11TCustomFillC1Ev _ZN11TCustomFillD1Ev _ZN7TStringC1EPKci _ZN7TStringaSERKS_ _Znwj _ZN8TSpinBoxC1Eiiii _ZN7TWDFile21ApplyRealObjAttributeER8TControlRKNS_16RealObjAttributeE _ZN5TNode6UpdateEv _ZN6TImage16defaultImageDataE _ZN7TWDFile9LoadImageEPhiR6TImage _ZN12TPixelBufferC1ERK6TImage _ZN10TImageFillC1ERK12TPixelBuffer _ZN11TCustomFillaSERK10TImageFill _ZN10TImageFillD1Ev _ZN12TPixelBufferD1Ev _ZN7TWDFile14AddControlInfoERKNS_11ControlInfoE _ZTVN10__cxxabiv117__class_type_infoE
	DECLARES 
	USES 
}
Module twdNumberBox.o {
	OBJECT += libtilcon.a::twdNumberBox.o
}
ObjectFile libtilcon.a::twdLabel.o {
	NAME Object file twdLabel.o from archive libtilcon.a
	EXPORTS _ZTV10TException _ZTI10TException _ZTS10TException _ZN10TExceptionD1Ev _ZN10TExceptionD0Ev _ZN8TWStringC1EPKw _ZN8TWStringaSERKS_ _ZN7TWDFile11BranchLabelEiPiRNS_14LabelAttributeE _ZN7TWDFile10ParseLabelEPhiRNS_14LabelAttributeE _ZN7TWDFile11ControlInfoC1Ev _ZN7TWDFile11ControlInfoD1Ev _ZN7TWDFile18CreateLabelFromAttERKNS_10TwdSegmentE
	IMPORTS _ZTVSt9exception _ZTVSt13bad_exception _ZTVSt9bad_alloc _ZTV17TChildrenDelegate _ZTV6TImage _ZTV6TArrayIP5TNodeE _ZTV6TArrayI9ColorStopE _ZTI17TChildrenDelegate _ZTI6TArrayIP5TNodeE _ZTI6TImage _ZTI6TArrayI9ColorStopE _ZTISt9exception _ZTISt13bad_exception _ZTISt9bad_alloc _ZTS17TChildrenDelegate _ZTS6TArrayIP5TNodeE _ZTS6TImage _ZTS6TArrayI9ColorStopE _ZTSSt9exception _ZTSSt13bad_exception _ZTSSt9bad_alloc _ZdlPv __frameinfo_used __cxa_allocate_exception __cxa_throw _Znaj memcpy _ZdaPv _Z10DataLengthiPi _ZN7TWDFile10BranchFontEiPiRNS_13FontAttributeE _ZN7TWDFile13BranchRealObjEiPiRNS_16RealObjAttributeE _ZN7TStringC1Ev free __diab_Unwind_Resume __diab_personality_v0 _ZN7TWDFile14LabelAttributeC1Ev _ZN7TStringC1EPKci _ZN7TStringaSERKS_ _Znwj _ZN6TLabelC1EiiiiRK8TWString _ZNK6TLabel11GetPropertyEv _ZN7TWDFile21ApplyRealObjAttributeER8TControlRKNS_16RealObjAttributeE _ZN7TWDFile18ApplyTextAttributeER12TextPropertyRKNS_13FontAttributeE _ZN6TLabel11SetPropertyERKNS_8PropertyE strlen _Z12UCS2FromUTF8PKciR8TWString _ZN5TNode18OnChildBoundChangeEP8TControl _ZN5TNode8OnResizeEv _ZN5TNode6UpdateEv _ZN7TWDFile14AddControlInfoERKNS_11ControlInfoE _ZN6TLabel8PropertyD1Ev _ZTVN10__cxxabiv117__class_type_infoE
	DECLARES 
	USES 
}
Module twdLabel.o {
	OBJECT += libtilcon.a::twdLabel.o
}
ObjectFile libtilcon.a::tgsMultiStateButton.o {
	NAME Object file tgsMultiStateButton.o from archive libtilcon.a
	EXPORTS _ZTV10TException _ZTV17TMultiStateButton _ZTVN7_TEventI10EventParamE15THandlerAdaptorE _ZTV6TArrayIN17TMultiStateButton5StateEE _ZTVN7_TEventI10EventParamE17MemberFuncHandlerI17TMultiStateButtonEE _ZTI10TException _ZTIN7_TEventI10EventParamE15THandlerAdaptorE _ZTIN7_TEventI10EventParamE17MemberFuncHandlerI17TMultiStateButtonEE _ZTI6TArrayIN17TMultiStateButton5StateEE _ZTI17TMultiStateButton _ZTS10TException _ZTSN7_TEventI10EventParamE15THandlerAdaptorE _ZTSN7_TEventI10EventParamE17MemberFuncHandlerI17TMultiStateButtonEE _ZTS6TArrayIN17TMultiStateButton5StateEE _ZTS17TMultiStateButton _ZN10TExceptionD1Ev _ZN10TExceptionD0Ev _ZN6TColorC1Ej _ZN6TColorC1ERKS_ _ZN8TWStringaSERKS_ _ZNK6_TRectIiE6AdjustERK8_TMarginIiE _ZNK6_TRectIiEmiERK7_TPointIiE _ZN7_TEventI10EventParamE10SetHandlerI17TMultiStateButtonEEvPT_NS1_17MemberFuncHandlerIS4_E8FuncTypeE _ZN7_TEventI10EventParamE15THandlerAdaptorD1Ev _ZN7_TEventI10EventParamE15THandlerAdaptorD0Ev _ZN7_TEventI10EventParamE17MemberFuncHandlerI17TMultiStateButtonED1Ev _ZN7_TEventI10EventParamE17MemberFuncHandlerI17TMultiStateButtonED0Ev _ZNK7_TEventI10EventParamE17MemberFuncHandlerI17TMultiStateButtonE6InvokeERS0_ _ZN7_TEventI10EventParamE17MemberFuncHandlerI17TMultiStateButtonE3dupEv _ZN13TCustomVisualaSERKS_ _ZN12TextPropertyC1ERKS_ _ZN12TextPropertyaSERKS_ _ZN8_TMarginIiEC1ERKS0_ _ZN6TArrayIN17TMultiStateButton5StateEE13RoundCapacityEi _ZN6TArrayIN17TMultiStateButton5StateEE8ExpandAtEii _ZN17TMultiStateButton5StateD1Ev _ZN17TMultiStateButton5StateC1Ev _ZN6TArrayIN17TMultiStateButton5StateEEC1Ei _ZN6TArrayIN17TMultiStateButton5StateEED1Ev _ZN6TArrayIN17TMultiStateButton5StateEED0Ev _ZNK6TArrayIN17TMultiStateButton5StateEEixEi _ZN17TMultiStateButton11SetPropertyERKNS_8PropertyE _ZN17TMultiStateButton8PropertyC1Ev _ZN17TMultiStateButton8PropertyD1Ev _ZN17TMultiStateButton8PropertyC1ERKS0_ _ZN17TMultiStateButtonC1Eiiiii _ZN17TMultiStateButtonC2Eiiiii _ZN17TMultiStateButtonD1Ev _ZN17TMultiStateButtonD0Ev _ZN17TMultiStateButtonD2Ev _ZNK17TMultiStateButton11GetPropertyEv _ZN17TMultiStateButton11ChangeStateEi _ZN17TMultiStateButton8SetStateEi _ZNK17TMultiStateButton8GetStateEv _ZN17TMultiStateButton12SetStateTextEiRK8TWString _ZNK17TMultiStateButton12GetStateTextEi _ZN17TMultiStateButton14SetStateVisualEiRK13TCustomVisual _ZNK17TMultiStateButton14GetStateVisualEi _ZN17TMultiStateButton12PaintHandlerER10EventParam _ZN17TMultiStateButton9StepStateEv _ZN17TMultiStateButton12MouseHandlerER10EventParam _ZN17TMultiStateButton11NodeHandlerER10EventParam _ZN17TMultiStateButton8PropertyC2Ev _ZN17TMultiStateButton8PropertyD2Ev
	IMPORTS _ZTVSt9exception _ZTVSt13bad_exception _ZTVSt9bad_alloc _ZTV17TChildrenDelegate _ZTV6TImage _ZTV14TEventDelegate _ZTV6TArrayIP5TNodeE _ZTV6TArrayI9ColorStopE _ZTI14TEventDelegate _ZTI17TChildrenDelegate _ZTI6TArrayIP5TNodeE _ZTI6TImage _ZTI6TArrayI9ColorStopE _ZTISt9exception _ZTISt13bad_exception _ZTISt9bad_alloc _ZTS14TEventDelegate _ZTS17TChildrenDelegate _ZTS6TArrayIP5TNodeE _ZTS6TImage _ZTS6TArrayI9ColorStopE _ZTSSt9exception _ZTSSt13bad_exception _ZTSSt9bad_alloc _ZdlPv __frameinfo_used _Znaj memcpy _ZdaPv _Znwj __diab_Unwind_Resume __diab_personality_v0 _ZN11TCustomFillaSERKS_ _ZTV5TFont _ZN5TFontaSERKS_ __cxa_vec_new2 __cxa_allocate_exception __cxa_throw __cxa_vec_delete _ZN5TNode18OnChildBoundChangeEP8TControl _ZN5TNode8OnResizeEv _ZN5TNode6UpdateEv _ZN15ControlPropertyC2E11ControlType _ZN5TFontC1Ev _ZN15ControlPropertyD2Ev _ZN5TFontD1Ev _ZN8TControlC2EiiiiR5TNode _ZTV18TNodeEventDelegate _ZN5TNodeC1EiiiiP14TEventDelegateP17TChildrenDelegate _ZN12TApplication8InstanceEv _ZNK12TApplication11GetPropertyE11ControlType _ZN5TNodeD1Ev _ZN8TControlD2Ev _ZNK7TVisual4DrawER8TPainterRK11VisualStateRK6_TRectIiE _ZN8TPainter11SetClipRectERK6_TRectIiE _ZN8TPainter12SetTextColorERK6TColor _ZN8TPainter7SetFontERK5TFont _ZN8TPainter11DrawUCSTextERK8TWStringRK6_TRectIiE23TextHorizontalAlignment21TextVerticalAlignment _ZN8TPainter13ClearClipRectEv __rem32 _ZN5TNode9SetActiveEi _ZN7TVisualC1E9FrameType _ZN7TVisualD1Ev __cxa_pure_virtual _ZTVN10__cxxabiv117__class_type_infoE _ZTVN10__cxxabiv120__si_class_type_infoE _ZTI8TControl
	DECLARES 
	USES 
}
Module tgsMultiStateButton.o {
	OBJECT += libtilcon.a::tgsMultiStateButton.o
}
ObjectFile libtilcon.a::tgsPushButtonNode.o {
	NAME Object file tgsPushButtonNode.o from archive libtilcon.a
	EXPORTS _ZTV15TPushButtonNode _ZTVN7_TEventI10EventParamE15THandlerAdaptorE _ZTVN7_TEventI10EventParamE17MemberFuncHandlerI15TPushButtonNodeEE _ZTIN7_TEventI10EventParamE15THandlerAdaptorE _ZTIN7_TEventI10EventParamE17MemberFuncHandlerI15TPushButtonNodeEE _ZTI15TPushButtonNode _ZTSN7_TEventI10EventParamE15THandlerAdaptorE _ZTSN7_TEventI10EventParamE17MemberFuncHandlerI15TPushButtonNodeEE _ZTS15TPushButtonNode _ZNK6_TRectIiE6AdjustERK8_TMarginIiE _ZNK6_TRectIiEmiERK7_TPointIiE _ZNK6_TRectIiE8ContainsERK7_TPointIiE _ZN7_TEventI10EventParamE10SetHandlerI15TPushButtonNodeEEvPT_NS1_17MemberFuncHandlerIS4_E8FuncTypeE _ZN7_TEventI10EventParamE15THandlerAdaptorD1Ev _ZN7_TEventI10EventParamE15THandlerAdaptorD0Ev _ZN7_TEventI10EventParamE17MemberFuncHandlerI15TPushButtonNodeED1Ev _ZN7_TEventI10EventParamE17MemberFuncHandlerI15TPushButtonNodeED0Ev _ZNK7_TEventI10EventParamE17MemberFuncHandlerI15TPushButtonNodeE6InvokeERS0_ _ZN7_TEventI10EventParamE17MemberFuncHandlerI15TPushButtonNodeE3dupEv _ZN6TTimerC1Ev _ZN15TPushButtonNodeC1EiiiiR7TVisualR12TextProperty _ZN15TPushButtonNodeC2EiiiiR7TVisualR12TextProperty _ZN15TPushButtonNodeD1Ev _ZN15TPushButtonNodeD0Ev _ZN15TPushButtonNodeD2Ev _ZN15TPushButtonNode5ClickEv _ZN15TPushButtonNode7OnPaintERN5TNode15PaintEventParamE _ZN15TPushButtonNode7OnMouseERN5TNode15MouseEventParamE _ZN15TPushButtonNode11NodeHandlerER10EventParam _ZN15TPushButtonNode18RepeatTimerHandlerER10EventParam _ZN15TPushButtonNode8OnDetachER10EventParam
	IMPORTS _ZTVSt9exception _ZTVSt13bad_exception _ZTVSt9bad_alloc _ZTV10TException _ZTV17TChildrenDelegate _ZTV6TImage _ZTV14TEventDelegate _ZTV6TArrayIP5TNodeE _ZTV6TArrayI9ColorStopE _ZTI10TException _ZTI14TEventDelegate _ZTI17TChildrenDelegate _ZTI6TArrayIP5TNodeE _ZTI6TImage _ZTI6TArrayI9ColorStopE _ZTISt9exception _ZTISt13bad_exception _ZTISt9bad_alloc _ZTS10TException _ZTS14TEventDelegate _ZTS17TChildrenDelegate _ZTS6TArrayIP5TNodeE _ZTS6TImage _ZTS6TArrayI9ColorStopE _ZTSSt9exception _ZTSSt13bad_exception _ZTSSt9bad_alloc __frameinfo_used _Znwj __diab_Unwind_Resume __diab_personality_v0 _ZdlPv _ZN5TNodeC2EiiiiP14TEventDelegateP17TChildrenDelegate _ZTV18TNodeEventDelegate _Znaj _ZN5TNode18SetVisualStateMaskEiiii _ZdaPv _ZN5TNodeD2Ev _ZNK7TVisual4DrawER8TPainterRK11VisualStateRK6_TRectIiE _ZN8TPainter11SetClipRectERK6_TRectIiE _ZN8TPainter12SetTextColorERK6TColor _ZN8TPainter7SetFontERK5TFont _ZN8TPainter11DrawUCSTextERK8TWStringRK6_TRectIiE23TextHorizontalAlignment21TextVerticalAlignment _ZN8TPainter13ClearClipRectEv _ZN5TNode9SetActiveEi _ZN6TTimer5StartEv _ZN6TTimer4StopEv _ZN6TTimer6ResumeEv _ZN6TTimer5PauseEv __cxa_pure_virtual _ZTVN10__cxxabiv117__class_type_infoE _ZTVN10__cxxabiv120__si_class_type_infoE _ZTI5TNode
	DECLARES 
	USES 
}
Module tgsPushButtonNode.o {
	OBJECT += libtilcon.a::tgsPushButtonNode.o
}
ObjectFile libtilcon.a::tgsPushButton.o {
	NAME Object file tgsPushButton.o from archive libtilcon.a
	EXPORTS _ZTV11TPushButton _ZTVN7_TEventI10EventParamE15THandlerAdaptorE _ZTVN7_TEventI10EventParamE17MemberFuncHandlerI11TPushButtonEE _ZTIN7_TEventI10EventParamE15THandlerAdaptorE _ZTIN7_TEventI10EventParamE17MemberFuncHandlerI11TPushButtonEE _ZTI11TPushButton _ZTSN7_TEventI10EventParamE15THandlerAdaptorE _ZTSN7_TEventI10EventParamE17MemberFuncHandlerI11TPushButtonEE _ZTS11TPushButton _ZN6TColorC1Ej _ZN6TColorC1ERKS_ _ZNK6TColorneERKS_ _ZN7_TEventI10EventParamE10SetHandlerI11TPushButtonEEvPT_NS1_17MemberFuncHandlerIS4_E8FuncTypeE _ZN7_TEventI10EventParamE15THandlerAdaptorD1Ev _ZN7_TEventI10EventParamE15THandlerAdaptorD0Ev _ZN7_TEventI10EventParamE17MemberFuncHandlerI11TPushButtonED1Ev _ZN7_TEventI10EventParamE17MemberFuncHandlerI11TPushButtonED0Ev _ZNK7_TEventI10EventParamE17MemberFuncHandlerI11TPushButtonE6InvokeERS0_ _ZN7_TEventI10EventParamE17MemberFuncHandlerI11TPushButtonE3dupEv _ZN13TCustomVisualC1Ev _ZN13TCustomVisualC1ERKS_ _ZN13TCustomVisualD1Ev _ZN13TCustomVisualaSERKS_ _ZNK12TextPropertyneERKS_ _ZN12TextPropertyC1ERKS_ _ZN12TextPropertyaSERKS_ _ZN8_TMarginIiEC1ERKS0_ _ZNK8_TMarginIiEneERKS0_ _ZN15TPushButtonNode11SetShowTextEi _ZN11TPushButton11SetPropertyERKNS_8PropertyE _ZN11TPushButton8PropertyC1Ev _ZN11TPushButton8PropertyD1Ev _ZN11TPushButton8PropertyC1ERKS0_ _ZN11TPushButtonC1Eiiii _ZN11TPushButtonC2Eiiii _ZN11TPushButtonD1Ev _ZN11TPushButtonD0Ev _ZN11TPushButtonD2Ev _ZN11TPushButton5ClickEv _ZNK11TPushButton11GetPropertyEv _ZN11TPushButton16NodeClickHandlerER10EventParam _ZN11TPushButton8PropertyC2Ev _ZN11TPushButton8PropertyD2Ev
	IMPORTS _ZTVSt9exception _ZTVSt13bad_exception _ZTVSt9bad_alloc _ZTV10TException _ZTV17TChildrenDelegate _ZTV6TImage _ZTV6TArrayIP5TNodeE _ZTV6TArrayI9ColorStopE _ZTI10TException _ZTI17TChildrenDelegate _ZTI6TArrayIP5TNodeE _ZTI6TImage _ZTI6TArrayI9ColorStopE _ZTISt9exception _ZTISt13bad_exception _ZTISt9bad_alloc _ZTS10TException _ZTS17TChildrenDelegate _ZTS6TArrayIP5TNodeE _ZTS6TImage _ZTS6TArrayI9ColorStopE _ZTSSt9exception _ZTSSt13bad_exception _ZTSSt9bad_alloc __frameinfo_used _Znwj __diab_Unwind_Resume __diab_personality_v0 _ZdlPv _ZN11TCustomFillC1Ev _ZN11TCustomFillD1Ev _ZN11TCustomFillC1ERKS_ _ZN11TCustomFillaSERKS_ _ZNK5TFontneERKS_ _ZTV5TFont _ZN5TFontaSERKS_ _ZN5TNode6UpdateEv _ZN5TNode8OnResizeEv _ZN5TNode18OnChildBoundChangeEP8TControl _ZN15ControlPropertyC2E11ControlType _ZN5TFontC1Ev _ZN5TFontD1Ev _ZN15ControlPropertyD2Ev _ZN8TControlC2EiiiiR5TNode _ZN7TVisualC1E9FrameType _ZN15TPushButtonNodeC1EiiiiR7TVisualR12TextProperty _ZN12TApplication8InstanceEv _ZNK12TApplication11GetPropertyE11ControlType _ZN15TPushButtonNodeD1Ev _ZN7TVisualD1Ev _ZN8TControlD2Ev __cxa_pure_virtual _ZTVN10__cxxabiv117__class_type_infoE _ZTVN10__cxxabiv120__si_class_type_infoE _ZTI8TControl
	DECLARES 
	USES 
}
Module tgsPushButton.o {
	OBJECT += libtilcon.a::tgsPushButton.o
}
ObjectFile libtilcon.a::tgsToggleButton.o {
	NAME Object file tgsToggleButton.o from archive libtilcon.a
	EXPORTS _ZTV13TToggleButton _ZTVN7_TEventI10EventParamE15THandlerAdaptorE _ZTVN7_TEventI10EventParamE17MemberFuncHandlerI13TToggleButtonEE _ZTIN7_TEventI10EventParamE15THandlerAdaptorE _ZTIN7_TEventI10EventParamE17MemberFuncHandlerI13TToggleButtonEE _ZTI13TToggleButton _ZTSN7_TEventI10EventParamE15THandlerAdaptorE _ZTSN7_TEventI10EventParamE17MemberFuncHandlerI13TToggleButtonEE _ZTS13TToggleButton _ZN6TColorC1Ej _ZN6TColorC1ERKS_ _ZNK6_TRectIiE6AdjustERK8_TMarginIiE _ZNK6_TRectIiEmiERK7_TPointIiE _ZNK6_TRectIiE8ContainsERK7_TPointIiE _ZN7_TEventI10EventParamE10SetHandlerI13TToggleButtonEEvPT_NS1_17MemberFuncHandlerIS4_E8FuncTypeE _ZN7_TEventI10EventParamE15THandlerAdaptorD1Ev _ZN7_TEventI10EventParamE15THandlerAdaptorD0Ev _ZN7_TEventI10EventParamE17MemberFuncHandlerI13TToggleButtonED1Ev _ZN7_TEventI10EventParamE17MemberFuncHandlerI13TToggleButtonED0Ev _ZNK7_TEventI10EventParamE17MemberFuncHandlerI13TToggleButtonE6InvokeERS0_ _ZN7_TEventI10EventParamE17MemberFuncHandlerI13TToggleButtonE3dupEv _ZN13TCustomVisualC1Ev _ZN13TCustomVisualC1ERKS_ _ZN13TCustomVisualD1Ev _ZN13TCustomVisualaSERKS_ _ZN12TextPropertyC1ERKS_ _ZN12TextPropertyaSERKS_ _ZN8_TMarginIiEC1ERKS0_ _ZN13TToggleButton11SetPropertyERKNS_8PropertyE _ZN13TToggleButton8PropertyC1Ev _ZN13TToggleButton8PropertyD1Ev _ZN13TToggleButton8PropertyC1ERKS0_ _ZN13TToggleButtonC1Eiiii _ZN13TToggleButtonC2Eiiii _ZN13TToggleButtonD1Ev _ZN13TToggleButtonD0Ev _ZN13TToggleButtonD2Ev _ZNK13TToggleButton11GetPropertyEv _ZN13TToggleButton13ChangeToggledEi _ZN13TToggleButton7OnMouseERN5TNode15MouseEventParamE _ZN13TToggleButton7OnPaintERN5TNode15PaintEventParamE _ZN13TToggleButton11NodeHandlerER10EventParam _ZN13TToggleButton8PropertyC2Ev _ZN13TToggleButton8PropertyD2Ev
	IMPORTS _ZTVSt9exception _ZTVSt13bad_exception _ZTVSt9bad_alloc _ZTV10TException _ZTV17TChildrenDelegate _ZTV6TImage _ZTV14TEventDelegate _ZTV6TArrayIP5TNodeE _ZTV6TArrayI9ColorStopE _ZTI10TException _ZTI14TEventDelegate _ZTI17TChildrenDelegate _ZTI6TArrayIP5TNodeE _ZTI6TImage _ZTI6TArrayI9ColorStopE _ZTISt9exception _ZTISt13bad_exception _ZTISt9bad_alloc _ZTS10TException _ZTS14TEventDelegate _ZTS17TChildrenDelegate _ZTS6TArrayIP5TNodeE _ZTS6TImage _ZTS6TArrayI9ColorStopE _ZTSSt9exception _ZTSSt13bad_exception _ZTSSt9bad_alloc __frameinfo_used _Znwj __diab_Unwind_Resume __diab_personality_v0 _ZdlPv _ZN11TCustomFillC1Ev _ZN11TCustomFillD1Ev _ZN11TCustomFillC1ERKS_ _ZN11TCustomFillaSERKS_ _ZTV5TFont _ZN5TFontaSERKS_ _ZN5TNode18OnChildBoundChangeEP8TControl _ZN5TNode8OnResizeEv _ZN5TNode6UpdateEv _ZN15ControlPropertyC2E11ControlType _ZN5TFontC1Ev _ZN5TFontD1Ev _ZN15ControlPropertyD2Ev _ZN8TControlC2EiiiiR5TNode _ZTV18TNodeEventDelegate _ZN5TNodeC1EiiiiP14TEventDelegateP17TChildrenDelegate _Znaj _ZN7TVisualC1E9FrameType _ZN5TNode18SetVisualStateMaskEiiii _ZN12TApplication8InstanceEv _ZNK12TApplication11GetPropertyE11ControlType _ZN7TVisualD1Ev _ZdaPv _ZN5TNodeD1Ev _ZN8TControlD2Ev _ZN5TNode9SetActiveEi _ZNK7TVisual4DrawER8TPainterRK11VisualStateRK6_TRectIiE _ZN8TPainter11SetClipRectERK6_TRectIiE _ZN8TPainter12SetTextColorERK6TColor _ZN8TPainter7SetFontERK5TFont _ZN8TPainter11DrawUCSTextERK8TWStringRK6_TRectIiE23TextHorizontalAlignment21TextVerticalAlignment _ZN8TPainter13ClearClipRectEv __cxa_pure_virtual _ZTVN10__cxxabiv117__class_type_infoE _ZTVN10__cxxabiv120__si_class_type_infoE _ZTI8TControl
	DECLARES 
	USES 
}
Module tgsToggleButton.o {
	OBJECT += libtilcon.a::tgsToggleButton.o
}
ObjectFile libtilcon.a::tgsLineChart.o {
	NAME Object file tgsLineChart.o from archive libtilcon.a
	EXPORTS _ZTV10TException _ZTV10TChartBody _ZTV10TLineChart _ZTVN7_TEventI10EventParamE15THandlerAdaptorE _ZTV6TArrayI8TWStringE _ZTV6TArrayIN10TLineChart11ChannelInfoEE _ZTVN7_TEventI10EventParamE17MemberFuncHandlerI10TLineChartEE _ZTI10TException _ZTIN7_TEventI10EventParamE15THandlerAdaptorE _ZTIN7_TEventI10EventParamE17MemberFuncHandlerI10TLineChartEE _ZTI6TArrayI8TWStringE _ZTI10TChartBody _ZTI6TArrayIN10TLineChart11ChannelInfoEE _ZTI10TLineChart _ZTS10TException _ZTSN7_TEventI10EventParamE15THandlerAdaptorE _ZTSN7_TEventI10EventParamE17MemberFuncHandlerI10TLineChartEE _ZTS6TArrayI8TWStringE _ZTS10TChartBody _ZTS6TArrayIN10TLineChart11ChannelInfoEE _ZTS10TLineChart _ZN10TExceptionD1Ev _ZN10TExceptionD0Ev _ZN6TColorC1Ej _ZN6TColorC1ERKS_ _ZNK6TColoreqERKS_ _ZN8TWStringD1Ev _ZN6_TRectIiEC1ERKS0_ _ZNK6_TRectIiE6AdjustERK8_TMarginIiE _ZNK6_TRectIiEmiERK7_TPointIiE _ZN7_TEventI10EventParamE10SetHandlerI10TLineChartEEvPT_NS1_17MemberFuncHandlerIS4_E8FuncTypeE _ZN7_TEventI10EventParamE15THandlerAdaptorD1Ev _ZN7_TEventI10EventParamE15THandlerAdaptorD0Ev _ZN7_TEventI10EventParamE17MemberFuncHandlerI10TLineChartED1Ev _ZN7_TEventI10EventParamE17MemberFuncHandlerI10TLineChartED0Ev _ZNK7_TEventI10EventParamE17MemberFuncHandlerI10TLineChartE6InvokeERS0_ _ZN7_TEventI10EventParamE17MemberFuncHandlerI10TLineChartE3dupEv _ZN8TPainter8DrawLineEiiii _ZN6TArrayI8TWStringED1Ev _ZN6TArrayI8TWStringED0Ev _ZN10TChartBody8BodyInfoC1Ev _ZN10TChartBodyC1Ev _ZN10TChartBodyC2Ev _ZN10TChartBody8BodyInfoD1Ev _ZN10TChartBodyD1Ev _ZN10TChartBodyD0Ev _ZN10TChartBodyD2Ev _ZN10TChartBody14DrawXMajorLineER8TPainterRK6_TRectIiERKNS_8BodyInfoE _ZN10TChartBody14DrawXMinorLineER8TPainterRK6_TRectIiERKNS_8BodyInfoE _ZN10TChartBody14DrawYMajorLineER8TPainterRK6_TRectIiERKNS_8BodyInfoE _ZN10TChartBody14DrawYMinorLineER8TPainterRK6_TRectIiERKNS_8BodyInfoE _ZN10TChartBody10DrawXScaleER8TPainterRK6_TRectIiERKNS_8BodyInfoERK6TArrayI8TWStringE _ZN10TChartBody10DrawYScaleER8TPainterRK6_TRectIiERKNS_8BodyInfoERK6TArrayI8TWStringE _ZN10TChartBody15GenerateXLabelsERK8_TLinearIfERKNS_8BodyInfoER6TArrayI8TWStringE _ZN10TChartBody15GenerateYLabelsERK8_TLinearIfERKNS_8BodyInfoER6TArrayI8TWStringE _ZNK10TChartBody16GetCurveAreaRectERK6_TRectIiE _ZN10TChartBody8DrawBodyER8TPainterRK6_TRectIiE _ZN6TArrayIN10TLineChart11ChannelInfoEE13RoundCapacityEi _ZN10TLineChart11ChannelInfoaSERKS0_ _ZN6TArrayIN10TLineChart11ChannelInfoEE8ExpandAtEii _ZN10TLineChart11ChannelInfoD1Ev _ZN10TLineChart11ChannelInfoC1Ev _ZN6TArrayIN10TLineChart11ChannelInfoEEC1Ei _ZN6TArrayIN10TLineChart11ChannelInfoEED1Ev _ZN6TArrayIN10TLineChart11ChannelInfoEED0Ev _ZNK6TArrayIN10TLineChart11ChannelInfoEEixEi _ZN10TLineChart10ScrollData6ResizeEj _ZN10TLineChart9SweepData6ResizeEj _ZN10TLineChart11SetDataSizeEj _ZN10TLineChartC1Eiiiijj _ZN10TLineChartC2Eiiiijj _ZN10TLineChartD1Ev _ZN10TLineChartD0Ev _ZN10TLineChartD2Ev _ZN10TLineChart17SetChannelVisibleEii _ZN10TLineChart19SetChannelAmplifierEif _ZN10TLineChart16SetChannelOffsetEif _ZN10TLineChart13SetChannelPenEiRK4TPen _ZN10TLineChart15SetChannelBrushEiRK6TBrush _ZN10TLineChart19DrawScrollLineChartER8TPainterRK6_TRectIiERK8_TLinearIfERKNS_11ChannelInfoE _ZN10TLineChart18DrawSweepLineChartER8TPainterRK6_TRectIiERK8_TLinearIfERKNS_11ChannelInfoE _ZN10TLineChart7OnPaintERN5TNode15PaintEventParamE _ZN10TLineChart11NodeHandlerER10EventParam
	IMPORTS _ZTVSt9exception _ZTVSt13bad_exception _ZTVSt9bad_alloc _ZTV17TChildrenDelegate _ZTV6TImage _ZTV14TEventDelegate _ZTV6TArrayIP5TNodeE _ZTV6TArrayI9ColorStopE _ZTI14TEventDelegate _ZTI17TChildrenDelegate _ZTI6TArrayIP5TNodeE _ZTI6TImage _ZTI6TArrayI9ColorStopE _ZTISt9exception _ZTISt13bad_exception _ZTISt9bad_alloc _ZTS14TEventDelegate _ZTS17TChildrenDelegate _ZTS6TArrayIP5TNodeE _ZTS6TImage _ZTS6TArrayI9ColorStopE _ZTSSt9exception _ZTSSt13bad_exception _ZTSSt9bad_alloc _ZdlPv _ZdaPv __frameinfo_used _Znwj __diab_Unwind_Resume __diab_personality_v0 _ZN8TPainter8DrawLineERK7_TPointIiES3_ __cxa_vec_delete _ZN6TScale9ScaleInfoC1Ev _ZN5TFontD1Ev _ZN8TPainter6SetPenERK4TPen __div32 _ZN6TScale10DrawXScaleER8TPainteriiiRKNS_9ScaleInfoERK6TArrayI8TWStringE _ZN6TScale10DrawYScaleER8TPainteriiiRKNS_9ScaleInfoERK6TArrayI8TWStringE _ZN6TScale14GenerateLabelsERK8_TLinearIfERKNS_9ScaleInfoER6TArrayI8TWStringE _ZN8TPainter11SetClipRectERK6_TRectIiE _ZN8TPainter13ClearClipRectEv _ZN12TPixelBufferaSERKS_ _Znaj __cxa_vec_new2 __cxa_allocate_exception __cxa_throw _ZN8TControlC2EiiiiR5TNode _ZTV18TNodeEventDelegate _ZN5TNodeC1EiiiiP14TEventDelegateP17TChildrenDelegate _ZN5TNode6UpdateEv _ZN5TNodeD1Ev _ZN8TControlD2Ev __udiv32 __urem32 _ZNK7TVisual4DrawER8TPainterRK11VisualStateRK6_TRectIiE _ZN12TPixelBufferC1Ev _ZN12TPixelBufferD1Ev __cxa_pure_virtual _ZTVN10__cxxabiv117__class_type_infoE _ZTVN10__cxxabiv120__si_class_type_infoE _ZTI8TControl
	DECLARES 
	USES 
}
Module tgsLineChart.o {
	OBJECT += libtilcon.a::tgsLineChart.o
}
ObjectFile libtilcon.a::tgsCheckBox.o {
	NAME Object file tgsCheckBox.o from archive libtilcon.a
	EXPORTS _ZTV9TCheckBox _ZTVN7_TEventI10EventParamE15THandlerAdaptorE _ZTVN7_TEventI10EventParamE17MemberFuncHandlerI9TCheckBoxEE _ZTIN7_TEventI10EventParamE15THandlerAdaptorE _ZTIN7_TEventI10EventParamE17MemberFuncHandlerI9TCheckBoxEE _ZTI9TCheckBox _ZTSN7_TEventI10EventParamE15THandlerAdaptorE _ZTSN7_TEventI10EventParamE17MemberFuncHandlerI9TCheckBoxEE _ZTS9TCheckBox _ZN6TColorC1Ej _ZN6TColorC1ERKS_ _ZN8TWStringC1ERKS_ _ZN6_TRectIiEC1ERKS0_ _ZNK6_TRectIiE6AdjustERK8_TMarginIiE _ZNK6_TRectIiEmiERK7_TPointIiE _ZNK6_TRectIiE8ContainsERK7_TPointIiE _ZN7_TEventI10EventParamE10SetHandlerI9TCheckBoxEEvPT_NS1_17MemberFuncHandlerIS4_E8FuncTypeE _ZN7_TEventI10EventParamE15THandlerAdaptorD1Ev _ZN7_TEventI10EventParamE15THandlerAdaptorD0Ev _ZN7_TEventI10EventParamE17MemberFuncHandlerI9TCheckBoxED1Ev _ZN7_TEventI10EventParamE17MemberFuncHandlerI9TCheckBoxED0Ev _ZNK7_TEventI10EventParamE17MemberFuncHandlerI9TCheckBoxE6InvokeERS0_ _ZN7_TEventI10EventParamE17MemberFuncHandlerI9TCheckBoxE3dupEv _ZN13TCustomVisualC1Ev _ZN13TCustomVisualC1ERKS_ _ZN13TCustomVisualD1Ev _ZN13TCustomVisualaSERKS_ _ZN12TextPropertyC1ERKS_ _ZN12TextPropertyaSERKS_ _ZN8_TMarginIiEC1ERKS0_ _ZNK8_TMarginIiEneERKS0_ _ZN9TCheckBox11SetPropertyERKNS_8PropertyE _ZN9TCheckBox8PropertyC1Ev _ZN9TCheckBox8PropertyD1Ev _ZN9TCheckBox8PropertyC1ERKS0_ _ZN9TCheckBoxC1EiiiiRK8TWString _ZN9TCheckBoxC2EiiiiRK8TWString _ZN9TCheckBoxD1Ev _ZN9TCheckBoxD0Ev _ZN9TCheckBoxD2Ev _ZNK9TCheckBox11GetPropertyEv _ZN9TCheckBox13ChangeCheckedEi _ZN9TCheckBox7OnMouseERN5TNode15MouseEventParamE _ZN9TCheckBox7OnPaintERN5TNode15PaintEventParamE _ZN9TCheckBox11NodeHandlerER10EventParam _ZN9TCheckBox8PropertyC2Ev _ZN9TCheckBox8PropertyD2Ev
	IMPORTS _ZTVSt9exception _ZTVSt13bad_exception _ZTVSt9bad_alloc _ZTV10TException _ZTV17TChildrenDelegate _ZTV6TImage _ZTV14TEventDelegate _ZTV6TArrayIP5TNodeE _ZTV6TArrayI9ColorStopE _ZTI10TException _ZTI14TEventDelegate _ZTI17TChildrenDelegate _ZTI6TArrayIP5TNodeE _ZTI6TImage _ZTI6TArrayI9ColorStopE _ZTISt9exception _ZTISt13bad_exception _ZTISt9bad_alloc _ZTS10TException _ZTS14TEventDelegate _ZTS17TChildrenDelegate _ZTS6TArrayIP5TNodeE _ZTS6TImage _ZTS6TArrayI9ColorStopE _ZTSSt9exception _ZTSSt13bad_exception _ZTSSt9bad_alloc __frameinfo_used _Znaj memcpy _Znwj __diab_Unwind_Resume __diab_personality_v0 _ZdlPv _ZN11TCustomFillC1Ev _ZN11TCustomFillD1Ev _ZN11TCustomFillC1ERKS_ _ZN11TCustomFillaSERKS_ _ZTV5TFont _ZN5TFontaSERKS_ _ZN5TNode18OnChildBoundChangeEP8TControl _ZN5TNode8OnResizeEv _ZN5TNode6UpdateEv _ZN15ControlPropertyC2E11ControlType _ZN5TFontC1Ev _ZN5TFontD1Ev _ZN15ControlPropertyD2Ev _ZN8TControlC2EiiiiR5TNode _ZN7TVisualC1E9FrameType _ZTV18TNodeEventDelegate _ZN5TNodeC1EiiiiP14TEventDelegateP17TChildrenDelegate _ZN5TNode18SetVisualStateMaskEiiii _ZN12TApplication8InstanceEv _ZNK12TApplication11GetPropertyE11ControlType _ZN5TNodeD1Ev _ZN7TVisualD1Ev _ZdaPv _ZN8TControlD2Ev _ZN5TNode9SetActiveEi _ZNK7TVisual4DrawER8TPainterRK11VisualStateRK6_TRectIiE _ZN8TPainter11SetClipRectERK6_TRectIiE _ZN8TPainter13ClearClipRectEv _ZN8TPainter7SetFontERK5TFont _ZN8TPainter12SetTextColorERK6TColor _ZN8TPainter11DrawUCSTextERK8TWStringRK6_TRectIiE23TextHorizontalAlignment21TextVerticalAlignment __cxa_pure_virtual _ZTVN10__cxxabiv117__class_type_infoE _ZTVN10__cxxabiv120__si_class_type_infoE _ZTI8TControl
	DECLARES 
	USES 
}
Module tgsCheckBox.o {
	OBJECT += libtilcon.a::tgsCheckBox.o
}
ObjectFile libtilcon.a::tgsComboBox.o {
	NAME Object file tgsComboBox.o from archive libtilcon.a
	EXPORTS _ZTV10TException _ZTV17TChildrenDelegate _ZTV9TComboBox _ZTVN7_TEventI10EventParamE15THandlerAdaptorE _ZTVN7_TEventI10EventParamE17MemberFuncHandlerI9TComboBoxEE _ZTI10TException _ZTI17TChildrenDelegate _ZTIN7_TEventI10EventParamE15THandlerAdaptorE _ZTIN7_TEventI10EventParamE17MemberFuncHandlerI9TComboBoxEE _ZTI9TComboBox _ZTS10TException _ZTS17TChildrenDelegate _ZTSN7_TEventI10EventParamE15THandlerAdaptorE _ZTSN7_TEventI10EventParamE17MemberFuncHandlerI9TComboBoxEE _ZTS9TComboBox _ZN10TExceptionD1Ev _ZN10TExceptionD0Ev _ZN6TColorC1Ej _ZN6TColorC1ERKS_ _ZN8TWStringC1EPKw _ZN6_TRectIiEC1ERKS0_ _ZNK6_TRectIiE6AdjustERK8_TMarginIiE _ZNK6_TRectIiEmiERK7_TPointIiE _ZN10TNodeArrayC1EiiiiP14TEventDelegatei _ZN7_TEventI10EventParamE10SetHandlerI9TComboBoxEEvPT_NS1_17MemberFuncHandlerIS4_E8FuncTypeE _ZN7_TEventI10EventParamE15THandlerAdaptorD1Ev _ZN7_TEventI10EventParamE15THandlerAdaptorD0Ev _ZN7_TEventI10EventParamE17MemberFuncHandlerI9TComboBoxED1Ev _ZN7_TEventI10EventParamE17MemberFuncHandlerI9TComboBoxED0Ev _ZNK7_TEventI10EventParamE17MemberFuncHandlerI9TComboBoxE6InvokeERS0_ _ZN7_TEventI10EventParamE17MemberFuncHandlerI9TComboBoxE3dupEv _ZN13TCustomVisualC1Ev _ZN13TCustomVisualC1ERKS_ _ZN13TCustomVisualD1Ev _ZN13TCustomVisualaSERKS_ _ZN12TextPropertyC1ERKS_ _ZN12TextPropertyaSERKS_ _ZN8_TMarginIiEC1ERKS0_ _ZNK8_TMarginIiEneERKS0_ _ZNK6TArrayIN11TGridLayout10LayoutInfoEEixEi _ZN11TGridLayout13SetColumnSizeEiNS_12LayoutMethodEi _ZN9TComboBox11SetPropertyERKNS_8PropertyE _ZN9TComboBox8PropertyC1Ev _ZN9TComboBox8PropertyD1Ev _ZN9TComboBox8PropertyC1ERKS0_ _ZN9TComboBoxC1Eiiii _ZN9TComboBoxC2Eiiii _ZN9TComboBoxD1Ev _ZN9TComboBoxD0Ev _ZN9TComboBoxD2Ev _ZNK9TComboBox11GetPropertyEv _ZN9TComboBox12SetSelectionEi _ZN9TComboBox13ResizeHandlerER10EventParam _ZN9TComboBox13CloseDropdownEv _ZN9TComboBox12MouseHandlerER10EventParam _ZN9TComboBox13DetachHandlerER10EventParam _ZN9TComboBox12OpenDropdownEv _ZN9TComboBox11NodeHandlerER10EventParam _ZN9TComboBox16ItemClickHandlerER10EventParam _ZN9TComboBox8PropertyC2Ev _ZN9TComboBox8PropertyD2Ev
	IMPORTS _ZTVSt9exception _ZTVSt13bad_exception _ZTVSt9bad_alloc _ZTV6TImage _ZTV14TEventDelegate _ZTV6TArrayIP5TNodeE _ZTV6TArrayI9ColorStopE _ZTI14TEventDelegate _ZTI6TArrayIP5TNodeE _ZTI6TImage _ZTI6TArrayI9ColorStopE _ZTISt9exception _ZTISt13bad_exception _ZTISt9bad_alloc _ZTS14TEventDelegate _ZTS6TArrayIP5TNodeE _ZTS6TImage _ZTS6TArrayI9ColorStopE _ZTSSt9exception _ZTSSt13bad_exception _ZTSSt9bad_alloc _ZdlPv __frameinfo_used __cxa_allocate_exception __cxa_throw _Znaj memcpy _ZN5TNodeC2EiiiiP14TEventDelegateP17TChildrenDelegate _ZTV10TNodeArray memset _ZN5TNodeD2Ev __diab_Unwind_Resume __diab_personality_v0 _Znwj _ZN11TCustomFillC1Ev _ZN11TCustomFillD1Ev _ZN11TCustomFillC1ERKS_ _ZN11TCustomFillaSERKS_ _ZTV5TFont _ZN5TFontaSERKS_ _ZNK8TListBox11GetPropertyEv _ZN5TNode18OnChildBoundChangeEP8TControl _ZN5TNode8OnResizeEv _ZN5TNode6UpdateEv _ZN8TListBox11SetPropertyERKNS_8PropertyE _ZN8TListBox8PropertyD1Ev _ZN15ControlPropertyC2E11ControlType _ZN5TFontC1Ev _ZN5TFontD1Ev _ZN15ControlPropertyD2Ev _ZN8TControlC2EiiiiR5TNode _ZN8TListBoxC1Eiiiii _ZN7TWindowC1EiiiiPS_NS_12WindowSizingENS_10WindowTypeE _ZN7TVisualC1E9FrameType _ZN11TGridLayoutC1Eii _ZTV18TNodeEventDelegate _ZN9TEditNodeC1EiiiiR8_TMarginIiER7TVisualR12TextPropertyRK8TWString _ZdaPv _ZN15TPushButtonNodeC1EiiiiR7TVisualR12TextProperty _ZN5TNode18SetVisualStateMaskEiiii _ZN5TNode11AddToParentEPS_ _ZN8TControl18SetAlignmentPolicyE19HorizontalAlignment17VerticalAlignment _ZN6TGroup10AddControlEP8TControli _ZN12TApplication8InstanceEv _ZNK12TApplication11GetPropertyE11ControlType _ZN15TPushButtonNodeD1Ev _ZN9TEditNodeD1Ev _ZN11TGridLayoutD1Ev _ZN7TVisualD1Ev _ZN7TWindowD1Ev _ZN8TListBoxD1Ev _ZN8TControlD2Ev _ZNK8TListBox11GetItemTextEii _ZN9TEditNode7SetTextERK8TWString _ZN11TGridLayout8DoLayoutERK6_TRectIiE _ZNK11TGridLayout11GetCellRectERK8GridCell _ZN5TNode12SetBoundRectERK6_TRectIiE _ZN7TWindow4HideEv _ZN5TNode19RemoveFromMouseHookEv _ZN7TWindow7DestroyEv _ZN7TWindow4ShowEi _ZNK5TNode14OffsetToScreenERK7_TPointIiE _ZN8TListBox19SetFixedColumnWidthEii _ZN8TListBox11ResetScrollEv _ZN7TWindow13SetWindowRectERK6_TRectIiE _ZN5TNode14AddToMouseHookEv _ZNK7TVisual4DrawER8TPainterRK11VisualStateRK6_TRectIiE __cxa_pure_virtual _ZTVN10__cxxabiv117__class_type_infoE _ZTVN10__cxxabiv120__si_class_type_infoE _ZTI8TControl
	DECLARES 
	USES 
}
Module tgsComboBox.o {
	OBJECT += libtilcon.a::tgsComboBox.o
}
ObjectFile libtilcon.a::tgsCustomControl.o {
	NAME Object file tgsCustomControl.o from archive libtilcon.a
	EXPORTS _ZTV14TEventDelegate _ZTV14TCustomControl _ZTI14TEventDelegate _ZTI14TCustomControl _ZTS14TEventDelegate _ZTS14TCustomControl _ZN14TCustomControlC1Eiiii _ZN14TCustomControlC2Eiiii _ZN14TCustomControlD1Ev _ZN14TCustomControlD0Ev _ZN14TCustomControlD2Ev _ZN14TCustomControl7OnEventER10EventParam _ZThn144_N14TCustomControl7OnEventER10EventParam
	IMPORTS _ZTVSt9exception _ZTVSt13bad_exception _ZTVSt9bad_alloc _ZTV10TException _ZTV17TChildrenDelegate _ZTV6TImage _ZTV6TArrayIP5TNodeE _ZTV6TArrayI9ColorStopE _ZTI10TException _ZTI17TChildrenDelegate _ZTI6TArrayIP5TNodeE _ZTI6TImage _ZTI6TArrayI9ColorStopE _ZTISt9exception _ZTISt13bad_exception _ZTISt9bad_alloc _ZTS10TException _ZTS17TChildrenDelegate _ZTS6TArrayIP5TNodeE _ZTS6TImage _ZTS6TArrayI9ColorStopE _ZTSSt9exception _ZTSSt13bad_exception _ZTSSt9bad_alloc __frameinfo_used _ZN8TControlC2EiiiiR5TNode _ZN5TNodeC1EiiiiP14TEventDelegateP17TChildrenDelegate _ZN8TControlD2Ev __diab_Unwind_Resume __diab_personality_v0 _ZN5TNodeD1Ev _ZdlPv memcpy __cxa_pure_virtual _ZTVN10__cxxabiv117__class_type_infoE _ZTVN10__cxxabiv121__vmi_class_type_infoE _ZTI8TControl
	DECLARES 
	USES 
}
Module tgsCustomControl.o {
	OBJECT += libtilcon.a::tgsCustomControl.o
}
ObjectFile libtilcon.a::tgsGroupBox.o {
	NAME Object file tgsGroupBox.o from archive libtilcon.a
	EXPORTS _ZTV17TChildrenDelegate _ZTV9TGroupBox _ZTVN7_TEventI10EventParamE15THandlerAdaptorE _ZTVN7_TEventI10EventParamE17MemberFuncHandlerI9TGroupBoxEE _ZTI17TChildrenDelegate _ZTIN7_TEventI10EventParamE15THandlerAdaptorE _ZTIN7_TEventI10EventParamE17MemberFuncHandlerI9TGroupBoxEE _ZTI9TGroupBox _ZTS17TChildrenDelegate _ZTSN7_TEventI10EventParamE15THandlerAdaptorE _ZTSN7_TEventI10EventParamE17MemberFuncHandlerI9TGroupBoxEE _ZTS9TGroupBox _ZN6TColorC1Ej _ZN6TColorC1ERKS_ _ZN8TWStringC1ERKS_ _ZN6_TRectIiEC1ERKS0_ _ZNK6_TRectIiE6AdjustERK8_TMarginIiE _ZNK6_TRectIiEmiERK7_TPointIiE _ZN10TNodeArrayC1EiiiiP14TEventDelegatei _ZN7_TEventI10EventParamE10SetHandlerI9TGroupBoxEEvPT_NS1_17MemberFuncHandlerIS4_E8FuncTypeE _ZN7_TEventI10EventParamE15THandlerAdaptorD1Ev _ZN7_TEventI10EventParamE15THandlerAdaptorD0Ev _ZN7_TEventI10EventParamE17MemberFuncHandlerI9TGroupBoxED1Ev _ZN7_TEventI10EventParamE17MemberFuncHandlerI9TGroupBoxED0Ev _ZNK7_TEventI10EventParamE17MemberFuncHandlerI9TGroupBoxE6InvokeERS0_ _ZN7_TEventI10EventParamE17MemberFuncHandlerI9TGroupBoxE3dupEv _ZN13TCustomVisualC1Ev _ZN13TCustomVisualC1ERKS_ _ZN13TCustomVisualD1Ev _ZN13TCustomVisualaSERKS_ _ZN12TextPropertyC1ERKS_ _ZN12TextPropertyaSERKS_ _ZN8_TMarginIiEC1ERKS0_ _ZNK8_TMarginIiEneERKS0_ _ZN9TGroupBox11SetPropertyERKNS_8PropertyE _ZN9TGroupBox8PropertyC1Ev _ZN9TGroupBox8PropertyD1Ev _ZN9TGroupBox8PropertyC1ERKS0_ _ZN9TGroupBoxC1EiiiiRK8TWString _ZN9TGroupBoxC2EiiiiRK8TWString _ZN9TGroupBoxD1Ev _ZN9TGroupBoxD0Ev _ZN9TGroupBoxD2Ev _ZNK9TGroupBox11GetPropertyEv _ZN9TGroupBox13ResizeHandlerER10EventParam _ZN9TGroupBox11NodeHandlerER10EventParam _ZN9TGroupBox8PropertyC2Ev _ZN9TGroupBox8PropertyD2Ev
	IMPORTS _ZTVSt9exception _ZTVSt13bad_exception _ZTVSt9bad_alloc _ZTV10TException _ZTV6TImage _ZTV14TEventDelegate _ZTV6TArrayIP5TNodeE _ZTV6TArrayI9ColorStopE _ZTI10TException _ZTI14TEventDelegate _ZTI6TArrayIP5TNodeE _ZTI6TImage _ZTI6TArrayI9ColorStopE _ZTISt9exception _ZTISt13bad_exception _ZTISt9bad_alloc _ZTS10TException _ZTS14TEventDelegate _ZTS6TArrayIP5TNodeE _ZTS6TImage _ZTS6TArrayI9ColorStopE _ZTSSt9exception _ZTSSt13bad_exception _ZTSSt9bad_alloc __frameinfo_used _Znaj memcpy _ZN5TNodeC2EiiiiP14TEventDelegateP17TChildrenDelegate _ZTV10TNodeArray memset _ZN5TNodeD2Ev __diab_Unwind_Resume __diab_personality_v0 _Znwj _ZdlPv _ZN11TCustomFillC1Ev _ZN11TCustomFillD1Ev _ZN11TCustomFillC1ERKS_ _ZN11TCustomFillaSERKS_ _ZTV5TFont _ZN5TFontaSERKS_ _ZN5TNode18OnChildBoundChangeEP8TControl _ZN5TNode8OnResizeEv _ZN5TNode6UpdateEv _ZN15ControlPropertyC2E11ControlType _ZN5TFontC1Ev _ZN15ControlPropertyD2Ev _ZN5TFontD1Ev _ZN8TControlC2EiiiiR5TNode _ZN7TVisualC1E9FrameType _ZTV18TNodeEventDelegate _ZN6TGroupC1Eiiii _ZN5TNode11AddToParentEPS_ _ZN12TApplication8InstanceEv _ZNK12TApplication11GetPropertyE11ControlType _ZN6TGroupD1Ev _ZN7TVisualD1Ev _ZdaPv _ZN8TControlD2Ev _ZN5TNode12SetBoundRectERK6_TRectIiE _ZNK7TVisual4DrawER8TPainterRK11VisualStateRK6_TRectIiE _ZN8TPainter11SetClipRectERK6_TRectIiE _ZN8TPainter13ClearClipRectEv _ZN8TPainter7SetFontERK5TFont _ZN8TPainter12SetTextColorERK6TColor _ZN8TPainter11DrawUCSTextERK8TWStringRK6_TRectIiE23TextHorizontalAlignment21TextVerticalAlignment __cxa_pure_virtual _ZTVN10__cxxabiv117__class_type_infoE _ZTVN10__cxxabiv120__si_class_type_infoE _ZTI8TControl
	DECLARES 
	USES 
}
Module tgsGroupBox.o {
	OBJECT += libtilcon.a::tgsGroupBox.o
}
ObjectFile libtilcon.a::tgsRowPanel.o {
	NAME Object file tgsRowPanel.o from archive libtilcon.a
	EXPORTS _ZTVN9TRowPanel19RowChildrenDelegateE _ZTV9TRowPanel _ZTVN7_TEventI10EventParamE15THandlerAdaptorE _ZTV6TArrayIP8TControlE _ZTVN7_TEventI10EventParamE17MemberFuncHandlerI9TRowPanelEE _ZTI17TChildrenDelegate _ZTIN7_TEventI10EventParamE15THandlerAdaptorE _ZTIN7_TEventI10EventParamE17MemberFuncHandlerI9TRowPanelEE _ZTI6TArrayIP8TControlE _ZTI9TRowPanel _ZTIN9TRowPanel19RowChildrenDelegateE _ZTS17TChildrenDelegate _ZTSN7_TEventI10EventParamE15THandlerAdaptorE _ZTSN7_TEventI10EventParamE17MemberFuncHandlerI9TRowPanelEE _ZTS6TArrayIP8TControlE _ZTS9TRowPanel _ZTSN9TRowPanel19RowChildrenDelegateE _ZN6_TRectIiEC1ERKS0_ _ZNK6_TRectIiE6AdjustERK8_TMarginIiE _ZNK6_TRectIiEmiERK7_TPointIiE _ZN7_TEventI10EventParamE10SetHandlerI9TRowPanelEEvPT_NS1_17MemberFuncHandlerIS4_E8FuncTypeE _ZN7_TEventI10EventParamE15THandlerAdaptorD1Ev _ZN7_TEventI10EventParamE15THandlerAdaptorD0Ev _ZN7_TEventI10EventParamE17MemberFuncHandlerI9TRowPanelED1Ev _ZN7_TEventI10EventParamE17MemberFuncHandlerI9TRowPanelED0Ev _ZNK7_TEventI10EventParamE17MemberFuncHandlerI9TRowPanelE6InvokeERS0_ _ZN7_TEventI10EventParamE17MemberFuncHandlerI9TRowPanelE3dupEv _ZN6TArrayIP8TControlED1Ev _ZN6TArrayIP8TControlED0Ev _ZN9TRowPanelC1Eiiii _ZN9TRowPanelC2Eiiii _ZN9TRowPanelD1Ev _ZN9TRowPanelD0Ev _ZN9TRowPanelD2Ev _ZN9TRowPanel10AddControlEP8TControli _ZN9TRowPanel15AddControlAtTopEP8TControl _ZN9TRowPanel18AddControlAtBottomEP8TControl _ZN9TRowPanel13RemoveControlEP8TControl _ZN9TRowPanel17RemoveAllControlsEv _ZNK9TRowPanel5CountEv _ZNK9TRowPanelixEi _ZNK9TRowPanel7IndexOfEPK8TControl _ZN9TRowPanel15UpdateRowLayoutERK6_TRectIiE _ZN9TRowPanel8OnResizeEv _ZN9TRowPanel18OnChildBoundChangeEP8TControl _ZN9TRowPanel10OnSizeHintERN5TNode18SizeHintEventParamE _ZN9TRowPanel11NodeHandlerER10EventParam _ZNK9TRowPanel19RowChildrenDelegate8GetCountEv _ZN9TRowPanel19RowChildrenDelegate7GetNodeEi
	IMPORTS _ZTVSt9exception _ZTVSt13bad_exception _ZTVSt9bad_alloc _ZTV10TException _ZTV17TChildrenDelegate _ZTV6TImage _ZTV14TEventDelegate _ZTV6TArrayIP5TNodeE _ZTV6TArrayI9ColorStopE _ZTI10TException _ZTI14TEventDelegate _ZTI6TArrayIP5TNodeE _ZTI6TImage _ZTI6TArrayI9ColorStopE _ZTISt9exception _ZTISt13bad_exception _ZTISt9bad_alloc _ZTS10TException _ZTS14TEventDelegate _ZTS6TArrayIP5TNodeE _ZTS6TImage _ZTS6TArrayI9ColorStopE _ZTSSt9exception _ZTSSt13bad_exception _ZTSSt9bad_alloc __frameinfo_used _Znwj __diab_Unwind_Resume __diab_personality_v0 _ZdlPv _ZdaPv _ZN8TControlC2EiiiiR5TNode _ZTV18TNodeEventDelegate _ZN5TNodeC1EiiiiP14TEventDelegateP17TChildrenDelegate _ZN5TNodeD1Ev _ZN8TControlD2Ev _ZN13TControlArray10AddControlEP8TControli _ZN5TNode11AddToParentEPS_ _ZN5TNode18OnChildBoundChangeEP8TControl _ZN5TNode8OnResizeEv _ZN5TNode6UpdateEv _ZNK13TControlArray7IndexOfEPK8TControl _ZN5TNode16RemoveFromParentEv _ZN13TControlArray13RemoveControlEP8TControl _ZNK13TControlArrayixEi _ZN13TControlArray17RemoveAllControlsEv _ZN8TControl13GetHintedSizeEv _ZN5TNode12SetBoundRectERK6_TRectIiE _ZNK7TVisual4DrawER8TPainterRK11VisualStateRK6_TRectIiE __cxa_pure_virtual _ZTVN10__cxxabiv117__class_type_infoE _ZTVN10__cxxabiv120__si_class_type_infoE _ZTI8TControl
	DECLARES 
	USES 
}
Module tgsRowPanel.o {
	OBJECT += libtilcon.a::tgsRowPanel.o
}
ObjectFile libtilcon.a::tgsGridPanel.o {
	NAME Object file tgsGridPanel.o from archive libtilcon.a
	EXPORTS _ZTV10TException _ZTV10TGridPanel _ZTVN10TGridPanel20GridChildrenDelegateE _ZTVN7_TEventI10EventParamE15THandlerAdaptorE _ZTV6TArrayIN10TGridPanel8GridUnitEE _ZTVN7_TEventI10EventParamE17MemberFuncHandlerI10TGridPanelEE _ZTI10TException _ZTI17TChildrenDelegate _ZTIN7_TEventI10EventParamE15THandlerAdaptorE _ZTIN7_TEventI10EventParamE17MemberFuncHandlerI10TGridPanelEE _ZTI6TArrayIN10TGridPanel8GridUnitEE _ZTI10TGridPanel _ZTIN10TGridPanel20GridChildrenDelegateE _ZTS10TException _ZTS17TChildrenDelegate _ZTSN7_TEventI10EventParamE15THandlerAdaptorE _ZTSN7_TEventI10EventParamE17MemberFuncHandlerI10TGridPanelEE _ZTS6TArrayIN10TGridPanel8GridUnitEE _ZTS10TGridPanel _ZTSN10TGridPanel20GridChildrenDelegateE _ZN10TExceptionD1Ev _ZN10TExceptionD0Ev _ZN6_TRectIiEC1Ev _ZN6_TRectIiEC1ERKS0_ _ZNK6_TRectIiE6AdjustERK8_TMarginIiE _ZNK6_TRectIiEmiERK7_TPointIiE _ZN7_TEventI10EventParamE10SetHandlerI10TGridPanelEEvPT_NS1_17MemberFuncHandlerIS4_E8FuncTypeE _ZN7_TEventI10EventParamE15THandlerAdaptorD1Ev _ZN7_TEventI10EventParamE15THandlerAdaptorD0Ev _ZN7_TEventI10EventParamE17MemberFuncHandlerI10TGridPanelED1Ev _ZN7_TEventI10EventParamE17MemberFuncHandlerI10TGridPanelED0Ev _ZNK7_TEventI10EventParamE17MemberFuncHandlerI10TGridPanelE6InvokeERS0_ _ZN7_TEventI10EventParamE17MemberFuncHandlerI10TGridPanelE3dupEv _ZN6TArrayIN10TGridPanel8GridUnitEED1Ev _ZN10TGridPanel8GridUnitD1Ev _ZN6TArrayIN10TGridPanel8GridUnitEED0Ev _ZN6TArrayIN10TGridPanel8GridUnitEE13RoundCapacityEi _ZN6TArrayIN10TGridPanel8GridUnitEE8ExpandAtEii _ZN10TGridPanel8GridUnitC1Ev _ZN6TArrayIN10TGridPanel8GridUnitEE8InsertAtEiRKS1_ _ZN6TArrayIN10TGridPanel8GridUnitEE8ShrinkAtEii _ZN6TArrayIN10TGridPanel8GridUnitEE8RemoveAtEi _ZN6TArrayIN10TGridPanel8GridUnitEE5ClearEv _ZNK6TArrayIN10TGridPanel8GridUnitEEixEi _ZN10TGridPanelC1Eiiiiii _ZN10TGridPanelC2Eiiiiii _ZN10TGridPanelD1Ev _ZN10TGridPanelD0Ev _ZN10TGridPanelD2Ev _ZN10TGridPanel10AddControlEP8TControliRK8GridCell _ZN10TGridPanel15AddControlAtTopEP8TControlRK8GridCell _ZN10TGridPanel18AddControlAtBottomEP8TControlRK8GridCell _ZN10TGridPanel13RemoveControlEP8TControl _ZN10TGridPanel17RemoveAllControlsEv _ZNK10TGridPanel7IndexOfEPK8TControl _ZN10TGridPanel16SetChildGridCellEP8TControlRK8GridCell _ZN10TGridPanel8OnResizeEv _ZN10TGridPanel11NodeHandlerER10EventParam _ZN10TGridPanel18OnChildBoundChangeEP8TControl _ZNK10TGridPanel20GridChildrenDelegate8GetCountEv _ZN10TGridPanel20GridChildrenDelegate7GetNodeEi
	IMPORTS _ZTVSt9exception _ZTVSt13bad_exception _ZTVSt9bad_alloc _ZTV17TChildrenDelegate _ZTV6TImage _ZTV14TEventDelegate _ZTV6TArrayIP5TNodeE _ZTV6TArrayI9ColorStopE _ZTI14TEventDelegate _ZTI6TArrayIP5TNodeE _ZTI6TImage _ZTI6TArrayI9ColorStopE _ZTISt9exception _ZTISt13bad_exception _ZTISt9bad_alloc _ZTS14TEventDelegate _ZTS6TArrayIP5TNodeE _ZTS6TImage _ZTS6TArrayI9ColorStopE _ZTSSt9exception _ZTSSt13bad_exception _ZTSSt9bad_alloc _ZdlPv _ZN6_TRectIiE8nullRectE __frameinfo_used _Znwj __diab_Unwind_Resume __diab_personality_v0 __cxa_vec_delete _Znaj _ZdaPv __cxa_vec_new2 __cxa_allocate_exception __cxa_throw _ZN8TControlC2EiiiiR5TNode _ZTV18TNodeEventDelegate _ZN5TNodeC1EiiiiP14TEventDelegateP17TChildrenDelegate _ZN11TGridLayoutC1Eii _ZN11TGridLayoutD1Ev _ZN5TNodeD1Ev _ZN8TControlD2Ev _ZNK11TGridLayout11GetCellRectERK8GridCell _ZN5TNode11AddToParentEPS_ _ZN5TNode12SetBoundRectERK6_TRectIiE _ZN5TNode16RemoveFromParentEv _ZN11TGridLayout8DoLayoutERK6_TRectIiE _ZNK7TVisual4DrawER8TPainterRK11VisualStateRK6_TRectIiE __cxa_pure_virtual _ZTVN10__cxxabiv117__class_type_infoE _ZTVN10__cxxabiv120__si_class_type_infoE _ZTI8TControl
	DECLARES 
	USES 
}
Module tgsGridPanel.o {
	OBJECT += libtilcon.a::tgsGridPanel.o
}
ObjectFile libtilcon.a::tgsListBox.o {
	NAME Object file tgsListBox.o from archive libtilcon.a
	EXPORTS _ZTV10TException _ZTV17TChildrenDelegate _ZTV8TListBox _ZTVN7_TEventI10EventParamE15THandlerAdaptorE _ZTV6TArrayIP8TWStringE _ZTVN7_TEventI10EventParamE17MemberFuncHandlerI8TListBoxEE _ZTI10TException _ZTI17TChildrenDelegate _ZTIN7_TEventI10EventParamE15THandlerAdaptorE _ZTIN7_TEventI10EventParamE17MemberFuncHandlerI8TListBoxEE _ZTI6TArrayIP8TWStringE _ZTI8TListBox _ZTS10TException _ZTS17TChildrenDelegate _ZTSN7_TEventI10EventParamE15THandlerAdaptorE _ZTSN7_TEventI10EventParamE17MemberFuncHandlerI8TListBoxEE _ZTS6TArrayIP8TWStringE _ZTS8TListBox _ZN10TExceptionD1Ev _ZN10TExceptionD0Ev _ZN6TColorC1Ej _ZN6TColorC1ERKS_ _ZN8TWStringC1Ev _ZN8TWStringD1Ev _ZN8TWStringaSERKS_ _ZN6_TRectIiEC1Ev _ZN6_TRectIiEC1ERKS0_ _ZNK6_TRectIiE6AdjustERK8_TMarginIiE _ZNK6_TRectIiEmiERK7_TPointIiE _ZN10TNodeArrayC1EiiiiP14TEventDelegatei _ZN7_TEventI10EventParamE10SetHandlerI8TListBoxEEvPT_NS1_17MemberFuncHandlerIS4_E8FuncTypeE _ZN7_TEventI10EventParamE15THandlerAdaptorD1Ev _ZN7_TEventI10EventParamE15THandlerAdaptorD0Ev _ZN7_TEventI10EventParamE17MemberFuncHandlerI8TListBoxED1Ev _ZN7_TEventI10EventParamE17MemberFuncHandlerI8TListBoxED0Ev _ZNK7_TEventI10EventParamE17MemberFuncHandlerI8TListBoxE6InvokeERS0_ _ZN7_TEventI10EventParamE17MemberFuncHandlerI8TListBoxE3dupEv _ZN8TPainter8DrawLineEiiii _ZN13TCustomVisualC1Ev _ZN13TCustomVisualC1ERKS_ _ZN13TCustomVisualD1Ev _ZN13TCustomVisualaSERKS_ _ZN12TextPropertyC1ERKS_ _ZN12TextPropertyaSERKS_ _ZN8_TMarginIiEC1ERKS0_ _ZNK8_TMarginIiEneERKS0_ _ZN14TScrollBarPair20SetScrollBarPairDataERK6_TSizeIiES3_RK7_TPointIiE _ZN6TArrayIP8TWStringED1Ev _ZN6TArrayIP8TWStringED0Ev _ZN6TArrayIP8TWStringE13RoundCapacityEi _ZN6TArrayIP8TWStringE8ExpandAtEii _ZN6TArrayIP8TWStringE8InsertAtEiRKS1_ _ZN6TArrayIP8TWStringE8ShrinkAtEii _ZN6TArrayIP8TWStringE8RemoveAtEii _ZN6TArrayIP8TWStringE5ClearEv _ZNK6TArrayIP8TWStringEixEi _ZN8TListBox11SetPropertyERKNS_8PropertyE _ZN8TListBox8PropertyC1Ev _ZN8TListBox8PropertyD1Ev _ZN8TListBox8PropertyC1ERKS0_ _ZN8TListBoxC1Eiiiii _ZN8TListBox13ColHeaderInfoD1Ev _ZN8TListBox13ColHeaderInfoC1Ev _ZN8TListBoxC2Eiiiii _ZN8TListBox9ClearRowsEv _ZN8TListBoxD1Ev _ZN8TListBoxD0Ev _ZN8TListBoxD2Ev _ZNK8TListBox11GetPropertyEv _ZN8TListBox11ResetScrollEv _ZN8TListBox11ScrollToRowEi _ZN8TListBox6AddRowERK8TWStringi _ZN8TListBox9RemoveRowEii _ZN8TListBox11SetItemTextEiiRK8TWString _ZNK8TListBox11GetItemTextEii _ZN8TListBox19SetColumnHeaderTextEiRK8TWString _ZNK8TListBox19GetColumnHeaderTextEi _ZN8TListBox19SetFixedColumnWidthEii _ZNK8TListBox19GetFixedColumnWidthEi _ZN8TListBox24SetProportionColumnWidthEij _ZNK8TListBox24GetProportionColumnWidthEi _ZNK8TListBox20GetActualColumnWidthEi _ZN8TListBox16UpdateViewLayoutERK6_TSizeIiE _ZN8TListBox19ClientResizeHandlerER10EventParam _ZN8TListBox8DrawListER8TPainter _ZN8TListBox16ListPaintHandlerER10EventParam _ZN8TListBox16ListMouseHandlerER10EventParam _ZN8TListBox10DrawHeaderER8TPainter _ZN8TListBox18HeaderPaintHandlerER10EventParam _ZN8TListBox18HeaderMouseHandlerER10EventParam _ZN8TListBox11NodeHandlerER10EventParam _ZN8TListBox26ScrollContentChangeHandlerER10EventParam _ZN8TListBox22ScrollBarChangeHandlerER10EventParam _ZN8TListBox14HScrollHandlerER10EventParam _ZN8TListBox14VScrollHandlerER10EventParam _ZN8TListBox16GainFocusHandlerER10EventParam _ZN8TListBox16LoseFocusHandlerER10EventParam _ZN8TListBox17MouseLeaveHandlerER10EventParam _ZN8TListBox28TScrollViewportResizeHandlerER10EventParam _ZN8TListBox8PropertyC2Ev _ZN8TListBox8PropertyD2Ev
	IMPORTS _ZTVSt9exception _ZTVSt13bad_exception _ZTVSt9bad_alloc _ZTV6TImage _ZTV14TEventDelegate _ZTV6TArrayIP5TNodeE _ZTV6TArrayI9ColorStopE _ZTI14TEventDelegate _ZTI6TArrayIP5TNodeE _ZTI6TImage _ZTI6TArrayI9ColorStopE _ZTISt9exception _ZTISt13bad_exception _ZTISt9bad_alloc _ZTS14TEventDelegate _ZTS6TArrayIP5TNodeE _ZTS6TImage _ZTS6TArrayI9ColorStopE _ZTSSt9exception _ZTSSt13bad_exception _ZTSSt9bad_alloc _ZdlPv __frameinfo_used _Znaj _ZdaPv memcpy _ZN6_TRectIiE8nullRectE _ZN5TNodeC2EiiiiP14TEventDelegateP17TChildrenDelegate _ZTV10TNodeArray memset _ZN5TNodeD2Ev __diab_Unwind_Resume __diab_personality_v0 _Znwj _ZN8TPainter8DrawLineERK7_TPointIiES3_ _ZN11TCustomFillC1Ev _ZN11TCustomFillD1Ev _ZN11TCustomFillC1ERKS_ _ZN11TCustomFillaSERKS_ _ZTV5TFont _ZN5TFontaSERKS_ _ZN14TScrollBarNode13SetScrollDataEiii __cxa_allocate_exception __cxa_throw _ZN5TNode18OnChildBoundChangeEP8TControl _ZN5TNode8OnResizeEv _ZN5TNode6UpdateEv _ZN15ControlPropertyC2E11ControlType _ZN5TFontC1Ev _ZN15ControlPropertyD2Ev _ZN5TFontD1Ev _ZN8TControlC2EiiiiR5TNode _ZN13TScrollHelperC1ERK6_TSizeIiES3_ __cxa_vec_new2 _ZN7TVisualC1E9FrameType _ZTV18TNodeEventDelegate _ZN14TScrollBarPairC1EiiiiR8_TMarginIiER7TVisualR12TextProperty _ZN5TNodeC1EiiiiP14TEventDelegateP17TChildrenDelegate _ZN14TScrollBarNode11SetStepSizeEi _ZN5TNode11AddToParentEPS_ _ZN12TApplication8InstanceEv _ZNK12TApplication11GetPropertyE11ControlType _ZN5TNodeD1Ev _ZN14TScrollBarPairD1Ev _ZN7TVisualD1Ev _ZN13TScrollHelperD1Ev _ZN8TControlD2Ev __cxa_vec_delete _ZN14TScrollBarPair12UpdateLayoutEv _ZN13TScrollHelper9XScrollToEiP7_TEventI10EventParamE _ZN13TScrollHelper9YScrollToEiP7_TEventI10EventParamE _ZNK5TFont10GetMetricsER11FontMetrics __div32 _ZNK5TFont12GetTextWidthEPKwj _ZN5TNode12SetBoundRectERK6_TRectIiE _ZN13TScrollHelper7SetInfoERK6_TSizeIiES3_RK7_TPointIiEP7_TEventI10EventParamE _ZNK7TVisual4DrawER8TPainterRK11VisualStateRK6_TRectIiE _ZN8TPainter6SetPenERK4TPen _ZN12TPixelBufferC1Ev _ZN8TPainter8SetBrushERK6TBrush _ZN12TPixelBufferD1Ev _ZN8TPainter8FillRectERK6_TRectIiE _ZN8TPainter11SetClipRectERK6_TRectIiE _ZN8TPainter7SetFontERK5TFont _ZN8TPainter12SetTextColorERK6TColor _ZN8TPainter11DrawUCSTextERK8TWStringRK6_TRectIiE23TextHorizontalAlignment21TextVerticalAlignment _ZN8TPainter13ClearClipRectEv _ZN5TNode16SetBoundPositionERK7_TPointIiE __cxa_pure_virtual _ZTVN10__cxxabiv117__class_type_infoE _ZTVN10__cxxabiv120__si_class_type_infoE _ZTI8TControl
	DECLARES 
	USES 
}
Module tgsListBox.o {
	OBJECT += libtilcon.a::tgsListBox.o
}
ObjectFile libtilcon.a::tgsPicture.o {
	NAME Object file tgsPicture.o from archive libtilcon.a
	EXPORTS _ZTV6TImage _ZTV8TPicture _ZTVN7_TEventI10EventParamE15THandlerAdaptorE _ZTVN7_TEventI10EventParamE17MemberFuncHandlerI8TPictureEE _ZTIN7_TEventI10EventParamE15THandlerAdaptorE _ZTIN7_TEventI10EventParamE17MemberFuncHandlerI8TPictureEE _ZTI6TImage _ZTI8TPicture _ZTSN7_TEventI10EventParamE15THandlerAdaptorE _ZTSN7_TEventI10EventParamE17MemberFuncHandlerI8TPictureEE _ZTS6TImage _ZTS8TPicture _ZNK6_TRectIiE6AdjustERK8_TMarginIiE _ZNK6_TRectIiEmiERK7_TPointIiE _ZN7_TEventI10EventParamE10SetHandlerI8TPictureEEvPT_NS1_17MemberFuncHandlerIS4_E8FuncTypeE _ZN7_TEventI10EventParamE15THandlerAdaptorD1Ev _ZN7_TEventI10EventParamE15THandlerAdaptorD0Ev _ZN7_TEventI10EventParamE17MemberFuncHandlerI8TPictureED1Ev _ZN7_TEventI10EventParamE17MemberFuncHandlerI8TPictureED0Ev _ZNK7_TEventI10EventParamE17MemberFuncHandlerI8TPictureE6InvokeERS0_ _ZN7_TEventI10EventParamE17MemberFuncHandlerI8TPictureE3dupEv _ZNK10TSharedPtrI9ImageDataE5DerefEv _ZN10TSharedPtrI9ImageDataEaSERKS1_ _ZN6TImageD1Ev _ZN6TImageD0Ev _ZNK8_TMarginIiEneERKS0_ _ZN8TPictureC1EiiiiRK6TImage _ZN8TPictureC2EiiiiRK6TImage _ZN8TPictureD1Ev _ZN8TPictureD0Ev _ZN8TPictureD2Ev _ZN8TPicture8SetImageERK6TImage _ZNK8TPicture8GetImageEv _ZN8TPicture12PaintHandlerER10EventParam _ZN8TPicture11NodeHandlerER10EventParam
	IMPORTS _ZTVSt9exception _ZTVSt13bad_exception _ZTVSt9bad_alloc _ZTV10TException _ZTV17TChildrenDelegate _ZTV14TEventDelegate _ZTV6TArrayIP5TNodeE _ZTV6TArrayI9ColorStopE _ZTI10TException _ZTI14TEventDelegate _ZTI17TChildrenDelegate _ZTI6TArrayIP5TNodeE _ZTI6TArrayI9ColorStopE _ZTISt9exception _ZTISt13bad_exception _ZTISt9bad_alloc _ZTS10TException _ZTS14TEventDelegate _ZTS17TChildrenDelegate _ZTS6TArrayIP5TNodeE _ZTS6TArrayI9ColorStopE _ZTSSt9exception _ZTSSt13bad_exception _ZTSSt9bad_alloc __frameinfo_used _Znwj __diab_Unwind_Resume __diab_personality_v0 _ZdlPv _ZN9ImageDataD1Ev _ZN8TControlC2EiiiiR5TNode _ZTV18TNodeEventDelegate _ZN5TNodeC1EiiiiP14TEventDelegateP17TChildrenDelegate _ZN5TNode6UpdateEv _ZN5TNode18OnChildBoundChangeEP8TControl _ZN5TNode8OnResizeEv _ZN5TNodeD1Ev _ZN8TControlD2Ev _ZNK7TVisual4DrawER8TPainterRK11VisualStateRK6_TRectIiE _ZN8TPainter9DrawImageERK6TImageii __cxa_pure_virtual _ZTVN10__cxxabiv117__class_type_infoE _ZTVN10__cxxabiv120__si_class_type_infoE _ZTI8TControl
	DECLARES 
	USES 
}
Module tgsPicture.o {
	OBJECT += libtilcon.a::tgsPicture.o
}
ObjectFile libtilcon.a::tgsProgressBar.o {
	NAME Object file tgsProgressBar.o from archive libtilcon.a
	EXPORTS _ZTV12TProgressBar _ZTVN7_TEventI10EventParamE15THandlerAdaptorE _ZTVN7_TEventI10EventParamE17MemberFuncHandlerI12TProgressBarEE _ZTIN7_TEventI10EventParamE15THandlerAdaptorE _ZTIN7_TEventI10EventParamE17MemberFuncHandlerI12TProgressBarEE _ZTI12TProgressBar _ZTSN7_TEventI10EventParamE15THandlerAdaptorE _ZTSN7_TEventI10EventParamE17MemberFuncHandlerI12TProgressBarEE _ZTS12TProgressBar _ZN6TColorC1Ej _ZN6TColorC1ERKS_ _ZN6_TRectIiEC1Ev _ZN6_TRectIiEC1ERKS0_ _ZNK6_TRectIiE6AdjustERK8_TMarginIiE _ZNK6_TRectIiEplERK7_TPointIiE _ZNK6_TRectIiEmiERK7_TPointIiE _ZNK6_TRectIiE9IntersectERKS0_ _ZN7_TEventI10EventParamE10SetHandlerI12TProgressBarEEvPT_NS1_17MemberFuncHandlerIS4_E8FuncTypeE _ZN7_TEventI10EventParamE15THandlerAdaptorD1Ev _ZN7_TEventI10EventParamE15THandlerAdaptorD0Ev _ZN7_TEventI10EventParamE17MemberFuncHandlerI12TProgressBarED1Ev _ZN7_TEventI10EventParamE17MemberFuncHandlerI12TProgressBarED0Ev _ZNK7_TEventI10EventParamE17MemberFuncHandlerI12TProgressBarE6InvokeERS0_ _ZN7_TEventI10EventParamE17MemberFuncHandlerI12TProgressBarE3dupEv _ZN13TCustomVisualC1Ev _ZN13TCustomVisualC1ERKS_ _ZN13TCustomVisualD1Ev _ZN13TCustomVisualaSERKS_ _ZN12TextPropertyC1ERKS_ _ZN12TextPropertyaSERKS_ _ZN8_TMarginIiEC1ERKS0_ _ZNK8_TMarginIiEneERKS0_ _ZN12TProgressBar11SetPropertyERKNS_8PropertyE _ZN12TProgressBar8PropertyC1Ev _ZN12TProgressBar8PropertyD1Ev _ZN12TProgressBar8PropertyC1ERKS0_ _ZN12TProgressBarC1Eiiii15OrientationTypeiii _ZN12TProgressBarC2Eiiii15OrientationTypeiii _ZN12TProgressBarD1Ev _ZN12TProgressBarD0Ev _ZN12TProgressBarD2Ev _ZNK12TProgressBar11GetPropertyEv _ZN12TProgressBar14SetOrientationE15OrientationType _ZNK8_TLinearIiE5ClampEi _ZN12TProgressBar8SetRangeEii _ZN12TProgressBar14ChangeProgressEi _ZN12TProgressBar11SetProgressEi _ZN12TProgressBar15DrawProgressBarER8TPainter _ZN12TProgressBar12PaintHandlerER10EventParam _ZN12TProgressBar11NodeHandlerER10EventParam _ZN12TProgressBar8PropertyC2Ev _ZN12TProgressBar8PropertyD2Ev
	IMPORTS _ZTVSt9exception _ZTVSt13bad_exception _ZTVSt9bad_alloc _ZTV10TException _ZTV17TChildrenDelegate _ZTV6TImage _ZTV14TEventDelegate _ZTV6TArrayIP5TNodeE _ZTV6TArrayI9ColorStopE _ZTI10TException _ZTI14TEventDelegate _ZTI17TChildrenDelegate _ZTI6TArrayIP5TNodeE _ZTI6TImage _ZTI6TArrayI9ColorStopE _ZTISt9exception _ZTISt13bad_exception _ZTISt9bad_alloc _ZTS10TException _ZTS14TEventDelegate _ZTS17TChildrenDelegate _ZTS6TArrayIP5TNodeE _ZTS6TImage _ZTS6TArrayI9ColorStopE _ZTSSt9exception _ZTSSt13bad_exception _ZTSSt9bad_alloc _ZN6_TRectIiE8nullRectE __frameinfo_used _Znwj __diab_Unwind_Resume __diab_personality_v0 _ZdlPv _ZN11TCustomFillC1Ev _ZN11TCustomFillD1Ev _ZN11TCustomFillC1ERKS_ _ZN11TCustomFillaSERKS_ _ZTV5TFont _ZN5TFontaSERKS_ _ZN5TNode18OnChildBoundChangeEP8TControl _ZN5TNode8OnResizeEv _ZN5TNode6UpdateEv _ZN15ControlPropertyC2E11ControlType _ZN5TFontC1Ev _ZN5TFontD1Ev _ZN15ControlPropertyD2Ev _ZN8TControlC2EiiiiR5TNode _ZTV18TNodeEventDelegate _ZN5TNodeC1EiiiiP14TEventDelegateP17TChildrenDelegate _ZN7TVisualC1E9FrameType _ZN12TApplication8InstanceEv _ZNK12TApplication11GetPropertyE11ControlType _ZN7TVisualD1Ev _ZN5TNodeD1Ev _ZN8TControlD2Ev _ZNK7TVisual4DrawER8TPainterRK11VisualStateRK6_TRectIiE __div32 _ZN8TPainter11SetClipRectERK6_TRectIiE _ZN8TPainter13ClearClipRectEv snprintf _Z10AnsiToWidePwPKci _ZN8TPainter12SetTextColorERK6TColor _ZN8TPainter7SetFontERK5TFont _ZN8TPainter11DrawUCSTextEPKwiRK6_TRectIiE23TextHorizontalAlignment21TextVerticalAlignment __cxa_pure_virtual _ZTVN10__cxxabiv117__class_type_infoE _ZTVN10__cxxabiv120__si_class_type_infoE _ZTI8TControl
	DECLARES 
	USES 
}
Module tgsProgressBar.o {
	OBJECT += libtilcon.a::tgsProgressBar.o
}
ObjectFile libtilcon.a::tgsRadioButton.o {
	NAME Object file tgsRadioButton.o from archive libtilcon.a
	EXPORTS _ZTV10TException _ZTV17TChildrenDelegate _ZTV12TRadioButton _ZTVN12TRadioButton10TRadioItemE _ZTV6TArrayIP5TNodeE _ZTVN7_TEventI10EventParamE15THandlerAdaptorE _ZTVN7_TEventI10EventParamE17MemberFuncHandlerI12TRadioButtonEE _ZTI10TException _ZTI17TChildrenDelegate _ZTI6TArrayIP5TNodeE _ZTIN7_TEventI10EventParamE15THandlerAdaptorE _ZTIN7_TEventI10EventParamE17MemberFuncHandlerI12TRadioButtonEE _ZTI12TRadioButton _ZTIN12TRadioButton10TRadioItemE _ZTS10TException _ZTS17TChildrenDelegate _ZTS6TArrayIP5TNodeE _ZTSN7_TEventI10EventParamE15THandlerAdaptorE _ZTSN7_TEventI10EventParamE17MemberFuncHandlerI12TRadioButtonEE _ZTS12TRadioButton _ZTSN12TRadioButton10TRadioItemE _ZN10TExceptionD1Ev _ZN10TExceptionD0Ev _ZN6TColorC1Ej _ZN6TColorC1ERKS_ _ZN8TWStringC1ERKS_ _ZN8TWStringaSERKS_ _ZN6_TRectIiEC1Ev _ZN6_TRectIiEC1ERKS0_ _ZNK6_TRectIiE6AdjustERK8_TMarginIiE _ZNK6_TRectIiEmiERK7_TPointIiE _ZN6_TRectIiEpLERK7_TPointIiE _ZN6TArrayIP5TNodeED1Ev _ZN6TArrayIP5TNodeED0Ev _ZN14TNodeContainerC1EiiiiP14TEventDelegate _ZN7_TEventI10EventParamE10SetHandlerI12TRadioButtonEEvPT_NS1_17MemberFuncHandlerIS4_E8FuncTypeE _ZN7_TEventI10EventParamE15THandlerAdaptorD1Ev _ZN7_TEventI10EventParamE15THandlerAdaptorD0Ev _ZN7_TEventI10EventParamE17MemberFuncHandlerI12TRadioButtonED1Ev _ZN7_TEventI10EventParamE17MemberFuncHandlerI12TRadioButtonED0Ev _ZNK7_TEventI10EventParamE17MemberFuncHandlerI12TRadioButtonE6InvokeERS0_ _ZN7_TEventI10EventParamE17MemberFuncHandlerI12TRadioButtonE3dupEv _ZN13TCustomVisualC1Ev _ZN13TCustomVisualC1ERKS_ _ZN13TCustomVisualD1Ev _ZN13TCustomVisualaSERKS_ _ZN12TextPropertyC1ERKS_ _ZN12TextPropertyaSERKS_ _ZN8_TMarginIiEC1ERKS0_ _ZNK8_TMarginIiEneERKS0_ _ZN12TRadioButton37SetUncheckedIndicatorVisualToAllItemsERK13TCustomVisual _ZN12TRadioButton35SetCheckedIndicatorVisualToAllItemsERK13TCustomVisual _ZN12TRadioButton33SetUncheckedFrameVisualToAllItemsERK13TCustomVisual _ZN12TRadioButton31SetCheckedFrameVisualToAllItemsERK13TCustomVisual _ZN12TRadioButton11SetPropertyERKNS_8PropertyE _ZN12TRadioButton8PropertyC1Ev _ZN12TRadioButton8PropertyD1Ev _ZN12TRadioButton8PropertyC1ERKS0_ _ZN12TRadioButtonC1Eiiii _ZN12TRadioButtonC2Eiiii _ZN12TRadioButton10ClearItemsEv _ZN12TRadioButtonD1Ev _ZN12TRadioButtonD0Ev _ZN12TRadioButtonD2Ev _ZNK12TRadioButton11GetPropertyEv _ZN12TRadioButton10TRadioItemC1EP14TEventDelegateRK8TWString _ZN12TRadioButton7AddItemERK8TWString _ZNK12TRadioButton12GetItemCountEv _ZNK12TRadioButton12GetSelectionEv _ZN12TRadioButton18ChangeSelectedItemEPNS_10TRadioItemE _ZN12TRadioButton15ChangeSelectionEi _ZN12TRadioButton15SetSelectedItemEPNS_10TRadioItemE _ZN12TRadioButton12SetSelectionEi _ZN12TRadioButton14SetItemsPerRowEi _ZN12TRadioButton27SetUncheckedIndicatorVisualEiRK13TCustomVisual _ZN12TRadioButton25SetCheckedIndicatorVisualEiRK13TCustomVisual _ZN12TRadioButton23SetUncheckedFrameVisualEiRK13TCustomVisual _ZN12TRadioButton21SetCheckedFrameVisualEiRK13TCustomVisual _ZN12TRadioButton11OnItemMouseERN5TNode15MouseEventParamE _ZN12TRadioButton8OnResizeERN5TNode16ResizeEventParamE _ZN12TRadioButton13DrawRadioItemER8TPainterPNS_10TRadioItemE _ZN12TRadioButton11NodeHandlerER10EventParam _ZN12TRadioButton8PropertyC2Ev _ZN12TRadioButton8PropertyD2Ev _ZN12TRadioButton10TRadioItemC2EP14TEventDelegateRK8TWString _ZN12TRadioButton10TRadioItemD1Ev _ZN12TRadioButton10TRadioItemD0Ev _ZN12TRadioButton10TRadioItemD2Ev _ZN12TRadioButton10TRadioItemaSERKS0_
	IMPORTS _ZTVSt9exception _ZTVSt13bad_exception _ZTVSt9bad_alloc _ZTV6TImage _ZTV14TEventDelegate _ZTV6TArrayI9ColorStopE _ZTI14TEventDelegate _ZTI6TImage _ZTI6TArrayI9ColorStopE _ZTISt9exception _ZTISt13bad_exception _ZTISt9bad_alloc _ZTS14TEventDelegate _ZTS6TImage _ZTS6TArrayI9ColorStopE _ZTSSt9exception _ZTSSt13bad_exception _ZTSSt9bad_alloc _ZdlPv __frameinfo_used _Znaj memcpy _ZdaPv _ZN6_TRectIiE8nullRectE _ZN5TNodeC2EiiiiP14TEventDelegateP17TChildrenDelegate _ZTV14TNodeContainer _Znwj __diab_Unwind_Resume __diab_personality_v0 _ZN11TCustomFillC1Ev _ZN11TCustomFillD1Ev _ZN11TCustomFillC1ERKS_ _ZN11TCustomFillaSERKS_ _ZTV5TFont _ZN5TFontaSERKS_ _ZNK14TNodeContainerixEi _ZN5TNode6UpdateEv _ZN5TNode18OnChildBoundChangeEP8TControl _ZN5TNode8OnResizeEv _ZN15ControlPropertyC2E11ControlType _ZN5TFontC1Ev _ZN15ControlPropertyD2Ev _ZN5TFontD1Ev _ZN8TControlC2EiiiiR5TNode _ZTV18TNodeEventDelegate _ZN12TApplication8InstanceEv _ZNK12TApplication11GetPropertyE11ControlType _ZN5TNodeD2Ev _ZN8TControlD2Ev _ZN14TNodeContainer11RemoveChildEP5TNode _ZN7TVisualC1E9FrameType _ZN5TNode18SetVisualStateMaskEiiii _ZN7TVisualD1Ev _ZN14TNodeContainer8AddChildEP5TNodei __cxa_allocate_exception __cxa_throw _ZN5TNode9SetActiveEi __div32 _ZN5TNode12SetBoundRectERK6_TRectIiE _ZNK7TVisual4DrawER8TPainterRK11VisualStateRK6_TRectIiE _ZN8TPainter11SetClipRectERK6_TRectIiE _ZN8TPainter12SetTextColorERK6TColor _ZN8TPainter7SetFontERK5TFont _ZN8TPainter11DrawUCSTextERK8TWStringRK6_TRectIiE23TextHorizontalAlignment21TextVerticalAlignment _ZN8TPainter13ClearClipRectEv _ZNK14TNodeContainer7IndexOfEPK5TNode __cxa_pure_virtual _ZTVN10__cxxabiv117__class_type_infoE _ZTVN10__cxxabiv120__si_class_type_infoE _ZTI8TControl _ZTI5TNode
	DECLARES 
	USES 
}
Module tgsRadioButton.o {
	OBJECT += libtilcon.a::tgsRadioButton.o
}
ObjectFile libtilcon.a::tgsScale.o {
	NAME Object file tgsScale.o from archive libtilcon.a
	EXPORTS _ZTV10TException _ZTV6TScale _ZTVN7_TEventI10EventParamE15THandlerAdaptorE _ZTV6TArrayI8TWStringE _ZTVN7_TEventI10EventParamE17MemberFuncHandlerI6TScaleEE _ZTI10TException _ZTIN7_TEventI10EventParamE15THandlerAdaptorE _ZTIN7_TEventI10EventParamE17MemberFuncHandlerI6TScaleEE _ZTI6TArrayI8TWStringE _ZTI6TScale _ZTS10TException _ZTSN7_TEventI10EventParamE15THandlerAdaptorE _ZTSN7_TEventI10EventParamE17MemberFuncHandlerI6TScaleEE _ZTS6TArrayI8TWStringE _ZTS6TScale _ZN10TExceptionD1Ev _ZN10TExceptionD0Ev _ZN6TColorC1Ej _ZN6TColorC1ERKS_ _ZN8TWStringC1Ev _ZN8TWStringC1ERK7TString _ZN8TWStringD1Ev _ZN8TWStringaSERKS_ _ZN7_TEventI10EventParamE10SetHandlerI6TScaleEEvPT_NS1_17MemberFuncHandlerIS4_E8FuncTypeE _ZN7_TEventI10EventParamE15THandlerAdaptorD1Ev _ZN7_TEventI10EventParamE15THandlerAdaptorD0Ev _ZN7_TEventI10EventParamE17MemberFuncHandlerI6TScaleED1Ev _ZN7_TEventI10EventParamE17MemberFuncHandlerI6TScaleED0Ev _ZNK7_TEventI10EventParamE17MemberFuncHandlerI6TScaleE6InvokeERS0_ _ZN7_TEventI10EventParamE17MemberFuncHandlerI6TScaleE3dupEv _ZN8TPainter8DrawLineEiiii _ZN12TextPropertyaSERKS_ _ZN6TArrayI8TWStringED1Ev _ZN6TArrayI8TWStringED0Ev _ZN6TArrayI8TWStringE13RoundCapacityEi _ZN6TArrayI8TWStringE8ExpandAtEii _ZN6TArrayI8TWStringE8InsertAtEiRKS0_ _ZN6TArrayI8TWStringE5ClearEv _ZNK6TArrayI8TWStringEixEi _ZN6TScale14GenerateLabelsERK8_TLinearIiERKNS_9ScaleInfoER6TArrayI8TWStringE _ZN6TScale9ScaleInfoaSERKS0_ _ZN6TScale12SetScaleInfoERKNS_9ScaleInfoE _ZN6TScale8SetRangeERK8_TLinearIiE _ZN6TScale9ScaleInfoC1Ev _ZN6TScaleC1Eiiii15OrientationType _ZN6TScaleC2Eiiii15OrientationType _ZN6TScaleD1Ev _ZN6TScaleD0Ev _ZN6TScaleD2Ev _ZN6TScale14GenerateLabelsERK8_TLinearIfERKNS_9ScaleInfoER6TArrayI8TWStringE _ZN6TScale10DrawXScaleER8TPainteriiiRKNS_9ScaleInfoERK6TArrayI8TWStringE _ZN6TScale10DrawYScaleER8TPainteriiiRKNS_9ScaleInfoERK6TArrayI8TWStringE _ZN6TScale8OnResizeERN5TNode16ResizeEventParamE _ZN6TScale7OnPaintERN5TNode15PaintEventParamE _ZN6TScale11NodeHandlerER10EventParam _ZN6TScale9ScaleInfoC2Ev
	IMPORTS _ZTVSt9exception _ZTVSt13bad_exception _ZTVSt9bad_alloc _ZTV17TChildrenDelegate _ZTV6TImage _ZTV14TEventDelegate _ZTV6TArrayIP5TNodeE _ZTV6TArrayI9ColorStopE _ZTI14TEventDelegate _ZTI17TChildrenDelegate _ZTI6TArrayIP5TNodeE _ZTI6TImage _ZTI6TArrayI9ColorStopE _ZTISt9exception _ZTISt13bad_exception _ZTISt9bad_alloc _ZTS14TEventDelegate _ZTS17TChildrenDelegate _ZTS6TArrayIP5TNodeE _ZTS6TImage _ZTS6TArrayI9ColorStopE _ZTSSt9exception _ZTSSt13bad_exception _ZTSSt9bad_alloc _ZdlPv __frameinfo_used _Znaj _ZdaPv memcpy _Znwj __diab_Unwind_Resume __diab_personality_v0 _ZN8TPainter8DrawLineERK7_TPointIiES3_ _ZN5TFontaSERKS_ __cxa_vec_delete __cxa_vec_new2 __cxa_allocate_exception __cxa_throw _ZN7TStringC1Ev __div32 _ZN7TString6FormatEiPKcz free _ZN5TFontC1Ev _ZN8TControlC2EiiiiR5TNode _ZTV18TNodeEventDelegate _ZN5TNodeC1EiiiiP14TEventDelegateP17TChildrenDelegate _ZN5TFontD1Ev _ZN5TNodeD1Ev _ZN8TControlD2Ev _ZNK5TFont10GetMetricsER11FontMetrics _ZN8TPainter6SetPenERK4TPen _ZN8TPainter12SetTextColorERK6TColor _ZN8TPainter7SetFontERK5TFont _ZN8TPainter11DrawUCSTextERK8TWStringRK6_TRectIiE23TextHorizontalAlignment21TextVerticalAlignment __cxa_pure_virtual _ZTVN10__cxxabiv117__class_type_infoE _ZTVN10__cxxabiv120__si_class_type_infoE _ZTI8TControl
	DECLARES 
	USES 
}
Module tgsScale.o {
	OBJECT += libtilcon.a::tgsScale.o
}
ObjectFile libtilcon.a::tgsScrollArea.o {
	NAME Object file tgsScrollArea.o from archive libtilcon.a
	EXPORTS _ZTV17TChildrenDelegate _ZTV11TScrollArea _ZTVN7_TEventI10EventParamE15THandlerAdaptorE _ZTVN7_TEventI10EventParamE17MemberFuncHandlerI11TScrollAreaEE _ZTI17TChildrenDelegate _ZTIN7_TEventI10EventParamE15THandlerAdaptorE _ZTIN7_TEventI10EventParamE17MemberFuncHandlerI11TScrollAreaEE _ZTI11TScrollArea _ZTS17TChildrenDelegate _ZTSN7_TEventI10EventParamE15THandlerAdaptorE _ZTSN7_TEventI10EventParamE17MemberFuncHandlerI11TScrollAreaEE _ZTS11TScrollArea _ZN6_TRectIiEC1ERKS0_ _ZN10TNodeArrayC1EiiiiP14TEventDelegatei _ZN7_TEventI10EventParamE10SetHandlerI11TScrollAreaEEvPT_NS1_17MemberFuncHandlerIS4_E8FuncTypeE _ZN7_TEventI10EventParamE15THandlerAdaptorD1Ev _ZN7_TEventI10EventParamE15THandlerAdaptorD0Ev _ZN7_TEventI10EventParamE17MemberFuncHandlerI11TScrollAreaED1Ev _ZN7_TEventI10EventParamE17MemberFuncHandlerI11TScrollAreaED0Ev _ZNK7_TEventI10EventParamE17MemberFuncHandlerI11TScrollAreaE6InvokeERS0_ _ZN7_TEventI10EventParamE17MemberFuncHandlerI11TScrollAreaE3dupEv _ZN13TCustomVisualC1Ev _ZN13TCustomVisualC1ERKS_ _ZN13TCustomVisualD1Ev _ZN13TCustomVisualaSERKS_ _ZNK8_TMarginIiEneERKS0_ _ZN14TScrollBarPair20SetScrollBarPairDataERK6_TSizeIiES3_RK7_TPointIiE _ZN11TScrollArea11SetPropertyERKNS_8PropertyE _ZN11TScrollArea8PropertyC1Ev _ZN11TScrollArea8PropertyD1Ev _ZN11TScrollArea8PropertyC1ERKS0_ _ZN11TScrollAreaC1Eiiiiii _ZN11TScrollAreaC2Eiiiiii _ZN11TScrollAreaD1Ev _ZN11TScrollAreaD0Ev _ZN11TScrollAreaD2Ev _ZNK11TScrollArea11GetPropertyEv _ZN11TScrollArea17SetScrollAreaSizeERK6_TSizeIiE _ZNK11TScrollArea17GetScrollAreaSizeEv _ZN11TScrollArea16SetScrollAreaPosERK7_TPointIiE _ZNK11TScrollArea16GetScrollAreaPosEv _ZN11TScrollArea21UpdateAfterSizeChangeEv _ZN11TScrollArea14HScrollHandlerER10EventParam _ZN11TScrollArea14VScrollHandlerER10EventParam _ZN11TScrollArea28TScrollViewportResizeHandlerER10EventParam _ZN11TScrollArea8PropertyC2Ev _ZN11TScrollArea8PropertyD2Ev
	IMPORTS _ZTVSt9exception _ZTVSt13bad_exception _ZTVSt9bad_alloc _ZTV10TException _ZTV6TImage _ZTV14TEventDelegate _ZTV6TArrayIP5TNodeE _ZTV6TArrayI9ColorStopE _ZTI10TException _ZTI14TEventDelegate _ZTI6TArrayIP5TNodeE _ZTI6TImage _ZTI6TArrayI9ColorStopE _ZTISt9exception _ZTISt13bad_exception _ZTISt9bad_alloc _ZTS10TException _ZTS14TEventDelegate _ZTS6TArrayIP5TNodeE _ZTS6TImage _ZTS6TArrayI9ColorStopE _ZTSSt9exception _ZTSSt13bad_exception _ZTSSt9bad_alloc __frameinfo_used _ZN5TNodeC2EiiiiP14TEventDelegateP17TChildrenDelegate _ZTV10TNodeArray _Znaj memset _ZN5TNodeD2Ev __diab_Unwind_Resume __diab_personality_v0 _Znwj _ZdlPv _ZN11TCustomFillC1Ev _ZN11TCustomFillD1Ev _ZN11TCustomFillC1ERKS_ _ZN11TCustomFillaSERKS_ _ZN14TScrollBarNode13SetScrollDataEiii _ZN5TNode8OnResizeEv _ZN5TNode6UpdateEv _ZN5TNode18OnChildBoundChangeEP8TControl _ZN15ControlPropertyC2E11ControlType _ZN15ControlPropertyD2Ev _ZN8TControlC2EiiiiR5TNode _ZN7TVisualC1E9FrameType _ZTV18TNodeEventDelegate _ZN6TPanelC1Eiiii _ZN14TScrollBarPairC1EiiiiR8_TMarginIiER7TVisualR12TextProperty _ZN5TNode12SetBoundRectERK6_TRectIiE _ZN5TNode11AddToParentEPS_ _ZN14TScrollBarNode11SetStepSizeEi _ZN12TApplication8InstanceEv _ZNK12TApplication11GetPropertyE11ControlType _ZN14TScrollBarPairD1Ev _ZN6TPanelD1Ev _ZN7TVisualD1Ev _ZN8TControlD2Ev _ZN5TNode12SetBoundSizeERK6_TSizeIiE _ZN14TScrollBarNode12SetScrollPosEi _ZN5TNode16SetBoundPositionERK7_TPointIiE __cxa_pure_virtual _ZTVN10__cxxabiv117__class_type_infoE _ZTVN10__cxxabiv120__si_class_type_infoE _ZTI8TControl
	DECLARES 
	USES 
}
Module tgsScrollArea.o {
	OBJECT += libtilcon.a::tgsScrollArea.o
}
ObjectFile libtilcon.a::tgsScrollBarPair.o {
	NAME Object file tgsScrollBarPair.o from archive libtilcon.a
	EXPORTS _ZTV17TChildrenDelegate _ZTV14TScrollBarPair _ZTVN7_TEventI10EventParamE15THandlerAdaptorE _ZTVN7_TEventI10EventParamE17MemberFuncHandlerI14TScrollBarPairEE _ZTI17TChildrenDelegate _ZTIN7_TEventI10EventParamE15THandlerAdaptorE _ZTIN7_TEventI10EventParamE17MemberFuncHandlerI14TScrollBarPairEE _ZTI14TScrollBarPair _ZTS17TChildrenDelegate _ZTSN7_TEventI10EventParamE15THandlerAdaptorE _ZTSN7_TEventI10EventParamE17MemberFuncHandlerI14TScrollBarPairEE _ZTS14TScrollBarPair _ZN6_TRectIiEC1Ev _ZN6_TRectIiEC1ERKS0_ _ZNK6_TRectIiE6AdjustERK8_TMarginIiE _ZNK6_TRectIiEmiERK7_TPointIiE _ZN10TNodeArrayC1EiiiiP14TEventDelegatei _ZN7_TEventI10EventParamE10SetHandlerI14TScrollBarPairEEvPT_NS1_17MemberFuncHandlerIS4_E8FuncTypeE _ZN7_TEventI10EventParamE15THandlerAdaptorD1Ev _ZN7_TEventI10EventParamE15THandlerAdaptorD0Ev _ZN7_TEventI10EventParamE17MemberFuncHandlerI14TScrollBarPairED1Ev _ZN7_TEventI10EventParamE17MemberFuncHandlerI14TScrollBarPairED0Ev _ZNK7_TEventI10EventParamE17MemberFuncHandlerI14TScrollBarPairE6InvokeERS0_ _ZN7_TEventI10EventParamE17MemberFuncHandlerI14TScrollBarPairE3dupEv _ZN14TScrollBarPairC1EiiiiR8_TMarginIiER7TVisualR12TextProperty _ZN14TScrollBarPairC2EiiiiR8_TMarginIiER7TVisualR12TextProperty _ZN14TScrollBarPairD1Ev _ZN14TScrollBarPairD0Ev _ZN14TScrollBarPairD2Ev _ZN14TScrollBarPair25UpdateScrollBarShowPolicyEv _ZN14TScrollBarPair12UpdateLayoutERK6_TSizeIiE _ZN14TScrollBarPair12UpdateLayoutEv _ZN14TScrollBarPair13ResizeHandlerER10EventParam _ZN14TScrollBarPair11NodeHandlerER10EventParam
	IMPORTS _ZTVSt9exception _ZTVSt13bad_exception _ZTVSt9bad_alloc _ZTV10TException _ZTV6TImage _ZTV14TEventDelegate _ZTV6TArrayIP5TNodeE _ZTV6TArrayI9ColorStopE _ZTI10TException _ZTI14TEventDelegate _ZTI6TArrayIP5TNodeE _ZTI6TImage _ZTI6TArrayI9ColorStopE _ZTISt9exception _ZTISt13bad_exception _ZTISt9bad_alloc _ZTS10TException _ZTS14TEventDelegate _ZTS6TArrayIP5TNodeE _ZTS6TImage _ZTS6TArrayI9ColorStopE _ZTSSt9exception _ZTSSt13bad_exception _ZTSSt9bad_alloc _ZN6_TRectIiE8nullRectE __frameinfo_used _ZN5TNodeC2EiiiiP14TEventDelegateP17TChildrenDelegate _ZTV10TNodeArray _Znaj memset _ZN5TNodeD2Ev __diab_Unwind_Resume __diab_personality_v0 _Znwj _ZdlPv _ZN7TVisualC1E9FrameType _ZTV18TNodeEventDelegate _ZN14TScrollBarNodeC1Eiiii15OrientationTypeiiiR7TVisualS2_S2_S2_R12TextProperty _ZN14TScrollBarNode12SetScrollPosEi _ZN5TNode11AddToParentEPS_ _ZN14TScrollBarNodeD1Ev _ZN7TVisualD1Ev _ZN5TNode8OnResizeEv _ZN5TNode6UpdateEv _ZN5TNode12SetBoundRectERK6_TRectIiE _ZNK7TVisual4DrawER8TPainterRK11VisualStateRK6_TRectIiE __cxa_pure_virtual _ZNK10TNodeArray8GetCountEv _ZN10TNodeArray7GetNodeEi _ZThn40_NK10TNodeArray8GetCountEv _ZThn40_N10TNodeArray7GetNodeEi _ZTVN10__cxxabiv117__class_type_infoE _ZTVN10__cxxabiv120__si_class_type_infoE _ZTI10TNodeArray
	DECLARES 
	USES 
}
Module tgsScrollBarPair.o {
	OBJECT += libtilcon.a::tgsScrollBarPair.o
}
ObjectFile libtilcon.a::tgsScrollHelper.o {
	NAME Object file tgsScrollHelper.o from archive libtilcon.a
	EXPORTS _ZTV13TScrollHelper _ZTI13TScrollHelper _ZTS13TScrollHelper _Z17GetValidScrollPosiii _ZN13TScrollHelperC1ERK6_TSizeIiES3_ _ZN13TScrollHelperC2ERK6_TSizeIiES3_ _ZN13TScrollHelperD1Ev _ZN13TScrollHelperD0Ev _ZN13TScrollHelperD2Ev _ZN13TScrollHelper6AdjustEP7_TEventI10EventParamE _ZN13TScrollHelper12SetTotalSizeERK6_TSizeIiEP7_TEventI10EventParamE _ZN13TScrollHelper11SetPageSizeERK6_TSizeIiEP7_TEventI10EventParamE _ZN13TScrollHelper7SetInfoERK6_TSizeIiES3_P7_TEventI10EventParamE _ZN13TScrollHelper7SetInfoERK6_TSizeIiES3_RK7_TPointIiEP7_TEventI10EventParamE _ZN13TScrollHelper9XScrollToEiP7_TEventI10EventParamE _ZN13TScrollHelper9YScrollToEiP7_TEventI10EventParamE _ZN13TScrollHelper8ScrollToERK7_TPointIiEP7_TEventI10EventParamE
	IMPORTS _ZTVSt9exception _ZTVSt13bad_exception _ZTVSt9bad_alloc _ZTV10TException _ZTV17TChildrenDelegate _ZTV6TImage _ZTV6TArrayIP5TNodeE _ZTV6TArrayI9ColorStopE _ZTI10TException _ZTI17TChildrenDelegate _ZTI6TArrayIP5TNodeE _ZTI6TImage _ZTI6TArrayI9ColorStopE _ZTISt9exception _ZTISt13bad_exception _ZTISt9bad_alloc _ZTS10TException _ZTS17TChildrenDelegate _ZTS6TArrayIP5TNodeE _ZTS6TImage _ZTS6TArrayI9ColorStopE _ZTSSt9exception _ZTSSt13bad_exception _ZTSSt9bad_alloc _ZdlPv __frameinfo_used __diab_Unwind_Resume __diab_personality_v0 _ZTVN10__cxxabiv117__class_type_infoE
	DECLARES 
	USES 
}
Module tgsScrollHelper.o {
	OBJECT += libtilcon.a::tgsScrollHelper.o
}
ObjectFile libtilcon.a::tgsScrollBarNode.o {
	NAME Object file tgsScrollBarNode.o from archive libtilcon.a
	EXPORTS _ZTV17TChildrenDelegate _ZTV12TScrollThumb _ZTV14TScrollBarNode _ZTVN7_TEventI10EventParamE15THandlerAdaptorE _ZTVN7_TEventI10EventParamE17MemberFuncHandlerI14TScrollBarNodeEE _ZTI17TChildrenDelegate _ZTIN7_TEventI10EventParamE15THandlerAdaptorE _ZTIN7_TEventI10EventParamE17MemberFuncHandlerI14TScrollBarNodeEE _ZTI12TScrollThumb _ZTI14TScrollBarNode _ZTS17TChildrenDelegate _ZTSN7_TEventI10EventParamE15THandlerAdaptorE _ZTSN7_TEventI10EventParamE17MemberFuncHandlerI14TScrollBarNodeEE _ZTS12TScrollThumb _ZTS14TScrollBarNode _ZN6_TRectIiEC1Ev _ZN6_TRectIiEC1ERKS0_ _ZNK6_TRectIiEmiERK7_TPointIiE _ZN5TNode10SetEnabledEi _ZN10TNodeArrayC1EiiiiP14TEventDelegatei _ZN7_TEventI10EventParamE10SetHandlerI14TScrollBarNodeEEvPT_NS1_17MemberFuncHandlerIS4_E8FuncTypeE _ZN7_TEventI10EventParamE15THandlerAdaptorD1Ev _ZN7_TEventI10EventParamE15THandlerAdaptorD0Ev _ZN7_TEventI10EventParamE17MemberFuncHandlerI14TScrollBarNodeED1Ev _ZN7_TEventI10EventParamE17MemberFuncHandlerI14TScrollBarNodeED0Ev _ZNK7_TEventI10EventParamE17MemberFuncHandlerI14TScrollBarNodeE6InvokeERS0_ _ZN7_TEventI10EventParamE17MemberFuncHandlerI14TScrollBarNodeE3dupEv _ZNK8_TLinearIiE5ClampEi _ZN12TScrollThumbC1ER5TNodeR7_TEventI10EventParamE _ZN12TScrollThumbC2ER5TNodeR7_TEventI10EventParamE _ZN12TScrollThumbD1Ev _ZN12TScrollThumbD0Ev _ZN12TScrollThumbD2Ev _ZN12TScrollThumb9BeginDragEi _ZN12TScrollThumb4DragEi _ZN12TScrollThumb11AdjustThumbEv _ZN12TScrollThumb7EndDragEi _ZNK12TScrollThumb11GetThumbLenEv _ZNK12TScrollThumb11GetThumbPosEv _ZN12TScrollThumb22SetTrackAndThumbLengthEii _ZN12TScrollThumb12SetScrollPosEi _ZN12TScrollThumb13SetScrollDataEiii _ZN12TScrollThumb8ScrollToEi _ZN12TScrollThumb8ScrollByEi _ZN14TScrollBarNode11UpdateThumbEv _ZN14TScrollBarNode13SetScrollDataEiii _ZN14TScrollBarNodeC1Eiiii15OrientationTypeiiiR7TVisualS2_S2_S2_R12TextProperty _ZN14TScrollBarNodeC2Eiiii15OrientationTypeiiiR7TVisualS2_S2_S2_R12TextProperty _ZN14TScrollBarNodeD1Ev _ZN14TScrollBarNodeD0Ev _ZN14TScrollBarNodeD2Ev _ZN14TScrollBarNode11SetStepSizeEi _ZN14TScrollBarNode14SetOrientationE15OrientationType _ZN14TScrollBarNode12SetScrollPosEi _ZN14TScrollBarNode8ScrollToEi _ZN14TScrollBarNode8ScrollByEi _ZN14TScrollBarNode23UpdateArrowAndTrackSizeERK6_TSizeIiE _ZN14TScrollBarNode13ResizeHandlerER10EventParam _ZN14TScrollBarNode17ThumbMouseHandlerER10EventParam _ZN14TScrollBarNode11NodeHandlerER10EventParam _ZN14TScrollBarNode20NegativeClickHandlerER10EventParam _ZN14TScrollBarNode20PositiveClickHandlerER10EventParam
	IMPORTS _ZTVSt9exception _ZTVSt13bad_exception _ZTVSt9bad_alloc _ZTV10TException _ZTV6TImage _ZTV14TEventDelegate _ZTV6TArrayIP5TNodeE _ZTV6TArrayI9ColorStopE _ZTI10TException _ZTI14TEventDelegate _ZTI6TArrayIP5TNodeE _ZTI6TImage _ZTI6TArrayI9ColorStopE _ZTISt9exception _ZTISt13bad_exception _ZTISt9bad_alloc _ZTS10TException _ZTS14TEventDelegate _ZTS6TArrayIP5TNodeE _ZTS6TImage _ZTS6TArrayI9ColorStopE _ZTSSt9exception _ZTSSt13bad_exception _ZTSSt9bad_alloc _ZN6_TRectIiE8nullRectE __frameinfo_used _ZN5TNode24RouteDimStateChangeEventEv _ZN5TNodeC2EiiiiP14TEventDelegateP17TChildrenDelegate _ZTV10TNodeArray _Znaj memset _ZN5TNodeD2Ev __diab_Unwind_Resume __diab_personality_v0 _Znwj _ZdlPv __div32 _Z9round_intf _ZN5TNode12SetBoundRectERK6_TRectIiE _ZTV18TNodeEventDelegate _ZN5TNodeC1EiiiiP14TEventDelegateP17TChildrenDelegate _ZN15TPushButtonNodeC1EiiiiR7TVisualR12TextProperty _ZN5TNode18SetVisualStateMaskEiiii _ZN5TNode11AddToParentEPS_ _ZN15TPushButtonNodeD1Ev _ZN5TNodeD1Ev _ZN5TNode8OnResizeEv _ZN5TNode6UpdateEv _ZNK7TVisual4DrawER8TPainterRK11VisualStateRK6_TRectIiE __cxa_pure_virtual _ZNK10TNodeArray8GetCountEv _ZN10TNodeArray7GetNodeEi _ZThn40_NK10TNodeArray8GetCountEv _ZThn40_N10TNodeArray7GetNodeEi _ZTVN10__cxxabiv117__class_type_infoE _ZTVN10__cxxabiv120__si_class_type_infoE _ZTI10TNodeArray
	DECLARES 
	USES 
}
Module tgsScrollBarNode.o {
	OBJECT += libtilcon.a::tgsScrollBarNode.o
}
ObjectFile libtilcon.a::tgsScrollBar.o {
	NAME Object file tgsScrollBar.o from archive libtilcon.a
	EXPORTS _ZTV10TScrollBar _ZTVN7_TEventI10EventParamE15THandlerAdaptorE _ZTVN7_TEventI10EventParamE17MemberFuncHandlerI10TScrollBarEE _ZTIN7_TEventI10EventParamE15THandlerAdaptorE _ZTIN7_TEventI10EventParamE17MemberFuncHandlerI10TScrollBarEE _ZTI10TScrollBar _ZTSN7_TEventI10EventParamE15THandlerAdaptorE _ZTSN7_TEventI10EventParamE17MemberFuncHandlerI10TScrollBarEE _ZTS10TScrollBar _ZN7_TEventI10EventParamE10SetHandlerI10TScrollBarEEvPT_NS1_17MemberFuncHandlerIS4_E8FuncTypeE _ZN7_TEventI10EventParamE15THandlerAdaptorD1Ev _ZN7_TEventI10EventParamE15THandlerAdaptorD0Ev _ZN7_TEventI10EventParamE17MemberFuncHandlerI10TScrollBarED1Ev _ZN7_TEventI10EventParamE17MemberFuncHandlerI10TScrollBarED0Ev _ZNK7_TEventI10EventParamE17MemberFuncHandlerI10TScrollBarE6InvokeERS0_ _ZN7_TEventI10EventParamE17MemberFuncHandlerI10TScrollBarE3dupEv _ZN13TCustomVisualC1Ev _ZN13TCustomVisualC1ERKS_ _ZN13TCustomVisualD1Ev _ZN13TCustomVisualaSERKS_ _ZN10TScrollBar11SetPropertyERKNS_8PropertyE _ZN10TScrollBar8PropertyC1Ev _ZN10TScrollBar8PropertyD1Ev _ZN10TScrollBar8PropertyC1ERKS0_ _ZN10TScrollBarC1Eiiii15OrientationTypeiii _ZN10TScrollBarC2Eiiii15OrientationTypeiii _ZN10TScrollBarD1Ev _ZN10TScrollBarD0Ev _ZN10TScrollBarD2Ev _ZNK10TScrollBar11GetPropertyEv _ZN10TScrollBar14SetOrientationE15OrientationType _ZN10TScrollBar13ScrollHandlerER10EventParam _ZN10TScrollBar8PropertyC2Ev _ZN10TScrollBar8PropertyD2Ev
	IMPORTS _ZTVSt9exception _ZTVSt13bad_exception _ZTVSt9bad_alloc _ZTV10TException _ZTV17TChildrenDelegate _ZTV6TImage _ZTV6TArrayIP5TNodeE _ZTV6TArrayI9ColorStopE _ZTI10TException _ZTI17TChildrenDelegate _ZTI6TArrayIP5TNodeE _ZTI6TImage _ZTI6TArrayI9ColorStopE _ZTISt9exception _ZTISt13bad_exception _ZTISt9bad_alloc _ZTS10TException _ZTS17TChildrenDelegate _ZTS6TArrayIP5TNodeE _ZTS6TImage _ZTS6TArrayI9ColorStopE _ZTSSt9exception _ZTSSt13bad_exception _ZTSSt9bad_alloc __frameinfo_used _Znwj __diab_Unwind_Resume __diab_personality_v0 _ZdlPv _ZN11TCustomFillC1Ev _ZN11TCustomFillD1Ev _ZN11TCustomFillC1ERKS_ _ZN11TCustomFillaSERKS_ _ZN5TNode8OnResizeEv _ZN5TNode6UpdateEv _ZN15ControlPropertyC2E11ControlType _ZN15ControlPropertyD2Ev _ZN8TControlC2EiiiiR5TNode _ZN7TVisualC1E9FrameType _ZN14TScrollBarNodeC1Eiiii15OrientationTypeiiiR7TVisualS2_S2_S2_R12TextProperty _ZN14TScrollBarNode13SetScrollDataEiii _ZN12TApplication8InstanceEv _ZNK12TApplication11GetPropertyE11ControlType _ZN14TScrollBarNodeD1Ev _ZN7TVisualD1Ev _ZN8TControlD2Ev _ZN14TScrollBarNode14SetOrientationE15OrientationType __cxa_pure_virtual _ZTVN10__cxxabiv117__class_type_infoE _ZTVN10__cxxabiv120__si_class_type_infoE _ZTI8TControl
	DECLARES 
	USES 
}
Module tgsScrollBar.o {
	OBJECT += libtilcon.a::tgsScrollBar.o
}
ObjectFile libtilcon.a::tgsSlider.o {
	NAME Object file tgsSlider.o from archive libtilcon.a
	EXPORTS _ZTV17TChildrenDelegate _ZTV7TSlider _ZTVN7_TEventI10EventParamE15THandlerAdaptorE _ZTVN7_TEventI10EventParamE17MemberFuncHandlerI7TSliderEE _ZTI17TChildrenDelegate _ZTIN7_TEventI10EventParamE15THandlerAdaptorE _ZTIN7_TEventI10EventParamE17MemberFuncHandlerI7TSliderEE _ZTI7TSlider _ZTS17TChildrenDelegate _ZTSN7_TEventI10EventParamE15THandlerAdaptorE _ZTSN7_TEventI10EventParamE17MemberFuncHandlerI7TSliderEE _ZTS7TSlider _ZN6_TRectIiEC1Ev _ZNK6_TRectIiE6AdjustERK8_TMarginIiE _ZNK6_TRectIiEmiERK7_TPointIiE _ZN10TNodeArrayC1EiiiiP14TEventDelegatei _ZN7_TEventI10EventParamE10SetHandlerI7TSliderEEvPT_NS1_17MemberFuncHandlerIS4_E8FuncTypeE _ZN7_TEventI10EventParamE15THandlerAdaptorD1Ev _ZN7_TEventI10EventParamE15THandlerAdaptorD0Ev _ZN7_TEventI10EventParamE17MemberFuncHandlerI7TSliderED1Ev _ZN7_TEventI10EventParamE17MemberFuncHandlerI7TSliderED0Ev _ZNK7_TEventI10EventParamE17MemberFuncHandlerI7TSliderE6InvokeERS0_ _ZN7_TEventI10EventParamE17MemberFuncHandlerI7TSliderE3dupEv _ZN13TCustomVisualC1Ev _ZN13TCustomVisualC1ERKS_ _ZN13TCustomVisualD1Ev _ZN13TCustomVisualaSERKS_ _ZNK8_TMarginIiEneERKS0_ _ZNK8_TLinearIiE5ClampEi _ZN7TSlider11SetPropertyERKNS_8PropertyE _ZN7TSlider8PropertyC1Ev _ZN7TSlider8PropertyD1Ev _ZN7TSlider8PropertyC1ERKS0_ _ZN7TSliderC1Eiiii15OrientationTypeiii _ZN7TSliderC2Eiiii15OrientationTypeiii _ZN7TSliderD1Ev _ZN7TSliderD0Ev _ZN7TSliderD2Ev _ZNK7TSlider11GetPropertyEv _ZN7TSlider14SetOrientationE15OrientationType _ZN7TSlider11AdjustThumbEv _ZN7TSlider8SetRangeEii _ZN7TSlider8SetValueEi _ZN7TSlider7SlideToEi _ZN7TSlider7SlideByEi _ZN7TSlider12UpdateLayoutERK6_TSizeIiE _ZN7TSlider13ResizeHandlerER10EventParam _ZN7TSlider17ThumbMouseHandlerER10EventParam _ZN7TSlider17TrackPaintHandlerER10EventParam _ZN7TSlider17ThumbPaintHandlerER10EventParam _ZN7TSlider11NodeHandlerER10EventParam _ZN7TSlider8PropertyC2Ev _ZN7TSlider8PropertyD2Ev
	IMPORTS _ZTVSt9exception _ZTVSt13bad_exception _ZTVSt9bad_alloc _ZTV10TException _ZTV6TImage _ZTV14TEventDelegate _ZTV6TArrayIP5TNodeE _ZTV6TArrayI9ColorStopE _ZTI10TException _ZTI14TEventDelegate _ZTI6TArrayIP5TNodeE _ZTI6TImage _ZTI6TArrayI9ColorStopE _ZTISt9exception _ZTISt13bad_exception _ZTISt9bad_alloc _ZTS10TException _ZTS14TEventDelegate _ZTS6TArrayIP5TNodeE _ZTS6TImage _ZTS6TArrayI9ColorStopE _ZTSSt9exception _ZTSSt13bad_exception _ZTSSt9bad_alloc _ZN6_TRectIiE8nullRectE __frameinfo_used _ZN5TNodeC2EiiiiP14TEventDelegateP17TChildrenDelegate _ZTV10TNodeArray _Znaj memset _ZN5TNodeD2Ev __diab_Unwind_Resume __diab_personality_v0 _Znwj _ZdlPv _ZN11TCustomFillC1Ev _ZN11TCustomFillD1Ev _ZN11TCustomFillC1ERKS_ _ZN11TCustomFillaSERKS_ _ZN5TNode18OnChildBoundChangeEP8TControl _ZN5TNode8OnResizeEv _ZN5TNode6UpdateEv _ZN15ControlPropertyC2E11ControlType _ZN15ControlPropertyD2Ev _ZN8TControlC2EiiiiR5TNode _ZN7TVisualC1E9FrameType _ZTV18TNodeEventDelegate _ZN5TNodeC1EiiiiP14TEventDelegateP17TChildrenDelegate _ZN5TNode18SetVisualStateMaskEiiii _ZN5TNode11AddToParentEPS_ _ZN12TApplication8InstanceEv _ZNK12TApplication11GetPropertyE11ControlType _ZN5TNodeD1Ev _ZN7TVisualD1Ev _ZN8TControlD2Ev _Z9round_intf _ZN5TNode16SetBoundPositionERK7_TPointIiE _ZN5TNode12SetBoundRectERK6_TRectIiE __div32 _ZNK7TVisual4DrawER8TPainterRK11VisualStateRK6_TRectIiE __cxa_pure_virtual _ZTVN10__cxxabiv117__class_type_infoE _ZTVN10__cxxabiv120__si_class_type_infoE _ZTI8TControl
	DECLARES 
	USES 
}
Module tgsSlider.o {
	OBJECT += libtilcon.a::tgsSlider.o
}
ObjectFile libtilcon.a::tgsSpinBox.o {
	NAME Object file tgsSpinBox.o from archive libtilcon.a
	EXPORTS _ZTV10TException _ZTV8TSpinBox _ZTVN7_TEventI10EventParamE15THandlerAdaptorE _ZTVN7_TEventI10EventParamE17MemberFuncHandlerI8TSpinBoxEE _ZTI10TException _ZTIN7_TEventI10EventParamE15THandlerAdaptorE _ZTIN7_TEventI10EventParamE17MemberFuncHandlerI8TSpinBoxEE _ZTI8TSpinBox _ZTS10TException _ZTSN7_TEventI10EventParamE15THandlerAdaptorE _ZTSN7_TEventI10EventParamE17MemberFuncHandlerI8TSpinBoxEE _ZTS8TSpinBox _ZN10TExceptionD1Ev _ZN10TExceptionD0Ev _ZN6TColorC1Ej _ZN6TColorC1ERKS_ _ZN8TWStringC1EPKw _ZN8TWStringC1ERK7TString _ZN7_TEventI10EventParamE10SetHandlerI8TSpinBoxEEvPT_NS1_17MemberFuncHandlerIS4_E8FuncTypeE _ZN7_TEventI10EventParamE15THandlerAdaptorD1Ev _ZN7_TEventI10EventParamE15THandlerAdaptorD0Ev _ZN7_TEventI10EventParamE17MemberFuncHandlerI8TSpinBoxED1Ev _ZN7_TEventI10EventParamE17MemberFuncHandlerI8TSpinBoxED0Ev _ZNK7_TEventI10EventParamE17MemberFuncHandlerI8TSpinBoxE6InvokeERS0_ _ZN7_TEventI10EventParamE17MemberFuncHandlerI8TSpinBoxE3dupEv _ZN13TCustomVisualC1Ev _ZN13TCustomVisualC1ERKS_ _ZN13TCustomVisualD1Ev _ZN13TCustomVisualaSERKS_ _ZN12TextPropertyC1ERKS_ _ZN12TextPropertyaSERKS_ _ZN8_TMarginIiEC1ERKS0_ _ZNK8_TMarginIiEneERKS0_ _ZN8TSpinBox11SetPropertyERKNS_8PropertyE _ZN8TSpinBox11UpdateValueEv _ZN8TSpinBox8PropertyC1Ev _ZN8TSpinBox8PropertyD1Ev _ZN8TSpinBox8PropertyC1ERKS0_ _ZN8TSpinBoxC1Eiiii _ZN8TSpinBoxC2Eiiii _ZN8TSpinBoxD1Ev _ZN8TSpinBoxD0Ev _ZN8TSpinBoxD2Ev _ZNK8TSpinBox11GetPropertyEv _ZN8TSpinBox11SetMaxValueEi _ZN8TSpinBox11SetMinValueEi _ZN8TSpinBox12SetIncrementEi _ZN8TSpinBox11ChangeValueEi _ZN8TSpinBox8SetValueEi _ZN8TSpinBox17ArrowClickHandlerER10EventParam _ZN8TSpinBox8PropertyC2Ev _ZN8TSpinBox8PropertyD2Ev
	IMPORTS _ZTVSt9exception _ZTVSt13bad_exception _ZTVSt9bad_alloc _ZTV17TChildrenDelegate _ZTV6TImage _ZTV6TArrayIP5TNodeE _ZTV6TArrayI9ColorStopE _ZTI17TChildrenDelegate _ZTI6TArrayIP5TNodeE _ZTI6TImage _ZTI6TArrayI9ColorStopE _ZTISt9exception _ZTISt13bad_exception _ZTISt9bad_alloc _ZTS17TChildrenDelegate _ZTS6TArrayIP5TNodeE _ZTS6TImage _ZTS6TArrayI9ColorStopE _ZTSSt9exception _ZTSSt13bad_exception _ZTSSt9bad_alloc _ZdlPv __frameinfo_used __cxa_allocate_exception __cxa_throw _Znaj memcpy _Znwj __diab_Unwind_Resume __diab_personality_v0 _ZN11TCustomFillC1Ev _ZN11TCustomFillD1Ev _ZN11TCustomFillC1ERKS_ _ZN11TCustomFillaSERKS_ _ZTV5TFont _ZN5TFontaSERKS_ _ZN5TNode18OnChildBoundChangeEP8TControl _ZN5TNode8OnResizeEv _ZN5TNode6UpdateEv _ZN7TStringC1Ev _ZN7TString6FormatEiPKcz _ZN9TEditNode7SetTextERK8TWString _ZdaPv free _ZN15ControlPropertyC2E11ControlType _ZN5TFontC1Ev _ZN5TFontD1Ev _ZN15ControlPropertyD2Ev _ZN11TSpinLayoutC2EiiiiR5TNodeS1_S1_ _ZN7TVisualC1E9FrameType _ZN9TEditNodeC1EiiiiR8_TMarginIiER7TVisualR12TextPropertyRK8TWString _ZN15TPushButtonNodeC1EiiiiR7TVisualR12TextProperty _ZN5TNode11AddToParentEPS_ _ZN12TApplication8InstanceEv _ZNK12TApplication11GetPropertyE11ControlType _ZN15TPushButtonNodeD1Ev _ZN9TEditNodeD1Ev _ZN7TVisualD1Ev _ZN11TSpinLayoutD2Ev __cxa_pure_virtual _ZTVN10__cxxabiv117__class_type_infoE _ZTVN10__cxxabiv120__si_class_type_infoE _ZTI11TSpinLayout
	DECLARES 
	USES 
}
Module tgsSpinBox.o {
	OBJECT += libtilcon.a::tgsSpinBox.o
}
ObjectFile libtilcon.a::tgsSpinLayout.o {
	NAME Object file tgsSpinLayout.o from archive libtilcon.a
	EXPORTS _ZTV10TException _ZTV17TChildrenDelegate _ZTV11TSpinLayout _ZTVN7_TEventI10EventParamE15THandlerAdaptorE _ZTVN7_TEventI10EventParamE17MemberFuncHandlerI11TSpinLayoutEE _ZTI10TException _ZTI17TChildrenDelegate _ZTIN7_TEventI10EventParamE15THandlerAdaptorE _ZTIN7_TEventI10EventParamE17MemberFuncHandlerI11TSpinLayoutEE _ZTI11TSpinLayout _ZTS10TException _ZTS17TChildrenDelegate _ZTSN7_TEventI10EventParamE15THandlerAdaptorE _ZTSN7_TEventI10EventParamE17MemberFuncHandlerI11TSpinLayoutEE _ZTS11TSpinLayout _ZN10TExceptionD1Ev _ZN10TExceptionD0Ev _ZN6_TRectIiEC1Ev _ZNK6_TRectIiE6AdjustERK8_TMarginIiE _ZNK6_TRectIiEmiERK7_TPointIiE _ZN10TNodeArrayC1EiiiiP14TEventDelegatei _ZN7_TEventI10EventParamE10SetHandlerI11TSpinLayoutEEvPT_NS1_17MemberFuncHandlerIS4_E8FuncTypeE _ZN7_TEventI10EventParamE15THandlerAdaptorD1Ev _ZN7_TEventI10EventParamE15THandlerAdaptorD0Ev _ZN7_TEventI10EventParamE17MemberFuncHandlerI11TSpinLayoutED1Ev _ZN7_TEventI10EventParamE17MemberFuncHandlerI11TSpinLayoutED0Ev _ZNK7_TEventI10EventParamE17MemberFuncHandlerI11TSpinLayoutE6InvokeERS0_ _ZN7_TEventI10EventParamE17MemberFuncHandlerI11TSpinLayoutE3dupEv _ZNK8_TMarginIiEneERKS0_ _ZNK6TArrayIN11TGridLayout10LayoutInfoEEixEi _ZN11TGridLayout13SetColumnSizeEiNS_12LayoutMethodEi _ZN11TSpinLayoutC1EiiiiR5TNodeS1_S1_ _ZN11TSpinLayoutC2EiiiiR5TNodeS1_S1_ _ZN11TSpinLayoutD1Ev _ZN11TSpinLayoutD0Ev _ZN11TSpinLayoutD2Ev _ZN11TSpinLayout13ResizeHandlerER10EventParam _ZN11TSpinLayout11NodeHandlerER10EventParam
	IMPORTS _ZTVSt9exception _ZTVSt13bad_exception _ZTVSt9bad_alloc _ZTV6TImage _ZTV14TEventDelegate _ZTV6TArrayIP5TNodeE _ZTV6TArrayI9ColorStopE _ZTI14TEventDelegate _ZTI6TArrayIP5TNodeE _ZTI6TImage _ZTI6TArrayI9ColorStopE _ZTISt9exception _ZTISt13bad_exception _ZTISt9bad_alloc _ZTS14TEventDelegate _ZTS6TArrayIP5TNodeE _ZTS6TImage _ZTS6TArrayI9ColorStopE _ZTSSt9exception _ZTSSt13bad_exception _ZTSSt9bad_alloc _ZdlPv _ZN6_TRectIiE8nullRectE __frameinfo_used _ZN5TNodeC2EiiiiP14TEventDelegateP17TChildrenDelegate _ZTV10TNodeArray _Znaj memset _ZN5TNodeD2Ev __diab_Unwind_Resume __diab_personality_v0 _Znwj __cxa_allocate_exception __cxa_throw _ZN8TControlC2EiiiiR5TNode _ZTV18TNodeEventDelegate _ZN11TGridLayoutC1Eii _ZN5TNode6UpdateEv _ZN5TNode18OnChildBoundChangeEP8TControl _ZN5TNode8OnResizeEv _ZN5TNode11AddToParentEPS_ _ZN11TGridLayoutD1Ev _ZN8TControlD2Ev _ZN11TGridLayout8DoLayoutERK6_TRectIiE _ZNK11TGridLayout11GetCellRectERK8GridCell _ZN5TNode12SetBoundRectERK6_TRectIiE _ZNK7TVisual4DrawER8TPainterRK11VisualStateRK6_TRectIiE __cxa_pure_virtual _ZTVN10__cxxabiv117__class_type_infoE _ZTVN10__cxxabiv120__si_class_type_infoE _ZTI8TControl
	DECLARES 
	USES 
}
Module tgsSpinLayout.o {
	OBJECT += libtilcon.a::tgsSpinLayout.o
}
ObjectFile libtilcon.a::tgsTextSpinBox.o {
	NAME Object file tgsTextSpinBox.o from archive libtilcon.a
	EXPORTS _ZTV10TException _ZTV12TTextSpinBox _ZTVN7_TEventI10EventParamE15THandlerAdaptorE _ZTV6TArrayI8TWStringE _ZTVN7_TEventI10EventParamE17MemberFuncHandlerI12TTextSpinBoxEE _ZTI10TException _ZTIN7_TEventI10EventParamE15THandlerAdaptorE _ZTIN7_TEventI10EventParamE17MemberFuncHandlerI12TTextSpinBoxEE _ZTI6TArrayI8TWStringE _ZTI12TTextSpinBox _ZTS10TException _ZTSN7_TEventI10EventParamE15THandlerAdaptorE _ZTSN7_TEventI10EventParamE17MemberFuncHandlerI12TTextSpinBoxEE _ZTS6TArrayI8TWStringE _ZTS12TTextSpinBox _ZN10TExceptionD1Ev _ZN10TExceptionD0Ev _ZN6TColorC1Ej _ZN6TColorC1ERKS_ _ZN8TWStringC1Ev _ZN8TWStringC1ERKS_ _ZN8TWStringD1Ev _ZN8TWStringaSERKS_ _ZN7_TEventI10EventParamE10SetHandlerI12TTextSpinBoxEEvPT_NS1_17MemberFuncHandlerIS4_E8FuncTypeE _ZN7_TEventI10EventParamE15THandlerAdaptorD1Ev _ZN7_TEventI10EventParamE15THandlerAdaptorD0Ev _ZN7_TEventI10EventParamE17MemberFuncHandlerI12TTextSpinBoxED1Ev _ZN7_TEventI10EventParamE17MemberFuncHandlerI12TTextSpinBoxED0Ev _ZNK7_TEventI10EventParamE17MemberFuncHandlerI12TTextSpinBoxE6InvokeERS0_ _ZN7_TEventI10EventParamE17MemberFuncHandlerI12TTextSpinBoxE3dupEv _ZN13TCustomVisualC1Ev _ZN13TCustomVisualC1ERKS_ _ZN13TCustomVisualD1Ev _ZN13TCustomVisualaSERKS_ _ZN12TextPropertyC1ERKS_ _ZN12TextPropertyaSERKS_ _ZN8_TMarginIiEC1ERKS0_ _ZNK8_TMarginIiEneERKS0_ _ZN6TArrayI8TWStringED1Ev _ZN6TArrayI8TWStringED0Ev _ZN6TArrayI8TWStringE13RoundCapacityEi _ZN6TArrayI8TWStringE8ExpandAtEii _ZN6TArrayI8TWStringE8InsertAtEiRKS0_ _ZN6TArrayI8TWStringE5ClearEv _ZNK6TArrayI8TWStringEixEi _ZN12TTextSpinBox11SetPropertyERKNS_8PropertyE _ZN12TTextSpinBox8PropertyC1Ev _ZN12TTextSpinBox8PropertyD1Ev _ZN12TTextSpinBox8PropertyC1ERKS0_ _ZN12TTextSpinBoxC1Eiiii _ZN12TTextSpinBoxC2Eiiii _ZN12TTextSpinBoxD1Ev _ZN12TTextSpinBoxD0Ev _ZN12TTextSpinBoxD2Ev _ZNK12TTextSpinBox11GetPropertyEv _ZN12TTextSpinBox7AddItemERK8TWString _ZN12TTextSpinBox10ClearItemsEv _ZNK12TTextSpinBox12GetItemCountEv _ZNK12TTextSpinBox16GetSelectionTextEv _ZN12TTextSpinBox15ChangeSelectionEi _ZN12TTextSpinBox12SetSelectionEi _ZNK12TTextSpinBox12GetSelectionEv _ZN12TTextSpinBox17ArrowClickHandlerER10EventParam _ZN12TTextSpinBox8PropertyC2Ev _ZN12TTextSpinBox8PropertyD2Ev
	IMPORTS _ZTVSt9exception _ZTVSt13bad_exception _ZTVSt9bad_alloc _ZTV17TChildrenDelegate _ZTV6TImage _ZTV6TArrayIP5TNodeE _ZTV6TArrayI9ColorStopE _ZTI17TChildrenDelegate _ZTI6TArrayIP5TNodeE _ZTI6TImage _ZTI6TArrayI9ColorStopE _ZTISt9exception _ZTISt13bad_exception _ZTISt9bad_alloc _ZTS17TChildrenDelegate _ZTS6TArrayIP5TNodeE _ZTS6TImage _ZTS6TArrayI9ColorStopE _ZTSSt9exception _ZTSSt13bad_exception _ZTSSt9bad_alloc _ZdlPv __frameinfo_used _Znaj memcpy _ZdaPv _Znwj __diab_Unwind_Resume __diab_personality_v0 _ZN11TCustomFillC1Ev _ZN11TCustomFillD1Ev _ZN11TCustomFillC1ERKS_ _ZN11TCustomFillaSERKS_ _ZTV5TFont _ZN5TFontaSERKS_ __cxa_vec_delete __cxa_vec_new2 __cxa_allocate_exception __cxa_throw _ZN5TNode18OnChildBoundChangeEP8TControl _ZN5TNode8OnResizeEv _ZN5TNode6UpdateEv _ZN15ControlPropertyC2E11ControlType _ZN5TFontC1Ev _ZN5TFontD1Ev _ZN15ControlPropertyD2Ev _ZN11TSpinLayoutC2EiiiiR5TNodeS1_S1_ _ZN7TVisualC1E9FrameType _ZN10TLabelNodeC1EiiiiRK8TWStringR8_TMarginIiER7TVisualR12TextProperty _ZN15TPushButtonNodeC1EiiiiR7TVisualR12TextProperty _ZN5TNode11AddToParentEPS_ _ZN12TApplication8InstanceEv _ZNK12TApplication11GetPropertyE11ControlType _ZN15TPushButtonNodeD1Ev _ZN10TLabelNodeD1Ev _ZN7TVisualD1Ev _ZN11TSpinLayoutD2Ev __cxa_pure_virtual _ZTVN10__cxxabiv117__class_type_infoE _ZTVN10__cxxabiv120__si_class_type_infoE _ZTI11TSpinLayout
	DECLARES 
	USES 
}
Module tgsTextSpinBox.o {
	OBJECT += libtilcon.a::tgsTextSpinBox.o
}
ObjectFile libtilcon.a::tgsTab.o {
	NAME Object file tgsTab.o from archive libtilcon.a
	EXPORTS _ZTV10TException _ZTV17TChildrenDelegate _ZTV4TTab _ZTV6TArrayIP5TNodeE _ZTVN7_TEventI10EventParamE15THandlerAdaptorE _ZTV6TArrayIN4TTab7TabInfoEE _ZTVN7_TEventI10EventParamE17MemberFuncHandlerI4TTabEE _ZTI10TException _ZTI17TChildrenDelegate _ZTI6TArrayIP5TNodeE _ZTIN7_TEventI10EventParamE15THandlerAdaptorE _ZTIN7_TEventI10EventParamE17MemberFuncHandlerI4TTabEE _ZTI6TArrayIN4TTab7TabInfoEE _ZTI4TTab _ZTS10TException _ZTS17TChildrenDelegate _ZTS6TArrayIP5TNodeE _ZTSN7_TEventI10EventParamE15THandlerAdaptorE _ZTSN7_TEventI10EventParamE17MemberFuncHandlerI4TTabEE _ZTS6TArrayIN4TTab7TabInfoEE _ZTS4TTab _ZN10TExceptionD1Ev _ZN10TExceptionD0Ev _ZN6TColorC1Ej _ZN6TColorC1ERKS_ _ZN8TWStringC1EPKw _ZN8TWStringC1ERKS_ _ZN8TWStringaSERKS_ _ZN6_TRectIiEC1Ev _ZNK6_TRectIiE6AdjustERK8_TMarginIiE _ZNK6_TRectIiEmiERK7_TPointIiE _ZNK6_TRectIiE8ContainsERK7_TPointIiE _ZN5TNode10SetVisibleEi _ZN6TArrayIP5TNodeED1Ev _ZN6TArrayIP5TNodeED0Ev _ZN14TNodeContainerC1EiiiiP14TEventDelegate _ZN10TNodeArrayC1EiiiiP14TEventDelegatei _ZN7_TEventI10EventParamE10SetHandlerI4TTabEEvPT_NS1_17MemberFuncHandlerIS4_E8FuncTypeE _ZN7_TEventI10EventParamE15THandlerAdaptorD1Ev _ZN7_TEventI10EventParamE15THandlerAdaptorD0Ev _ZN7_TEventI10EventParamE17MemberFuncHandlerI4TTabED1Ev _ZN7_TEventI10EventParamE17MemberFuncHandlerI4TTabED0Ev _ZNK7_TEventI10EventParamE17MemberFuncHandlerI4TTabE6InvokeERS0_ _ZN7_TEventI10EventParamE17MemberFuncHandlerI4TTabE3dupEv _ZN13TCustomVisualC1Ev _ZN13TCustomVisualC1ERKS_ _ZN13TCustomVisualD1Ev _ZN13TCustomVisualaSERKS_ _ZN12TextPropertyC1ERKS_ _ZN12TextPropertyaSERKS_ _ZN8_TMarginIiEC1ERKS0_ _ZNK8_TMarginIiEneERKS0_ _ZNK6TArrayIN11TGridLayout10LayoutInfoEEixEi _ZN11TGridLayout10SetRowSizeEiNS_12LayoutMethodEi _ZN6TArrayIN4TTab7TabInfoEED1Ev _ZN4TTab7TabInfoD1Ev _ZN6TArrayIN4TTab7TabInfoEED0Ev _ZN6TArrayIN4TTab7TabInfoEE13RoundCapacityEi _ZN4TTab7TabInfoaSERKS0_ _ZN6TArrayIN4TTab7TabInfoEE8ExpandAtEii _ZN4TTab7TabInfoC1Ev _ZN6TArrayIN4TTab7TabInfoEE8InsertAtEiRKS1_ _ZN6TArrayIN4TTab7TabInfoEE8ShrinkAtEii _ZN6TArrayIN4TTab7TabInfoEE8RemoveAtEi _ZNK6TArrayIN4TTab7TabInfoEEixEi _ZN4TTab11SetPropertyERKNS_8PropertyE _ZN4TTab8SwitchToEi _ZN4TTab6AddTabERK8TWStringi _ZN4TTab7TabInfoC1ERKS0_ _ZN4TTab9RemoveTabEi _ZN4TTab11SetTabCountEi _ZN4TTab8PropertyC1Ev _ZN4TTab8PropertyD1Ev _ZN4TTab8PropertyC1ERKS0_ _ZNK8_TLinearIiE5ClampEi _ZN4TTabC1Eiiiii _ZN4TTabC2Eiiiii _ZN4TTabD1Ev _ZN4TTabD0Ev _ZN4TTabD2Ev _ZNK4TTab11GetPropertyEv _ZN4TTab10AddControlEiP8TControli _ZN4TTab13RemoveControlEiP8TControl _ZN4TTab10SetTabTextEiRK8TWString _ZN4TTab11SetTabWidthEii _ZN4TTab13ResizeHandlerER10EventParam _ZN4TTab18HeaderPaintHandlerER10EventParam _ZN4TTab18HeaderMouseHandlerER10EventParam _ZN4TTab11NodeHandlerER10EventParam _ZN4TTab8PropertyC2Ev _ZN4TTab8PropertyD2Ev
	IMPORTS _ZTVSt9exception _ZTVSt13bad_exception _ZTVSt9bad_alloc _ZTV6TImage _ZTV14TEventDelegate _ZTV6TArrayI9ColorStopE _ZTI14TEventDelegate _ZTI6TImage _ZTI6TArrayI9ColorStopE _ZTISt9exception _ZTISt13bad_exception _ZTISt9bad_alloc _ZTS14TEventDelegate _ZTS6TImage _ZTS6TArrayI9ColorStopE _ZTSSt9exception _ZTSSt13bad_exception _ZTSSt9bad_alloc _ZdlPv __frameinfo_used __cxa_allocate_exception __cxa_throw _Znaj memcpy _ZdaPv _ZN6_TRectIiE8nullRectE _ZN5TNode6UpdateEv _ZN5TNodeC2EiiiiP14TEventDelegateP17TChildrenDelegate _ZTV14TNodeContainer _ZTV10TNodeArray memset _ZN5TNodeD2Ev __diab_Unwind_Resume __diab_personality_v0 _Znwj _ZN11TCustomFillC1Ev _ZN11TCustomFillD1Ev _ZN11TCustomFillC1ERKS_ _ZN11TCustomFillaSERKS_ _ZTV5TFont _ZN5TFontaSERKS_ __cxa_vec_delete __cxa_vec_new2 _ZN5TNode18OnChildBoundChangeEP8TControl _ZN5TNode8OnResizeEv _ZN6TGroupC1Eiiii _ZN14TNodeContainer8AddChildEP5TNodei _ZN6TGroup17RemoveAllControlsEv _ZN14TNodeContainer11RemoveChildEP5TNode _ZN15ControlPropertyC2E11ControlType _ZN5TFontC1Ev _ZN15ControlPropertyD2Ev _ZN5TFontD1Ev _ZN8TControlC2EiiiiR5TNode _ZN7TVisualC1E9FrameType _ZTV18TNodeEventDelegate _ZN11TGridLayoutC1Eii _ZN5TNode11AddToParentEPS_ _ZN12TApplication8InstanceEv _ZNK12TApplication11GetPropertyE11ControlType _ZN11TGridLayoutD1Ev _ZN7TVisualD1Ev _ZN8TControlD2Ev _ZN6TGroup10AddControlEP8TControli _ZN6TGroup13RemoveControlEP8TControl _ZN11TGridLayout8DoLayoutERK6_TRectIiE _ZNK11TGridLayout11GetCellRectERK8GridCell _ZN5TNode12SetBoundRectERK6_TRectIiE __div32 _ZN12TPixelBufferC1Ev _ZN8TPainter8SetBrushERK6TBrush _ZN12TPixelBufferD1Ev _ZN8TPainter8FillRectERK6_TRectIiE _ZN8TPainter8DrawLineERK7_TPointIiES3_ _ZN8TPainter12SetTextColorERK6TColor _ZN8TPainter7SetFontERK5TFont _ZN8TPainter11DrawUCSTextERK8TWStringRK6_TRectIiE23TextHorizontalAlignment21TextVerticalAlignment _ZNK7TVisual4DrawER8TPainterRK11VisualStateRK6_TRectIiE __cxa_pure_virtual _ZTVN10__cxxabiv117__class_type_infoE _ZTVN10__cxxabiv120__si_class_type_infoE _ZTI8TControl
	DECLARES 
	USES 
}
Module tgsTab.o {
	OBJECT += libtilcon.a::tgsTab.o
}
ObjectFile libtilcon.a::tgsTextTable.o {
	NAME Object file tgsTextTable.o from archive libtilcon.a
	EXPORTS _ZTV10TException _ZTV17TChildrenDelegate _ZTV10TTextTable _ZTVN7_TEventI10EventParamE15THandlerAdaptorE _ZTV6TArrayI8TWStringE _ZTV6TArrayIN10TTextTable9ColHeaderEE _ZTVN7_TEventI10EventParamE17MemberFuncHandlerI10TTextTableEE _ZTI10TException _ZTI17TChildrenDelegate _ZTIN7_TEventI10EventParamE15THandlerAdaptorE _ZTIN7_TEventI10EventParamE17MemberFuncHandlerI10TTextTableEE _ZTI6TArrayI8TWStringE _ZTI6TArrayIN10TTextTable9ColHeaderEE _ZTI10TTextTable _ZTS10TException _ZTS17TChildrenDelegate _ZTSN7_TEventI10EventParamE15THandlerAdaptorE _ZTSN7_TEventI10EventParamE17MemberFuncHandlerI10TTextTableEE _ZTS6TArrayI8TWStringE _ZTS6TArrayIN10TTextTable9ColHeaderEE _ZTS10TTextTable _ZN10TExceptionD1Ev _ZN10TExceptionD0Ev _ZN6TColorC1Ej _ZN6TColorC1ERKS_ _ZN8TWStringC1Ev _ZN8TWStringC1ERK7TString _ZN8TWStringD1Ev _ZN8TWStringaSERKS_ _ZNK6TArrayIN11TGridLayout10LayoutInfoEEixEi _ZN8_TMarginIiEC1ERKS0_ _ZNK8_TMarginIiEneERKS0_ _ZN11TGridLayout10SetRowSizeEiNS_12LayoutMethodEi _ZN11TGridLayout13SetColumnSizeEiNS_12LayoutMethodEi _ZN6_TRectIiEC1Ev _ZN6_TRectIiEC1ERKS0_ _ZNK6_TRectIiEmiERK7_TPointIiE _ZN10TNodeArrayC1EiiiiP14TEventDelegatei _ZN7_TEventI10EventParamE10SetHandlerI10TTextTableEEvPT_NS1_17MemberFuncHandlerIS4_E8FuncTypeE _ZN7_TEventI10EventParamE15THandlerAdaptorD1Ev _ZN7_TEventI10EventParamE15THandlerAdaptorD0Ev _ZN7_TEventI10EventParamE17MemberFuncHandlerI10TTextTableED1Ev _ZN7_TEventI10EventParamE17MemberFuncHandlerI10TTextTableED0Ev _ZNK7_TEventI10EventParamE17MemberFuncHandlerI10TTextTableE6InvokeERS0_ _ZN7_TEventI10EventParamE17MemberFuncHandlerI10TTextTableE3dupEv _ZN8TPainter8DrawLineEiiii _ZN13TCustomVisualC1Ev _ZN13TCustomVisualC1ERKS_ _ZN13TCustomVisualD1Ev _ZN13TCustomVisualaSERKS_ _ZN12TextPropertyC1ERKS_ _ZN12TextPropertyaSERKS_ _ZN14TScrollBarPair20SetScrollBarPairDataERK6_TSizeIiES3_RK7_TPointIiE _ZN6TArrayI8TWStringE13RoundCapacityEi _ZN6TArrayI8TWStringE8ExpandAtEii _ZN6TArrayI8TWStringEC1Ei _ZN6TArrayI8TWStringED1Ev _ZN6TArrayI8TWStringED0Ev _ZNK6TArrayI8TWStringEixEi _ZN6TArrayIN10TTextTable9ColHeaderEE13RoundCapacityEi _ZN10TTextTable9ColHeaderaSERKS0_ _ZN6TArrayIN10TTextTable9ColHeaderEE8ExpandAtEii _ZN10TTextTable9ColHeaderD1Ev _ZN10TTextTable9ColHeaderC1Ev _ZN6TArrayIN10TTextTable9ColHeaderEEC1Ei _ZN6TArrayIN10TTextTable9ColHeaderEED1Ev _ZN6TArrayIN10TTextTable9ColHeaderEED0Ev _ZNK6TArrayIN10TTextTable9ColHeaderEEixEi _ZN10TTextTable11SetPropertyERKNS_8PropertyE _ZN10TTextTable8PropertyC1Ev _ZN10TTextTable8PropertyD1Ev _ZN10TTextTable8PropertyC1ERKS0_ _ZN10TTextTableC1Eiiiiii _ZN10TTextTableC2Eiiiiii _ZN10TTextTableD1Ev _ZN10TTextTableD0Ev _ZN10TTextTableD2Ev _ZNK10TTextTable11GetPropertyEv _ZN10TTextTable11SetCellTextEiiRK8TWString _ZNK10TTextTable11GetCellTextEii _ZN10TTextTable16SetRowHeaderTextEiRK8TWString _ZNK10TTextTable16GetRowHeaderTextEi _ZN10TTextTable19SetColumnHeaderTextEiRK8TWString _ZNK10TTextTable19GetColumnHeaderTextEi _ZN10TTextTable19SetFixedColumnWidthEii _ZNK10TTextTable19GetFixedColumnWidthEi _ZN10TTextTable24SetProportionColumnWidthEij _ZNK10TTextTable24GetProportionColumnWidthEi _ZN10TTextTable12UpdateLayoutERK6_TSizeIiE _ZN10TTextTable19ClientResizeHandlerER10EventParam _ZN10TTextTable21ColHeaderPaintHandlerER10EventParam _ZN10TTextTable21RowHeaderPaintHandlerER10EventParam _ZN10TTextTable20CellAreaPaintHandlerER10EventParam _ZN10TTextTable11NodeHandlerER10EventParam _ZN10TTextTable22ScrollBarChangeHandlerER10EventParam _ZN10TTextTable26ScrollContentChangeHandlerER10EventParam _ZN10TTextTable14HScrollHandlerER10EventParam _ZN10TTextTable14VScrollHandlerER10EventParam _ZN10TTextTable21ViewportResizeHandlerER10EventParam _ZN10TTextTable8PropertyC2Ev _ZN10TTextTable8PropertyD2Ev
	IMPORTS _ZTVSt9exception _ZTVSt13bad_exception _ZTVSt9bad_alloc _ZTV6TImage _ZTV14TEventDelegate _ZTV6TArrayIP5TNodeE _ZTV6TArrayI9ColorStopE _ZTI14TEventDelegate _ZTI6TArrayIP5TNodeE _ZTI6TImage _ZTI6TArrayI9ColorStopE _ZTISt9exception _ZTISt13bad_exception _ZTISt9bad_alloc _ZTS14TEventDelegate _ZTS6TArrayIP5TNodeE _ZTS6TImage _ZTS6TArrayI9ColorStopE _ZTSSt9exception _ZTSSt13bad_exception _ZTSSt9bad_alloc _ZdlPv __frameinfo_used _Znaj _ZdaPv memcpy __cxa_allocate_exception __cxa_throw _ZN6_TRectIiE8nullRectE _ZN5TNodeC2EiiiiP14TEventDelegateP17TChildrenDelegate _ZTV10TNodeArray memset _ZN5TNodeD2Ev __diab_Unwind_Resume __diab_personality_v0 _Znwj _ZN8TPainter8DrawLineERK7_TPointIiES3_ _ZN11TCustomFillC1Ev _ZN11TCustomFillD1Ev _ZN11TCustomFillC1ERKS_ _ZN11TCustomFillaSERKS_ _ZTV5TFont _ZN5TFontaSERKS_ _ZN14TScrollBarNode13SetScrollDataEiii __cxa_vec_new2 __cxa_vec_delete _ZN5TNode18OnChildBoundChangeEP8TControl _ZN5TNode8OnResizeEv _ZN5TNode6UpdateEv _ZN15ControlPropertyC2E11ControlType _ZN5TFontC1Ev _ZN15ControlPropertyD2Ev _ZN5TFontD1Ev _ZN8TControlC2EiiiiR5TNode _ZN7TVisualC1E9FrameType _ZTV18TNodeEventDelegate _ZN11TGridLayoutC1Eii _ZN14TScrollBarPairC1EiiiiR8_TMarginIiER7TVisualR12TextProperty _ZN5TNodeC1EiiiiP14TEventDelegateP17TChildrenDelegate _ZN13TScrollHelperC1ERK6_TSizeIiES3_ _ZN7TStringC1Ev _ZN7TString6FormatEiPKcz free _ZN14TScrollBarNode11SetStepSizeEi _ZN5TNode11AddToParentEPS_ _ZN12TApplication8InstanceEv _ZNK12TApplication11GetPropertyE11ControlType _ZN13TScrollHelperD1Ev _ZN5TNodeD1Ev _ZN14TScrollBarPairD1Ev _ZN11TGridLayoutD1Ev _ZN7TVisualD1Ev _ZN8TControlD2Ev _ZN11TGridLayout8DoLayoutERK6_TRectIiE _ZNK11TGridLayout11GetCellRectERK8GridCell _ZN5TNode12SetBoundRectERK6_TRectIiE _ZN8TPainter11SetClipRectERK6_TRectIiE _ZNK7TVisual4DrawER8TPainterRK11VisualStateRK6_TRectIiE _ZN8TPainter12SetTextColorERK6TColor _ZN8TPainter7SetFontERK5TFont _ZN8TPainter11DrawUCSTextERK8TWStringRK6_TRectIiE23TextHorizontalAlignment21TextVerticalAlignment _ZN8TPainter13ClearClipRectEv _ZN5TNode16SetBoundPositionERK7_TPointIiE _ZN13TScrollHelper9XScrollToEiP7_TEventI10EventParamE _ZN13TScrollHelper9YScrollToEiP7_TEventI10EventParamE __div32 _ZN5TNode12SetBoundSizeERK6_TSizeIiE _ZN13TScrollHelper7SetInfoERK6_TSizeIiES3_RK7_TPointIiEP7_TEventI10EventParamE __cxa_pure_virtual _ZTVN10__cxxabiv117__class_type_infoE _ZTVN10__cxxabiv120__si_class_type_infoE _ZTI8TControl
	DECLARES 
	USES 
}
Module tgsTextTable.o {
	OBJECT += libtilcon.a::tgsTextTable.o
}
ObjectFile libtilcon.a::tgsMultiLineEdit.o {
	NAME Object file tgsMultiLineEdit.o from archive libtilcon.a
	EXPORTS _ZTV10TException _ZTV16TTextDataAdaptor _ZTV14TMultiLineEdit _ZTVN14TMultiLineEdit14TMultiLineDataE _ZTV6TArrayI8TWStringE _ZTI10TException _ZTI16TTextDataAdaptor _ZTI6TArrayI8TWStringE _ZTI14TMultiLineEdit _ZTIN14TMultiLineEdit14TMultiLineDataE _ZTS10TException _ZTS16TTextDataAdaptor _ZTS6TArrayI8TWStringE _ZTS14TMultiLineEdit _ZTSN14TMultiLineEdit14TMultiLineDataE _ZN10TExceptionD1Ev _ZN10TExceptionD0Ev _ZN8TWStringC1Ev _ZN8TWStringC1EPKw _ZN8TWStringD1Ev _ZN8TWStringaSERKS_ _ZNK8_TMarginIiEneERKS0_ _ZN16TTextDataAdaptorD1Ev _ZN16TTextDataAdaptorD0Ev _ZN6TArrayI8TWStringED1Ev _ZN6TArrayI8TWStringED0Ev _ZN6TArrayI8TWStringE13RoundCapacityEi _ZN6TArrayI8TWStringE8ExpandAtEii _ZN6TArrayI8TWStringE8InsertAtEiRKS0_ _ZN6TArrayI8TWStringE5ClearEv _ZNK6TArrayI8TWStringEixEi _ZN14TMultiLineEdit14TMultiLineDataC1Ev _ZN14TMultiLineEdit14TMultiLineDataD1Ev _ZN14TMultiLineEditC1Eiiii _ZN14TMultiLineEditC2Eiiii _ZN14TMultiLineEditD1Ev _ZN14TMultiLineEditD0Ev _ZN14TMultiLineEditD2Ev _ZN14TMultiLineEdit7AddLineERK8TWString _ZN14TMultiLineEdit10SetContentEPKc _ZN14TMultiLineEdit12ClearContentEv _ZN14TMultiLineEdit13UpdateContentEv _ZN14TMultiLineEdit14TMultiLineDataC2Ev _ZN14TMultiLineEdit14TMultiLineDataD0Ev _ZN14TMultiLineEdit14TMultiLineDataD2Ev _ZNK14TMultiLineEdit14TMultiLineData5CountEv _ZNK14TMultiLineEdit14TMultiLineData4ItemEi
	IMPORTS _ZTVSt9exception _ZTVSt13bad_exception _ZTVSt9bad_alloc _ZTV17TChildrenDelegate _ZTV6TImage _ZTV6TArrayIP5TNodeE _ZTV6TArrayI9ColorStopE _ZTI17TChildrenDelegate _ZTI6TArrayIP5TNodeE _ZTI6TImage _ZTI6TArrayI9ColorStopE _ZTISt9exception _ZTISt13bad_exception _ZTISt9bad_alloc _ZTS17TChildrenDelegate _ZTS6TArrayIP5TNodeE _ZTS6TImage _ZTS6TArrayI9ColorStopE _ZTSSt9exception _ZTSSt13bad_exception _ZTSSt9bad_alloc _ZdlPv __frameinfo_used _Znaj __cxa_allocate_exception __cxa_throw memcpy _ZdaPv __cxa_vec_delete __cxa_vec_new2 __diab_Unwind_Resume __diab_personality_v0 _ZN8TControlC2EiiiiR5TNode _ZN14TMultiLineViewC1EiiiiR8_TMarginIiER7TVisualR12TextPropertyP16TTextDataAdaptor _ZN5TNode6UpdateEv _ZN5TNode18OnChildBoundChangeEP8TControl _ZN5TNode8OnResizeEv _ZN14TMultiLineViewD1Ev _ZN8TControlD2Ev _ZN14TMultiLineView13UpdateContentEv _Z10AnsiToWidePwPKci __cxa_pure_virtual _ZTVN10__cxxabiv117__class_type_infoE _ZTVN10__cxxabiv120__si_class_type_infoE _ZTI8TControl
	DECLARES 
	USES 
}
Module tgsMultiLineEdit.o {
	OBJECT += libtilcon.a::tgsMultiLineEdit.o
}
ObjectFile libtilcon.a::tgsSingleLineEditNode.o {
	NAME Object file tgsSingleLineEditNode.o from archive libtilcon.a
	EXPORTS _ZTV10TException _ZTV17TChildrenDelegate _ZTV9TEditNode _ZTV6TArrayIP5TNodeE _ZTVN7_TEventI10EventParamE15THandlerAdaptorE _ZTVN7_TEventI10EventParamE17MemberFuncHandlerI9TEditNodeEE _ZTI10TException _ZTI17TChildrenDelegate _ZTI6TArrayIP5TNodeE _ZTIN7_TEventI10EventParamE15THandlerAdaptorE _ZTIN7_TEventI10EventParamE17MemberFuncHandlerI9TEditNodeEE _ZTI9TEditNode _ZTS10TException _ZTS17TChildrenDelegate _ZTS6TArrayIP5TNodeE _ZTSN7_TEventI10EventParamE15THandlerAdaptorE _ZTSN7_TEventI10EventParamE17MemberFuncHandlerI9TEditNodeEE _ZTS9TEditNode _ZN10TExceptionD1Ev _ZN10TExceptionD0Ev _ZN6TColorC1Ej _ZN6TColorC1ERKS_ _ZN8TWStringC1EPKw _ZN8TWStringC1EPKwi _ZN8TWStringC1ERKS_ _ZN8TWStringaSERKS_ _ZNK8TWString4LeftEi _ZN8TWString7ReplaceEiiRKS_ _ZN6_TRectIiEC1Ev _ZN6_TRectIiEC1ERKS0_ _ZN6_TRectIiEC1ERK7_TPointIiERK6_TSizeIiE _ZNK6_TRectIiE6AdjustERK8_TMarginIiE _ZNK6_TRectIiEmiERK7_TPointIiE _ZNK6_TRectIiE8ContainsERK7_TPointIiE _ZN6TArrayIP5TNodeED1Ev _ZN6TArrayIP5TNodeED0Ev _ZN14TNodeContainerC1EiiiiP14TEventDelegate _ZN7_TEventI10EventParamE10SetHandlerI9TEditNodeEEvPT_NS1_17MemberFuncHandlerIS4_E8FuncTypeE _ZN7_TEventI10EventParamE15THandlerAdaptorD1Ev _ZN7_TEventI10EventParamE15THandlerAdaptorD0Ev _ZN7_TEventI10EventParamE17MemberFuncHandlerI9TEditNodeED1Ev _ZN7_TEventI10EventParamE17MemberFuncHandlerI9TEditNodeED0Ev _ZNK7_TEventI10EventParamE17MemberFuncHandlerI9TEditNodeE6InvokeERS0_ _ZN7_TEventI10EventParamE17MemberFuncHandlerI9TEditNodeE3dupEv _ZN8TPainter8DrawLineEiiii _ZN6TTimerC1Ev _ZN9TEditNode12ResetSelInfoEv _ZNK8_TLinearIiE5ClampEi _ZN9TEditNode18MoveCursorIntoViewEv _ZN9TEditNode10LayoutTextEv _ZN9TEditNode7SetTextERK8TWString _ZN9TEditNodeC1EiiiiR8_TMarginIiER7TVisualR12TextPropertyRK8TWString _ZN9TEditNodeC2EiiiiR8_TMarginIiER7TVisualR12TextPropertyRK8TWString _ZN9TEditNodeD1Ev _ZN9TEditNodeD0Ev _ZN9TEditNodeD2Ev _ZNK9TEditNode7GetTextEv _ZN9TEditNode9ClearTextEv _ZN9TEditNode16SetMaxTextLengthEi _ZN9TEditNode17TextResizeHandlerER10EventParam _ZNK9TEditNode18DrawBlinkingCursorER8TPainter _ZN9TEditNode16TextPaintHandlerER10EventParam _ZN9TEditNode16TextMouseHandlerER10EventParam _ZN9TEditNode7AddCharEw _ZN9TEditNode9BackspaceEv _ZN9TEditNode6DeleteEv _ZN9TEditNode14MoveCursorHomeEv _ZN9TEditNode13MoveCursorEndEv _ZN9TEditNode14MoveCursorLeftEv _ZN9TEditNode15MoveCursorRightEv _ZN9TEditNode15KeyboardHandlerER10EventParam _ZN9TEditNode9SelectAllEv _ZN9TEditNode16GainFocusHandlerER10EventParam _ZN9TEditNode16LoseFocusHandlerER10EventParam _ZN9TEditNode11NodeHandlerER10EventParam _ZN9TEditNode18CursorTimerHandlerER10EventParam _ZN9TEditNode16DragTimerHandlerER10EventParam
	IMPORTS _ZTVSt9exception _ZTVSt13bad_exception _ZTVSt9bad_alloc _ZTV6TImage _ZTV14TEventDelegate _ZTV6TArrayI9ColorStopE _ZTI14TEventDelegate _ZTI6TImage _ZTI6TArrayI9ColorStopE _ZTISt9exception _ZTISt13bad_exception _ZTISt9bad_alloc _ZTS14TEventDelegate _ZTS6TImage _ZTS6TArrayI9ColorStopE _ZTSSt9exception _ZTSSt13bad_exception _ZTSSt9bad_alloc _ZdlPv __frameinfo_used __cxa_allocate_exception __cxa_throw _Znaj memcpy _ZdaPv _ZN6_TRectIiE8nullRectE _ZN5TNodeC2EiiiiP14TEventDelegateP17TChildrenDelegate _ZTV14TNodeContainer _Znwj __diab_Unwind_Resume __diab_personality_v0 _ZN8TPainter8DrawLineERK7_TPointIiES3_ _ZNK5TFont10GetMetricsER11FontMetrics _ZNK5TFont12GetTextWidthEPKwj _ZN5TFont18CalculateTextBoundERK6_TRectIiERK6_TSizeIiE23TextHorizontalAlignment21TextVerticalAlignment _ZN5TNode12SetBoundRectERK6_TRectIiE _ZN5TNode6UpdateEv _ZTV18TNodeEventDelegate _ZN5TNodeC1EiiiiP14TEventDelegateP17TChildrenDelegate _ZN5TNode18SetVisualStateMaskEiiii _ZN14TNodeContainer8AddChildEP5TNodei _ZN5TNodeD1Ev _ZN5TNodeD2Ev _ZN8TPainter6SetPenERK4TPen _ZN8TPainter12SetTextColorERK6TColor _ZN8TPainter7SetFontERK5TFont _ZN8TPainter11DrawUCSTextERK8TWStringRK6_TRectIiE23TextHorizontalAlignment21TextVerticalAlignment _ZN8TPainter11SetClipRectERK6_TRectIiE _ZN12TPixelBufferC1Ev _ZN8TPainter8SetBrushERK6TBrush _ZN12TPixelBufferD1Ev _ZN8TPainter8FillRectERK6_TRectIiE _ZN8TPainter13ClearClipRectEv _ZN6TTimer5StartEv _ZNK5TFont12WidthToIndexEiRiPKwi _ZN6TTimer4StopEv _ZNK7TVisual4DrawER8TPainterRK11VisualStateRK6_TRectIiE __cxa_pure_virtual _ZNK14TNodeContainer8GetCountEv _ZN14TNodeContainer7GetNodeEi _ZThn40_NK14TNodeContainer8GetCountEv _ZThn40_N14TNodeContainer7GetNodeEi _ZTVN10__cxxabiv117__class_type_infoE _ZTVN10__cxxabiv120__si_class_type_infoE _ZTI14TNodeContainer
	DECLARES 
	USES 
}
Module tgsSingleLineEditNode.o {
	OBJECT += libtilcon.a::tgsSingleLineEditNode.o
}
ObjectFile libtilcon.a::tgsLabelNode.o {
	NAME Object file tgsLabelNode.o from archive libtilcon.a
	EXPORTS _ZTV10TLabelNode _ZTVN7_TEventI10EventParamE15THandlerAdaptorE _ZTVN7_TEventI10EventParamE17MemberFuncHandlerI10TLabelNodeEE _ZTIN7_TEventI10EventParamE15THandlerAdaptorE _ZTIN7_TEventI10EventParamE17MemberFuncHandlerI10TLabelNodeEE _ZTI10TLabelNode _ZTSN7_TEventI10EventParamE15THandlerAdaptorE _ZTSN7_TEventI10EventParamE17MemberFuncHandlerI10TLabelNodeEE _ZTS10TLabelNode _ZN8TWStringC1ERKS_ _ZNK6_TRectIiE6AdjustERK8_TMarginIiE _ZNK6_TRectIiEmiERK7_TPointIiE _ZN7_TEventI10EventParamE10SetHandlerI10TLabelNodeEEvPT_NS1_17MemberFuncHandlerIS4_E8FuncTypeE _ZN7_TEventI10EventParamE15THandlerAdaptorD1Ev _ZN7_TEventI10EventParamE15THandlerAdaptorD0Ev _ZN7_TEventI10EventParamE17MemberFuncHandlerI10TLabelNodeED1Ev _ZN7_TEventI10EventParamE17MemberFuncHandlerI10TLabelNodeED0Ev _ZNK7_TEventI10EventParamE17MemberFuncHandlerI10TLabelNodeE6InvokeERS0_ _ZN7_TEventI10EventParamE17MemberFuncHandlerI10TLabelNodeE3dupEv _ZN10TLabelNodeC1EiiiiRK8TWStringR8_TMarginIiER7TVisualR12TextProperty _ZN10TLabelNodeC2EiiiiRK8TWStringR8_TMarginIiER7TVisualR12TextProperty _ZN10TLabelNodeD1Ev _ZN10TLabelNodeD0Ev _ZN10TLabelNodeD2Ev _ZN10TLabelNode11NodeHandlerER10EventParam
	IMPORTS _ZTVSt9exception _ZTVSt13bad_exception _ZTVSt9bad_alloc _ZTV10TException _ZTV17TChildrenDelegate _ZTV6TImage _ZTV14TEventDelegate _ZTV6TArrayIP5TNodeE _ZTV6TArrayI9ColorStopE _ZTI10TException _ZTI14TEventDelegate _ZTI17TChildrenDelegate _ZTI6TArrayIP5TNodeE _ZTI6TImage _ZTI6TArrayI9ColorStopE _ZTISt9exception _ZTISt13bad_exception _ZTISt9bad_alloc _ZTS10TException _ZTS14TEventDelegate _ZTS17TChildrenDelegate _ZTS6TArrayIP5TNodeE _ZTS6TImage _ZTS6TArrayI9ColorStopE _ZTSSt9exception _ZTSSt13bad_exception _ZTSSt9bad_alloc __frameinfo_used _Znaj memcpy _Znwj __diab_Unwind_Resume __diab_personality_v0 _ZdlPv _ZN5TNodeC2EiiiiP14TEventDelegateP17TChildrenDelegate _ZTV18TNodeEventDelegate _ZdaPv _ZN5TNodeD2Ev _ZNK7TVisual4DrawER8TPainterRK11VisualStateRK6_TRectIiE _ZN8TPainter7SetFontERK5TFont _ZN8TPainter12SetTextColorERK6TColor _ZN8TPainter11DrawUCSTextERK8TWStringRK6_TRectIiE23TextHorizontalAlignment21TextVerticalAlignment __cxa_pure_virtual _ZTVN10__cxxabiv117__class_type_infoE _ZTVN10__cxxabiv120__si_class_type_infoE _ZTI5TNode
	DECLARES 
	USES 
}
Module tgsLabelNode.o {
	OBJECT += libtilcon.a::tgsLabelNode.o
}
ObjectFile libtilcon.a::tgsSingleLineEdit.o {
	NAME Object file tgsSingleLineEdit.o from archive libtilcon.a
	EXPORTS _ZTV10TException _ZTV15TSingleLineEdit _ZTI10TException _ZTI15TSingleLineEdit _ZTS10TException _ZTS15TSingleLineEdit _ZN10TExceptionD1Ev _ZN10TExceptionD0Ev _ZN6TColorC1Ej _ZN6TColorC1ERKS_ _ZN8TWStringC1EPKw _ZN13TCustomVisualC1Ev _ZN13TCustomVisualC1ERKS_ _ZN13TCustomVisualD1Ev _ZN13TCustomVisualaSERKS_ _ZN12TextPropertyC1ERKS_ _ZN12TextPropertyaSERKS_ _ZN8_TMarginIiEC1ERKS0_ _ZNK8_TMarginIiEneERKS0_ _ZN15TSingleLineEdit11SetPropertyERKNS_8PropertyE _ZN15TSingleLineEdit8PropertyC1Ev _ZN15TSingleLineEdit8PropertyD1Ev _ZN15TSingleLineEdit8PropertyC1ERKS0_ _ZN15TSingleLineEditC1EiiiiRK8TWString _ZN15TSingleLineEditC2EiiiiRK8TWString _ZN15TSingleLineEditD1Ev _ZN15TSingleLineEditD0Ev _ZN15TSingleLineEditD2Ev _ZNK15TSingleLineEdit11GetPropertyEv _ZN15TSingleLineEdit16SetTextFromFloatEf _ZN15TSingleLineEdit8PropertyC2Ev _ZN15TSingleLineEdit8PropertyD2Ev
	IMPORTS _ZTVSt9exception _ZTVSt13bad_exception _ZTVSt9bad_alloc _ZTV17TChildrenDelegate _ZTV6TImage _ZTV6TArrayIP5TNodeE _ZTV6TArrayI9ColorStopE _ZTI17TChildrenDelegate _ZTI6TArrayIP5TNodeE _ZTI6TImage _ZTI6TArrayI9ColorStopE _ZTISt9exception _ZTISt13bad_exception _ZTISt9bad_alloc _ZTS17TChildrenDelegate _ZTS6TArrayIP5TNodeE _ZTS6TImage _ZTS6TArrayI9ColorStopE _ZTSSt9exception _ZTSSt13bad_exception _ZTSSt9bad_alloc _ZdlPv __frameinfo_used __cxa_allocate_exception __cxa_throw _Znaj memcpy _ZN11TCustomFillC1Ev _ZN11TCustomFillD1Ev __diab_Unwind_Resume __diab_personality_v0 _ZN11TCustomFillC1ERKS_ _ZN11TCustomFillaSERKS_ _ZTV5TFont _ZN5TFontaSERKS_ _ZN9TEditNode16SetMaxTextLengthEi _ZN5TNode18OnChildBoundChangeEP8TControl _ZN5TNode8OnResizeEv _ZN5TNode6UpdateEv _ZN15ControlPropertyC2E11ControlType _ZN5TFontC1Ev _ZN15ControlPropertyD2Ev _ZN5TFontD1Ev _ZN8TControlC2EiiiiR5TNode _ZN9TEditNodeC1EiiiiR8_TMarginIiER7TVisualR12TextPropertyRK8TWString _ZN12TApplication8InstanceEv _ZNK12TApplication11GetPropertyE11ControlType _ZN9TEditNodeD1Ev _ZN8TControlD2Ev snprintf strlen _ZN9TEditNode7SetTextERK8TWString _ZdaPv _ZTVN10__cxxabiv117__class_type_infoE _ZTVN10__cxxabiv120__si_class_type_infoE _ZTI8TControl
	DECLARES 
	USES 
}
Module tgsSingleLineEdit.o {
	OBJECT += libtilcon.a::tgsSingleLineEdit.o
}
ObjectFile libtilcon.a::tgsLabel.o {
	NAME Object file tgsLabel.o from archive libtilcon.a
	EXPORTS _ZTV6TLabel _ZTVN7_TEventI10EventParamE15THandlerAdaptorE _ZTVN7_TEventI10EventParamE17MemberFuncHandlerI6TLabelEE _ZTIN7_TEventI10EventParamE15THandlerAdaptorE _ZTIN7_TEventI10EventParamE17MemberFuncHandlerI6TLabelEE _ZTI6TLabel _ZTSN7_TEventI10EventParamE15THandlerAdaptorE _ZTSN7_TEventI10EventParamE17MemberFuncHandlerI6TLabelEE _ZTS6TLabel _ZN6TColorC1Ej _ZN6TColorC1ERKS_ _ZN8TWStringC1ERKS_ _ZNK6_TRectIiE6AdjustERK8_TMarginIiE _ZNK6_TRectIiEmiERK7_TPointIiE _ZN7_TEventI10EventParamE10SetHandlerI6TLabelEEvPT_NS1_17MemberFuncHandlerIS4_E8FuncTypeE _ZN7_TEventI10EventParamE15THandlerAdaptorD1Ev _ZN7_TEventI10EventParamE15THandlerAdaptorD0Ev _ZN7_TEventI10EventParamE17MemberFuncHandlerI6TLabelED1Ev _ZN7_TEventI10EventParamE17MemberFuncHandlerI6TLabelED0Ev _ZNK7_TEventI10EventParamE17MemberFuncHandlerI6TLabelE6InvokeERS0_ _ZN7_TEventI10EventParamE17MemberFuncHandlerI6TLabelE3dupEv _ZN13TCustomVisualC1Ev _ZN13TCustomVisualC1ERKS_ _ZN13TCustomVisualD1Ev _ZN13TCustomVisualaSERKS_ _ZN12TextPropertyC1ERKS_ _ZN12TextPropertyaSERKS_ _ZN8_TMarginIiEC1ERKS0_ _ZNK8_TMarginIiEneERKS0_ _ZN6TLabel11SetPropertyERKNS_8PropertyE _ZN6TLabel8PropertyC1Ev _ZN6TLabel8PropertyD1Ev _ZN6TLabel8PropertyC1ERKS0_ _ZN6TLabelC1EiiiiRK8TWString _ZN6TLabelC2EiiiiRK8TWString _ZN6TLabelD1Ev _ZN6TLabelD0Ev _ZN6TLabelD2Ev _ZNK6TLabel11GetPropertyEv _ZN6TLabel7OnPaintERN5TNode15PaintEventParamE _ZN6TLabel11NodeHandlerER10EventParam _ZN6TLabel8PropertyC2Ev _ZN6TLabel8PropertyD2Ev
	IMPORTS _ZTVSt9exception _ZTVSt13bad_exception _ZTVSt9bad_alloc _ZTV10TException _ZTV17TChildrenDelegate _ZTV6TImage _ZTV14TEventDelegate _ZTV6TArrayIP5TNodeE _ZTV6TArrayI9ColorStopE _ZTI10TException _ZTI14TEventDelegate _ZTI17TChildrenDelegate _ZTI6TArrayIP5TNodeE _ZTI6TImage _ZTI6TArrayI9ColorStopE _ZTISt9exception _ZTISt13bad_exception _ZTISt9bad_alloc _ZTS10TException _ZTS14TEventDelegate _ZTS17TChildrenDelegate _ZTS6TArrayIP5TNodeE _ZTS6TImage _ZTS6TArrayI9ColorStopE _ZTSSt9exception _ZTSSt13bad_exception _ZTSSt9bad_alloc __frameinfo_used _Znaj memcpy _Znwj __diab_Unwind_Resume __diab_personality_v0 _ZdlPv _ZN11TCustomFillC1Ev _ZN11TCustomFillD1Ev _ZN11TCustomFillC1ERKS_ _ZN11TCustomFillaSERKS_ _ZTV5TFont _ZN5TFontaSERKS_ _ZN5TNode18OnChildBoundChangeEP8TControl _ZN5TNode8OnResizeEv _ZN5TNode6UpdateEv _ZN15ControlPropertyC2E11ControlType _ZN5TFontC1Ev _ZN15ControlPropertyD2Ev _ZN5TFontD1Ev _ZN8TControlC2EiiiiR5TNode _ZTV18TNodeEventDelegate _ZN5TNodeC1EiiiiP14TEventDelegateP17TChildrenDelegate _ZN12TApplication8InstanceEv _ZNK12TApplication11GetPropertyE11ControlType _ZdaPv _ZN5TNodeD1Ev _ZN8TControlD2Ev _ZNK7TVisual4DrawER8TPainterRK11VisualStateRK6_TRectIiE _ZN8TPainter7SetFontERK5TFont _ZN8TPainter12SetTextColorERK6TColor _ZN8TPainter11DrawUCSTextERK8TWStringRK6_TRectIiE23TextHorizontalAlignment21TextVerticalAlignment __cxa_pure_virtual _ZTVN10__cxxabiv117__class_type_infoE _ZTVN10__cxxabiv120__si_class_type_infoE _ZTI8TControl
	DECLARES 
	USES 
}
Module tgsLabel.o {
	OBJECT += libtilcon.a::tgsLabel.o
}
ObjectFile libtilcon.a::tgsMultiLineView.o {
	NAME Object file tgsMultiLineView.o from archive libtilcon.a
	EXPORTS _ZTV10TException _ZTV17TChildrenDelegate _ZTV14TMultiLineView _ZTVN7_TEventI10EventParamE15THandlerAdaptorE _ZTV6TArrayIN14TMultiLineView8LineInfoEE _ZTV6TArrayIN14TMultiLineView7RowInfoEE _ZTVN7_TEventI10EventParamE17MemberFuncHandlerI14TMultiLineViewEE _ZTI10TException _ZTI17TChildrenDelegate _ZTIN7_TEventI10EventParamE15THandlerAdaptorE _ZTIN7_TEventI10EventParamE17MemberFuncHandlerI14TMultiLineViewEE _ZTI6TArrayIN14TMultiLineView8LineInfoEE _ZTI6TArrayIN14TMultiLineView7RowInfoEE _ZTI14TMultiLineView _ZTS10TException _ZTS17TChildrenDelegate _ZTSN7_TEventI10EventParamE15THandlerAdaptorE _ZTSN7_TEventI10EventParamE17MemberFuncHandlerI14TMultiLineViewEE _ZTS6TArrayIN14TMultiLineView8LineInfoEE _ZTS6TArrayIN14TMultiLineView7RowInfoEE _ZTS14TMultiLineView _ZN10TExceptionD1Ev _ZN10TExceptionD0Ev _ZN6_TRectIiEC1ERKS0_ _ZNK6_TRectIiEmiERK7_TPointIiE _ZNK6_TRectIiE8ContainsERK7_TPointIiE _ZN10TNodeArrayC1EiiiiP14TEventDelegatei _ZN7_TEventI10EventParamE10SetHandlerI14TMultiLineViewEEvPT_NS1_17MemberFuncHandlerIS4_E8FuncTypeE _ZN7_TEventI10EventParamE15THandlerAdaptorD1Ev _ZN7_TEventI10EventParamE15THandlerAdaptorD0Ev _ZN7_TEventI10EventParamE17MemberFuncHandlerI14TMultiLineViewED1Ev _ZN7_TEventI10EventParamE17MemberFuncHandlerI14TMultiLineViewED0Ev _ZNK7_TEventI10EventParamE17MemberFuncHandlerI14TMultiLineViewE6InvokeERS0_ _ZN7_TEventI10EventParamE17MemberFuncHandlerI14TMultiLineViewE3dupEv _ZN6TTimerC1Ev _ZN14TScrollBarPair20SetScrollBarPairDataERK6_TSizeIiES3_RK7_TPointIiE _ZN6TArrayIN14TMultiLineView8LineInfoEED1Ev _ZN6TArrayIN14TMultiLineView8LineInfoEED0Ev _ZN6TArrayIN14TMultiLineView8LineInfoEE13RoundCapacityEi _ZN6TArrayIN14TMultiLineView8LineInfoEE8ExpandAtEii _ZN6TArrayIN14TMultiLineView8LineInfoEE8InsertAtEiRKS1_ _ZNK6TArrayIN14TMultiLineView8LineInfoEEixEi _ZN6TArrayIN14TMultiLineView8LineInfoEE8InsertAtEiRKS2_ _ZN6TArrayIN14TMultiLineView8LineInfoEE8ShrinkAtEii _ZN6TArrayIN14TMultiLineView8LineInfoEE8RemoveAtEii _ZN6TArrayIN14TMultiLineView8LineInfoEE5ClearEv _ZN6TArrayIN14TMultiLineView7RowInfoEED1Ev _ZN6TArrayIN14TMultiLineView7RowInfoEED0Ev _ZN6TArrayIN14TMultiLineView7RowInfoEE13RoundCapacityEi _ZN6TArrayIN14TMultiLineView7RowInfoEE8ExpandAtEii _ZN6TArrayIN14TMultiLineView7RowInfoEE8InsertAtEiRKS1_ _ZNK6TArrayIN14TMultiLineView7RowInfoEEixEi _ZN6TArrayIN14TMultiLineView7RowInfoEE8InsertAtEiRKS2_ _ZN6TArrayIN14TMultiLineView7RowInfoEE8ShrinkAtEii _ZN6TArrayIN14TMultiLineView7RowInfoEE8RemoveAtEii _ZN6TArrayIN14TMultiLineView7RowInfoEE5ClearEv _ZN14TMultiLineViewC1EiiiiR8_TMarginIiER7TVisualR12TextPropertyP16TTextDataAdaptor _ZN14TMultiLineViewC2EiiiiR8_TMarginIiER7TVisualR12TextPropertyP16TTextDataAdaptor _ZN14TMultiLineViewD1Ev _ZN14TMultiLineViewD0Ev _ZN14TMultiLineViewD2Ev _ZN14TMultiLineView17AddLineAndRowInfoEiRK6TArrayINS_8LineInfoEERKS0_INS_7RowInfoEE _ZN14TMultiLineView17ParseLineIntoRowsERK8TWStringRNS_8LineInfoER6TArrayINS_7RowInfoEE _ZN14TMultiLineView11OnLineAddedEii _ZN14TMultiLineView8ParseAllEv _ZN14TMultiLineView11SetWrapModeENS_8WrapModeE _ZN14TMultiLineView16EditPaintHandlerER10EventParam _ZN14TMultiLineView16ConvertRowToLineEiiRiS0_ _ZN14TMultiLineView18ConvertPosToRowColERK7_TPointIiERiS4_S4_ _ZN14TMultiLineView19EditMouseMsgHandlerER10EventParam _ZN14TMultiLineView16GainFocusHandlerER10EventParam _ZN14TMultiLineView16LoseFocusHandlerER10EventParam _ZN14TMultiLineView11NodeHandlerER10EventParam _ZN14TMultiLineView14HScrollHandlerER10EventParam _ZN14TMultiLineView14VScrollHandlerER10EventParam _ZN14TMultiLineView18CursorTimerHandlerER10EventParam _ZN14TMultiLineView16DragTimerHandlerER10EventParam _ZN14TMultiLineView16ConvertLineToRowEiiRiS0_ _ZN14TMultiLineView11SetEditSizeERK6_TSizeIiE _ZN14TMultiLineView28TScrollViewportResizeHandlerER10EventParam _ZN14TMultiLineView26ScrollContentChangeHandlerER10EventParam _ZN14TMultiLineView22ScrollBarChangeHandlerER10EventParam _ZN14TMultiLineView19ListMouseMsgHandlerER10EventParam _ZN14TMultiLineView17MouseLeaveHandlerER10EventParam _ZN14TMultiLineView13UpdateContentEv _ZN14TMultiLineView20RemoveLineAndRowInfoEii _ZN14TMultiLineView13OnLineRemovedEii _ZN14TMultiLineView14ScrollTextViewEii _ZN14TMultiLineView18MoveCursorIntoViewEv _ZNK14TMultiLineView18DrawBlinkingCursorER8TPainter
	IMPORTS _ZTVSt9exception _ZTVSt13bad_exception _ZTVSt9bad_alloc _ZTV6TImage _ZTV16TTextDataAdaptor _ZTV14TEventDelegate _ZTV6TArrayIP5TNodeE _ZTV6TArrayI9ColorStopE _ZTI14TEventDelegate _ZTI6TArrayIP5TNodeE _ZTI6TImage _ZTI6TArrayI9ColorStopE _ZTI16TTextDataAdaptor _ZTISt9exception _ZTISt13bad_exception _ZTISt9bad_alloc _ZTS14TEventDelegate _ZTS6TArrayIP5TNodeE _ZTS6TImage _ZTS6TArrayI9ColorStopE _ZTS16TTextDataAdaptor _ZTSSt9exception _ZTSSt13bad_exception _ZTSSt9bad_alloc _ZdlPv __frameinfo_used _ZN5TNodeC2EiiiiP14TEventDelegateP17TChildrenDelegate _ZTV10TNodeArray _Znaj memset _ZN5TNodeD2Ev __diab_Unwind_Resume __diab_personality_v0 _Znwj _ZN14TScrollBarNode13SetScrollDataEiii _ZdaPv __cxa_allocate_exception __cxa_throw _ZN14TScrollBarPairC2EiiiiR8_TMarginIiER7TVisualR12TextProperty _ZTV18TNodeEventDelegate _ZN5TNodeC1EiiiiP14TEventDelegateP17TChildrenDelegate _ZN13TScrollHelperC1ERK6_TSizeIiES3_ _ZN5TNode11AddToParentEPS_ _ZN5TNode8OnResizeEv _ZN5TNode6UpdateEv _ZN14TScrollBarNode11SetStepSizeEi _ZN13TScrollHelperD1Ev _ZN5TNodeD1Ev _ZN14TScrollBarPairD2Ev _ZNK5TFont12GetTextWidthEPKwj _ZNK5TFont12GetPointSizeEv __div32 _Z15GetLineEndIndexRK5TFontRK8TWStringiii _ZN8TPainter12SetTextColorERK6TColor _ZN8TPainter7SetFontERK5TFont _ZN8TPainter11DrawUCSTextEPKwiRK6_TRectIiE23TextHorizontalAlignment21TextVerticalAlignment _Z16TextWidthToIndexRK5TFontPKwiiRi _ZN6TTimer5StartEv _ZN6TTimer4StopEv _ZN13TScrollHelper9XScrollToEiP7_TEventI10EventParamE _ZN13TScrollHelper9YScrollToEiP7_TEventI10EventParamE _ZN5TNode12SetBoundRectERK6_TRectIiE _ZN13TScrollHelper7SetInfoERK6_TSizeIiES3_P7_TEventI10EventParamE _ZN5TNode16SetBoundPositionERK7_TPointIiE _ZNK5TFont10GetMetricsER11FontMetrics _ZN14TScrollBarPair12UpdateLayoutEv __cxa_pure_virtual _ZNK10TNodeArray8GetCountEv _ZN10TNodeArray7GetNodeEi _ZThn40_NK10TNodeArray8GetCountEv _ZThn40_N10TNodeArray7GetNodeEi _ZTVN10__cxxabiv117__class_type_infoE _ZTVN10__cxxabiv120__si_class_type_infoE _ZTI14TScrollBarPair
	DECLARES 
	USES 
}
Module tgsMultiLineView.o {
	OBJECT += libtilcon.a::tgsMultiLineView.o
}
Library libtilcon.a {
	MODULES libtilcon.a::ufhbr24.o libtilcon.a::ufcni14.o libtilcon.a::uflbi08.o libtilcon.a::uftbi08.o libtilcon.a::ufhbr14.o libtilcon.a::uftnr18.o libtilcon.a::uftbi10.o libtilcon.a::uflbr24.o libtilcon.a::ufhbi14.o libtilcon.a::uflbi12.o libtilcon.a::uftni24.o libtilcon.a::ufcbi08.o libtilcon.a::ufcbr18.o libtilcon.a::ufhnr08.o libtilcon.a::uflbr14.o libtilcon.a::uflbr19.o libtilcon.a::uflbbr08.o libtilcon.a::ufcni10.o libtilcon.a::ufhbi12.o libtilcon.a::ufcbr14.o libtilcon.a::ufhni10.o libtilcon.a::ufhbr10.o libtilcon.a::uftni14.o libtilcon.a::ufhni18.o libtilcon.a::uflbni12.o libtilcon.a::ufcbr24.o libtilcon.a::uflbnr19.o libtilcon.a::uflbr10.o libtilcon.a::uftnr10.o libtilcon.a::uftbr10.o libtilcon.a::uflbnr24.o libtilcon.a::ufcbi12.o libtilcon.a::uflbni19.o libtilcon.a::uftbr24.o libtilcon.a::ufcnr08.o libtilcon.a::uflbnr14.o libtilcon.a::uflbbi18.o libtilcon.a::uflnr12.o libtilcon.a::uftni10.o libtilcon.a::ufhbi24.o libtilcon.a::uftni18.o libtilcon.a::uflbbr12.o libtilcon.a::uflni08.o libtilcon.a::uftbi14.o libtilcon.a::ufhbi18.o libtilcon.a::uflbnr12.o libtilcon.a::uflbni24.o libtilcon.a::uflni19.o libtilcon.a::uftbr08.o libtilcon.a::ufhbr12.o libtilcon.a::uflbbi14.o libtilcon.a::uflbnr10.o libtilcon.a::uflbi10.o libtilcon.a::ufcbi24.o libtilcon.a::uflbi18.o libtilcon.a::uftnr08.o libtilcon.a::ufcbi18.o libtilcon.a::ufcnr12.o libtilcon.a::uflbi14.o libtilcon.a::uflnr24.o libtilcon.a::ufhni12.o libtilcon.a::ufcni08.o libtilcon.a::ufhbr08.o libtilcon.a::ufcni12.o libtilcon.a::uflnr19.o libtilcon.a::uflbnr18.o libtilcon.a::ufcbi14.o libtilcon.a::uftbi24.o libtilcon.a::ufhnr24.o libtilcon.a::uflbbi08.o libtilcon.a::ufhbi10.o libtilcon.a::uflbbr18.o libtilcon.a::ufcbr10.o libtilcon.a::uflbbr24.o libtilcon.a::uflbr08.o libtilcon.a::uflnr14.o libtilcon.a::ufhnr14.o libtilcon.a::uflbni10.o libtilcon.a::uflbbr14.o libtilcon.a::ufcbr08.o libtilcon.a::uflni24.o libtilcon.a::uflbr18.o libtilcon.a::ufcbi10.o libtilcon.a::uftnr12.o libtilcon.a::ufhnr18.o libtilcon.a::ufhni24.o libtilcon.a::ufcni18.o libtilcon.a::uftbi12.o libtilcon.a::uftni08.o libtilcon.a::ufcnr18.o libtilcon.a::uflnr10.o libtilcon.a::uflbbi12.o libtilcon.a::ufcnr24.o libtilcon.a::ufhnr12.o libtilcon.a::uflbni14.o libtilcon.a::uflbbr10.o libtilcon.a::uflbbr19.o libtilcon.a::uflnr08.o libtilcon.a::uflbnr08.o libtilcon.a::uflni12.o libtilcon.a::ufcnr14.o libtilcon.a::uflnr18.o libtilcon.a::uftbr18.o libtilcon.a::uflbr12.o libtilcon.a::uflbbi10.o libtilcon.a::uflni14.o libtilcon.a::uflbni18.o libtilcon.a::uftbr14.o libtilcon.a::ufcbr12.o libtilcon.a::ufhnr10.o libtilcon.a::uftni12.o libtilcon.a::uflbi19.o libtilcon.a::ufhni14.o libtilcon.a::ufcni24.o libtilcon.a::uflbbi24.o libtilcon.a::ufcnr10.o libtilcon.a::uflbi24.o libtilcon.a::uftnr24.o libtilcon.a::uftbi18.o libtilcon.a::uflni10.o libtilcon.a::uflbni08.o libtilcon.a::uflni18.o libtilcon.a::uftbr12.o libtilcon.a::ufhni08.o libtilcon.a::uftnr14.o libtilcon.a::ufhbi08.o libtilcon.a::uflbbi19.o libtilcon.a::ufhbr18.o libtilcon.a::BuiltInTtfFont.o libtilcon.a::vxfbPlatformSupport.o libtilcon.a::tilconConfig.o libtilcon.a::trPainter.o libtilcon.a::trEllipse.o libtilcon.a::trRasterizer.o libtilcon.a::trPath.o libtilcon.a::trVectorFont.o libtilcon.a::trColorBuffer.o libtilcon.a::trBmfFont.o libtilcon.a::trDisplaySystem.o libtilcon.a::tgsClassicVisual.o libtilcon.a::tgsDefaultVisual.o libtilcon.a::tgsContainer.o libtilcon.a::tgsVectorPainter.o libtilcon.a::tgsAnsiString.o libtilcon.a::tgsBasic.o libtilcon.a::tgsPath.o libtilcon.a::tgsBmfFontEngine.o libtilcon.a::tgsApplication.o libtilcon.a::tgsLoaderBmp.o libtilcon.a::tgsImage.o libtilcon.a::tgsControl.o libtilcon.a::tgsLoaderJpeg.o libtilcon.a::tgsVisual.o libtilcon.a::tgsColor.o libtilcon.a::tgsTtfFontEngine.o libtilcon.a::tgsWindow.o libtilcon.a::tgsTimer.o libtilcon.a::tgsTextUtility.o libtilcon.a::tgsFont.o libtilcon.a::tgsNode.o libtilcon.a::tgsGridLayout.o libtilcon.a::tgsPixelBuffer.o libtilcon.a::tgsWindowSystem.o libtilcon.a::tgsSurface.o libtilcon.a::tgsPainter.o libtilcon.a::tgsCustomFill.o libtilcon.a::tgsLoaderPng.o libtilcon.a::twdButton.o libtilcon.a::twdTab.o libtilcon.a::twdList.o libtilcon.a::twdFile.o libtilcon.a::twdBorder.o libtilcon.a::twdComboBox.o libtilcon.a::twdWindow.o libtilcon.a::twdChart.o libtilcon.a::twdSingleLineEdit.o libtilcon.a::twdScrollArea.o libtilcon.a::twdSlider.o libtilcon.a::twdFileUtility.o libtilcon.a::twdImage.o libtilcon.a::twdPanel.o libtilcon.a::twdRadioButton.o libtilcon.a::twdMultiState.o libtilcon.a::twdNumberBox.o libtilcon.a::twdLabel.o libtilcon.a::tgsMultiStateButton.o libtilcon.a::tgsPushButtonNode.o libtilcon.a::tgsPushButton.o libtilcon.a::tgsToggleButton.o libtilcon.a::tgsLineChart.o libtilcon.a::tgsCheckBox.o libtilcon.a::tgsComboBox.o libtilcon.a::tgsCustomControl.o libtilcon.a::tgsGroupBox.o libtilcon.a::tgsRowPanel.o libtilcon.a::tgsGridPanel.o libtilcon.a::tgsListBox.o libtilcon.a::tgsPicture.o libtilcon.a::tgsProgressBar.o libtilcon.a::tgsRadioButton.o libtilcon.a::tgsScale.o libtilcon.a::tgsScrollArea.o libtilcon.a::tgsScrollBarPair.o libtilcon.a::tgsScrollHelper.o libtilcon.a::tgsScrollBarNode.o libtilcon.a::tgsScrollBar.o libtilcon.a::tgsSlider.o libtilcon.a::tgsSpinBox.o libtilcon.a::tgsSpinLayout.o libtilcon.a::tgsTextSpinBox.o libtilcon.a::tgsTab.o libtilcon.a::tgsTextTable.o libtilcon.a::tgsMultiLineEdit.o libtilcon.a::tgsSingleLineEditNode.o libtilcon.a::tgsLabelNode.o libtilcon.a::tgsSingleLineEdit.o libtilcon.a::tgsLabel.o libtilcon.a::tgsMultiLineView.o
}
