
libtilconDemo.a:

tilconDemoRandomCurve.o:
00000018 d FLOAT_TEMP.2086
0000001c d FLOAT_TEMP.2087
00000020 d FLOAT_TEMP.2088
00000024 d FLOAT_TEMP.2089
00000028 d FLOAT_TEMP.2090
0000002c d FLOAT_TEMP.2091
00000030 d FLOAT_TEMP.2119
00000038 d FLOAT_TEMP.2120
0000003c d FLOAT_TEMP.2121
00000040 d FLOAT_TEMP.2122
00000044 d FLOAT_TEMP.2123
         U _ZTVSt9exception
         U _ZTVSt13bad_exception
         U _ZTVSt9bad_alloc
00000000 V _ZTV10TException
         U _ZTV17TChildrenDelegate
00000000 V _ZTV6TImage
00000000 V _ZTV10TilconDemo
00000000 V _ZTV15RandomCurveDemo
         U _ZTV6TArrayIP5TNodeE
00000000 V _ZTVN7_TEventI10EventParamE15THandlerAdaptorE
         U _ZTV6TArrayI9ColorStopE
00000000 V _ZTVN7_TEventI10EventParamE17MemberFuncHandlerI15RandomCurveDemoEE
00000000 V _ZTI10TException
         U _ZTI17TChildrenDelegate
         U _ZTI6TArrayIP5TNodeE
00000000 V _ZTIN7_TEventI10EventParamE15THandlerAdaptorE
00000000 V _ZTIN7_TEventI10EventParamE17MemberFuncHandlerI15RandomCurveDemoEE
00000000 V _ZTI6TImage
         U _ZTI6TArrayI9ColorStopE
00000000 V _ZTI10TilconDemo
00000000 V _ZTI15RandomCurveDemo
         U _ZTISt9exception
         U _ZTISt13bad_exception
         U _ZTISt9bad_alloc
00000000 V _ZTS10TException
         U _ZTS17TChildrenDelegate
         U _ZTS6TArrayIP5TNodeE
00000000 V _ZTSN7_TEventI10EventParamE15THandlerAdaptorE
00000000 V _ZTSN7_TEventI10EventParamE17MemberFuncHandlerI15RandomCurveDemoEE
00000000 V _ZTS6TImage
         U _ZTS6TArrayI9ColorStopE
00000000 V _ZTS10TilconDemo
00000000 V _ZTS15RandomCurveDemo
         U _ZTSSt9exception
         U _ZTSSt13bad_exception
         U _ZTSSt9bad_alloc
00000000 T _ZN10TExceptionD1Ev
00000000 T _ZN10TExceptionD0Ev
         U _ZdlPv
00000000 T _ZN6TColorC1Ej
00000000 T _ZN6TColorC1ERKS_
00000000 T _ZN8TWStringC1EPKw
         U __frameinfo_used
         U __cxa_allocate_exception
         U __cxa_throw
         U _Znaj
         U memcpy
00000000 T _ZN6_TRectIiEC1ERKS0_
00000000 T _ZN6_TRectIiEC1ERK7_TPointIiERK6_TSizeIiE
00000000 T _ZNK6_TRectIiEmiERK7_TPointIiE
00000000 T _ZN7_TEventI10EventParamE10SetHandlerI15RandomCurveDemoEEvPT_NS1_17MemberFuncHandlerIS4_E8FuncTypeE
         U _Znwj
         U __diab_Unwind_Resume
         U __diab_personality_v0
00000000 T _ZN7_TEventI10EventParamE15THandlerAdaptorD1Ev
00000000 T _ZN7_TEventI10EventParamE15THandlerAdaptorD0Ev
00000000 T _ZN7_TEventI10EventParamE17MemberFuncHandlerI15RandomCurveDemoED1Ev
00000000 T _ZN7_TEventI10EventParamE17MemberFuncHandlerI15RandomCurveDemoED0Ev
00000000 T _ZNK7_TEventI10EventParamE17MemberFuncHandlerI15RandomCurveDemoE6InvokeERS0_
00000000 T _ZN7_TEventI10EventParamE17MemberFuncHandlerI15RandomCurveDemoE3dupEv
00000000 T _ZNK10TSharedPtrI9ImageDataE5DerefEv
         U _ZN9ImageDataD1Ev
00000000 T _ZN6TImageD1Ev
00000000 T _ZN6TImageD0Ev
00000000 T _ZN6TPaintC1ERK6TColor
         U _ZN9TGradientC1Ev
         U _ZN12TPixelBufferC1Ev
         U _ZN9TGradientD1Ev
00000000 T _ZN6TPaintD1Ev
         U _ZN12TPixelBufferD1Ev
00000000 T _ZN6TTimerC1Ev
00000000 T _ZNK8_TMarginIiEneERKS0_
00000000 T _ZNK6TArrayIN11TGridLayout10LayoutInfoEEixEi
00000000 T _ZN11TGridLayout10SetRowSizeEiNS_12LayoutMethodEi
00000000 T _ZN11TGridLayout13SetColumnSizeEiNS_12LayoutMethodEi
00000000 T _ZN10TilconDemoC1Eiiiiii
         U _ZN10TGridPanelC2Eiiiiii
         U _ZN5TNode6UpdateEv
         U _ZN5TNode18OnChildBoundChangeEP8TControl
         U _ZN5TNode8OnResizeEv
         U _ZN10TGridPanelD2Ev
00000000 T _ZN10TilconDemoD1Ev
00000000 T _ZN10TilconDemoD0Ev
00000000 T _ZN13TVectorRandomC1Ev
         U __div32
         U rand
00000130 T _ZN13TVectorRandomC2Ev
00000150 T _ZN13TVectorRandomD1Ev
00000154 T _ZN13TVectorRandomD2Ev
00000158 T _ZN13TVectorRandom4DrawER8TPainter
         U cos
         U sin
         U _ZN5TPathC1EjPKhPKf
         U _ZN14TVectorPainter14SetStrokePaintERK6TPaint
         U _ZN14TVectorPainter10StrokePathERK5TPath
         U _ZN14TVectorPainter12SetFillPaintERK6TPaint
         U _ZN14TVectorPainter8FillPathERK5TPath
         U _ZN5TPathD1Ev
0000080c T _ZN15RandomCurveDemoC1Ev
         U _ZN11TCustomFillC1Ev
         U _ZN14TCustomControlC1Eiiii
         U _ZN10TGridPanelC1Eiiiiii
         U _ZN6TLabelC1EiiiiRK8TWString
         U _ZdaPv
         U _ZN12TRadioButtonC1Eiiii
         U _ZN9TCheckBoxC1EiiiiRK8TWString
         U _ZN10TGridPanel10AddControlEP8TControliRK8GridCell
         U _ZN12TRadioButton7AddItemERK8TWString
         U _ZN12TRadioButton15ChangeSelectionEi
         U _ZN12TPixelBufferC1Eii
         U _ZN8TPainterC1Ev
         U _ZN8TPainter10BeginPaintER12TPixelBuffer
         U _ZN8TPainter8SetBrushERK6TBrush
         U _ZN8TPainter8FillRectERK6_TRectIiE
         U _ZN8TPainter8EndPaintEv
         U _ZN6TImageC1ERK12TPixelBuffer
         U _ZN12TPixelBufferC1ERK6TImage
         U _ZN12TPatternFillC1ERK12TPixelBuffer
         U _ZN11TCustomFillaSERK12TPatternFill
         U _ZN12TPatternFillD1Ev
         U _ZN8TPainterD1Ev
         U _ZN9TCheckBoxD1Ev
         U _ZN12TRadioButtonD1Ev
         U _ZN6TLabelD1Ev
         U _ZN10TGridPanelD1Ev
         U _ZN14TCustomControlD1Ev
         U _ZN11TCustomFillD1Ev
000012b0 T _ZN15RandomCurveDemoC2Ev
000012d0 T _ZN15RandomCurveDemoD1Ev
00001470 T _ZN15RandomCurveDemoD0Ev
000014b0 T _ZN15RandomCurveDemoD2Ev
000014d0 T _ZN15RandomCurveDemo12PaintHandlerER10EventParam
         U _ZNK11TCustomFill8FillRectER8TPainterRK6_TRectIiE
         U _ZN14TVectorPainter15TranslateMatrixEff
000015d4 T _ZN15RandomCurveDemo12TimerHandlerER10EventParam
00001620 T _ZN15RandomCurveDemo12RadioHandlerER10EventParam
0000167c T _ZN15RandomCurveDemo8OnAttachEv
         U _ZN6TTimer5StartEv
000016a0 T _ZN15RandomCurveDemo8OnDetachEv
         U _ZN6TTimer4StopEv
         U __cxa_pure_virtual
         U _ZTVN10__cxxabiv117__class_type_infoE
         U _ZTVN10__cxxabiv120__si_class_type_infoE
         U _ZTI10TGridPanel

tilconDemoFont.o:
         U _ZTVSt9exception
         U _ZTVSt13bad_exception
         U _ZTVSt9bad_alloc
00000000 V _ZTV10TException
         U _ZTV17TChildrenDelegate
00000000 V _ZTV6TImage
00000000 V _ZTV10TilconDemo
00000000 V _ZTV8FontDemo
         U _ZTV6TArrayIP5TNodeE
00000000 V _ZTVN7_TEventI10EventParamE15THandlerAdaptorE
         U _ZTV6TArrayI9ColorStopE
00000000 V _ZTVN7_TEventI10EventParamE17MemberFuncHandlerI8FontDemoEE
00000000 V _ZTI10TException
         U _ZTI17TChildrenDelegate
         U _ZTI6TArrayIP5TNodeE
00000000 V _ZTIN7_TEventI10EventParamE15THandlerAdaptorE
00000000 V _ZTIN7_TEventI10EventParamE17MemberFuncHandlerI8FontDemoEE
00000000 V _ZTI6TImage
         U _ZTI6TArrayI9ColorStopE
00000000 V _ZTI10TilconDemo
00000000 V _ZTI8FontDemo
         U _ZTISt9exception
         U _ZTISt13bad_exception
         U _ZTISt9bad_alloc
00000000 V _ZTS10TException
         U _ZTS17TChildrenDelegate
         U _ZTS6TArrayIP5TNodeE
00000000 V _ZTSN7_TEventI10EventParamE15THandlerAdaptorE
00000000 V _ZTSN7_TEventI10EventParamE17MemberFuncHandlerI8FontDemoEE
00000000 V _ZTS6TImage
         U _ZTS6TArrayI9ColorStopE
00000000 V _ZTS10TilconDemo
00000000 V _ZTS8FontDemo
         U _ZTSSt9exception
         U _ZTSSt13bad_exception
         U _ZTSSt9bad_alloc
00000000 T _ZN10TExceptionD1Ev
00000000 T _ZN10TExceptionD0Ev
         U _ZdlPv
00000000 T _ZN6TColorC1Ej
00000000 T _ZN6TColorC1ERKS_
00000000 T _ZN8TWStringC1EPKw
         U __frameinfo_used
         U __cxa_allocate_exception
         U __cxa_throw
         U _Znaj
         U memcpy
00000000 T _ZN6_TRectIiEC1Ev
         U _ZN6_TRectIiE8nullRectE
00000000 T _ZN6_TRectIiEC1ERK7_TPointIiERK6_TSizeIiE
00000000 T _ZNK6_TRectIiEmiERK7_TPointIiE
00000000 T _ZN7_TEventI10EventParamE10SetHandlerI8FontDemoEEvPT_NS1_17MemberFuncHandlerIS4_E8FuncTypeE
         U _Znwj
         U __diab_Unwind_Resume
         U __diab_personality_v0
00000000 T _ZN7_TEventI10EventParamE15THandlerAdaptorD1Ev
00000000 T _ZN7_TEventI10EventParamE15THandlerAdaptorD0Ev
00000000 T _ZN7_TEventI10EventParamE17MemberFuncHandlerI8FontDemoED1Ev
00000000 T _ZN7_TEventI10EventParamE17MemberFuncHandlerI8FontDemoED0Ev
00000000 T _ZNK7_TEventI10EventParamE17MemberFuncHandlerI8FontDemoE6InvokeERS0_
00000000 T _ZN7_TEventI10EventParamE17MemberFuncHandlerI8FontDemoE3dupEv
00000000 T _ZNK10TSharedPtrI9ImageDataE5DerefEv
         U _ZN9ImageDataD1Ev
00000000 T _ZN6TImageD1Ev
00000000 T _ZN6TImageD0Ev
00000000 T _ZNK8_TMarginIiEneERKS0_
00000000 T _ZNK6TArrayIN11TGridLayout10LayoutInfoEEixEi
00000000 T _ZN11TGridLayout10SetRowSizeEiNS_12LayoutMethodEi
00000000 T _ZN11TGridLayout13SetColumnSizeEiNS_12LayoutMethodEi
00000000 T _ZN10TilconDemoC1Eiiiiii
         U _ZN10TGridPanelC2Eiiiiii
         U _ZN5TNode6UpdateEv
         U _ZN5TNode18OnChildBoundChangeEP8TControl
         U _ZN5TNode8OnResizeEv
         U _ZN10TGridPanelD2Ev
00000000 T _ZN10TilconDemoD1Ev
00000000 T _ZN10TilconDemoD0Ev
00000000 T _ZN8FontDemoC1Ev
         U _ZN11TCustomFillC1Ev
         U _ZN14TCustomControlC1Eiiii
         U _ZN10TGridPanelC1Eiiiiii
         U _ZN6TLabelC1EiiiiRK8TWString
         U _ZdaPv
         U _ZN12TRadioButtonC1Eiiii
         U _ZN10TGridPanel10AddControlEP8TControliRK8GridCell
         U _ZN12TRadioButton7AddItemERK8TWString
         U _ZN12TRadioButton12SetSelectionEi
         U _ZN12TPixelBufferC1Eii
         U _ZN8TPainterC1Ev
         U _ZN8TPainter10BeginPaintER12TPixelBuffer
         U _ZN12TPixelBufferC1Ev
         U _ZN8TPainter8SetBrushERK6TBrush
         U _ZN12TPixelBufferD1Ev
         U _ZN8TPainter8FillRectERK6_TRectIiE
         U _ZN8TPainter8EndPaintEv
         U _ZN6TImageC1ERK12TPixelBuffer
         U _ZN12TPixelBufferC1ERK6TImage
         U _ZN12TPatternFillC1ERK12TPixelBuffer
         U _ZN11TCustomFillaSERK12TPatternFill
         U _ZN12TPatternFillD1Ev
         U _ZN8TPainterD1Ev
         U _ZN12TRadioButtonD1Ev
         U _ZN6TLabelD1Ev
         U _ZN10TGridPanelD1Ev
         U _ZN14TCustomControlD1Ev
         U _ZN11TCustomFillD1Ev
000008ec T _ZN8FontDemoC2Ev
0000090c T _ZN8FontDemoD1Ev
00000a30 T _ZN8FontDemoD0Ev
00000a5c T _ZN8FontDemoD2Ev
00000a7c T _ZN8FontDemo11DrawBmfFontER8TPainterRK6_TRectIiE
         U _ZN5TFontC1EPKcj
         U _ZNK5TFont10GetMetricsER11FontMetrics
         U _ZNK5TFont12GetTextWidthEPKwj
         U _ZN8TPainter6SetPenERK4TPen
         U _ZN8TPainter8DrawLineERK7_TPointIiES3_
         U _ZN8TPainter7SetFontERK5TFont
         U _ZN8TPainter11DrawUCSTextERK8TWStringii
         U __cxa_vec_dtor
         U _ZN5TFontD1Ev
000012b0 T _ZN8FontDemo14DrawVectorFontER8TPainterRK6_TRectIiE
00001890 T _ZN8FontDemo12PaintHandlerER10EventParam
         U _ZNK11TCustomFill8FillRectER8TPainterRK6_TRectIiE
         U _ZNK12TRadioButton12GetSelectionEv
00001960 T _ZN8FontDemo12RadioHandlerER10EventParam
00001984 T _ZN8FontDemo8OnAttachEv
00001988 T _ZN8FontDemo8OnDetachEv
         U __cxa_pure_virtual
         U _ZTVN10__cxxabiv117__class_type_infoE
         U _ZTVN10__cxxabiv120__si_class_type_infoE
         U _ZTI10TGridPanel

tilconBasic.o:
000006c4 t _Z15tilconBasicTaskRK9TAppParam
         U _ZTVSt9exception
         U _ZTVSt13bad_exception
         U _ZTVSt9bad_alloc
00000000 V _ZTV10TException
         U _ZTV17TChildrenDelegate
         U _ZTV6TImage
         U _ZTV10TilconDemo
00000000 V _ZTV11TTabbedDemo
         U _ZTV6TArrayIP5TNodeE
00000000 V _ZTVN7_TEventI10EventParamE15THandlerAdaptorE
         U _ZTV6TArrayI9ColorStopE
00000000 V _ZTVN7_TEventI10EventParamE17MemberFuncHandlerI11TTabbedDemoEE
00000000 V _ZTI10TException
         U _ZTI17TChildrenDelegate
         U _ZTI6TArrayIP5TNodeE
00000000 V _ZTIN7_TEventI10EventParamE15THandlerAdaptorE
00000000 V _ZTIN7_TEventI10EventParamE17MemberFuncHandlerI11TTabbedDemoEE
         U _ZTI6TImage
         U _ZTI6TArrayI9ColorStopE
         U _ZTI10TilconDemo
00000000 V _ZTI11TTabbedDemo
         U _ZTISt9exception
         U _ZTISt13bad_exception
         U _ZTISt9bad_alloc
00000000 V _ZTS10TException
         U _ZTS17TChildrenDelegate
         U _ZTS6TArrayIP5TNodeE
00000000 V _ZTSN7_TEventI10EventParamE15THandlerAdaptorE
00000000 V _ZTSN7_TEventI10EventParamE17MemberFuncHandlerI11TTabbedDemoEE
         U _ZTS6TImage
         U _ZTS6TArrayI9ColorStopE
         U _ZTS10TilconDemo
00000000 V _ZTS11TTabbedDemo
         U _ZTSSt9exception
         U _ZTSSt13bad_exception
         U _ZTSSt9bad_alloc
00000000 T _ZN8TWStringC1EPKw
         U __frameinfo_used
         U __cxa_allocate_exception
         U __cxa_throw
00000000 T _ZN10TExceptionD1Ev
         U _Znaj
         U memcpy
00000000 T _ZN8TWStringaSERKS_
         U _ZdaPv
00000000 T _ZNK8TWStringneERKS_
00000000 T _ZN7_TEventI10EventParamE10SetHandlerI11TTabbedDemoEEvPT_NS1_17MemberFuncHandlerIS4_E8FuncTypeE
         U _Znwj
         U __diab_Unwind_Resume
         U __diab_personality_v0
00000000 T _ZN11TTabbedDemoC1Ev
         U _ZN7TWindowC2EiiiiPS_NS_12WindowSizingENS_10WindowTypeE
         U _ZN4TTabC1Eiiiii
         U _ZN11TPushButtonC1Eiiii
         U _ZN5TNode8OnResizeEv
         U _ZN5TNode6UpdateEv
         U _ZN8TControl18SetAlignmentPolicyE19HorizontalAlignment17VerticalAlignment
         U _ZN4TTab10SetTabTextEiRK8TWString
         U _ZN6TGroup10AddControlEP8TControli
         U _ZN18VectorGraphicsDemoC1Ev
         U _ZN8AnimDemoC1Ev
         U _ZN11PainterDemoC1Ev
         U _ZN13PrimitiveDemoC1Ev
         U _ZN8FontDemoC1Ev
         U _ZN10WidgetDemoC1Ev
         U _ZN13UpdateGUIDemoC1Ev
         U _ZN4TTab10AddControlEiP8TControli
         U _ZdlPv
         U _ZN11TPushButtonD1Ev
         U _ZN4TTabD1Ev
         U _ZN7TWindowD2Ev
00000690 T _ZN11TTabbedDemo4ShowEv
         U _ZN7TWindow4ShowEi
         U _ZN4TTab8SwitchToEi
         U _ZN12TApplicationC1ERK9TAppParam
         U _ZN12TApplication3RunEv
         U _ZN7TWindow7DestroyEv
         U _ZN12TApplicationD1Ev
00000884 T tilconBasicTaskEntry
         U _ZN9TAppParamC1EPKc
         U _ZN9TAppParam3AddEPKc
         U _ZN9TAppParamD1Ev
00000908 T tilconBasic
         U taskSpawn
00000000 T _ZN10TExceptionD0Ev
00000000 T _ZN7_TEventI10EventParamE15THandlerAdaptorD1Ev
00000000 T _ZN7_TEventI10EventParamE15THandlerAdaptorD0Ev
00000000 T _ZN7_TEventI10EventParamE17MemberFuncHandlerI11TTabbedDemoED1Ev
00000000 T _ZN7_TEventI10EventParamE17MemberFuncHandlerI11TTabbedDemoED0Ev
00000000 T _ZNK7_TEventI10EventParamE17MemberFuncHandlerI11TTabbedDemoE6InvokeERS0_
00000000 T _ZN7_TEventI10EventParamE17MemberFuncHandlerI11TTabbedDemoE3dupEv
0000098c T _ZN11TTabbedDemoC2Ev
000009ac T _ZN11TTabbedDemoD1Ev
         U _ZN4TTab13RemoveControlEiP8TControl
00000aac T _ZN11TTabbedDemoD0Ev
00000ad8 T _ZN11TTabbedDemoD2Ev
00000af8 T _ZN11TTabbedDemo16TabChangeHandlerER10EventParam
00000b4c T _ZN11TTabbedDemo17QuitButtonHandlerER10EventParam
         U _ZN12TApplication8InstanceEv
         U _ZN12TApplication4StopEi
         U __cxa_pure_virtual
         U _ZTVN10__cxxabiv117__class_type_infoE
         U _ZTVN10__cxxabiv120__si_class_type_infoE
         U _ZTI7TWindow

tilconDemoPrimitive.o:
         U _ZTVSt9exception
         U _ZTVSt13bad_exception
         U _ZTVSt9bad_alloc
00000000 V _ZTV10TException
         U _ZTV17TChildrenDelegate
00000000 V _ZTV6TImage
00000000 V _ZTV10TilconDemo
00000000 V _ZTV13PrimitiveDemo
         U _ZTV6TArrayIP5TNodeE
00000000 V _ZTVN7_TEventI10EventParamE15THandlerAdaptorE
         U _ZTV6TArrayI9ColorStopE
00000000 V _ZTVN7_TEventI10EventParamE17MemberFuncHandlerI13PrimitiveDemoEE
00000000 V _ZTI10TException
         U _ZTI17TChildrenDelegate
         U _ZTI6TArrayIP5TNodeE
00000000 V _ZTIN7_TEventI10EventParamE15THandlerAdaptorE
00000000 V _ZTIN7_TEventI10EventParamE17MemberFuncHandlerI13PrimitiveDemoEE
00000000 V _ZTI6TImage
         U _ZTI6TArrayI9ColorStopE
00000000 V _ZTI10TilconDemo
00000000 V _ZTI13PrimitiveDemo
         U _ZTISt9exception
         U _ZTISt13bad_exception
         U _ZTISt9bad_alloc
00000000 V _ZTS10TException
         U _ZTS17TChildrenDelegate
         U _ZTS6TArrayIP5TNodeE
00000000 V _ZTSN7_TEventI10EventParamE15THandlerAdaptorE
00000000 V _ZTSN7_TEventI10EventParamE17MemberFuncHandlerI13PrimitiveDemoEE
00000000 V _ZTS6TImage
         U _ZTS6TArrayI9ColorStopE
00000000 V _ZTS10TilconDemo
00000000 V _ZTS13PrimitiveDemo
         U _ZTSSt9exception
         U _ZTSSt13bad_exception
         U _ZTSSt9bad_alloc
00000000 T _ZN10TExceptionD1Ev
00000000 T _ZN10TExceptionD0Ev
         U _ZdlPv
00000000 T _ZN6TColorC1Ej
00000000 T _ZN6TColorC1ERKS_
00000000 T _ZN8TWStringC1EPKw
         U __frameinfo_used
         U __cxa_allocate_exception
         U __cxa_throw
         U _Znaj
         U memcpy
00000000 T _ZN6_TRectIiEC1ERK7_TPointIiERK6_TSizeIiE
00000000 T _ZNK6_TRectIiEmiERK7_TPointIiE
00000000 T _ZN7_TEventI10EventParamE10SetHandlerI13PrimitiveDemoEEvPT_NS1_17MemberFuncHandlerIS4_E8FuncTypeE
         U _Znwj
         U __diab_Unwind_Resume
         U __diab_personality_v0
00000000 T _ZN7_TEventI10EventParamE15THandlerAdaptorD1Ev
00000000 T _ZN7_TEventI10EventParamE15THandlerAdaptorD0Ev
00000000 T _ZN7_TEventI10EventParamE17MemberFuncHandlerI13PrimitiveDemoED1Ev
00000000 T _ZN7_TEventI10EventParamE17MemberFuncHandlerI13PrimitiveDemoED0Ev
00000000 T _ZNK7_TEventI10EventParamE17MemberFuncHandlerI13PrimitiveDemoE6InvokeERS0_
00000000 T _ZN7_TEventI10EventParamE17MemberFuncHandlerI13PrimitiveDemoE3dupEv
00000000 T _ZNK10TSharedPtrI9ImageDataE5DerefEv
         U _ZN9ImageDataD1Ev
00000000 T _ZN6TImageD1Ev
00000000 T _ZN6TImageD0Ev
00000000 T _ZN6TTimerC1Ev
00000000 T _ZNK8_TMarginIiEneERKS0_
00000000 T _ZNK6TArrayIN11TGridLayout10LayoutInfoEEixEi
00000000 T _ZN11TGridLayout10SetRowSizeEiNS_12LayoutMethodEi
00000000 T _ZN11TGridLayout13SetColumnSizeEiNS_12LayoutMethodEi
00000000 T _ZN10TilconDemoC1Eiiiiii
         U _ZN10TGridPanelC2Eiiiiii
         U _ZN5TNode6UpdateEv
         U _ZN5TNode18OnChildBoundChangeEP8TControl
         U _ZN5TNode8OnResizeEv
         U _ZN10TGridPanelD2Ev
00000000 T _ZN10TilconDemoD1Ev
00000000 T _ZN10TilconDemoD0Ev
00000000 T _ZN13PrimitiveDemo16FormationPriDataEv
         U rand
         U __rem32
000001ec T _ZN13PrimitiveDemoC1Ev
         U _ZN11TCustomFillC1Ev
         U _ZN14TCustomControlC1Eiiii
         U _ZN10TGridPanelC1Eiiiiii
         U _ZN6TLabelC1EiiiiRK8TWString
         U _ZdaPv
         U _ZN12TRadioButtonC1Eiiii
         U _ZN12TPixelBufferC1Ev
         U _ZN10TGridPanel10AddControlEP8TControliRK8GridCell
         U _ZN12TRadioButton7AddItemERK8TWString
         U _ZN12TRadioButton12SetSelectionEi
         U _ZN12TPixelBufferC1Eii
         U _ZN8TPainterC1Ev
         U _ZN8TPainter10BeginPaintER12TPixelBuffer
         U _ZN8TPainter8SetBrushERK6TBrush
         U _ZN12TPixelBufferD1Ev
         U _ZN8TPainter8FillRectERK6_TRectIiE
         U _ZN8TPainter8EndPaintEv
         U _ZN6TImageC1ERK12TPixelBuffer
         U _ZN12TPixelBufferC1ERK6TImage
         U _ZN12TPatternFillC1ERK12TPixelBuffer
         U _ZN11TCustomFillaSERK12TPatternFill
         U _ZN12TPatternFillD1Ev
         U _ZN8TPainterD1Ev
         U _ZN12TRadioButtonD1Ev
         U _ZN6TLabelD1Ev
         U _ZN10TGridPanelD1Ev
         U _ZN14TCustomControlD1Ev
         U _ZN11TCustomFillD1Ev
00000ce4 T _ZN13PrimitiveDemoC2Ev
00000d04 T _ZN13PrimitiveDemoD1Ev
00000ea8 T _ZN13PrimitiveDemoD0Ev
00000ed4 T _ZN13PrimitiveDemoD2Ev
00000ef4 T _ZN13PrimitiveDemo12PaintHandlerER10EventParam
         U _ZNK11TCustomFill8FillRectER8TPainterRK6_TRectIiE
         U _ZN6TImage16defaultImageDataE
         U _ZN12TPixelBufferaSERKS_
         U _ZN8TPainter6SetPenERK4TPen
         U _ZNK12TRadioButton12GetSelectionEv
         U _ZN8TPainter8DrawLineERK7_TPointIiES3_
         U _ZN8TPainter10DrawCircleERK6_TRectIiE
         U _ZN8TPainter11DrawEllipseERK6_TRectIiE
         U _ZN8TPainter7DrawArcERK6_TRectIiERK7_TPointIiES7_
         U _ZN8TPainter7DrawPieERK6_TRectIiERK7_TPointIiES7_
000015b4 T _ZN13PrimitiveDemo13UpdateHandlerER10EventParam
000015e4 T _ZN13PrimitiveDemo12TimerHandlerER10EventParam
00001670 T _ZN13PrimitiveDemo8OnAttachEv
         U _ZN6TTimer5StartEv
000016a4 T _ZN13PrimitiveDemo8OnDetachEv
         U _ZN6TTimer4StopEv
         U __cxa_pure_virtual
         U _ZTVN10__cxxabiv117__class_type_infoE
         U _ZTVN10__cxxabiv120__si_class_type_infoE
         U _ZTI10TGridPanel

tilconDemoWidget.o:
         U _ZTVSt9exception
         U _ZTVSt13bad_exception
         U _ZTVSt9bad_alloc
00000000 V _ZTV10TException
         U _ZTV17TChildrenDelegate
         U _ZTV6TImage
00000000 V _ZTV10TilconDemo
00000000 V _ZTV10WidgetDemo
         U _ZTV6TArrayIP5TNodeE
00000000 V _ZTVN7_TEventI10EventParamE15THandlerAdaptorE
         U _ZTV6TArrayI9ColorStopE
00000000 V _ZTVN7_TEventI10EventParamE17MemberFuncHandlerI10WidgetDemoEE
00000000 V _ZTI10TException
         U _ZTI17TChildrenDelegate
         U _ZTI6TArrayIP5TNodeE
00000000 V _ZTIN7_TEventI10EventParamE15THandlerAdaptorE
00000000 V _ZTIN7_TEventI10EventParamE17MemberFuncHandlerI10WidgetDemoEE
         U _ZTI6TImage
         U _ZTI6TArrayI9ColorStopE
00000000 V _ZTI10TilconDemo
00000000 V _ZTI10WidgetDemo
         U _ZTISt9exception
         U _ZTISt13bad_exception
         U _ZTISt9bad_alloc
00000000 V _ZTS10TException
         U _ZTS17TChildrenDelegate
         U _ZTS6TArrayIP5TNodeE
00000000 V _ZTSN7_TEventI10EventParamE15THandlerAdaptorE
00000000 V _ZTSN7_TEventI10EventParamE17MemberFuncHandlerI10WidgetDemoEE
         U _ZTS6TImage
         U _ZTS6TArrayI9ColorStopE
00000000 V _ZTS10TilconDemo
00000000 V _ZTS10WidgetDemo
         U _ZTSSt9exception
         U _ZTSSt13bad_exception
         U _ZTSSt9bad_alloc
00000000 T _ZN8TWStringC1EPKw
         U __frameinfo_used
         U __cxa_allocate_exception
         U __cxa_throw
00000000 T _ZN10TExceptionD1Ev
         U _Znaj
         U memcpy
         U _ZN6TLabelC1EiiiiRK8TWString
         U _ZdaPv
         U __diab_Unwind_Resume
         U __diab_personality_v0
         U _ZN6TPanelC1Eiiii
00000000 T _ZN10TExceptionD0Ev
         U _ZdlPv
00000000 T _ZN8TWStringaSERKS_
00000000 T _ZN15AlignmentPolicyC1Ev
00000000 T _ZN8GridCellC1Eii
00000000 T _ZN7_TEventI10EventParamE10SetHandlerI10WidgetDemoEEvPT_NS1_17MemberFuncHandlerIS4_E8FuncTypeE
         U _Znwj
00000000 T _ZN7_TEventI10EventParamE15THandlerAdaptorD1Ev
00000000 T _ZN7_TEventI10EventParamE15THandlerAdaptorD0Ev
00000000 T _ZN7_TEventI10EventParamE17MemberFuncHandlerI10WidgetDemoED1Ev
00000000 T _ZN7_TEventI10EventParamE17MemberFuncHandlerI10WidgetDemoED0Ev
00000000 T _ZNK7_TEventI10EventParamE17MemberFuncHandlerI10WidgetDemoE6InvokeERS0_
00000000 T _ZN7_TEventI10EventParamE17MemberFuncHandlerI10WidgetDemoE3dupEv
00000000 T _ZN8_TMarginIiEC1Ei
00000000 T _ZNK8_TMarginIiEneERKS0_
00000000 T _ZN8TControl9SetMarginERK8_TMarginIiE
         U _ZN5TNode18OnChildBoundChangeEP8TControl
         U _ZN5TNode8OnResizeEv
         U _ZN5TNode6UpdateEv
00000000 T _ZN8TControl12SetFrameTypeE9FrameType
00000000 T _ZN8TControl6UpdateEv
00000000 T _ZN8TControl15UpdateBoundRectEv
00000000 T _ZNK6TArrayIN11TGridLayout10LayoutInfoEEixEi
00000000 T _ZN11TGridLayout10SetRowSizeEiNS_12LayoutMethodEi
00000000 T _ZN11TGridLayout13SetColumnSizeEiNS_12LayoutMethodEi
00000000 T _ZN11TGridLayout15SetFixedRowSizeEii
00000000 T _ZN11TGridLayout18SetFixedColumnSizeEii
00000000 T _ZN6TLabel7SetTextERK8TWString
00000000 T _ZN8TListBox18SetColumnWidthModeENS_15ColumnWidthModeE
00000000 T _ZN9TComboBox7AddItemERK8TWString
         U _ZN8TListBox6AddRowERK8TWStringi
00000000 T _ZN10TilconDemoC1Eiiiiii
         U _ZN10TGridPanelC2Eiiiiii
         U _ZN10TGridPanelD2Ev
00000000 T _ZN10TilconDemoC2Eiiiiii
00000000 T _ZN10TilconDemoD1Ev
00000000 T _ZN10TilconDemoD0Ev
000000b4 T _ZN10WidgetDemoC1Ev
         U _ZN10TGridPanelC1Eiiiiii
         U _ZN9TComboBoxC1Eiiii
         U _ZN9TCheckBoxC1EiiiiRK8TWString
         U _ZN10TScrollBarC1Eiiii15OrientationTypeiii
         U _ZN11TScrollAreaC1Eiiiiii
         U _ZN12TRadioButtonC1Eiiii
         U _ZN7TSliderC1Eiiii15OrientationTypeiii
         U _ZN15TSingleLineEditC1EiiiiRK8TWString
         U _ZN12TProgressBarC1Eiiii15OrientationTypeiii
         U _ZN10TTextTableC1Eiiiiii
         U _ZN8TSpinBoxC1Eiiii
         U _ZN8TListBoxC1Eiiiii
         U _ZN6TLabelD1Ev
         U __cxa_vec_ctor
         U _ZN6TPanelD1Ev
         U _ZN10TGridPanel10AddControlEP8TControliRK8GridCell
         U _ZN8TControl7SetRectERK6_TRectIiE
         U _ZN6TGroup10AddControlEP8TControli
         U _ZN8TListBox19SetColumnHeaderTextEiRK8TWString
         U _ZN8TListBox19SetFixedColumnWidthEii
         U _ZN8TListBox11SetItemTextEiiRK8TWString
         U _ZN12TRadioButton7AddItemERK8TWString
         U _ZN9TComboBox12SetSelectionEi
         U _ZN12TRadioButton15ChangeSelectionEi
         U _ZN12TRadioButtonD1Ev
         U __cxa_vec_dtor
         U _ZN8TListBoxD1Ev
         U _ZN8TSpinBoxD1Ev
         U _ZN10TTextTableD1Ev
         U _ZN12TProgressBarD1Ev
         U _ZN15TSingleLineEditD1Ev
         U _ZN7TSliderD1Ev
         U _ZN11TScrollAreaD1Ev
         U _ZN10TScrollBarD1Ev
         U _ZN9TCheckBoxD1Ev
         U _ZN9TComboBoxD1Ev
         U _ZN10TGridPanelD1Ev
00002298 T _ZN10WidgetDemoC2Ev
000022b8 T _ZN10WidgetDemoD1Ev
0000279c T _ZN10WidgetDemoD0Ev
000027c8 T _ZN10WidgetDemoD2Ev
000027e8 T _ZN10WidgetDemo18SizingRadioHandlerER10EventParam
         U _ZN8TControl18SetAlignmentPolicyE19HorizontalAlignment17VerticalAlignment
00002864 T _ZN10WidgetDemo14HaRadioHandlerER10EventParam
00002914 T _ZN10WidgetDemo14VaRadioHandlerER10EventParam
000029c4 T _ZN10WidgetDemo8OnAttachEv
000029c8 T _ZN10WidgetDemo8OnDetachEv
         U __cxa_pure_virtual
         U _ZTVN10__cxxabiv117__class_type_infoE
         U _ZTVN10__cxxabiv120__si_class_type_infoE
         U _ZTI10TGridPanel

tilconDemoAnimation.o:
00000024 d FLOAT_TEMP.2508
00000028 d FLOAT_TEMP.2706
0000002c d FLOAT_TEMP.2886
00000030 d FLOAT_TEMP.2887
00000034 d FLOAT_TEMP.2888
00000038 d FLOAT_TEMP.2889
0000003c d FLOAT_TEMP.2890
00000040 d FLOAT_TEMP.2891
00000044 d FLOAT_TEMP.2892
00000048 d FLOAT_TEMP.3173
0000004c d FLOAT_TEMP.3174
00000050 d FLOAT_TEMP.3175
00000054 d FLOAT_TEMP.3176
00000058 d FLOAT_TEMP.3177
0000005c d FLOAT_TEMP.3262
00000060 d FLOAT_TEMP.3263
         U _ZTVSt9exception
         U _ZTVSt13bad_exception
         U _ZTVSt9bad_alloc
00000000 V _ZTV10TException
         U _ZTV17TChildrenDelegate
         U _ZTV6TImage
00000000 V _ZTV10TilconDemo
00000000 V _ZTV8AnimDemo
         U _ZTV6TArrayIP5TNodeE
00000000 V _ZTVN7_TEventI10EventParamE15THandlerAdaptorE
         U _ZTV6TArrayI9ColorStopE
00000000 V _ZTV6TArrayIN16TAnimationHelper7CommandEE
00000000 V _ZTVN7_TEventI10EventParamE17MemberFuncHandlerI8AnimDemoEE
00000000 V _ZTI10TException
         U _ZTI17TChildrenDelegate
         U _ZTI6TArrayIP5TNodeE
00000000 V _ZTIN7_TEventI10EventParamE15THandlerAdaptorE
00000000 V _ZTIN7_TEventI10EventParamE17MemberFuncHandlerI8AnimDemoEE
         U _ZTI6TImage
         U _ZTI6TArrayI9ColorStopE
00000000 V _ZTI10TilconDemo
00000000 V _ZTI6TArrayIN16TAnimationHelper7CommandEE
00000000 V _ZTI8AnimDemo
         U _ZTISt9exception
         U _ZTISt13bad_exception
         U _ZTISt9bad_alloc
00000000 V _ZTS10TException
         U _ZTS17TChildrenDelegate
         U _ZTS6TArrayIP5TNodeE
00000000 V _ZTSN7_TEventI10EventParamE15THandlerAdaptorE
00000000 V _ZTSN7_TEventI10EventParamE17MemberFuncHandlerI8AnimDemoEE
         U _ZTS6TImage
         U _ZTS6TArrayI9ColorStopE
00000000 V _ZTS10TilconDemo
00000000 V _ZTS6TArrayIN16TAnimationHelper7CommandEE
00000000 V _ZTS8AnimDemo
         U _ZTSSt9exception
         U _ZTSSt13bad_exception
         U _ZTSSt9bad_alloc
         U __frameinfo_used
         U _ZN11TPushButtonC1Eiiii
00000000 T _ZN10TExceptionD1Ev
00000000 T _ZN10TExceptionD0Ev
         U _ZdlPv
00000000 T _ZN6TColorC1Ej
00000000 T _ZN6TColorC1ERKS_
00000000 T _ZN8TWStringC1EPKw
         U __cxa_allocate_exception
         U __cxa_throw
         U _Znaj
         U memcpy
00000000 T _ZN6_TRectIiEC1Ev
         U _ZN6_TRectIiE8nullRectE
00000000 T _ZN6_TRectIiEC1ERK6_TSizeIiE
00000000 T _ZN6_TRectIiEC1ERK7_TPointIiERK6_TSizeIiE
00000000 T _ZNK6_TRectIiE6AdjustERK8_TMarginIiE
00000000 T _ZNK6_TRectIiEmiERK7_TPointIiE
00000000 T _ZN7_TEventI10EventParamED1Ev
00000000 T _ZN7_TEventI10EventParamE10SetHandlerI8AnimDemoEEvPT_NS1_17MemberFuncHandlerIS4_E8FuncTypeE
         U _Znwj
         U __diab_Unwind_Resume
         U __diab_personality_v0
00000000 T _ZN7_TEventI10EventParamE15THandlerAdaptorD1Ev
00000000 T _ZN7_TEventI10EventParamE15THandlerAdaptorD0Ev
00000000 T _ZN7_TEventI10EventParamE17MemberFuncHandlerI8AnimDemoED1Ev
00000000 T _ZN7_TEventI10EventParamE17MemberFuncHandlerI8AnimDemoED0Ev
00000000 T _ZNK7_TEventI10EventParamE17MemberFuncHandlerI8AnimDemoE6InvokeERS0_
00000000 T _ZN7_TEventI10EventParamE17MemberFuncHandlerI8AnimDemoE3dupEv
00000000 T _ZN7_TPointIfEC1Ev
00000000 T _ZN7_TPointIfED1Ev
00000000 T _ZN9TGradientC1ERKS_
00000000 T _ZN6TPaintC1ERK6TColor
         U _ZN9TGradientC1Ev
         U _ZN12TPixelBufferC1Ev
         U _ZN9TGradientD1Ev
00000000 T _ZN6TPaintC1ERK9TGradient
00000000 T _ZN6TPaintD1Ev
         U _ZN12TPixelBufferD1Ev
00000000 T _ZN6TTimerC1Ev
00000000 T _ZN13TCustomVisualC1ERK11TCustomFill
         U _ZN11TCustomFillC1ERKS_
         U _ZN11TCustomFillD1Ev
00000000 T _ZN13TCustomVisualD1Ev
00000000 T _ZN13TCustomVisualaSERKS_
         U _ZN11TCustomFillaSERKS_
00000000 T _ZNK8_TMarginIiEneERKS0_
00000000 T _ZN8TControl9SetMarginERK8_TMarginIiE
         U _ZN5TNode18OnChildBoundChangeEP8TControl
         U _ZN5TNode8OnResizeEv
         U _ZN5TNode6UpdateEv
00000000 T _ZNK6TArrayIN11TGridLayout10LayoutInfoEEixEi
00000000 T _ZN11TGridLayout10SetRowSizeEiNS_12LayoutMethodEi
00000000 T _ZN11TGridLayout13SetColumnSizeEiNS_12LayoutMethodEi
00000000 T _ZN10TilconDemoC1Eiiiiii
         U _ZN10TGridPanelC2Eiiiiii
         U _ZN10TGridPanelD2Ev
00000000 T _ZN10TilconDemoD1Ev
00000000 T _ZN10TilconDemoD0Ev
00000000 T _ZN6TArrayIN16TAnimationHelper7CommandEED1Ev
         U _ZdaPv
00000000 T _ZN6TArrayIN16TAnimationHelper7CommandEED0Ev
00000000 T _ZN6TArrayIN16TAnimationHelper7CommandEE13RoundCapacityEi
00000000 T _ZN6TArrayIN16TAnimationHelper7CommandEE8ExpandAtEii
00000000 T _ZN6TArrayIN16TAnimationHelper7CommandEE8InsertAtEiRKS1_
00000000 T _ZN6TArrayIN16TAnimationHelper7CommandEE5ClearEv
00000000 T _ZNK6TArrayIN16TAnimationHelper7CommandEEixEi
0000002c T _ZN16TAnimationHelperC1Ev
00000074 T _ZN16TAnimationHelperC2Ev
00000094 T _ZNK16TAnimationHelper11LastCommandEv
00000018 D _ZN16TAnimationHelper11nullCommandE
000000d8 T _ZN16TAnimationHelper10AddCommandEi
00000140 T _ZN16TAnimationHelper10AddCommandEffi
000001c4 T _ZN16TAnimationHelper10AddCommandEffffi
00000270 T _ZN16TAnimationHelper12ClearCommandEv
00000294 T _ZN16TAnimationHelper4StepEv
         U _ZN8TControl11SetPositionERK7_TPointIiE
00000000 T _ZN16TAnimationHelperD1Ev
000003b0 T _ZN8AnimDemoC1Ev
         U _ZN11TPushButtonD1Ev
         U __cxa_vec_ctor
         U _ZN6TPanelC1Eiiii
         U _ZN10TGridPanelC1Eiiiiii
         U _ZN6TLabelC1EiiiiRK8TWString
         U _ZN12TRadioButtonC1Eiiii
         U _ZN7TSliderC1Eiiii15OrientationTypeiii
         U _ZN10TGridPanel10AddControlEP8TControliRK8GridCell
         U _ZN12TRadioButton7AddItemERK8TWString
         U _ZN10TGridPanel15AddControlAtTopEP8TControlRK8GridCell
         U _ZN12TRadioButton12SetSelectionEi
         U _ZN12TPixelBufferC1Eii
         U _ZN8TPainterC1Ev
         U _ZN8TPainter10BeginPaintER12TPixelBuffer
         U _ZN8TPainter8SetBrushERK6TBrush
         U _ZN8TPainter8FillRectERK6_TRectIiE
         U _ZN8TPainter8EndPaintEv
         U _ZN12TPatternFillC1ERK12TPixelBuffer
         U _ZN11TCustomFillC1ERK12TPatternFill
         U _ZN9TGradientC1EffffjPK6TColorPKf
         U _ZN12TPixelBufferaSERKS_
         U _ZN14TVectorPainter12SetBlendModeE9BlendMode
         U _ZN14TVectorPainter12SetFillPaintERK6TPaint
         U _ZN5TPathC1ERK6_TRectIiE
         U _ZN14TVectorPainter8FillPathERK5TPath
         U _ZN5TPathD1Ev
         U _ZN14TVectorPainter14SetStrokePaintERK6TPaint
         U _ZN14TVectorPainter10StrokePathEPK7_TPointIfEji
         U _ZN10TImageFillC1ERK12TPixelBuffer
         U _ZN11TCustomFillC1ERK10TImageFill
         U _ZN10TImageFillD1Ev
         U _ZN6TGroup10AddControlEP8TControli
         U _ZN12TPatternFillD1Ev
         U _ZN8TPainterD1Ev
         U __cxa_vec_dtor
         U _ZN7TSliderD1Ev
         U _ZN6TLabelD1Ev
         U _ZN12TRadioButtonD1Ev
         U _ZN10TGridPanelD1Ev
         U _ZN6TPanelD1Ev
000015e0 T _ZN8AnimDemoC2Ev
00001600 T _ZN8AnimDemoD1Ev
00001898 T _ZN8AnimDemoD0Ev
000018c4 T _ZN8AnimDemoD2Ev
000018e4 T _ZN8AnimDemo16AnimTimerHandlerER10EventParam
         U _ZNK12TRadioButton12GetSelectionEv
00001a8c T _ZN8AnimDemo24FormationChangeAnimationEv
         U __div32
         U __rem32
         U cos
         U sin
00002c3c T _ZN8AnimDemo19RandomMoveAnimationEv
         U rand
00002d18 T _ZN8AnimDemo18FormatRadioHandlerER10EventParam
00002d54 T _ZN8AnimDemo18SpeedSliderHandlerER10EventParam
00002d90 T _ZN8AnimDemo12SetAnimationEi
00002dd4 T _ZN8AnimDemo8OnAttachEv
         U _ZN8TControl7SetRectERK6_TRectIiE
         U _ZN6TTimer5StartEv
00002ed4 T _ZN8AnimDemo8OnDetachEv
         U _ZN6TTimer4StopEv
         U __cxa_pure_virtual
         U _ZTVN10__cxxabiv117__class_type_infoE
         U _ZTVN10__cxxabiv120__si_class_type_infoE
         U _ZTI10TGridPanel

tilconVectorFont.o:
00000000 d FLOAT_TEMP.1722
00000004 d FLOAT_TEMP.1723
         U _ZTVSt9exception
         U _ZTVSt13bad_exception
         U _ZTVSt9bad_alloc
00000000 V _ZTV10TException
         U _ZTV17TChildrenDelegate
         U _ZTV6TImage
         U _ZTV10TilconDemo
         U _ZTV6TArrayIP5TNodeE
         U _ZTV6TArrayI9ColorStopE
00000000 V _ZTI10TException
         U _ZTI17TChildrenDelegate
         U _ZTI6TArrayIP5TNodeE
         U _ZTI6TImage
         U _ZTI6TArrayI9ColorStopE
         U _ZTI10TilconDemo
         U _ZTISt9exception
         U _ZTISt13bad_exception
         U _ZTISt9bad_alloc
00000000 V _ZTS10TException
         U _ZTS17TChildrenDelegate
         U _ZTS6TArrayIP5TNodeE
         U _ZTS6TImage
         U _ZTS6TArrayI9ColorStopE
         U _ZTS10TilconDemo
         U _ZTSSt9exception
         U _ZTSSt13bad_exception
         U _ZTSSt9bad_alloc
00000000 T _ZN10TExceptionD1Ev
00000000 T _ZN10TExceptionD0Ev
         U _ZdlPv
00000000 T _ZN6TColorC1ERKS_
00000000 T _ZN8TWStringC1EPKw
         U __frameinfo_used
         U __cxa_allocate_exception
         U __cxa_throw
         U _Znaj
         U memcpy
00000000 T _ZN6TPaintC1ERK6TColor
         U _ZN9TGradientC1Ev
         U _ZN12TPixelBufferC1Ev
         U _ZN9TGradientD1Ev
         U __diab_Unwind_Resume
         U __diab_personality_v0
00000000 T _ZN6TPaintD1Ev
         U _ZN12TPixelBufferD1Ev
00000000 T _ZN17TVectorStringPathC1Ev
         U _ZN5TPathC1Ev
         U _ZN5TFontC1EPKcj
         U _ZN5TPath7AddTextERK5TFontRK8TWString
         U _ZdaPv
         U _ZNK5TPath12GetBoundRectEv
         U _ZN5TPath9TranslateEff
         U _ZN5TFontD1Ev
         U _ZN5TPathD1Ev
0000014c T _ZN17TVectorStringPathC2Ev
0000016c T _ZN17TVectorStringPathD1Ev
0000018c T _ZN17TVectorStringPathD2Ev
000001ac T _ZN17TVectorStringPath4DrawER8TPainter
         U _ZN14TVectorPainter12SetFillPaintERK6TPaint
         U _ZN14TVectorPainter8FillPathERK5TPath
         U _ZTVN10__cxxabiv117__class_type_infoE

tilconDemoUpdateGUI.o:
00000010 d FLOAT_TEMP.2145
00000014 d FLOAT_TEMP.2146
         U _ZTVSt9exception
         U _ZTVSt13bad_exception
         U _ZTVSt9bad_alloc
00000000 V _ZTV10TException
         U _ZTV17TChildrenDelegate
         U _ZTV6TImage
00000000 V _ZTV10TilconDemo
00000000 V _ZTV13UpdateGUIDemo
         U _ZTV6TArrayIP5TNodeE
00000000 V _ZTVN7_TEventI10EventParamE15THandlerAdaptorE
         U _ZTV6TArrayI9ColorStopE
00000000 V _ZTVN7_TEventI10EventParamE17MemberFuncHandlerI13UpdateGUIDemoEE
00000000 V _ZTI10TException
         U _ZTI17TChildrenDelegate
         U _ZTI6TArrayIP5TNodeE
00000000 V _ZTIN7_TEventI10EventParamE15THandlerAdaptorE
00000000 V _ZTIN7_TEventI10EventParamE17MemberFuncHandlerI13UpdateGUIDemoEE
         U _ZTI6TImage
         U _ZTI6TArrayI9ColorStopE
00000000 V _ZTI10TilconDemo
00000000 V _ZTI13UpdateGUIDemo
         U _ZTISt9exception
         U _ZTISt13bad_exception
         U _ZTISt9bad_alloc
00000000 V _ZTS10TException
         U _ZTS17TChildrenDelegate
         U _ZTS6TArrayIP5TNodeE
00000000 V _ZTSN7_TEventI10EventParamE15THandlerAdaptorE
00000000 V _ZTSN7_TEventI10EventParamE17MemberFuncHandlerI13UpdateGUIDemoEE
         U _ZTS6TImage
         U _ZTS6TArrayI9ColorStopE
00000000 V _ZTS10TilconDemo
00000000 V _ZTS13UpdateGUIDemo
         U _ZTSSt9exception
         U _ZTSSt13bad_exception
         U _ZTSSt9bad_alloc
00000000 T _Z9JobThreadPv
         U __frameinfo_used
         U _ZN12TApplication8InstanceEv
00000128 T _Z14MessageCallbckPv
         U taskDelay
         U _ZN12TApplication11SendMessageERK8_app_msgi
00000004 C jobHandle
00000000 T _ZN6TColorC1Ej
00000000 T _ZNK6TColorneERKS_
00000078 T _ZN13UpdateGUIDemo10UpdateRateEv
         U _ZN5TNode6UpdateEv
00000000 T _ZN10TExceptionD1Ev
00000000 T _ZN10TExceptionD0Ev
         U _ZdlPv
00000000 T _ZN6TColorC1ERKS_
00000000 T _ZN8TWStringC1EPKw
         U __cxa_allocate_exception
         U __cxa_throw
         U _Znaj
         U memcpy
00000000 T _ZN8TWStringC1ERK7TString
00000000 T _ZN8TWStringaSERKS_
         U _ZdaPv
00000000 T _ZNK8TWStringneERKS_
00000000 T _ZNK6_TRectIiEmiERK7_TPointIiE
00000000 T _ZN7_TEventI10EventParamE10SetHandlerI13UpdateGUIDemoEEvPT_NS1_17MemberFuncHandlerIS4_E8FuncTypeE
         U _Znwj
         U __diab_Unwind_Resume
         U __diab_personality_v0
00000000 T _ZN7_TEventI10EventParamE15THandlerAdaptorD1Ev
00000000 T _ZN7_TEventI10EventParamE15THandlerAdaptorD0Ev
00000000 T _ZN7_TEventI10EventParamE17MemberFuncHandlerI13UpdateGUIDemoED1Ev
00000000 T _ZN7_TEventI10EventParamE17MemberFuncHandlerI13UpdateGUIDemoED0Ev
00000000 T _ZNK7_TEventI10EventParamE17MemberFuncHandlerI13UpdateGUIDemoE6InvokeERS0_
00000000 T _ZN7_TEventI10EventParamE17MemberFuncHandlerI13UpdateGUIDemoE3dupEv
00000000 T _ZN6TPaintC1ERK6TColor
         U _ZN9TGradientC1Ev
         U _ZN12TPixelBufferC1Ev
         U _ZN9TGradientD1Ev
00000000 T _ZN6TPaintD1Ev
         U _ZN12TPixelBufferD1Ev
00000000 T _ZNK8_TMarginIiEneERKS0_
00000000 T _ZNK6TArrayIN11TGridLayout10LayoutInfoEEixEi
00000000 T _ZN11TGridLayout10SetRowSizeEiNS_12LayoutMethodEi
00000000 T _ZN11TGridLayout13SetColumnSizeEiNS_12LayoutMethodEi
00000000 T _ZN10TilconDemoC1Eiiiiii
         U _ZN10TGridPanelC2Eiiiiii
         U _ZN5TNode18OnChildBoundChangeEP8TControl
         U _ZN5TNode8OnResizeEv
         U _ZN10TGridPanelD2Ev
00000000 T _ZN10TilconDemoD1Ev
00000000 T _ZN10TilconDemoD0Ev
00000148 T _ZN13UpdateGUIDemoC1Ev
         U _ZN14TCustomControlC1Eiiii
         U _ZN10TGridPanelC1Eiiiiii
         U _ZN7TSliderC1Eiiii15OrientationTypeiii
         U _ZN11TPushButtonC1Eiiii
         U _ZN10TGridPanel10AddControlEP8TControliRK8GridCell
         U _ZN7TSlider8SetRangeEii
         U _ZN11TPushButtonD1Ev
         U _ZN7TSliderD1Ev
         U _ZN10TGridPanelD1Ev
         U _ZN14TCustomControlD1Ev
0000078c T _ZN13UpdateGUIDemoC2Ev
000007ac T _ZN13UpdateGUIDemoD1Ev
000008a8 T _ZN13UpdateGUIDemoD0Ev
000008d4 T _ZN13UpdateGUIDemoD2Ev
00000000 T _ZN6_TRectIfEC1Ev
         U _ZN6_TRectIfE8nullRectE
000008f4 T _ZN13UpdateGUIDemo13UpdateHandlerER10EventParam
         U _ZN5TPathC1Ev
         U sprintf
         U _ZN7TStringC1EPKc
         U _ZN5TFontC1EPKcj
         U _ZN5TPath7AddTextERK5TFontRK8TWString
         U _ZNK5TPath12GetBoundRectEv
         U _ZN5TPath9TranslateEff
         U _ZN8TPainter6SetPenERK4TPen
         U __div32
         U _ZN14TVectorPainter15TranslateMatrixEff
         U _ZN14TVectorPainter11ScaleMatrixEff
         U _ZN14TVectorPainter12SetFillPaintERK6TPaint
         U _ZN14TVectorPainter8FillPathERK5TPath
         U _ZN7TSlider8SetValueEi
         U _ZN5TFontD1Ev
         U free
         U _ZN5TPathD1Ev
00000d04 T _ZN13UpdateGUIDemo13ButtonHandlerER10EventParam
         U taskSpawn
00000e04 T _ZN13UpdateGUIDemo8OnAttachEv
00000e08 T _ZN13UpdateGUIDemo8OnDetachEv
         U __cxa_pure_virtual
         U _ZTVN10__cxxabiv117__class_type_infoE
         U _ZTVN10__cxxabiv120__si_class_type_infoE
         U _ZTI10TGridPanel

tilconVectorSouthPark.o:
00000914 d FLOAT_TEMP.2119
00000918 d FLOAT_TEMP.2120
0000091c d FLOAT_TEMP.2121
00000920 d FLOAT_TEMP.2122
00000924 d FLOAT_TEMP.2123
00000928 d FLOAT_TEMP.2124
         U _ZTVSt9exception
         U _ZTVSt13bad_exception
         U _ZTVSt9bad_alloc
00000000 V _ZTV10TException
         U _ZTV17TChildrenDelegate
         U _ZTV6TImage
         U _ZTV10TilconDemo
         U _ZTV6TArrayIP5TNodeE
         U _ZTV6TArrayI9ColorStopE
00000000 V _ZTV6TArrayIN16TVectorSouthPark6ObjectEE
00000000 V _ZTI10TException
         U _ZTI17TChildrenDelegate
         U _ZTI6TArrayIP5TNodeE
         U _ZTI6TImage
         U _ZTI6TArrayI9ColorStopE
         U _ZTI10TilconDemo
00000000 V _ZTI6TArrayIN16TVectorSouthPark6ObjectEE
         U _ZTISt9exception
         U _ZTISt13bad_exception
         U _ZTISt9bad_alloc
00000000 V _ZTS10TException
         U _ZTS17TChildrenDelegate
         U _ZTS6TArrayIP5TNodeE
         U _ZTS6TImage
         U _ZTS6TArrayI9ColorStopE
         U _ZTS10TilconDemo
00000000 V _ZTS6TArrayIN16TVectorSouthPark6ObjectEE
         U _ZTSSt9exception
         U _ZTSSt13bad_exception
         U _ZTSSt9bad_alloc
00000000 T _ZN10TExceptionD1Ev
00000000 T _ZN10TExceptionD0Ev
         U _ZdlPv
00000000 T _ZN10TMatrix3x3C1Efffffffff
00000000 T _ZN6TColorC1ERKS_
00000000 T _ZN6TPaintC1ERK6TColor
         U __frameinfo_used
         U _ZN9TGradientC1Ev
         U _ZN12TPixelBufferC1Ev
         U _ZN9TGradientD1Ev
         U __diab_Unwind_Resume
         U __diab_personality_v0
00000000 T _ZN6TPaintD1Ev
         U _ZN12TPixelBufferD1Ev
00000000 T _ZN6TArrayIN16TVectorSouthPark6ObjectEED1Ev
         U __cxa_vec_delete
00000000 T _ZN16TVectorSouthPark6ObjectD1Ev
00000000 T _ZN6TArrayIN16TVectorSouthPark6ObjectEED0Ev
00000000 T _ZN6TArrayIN16TVectorSouthPark6ObjectEE13RoundCapacityEi
00000000 T _ZN16TVectorSouthPark6ObjectaSERKS0_
         U _ZN5TPathaSERKS_
00000000 T _ZN6TArrayIN16TVectorSouthPark6ObjectEE8ExpandAtEii
         U _Znaj
         U _ZdaPv
         U __cxa_vec_new2
00000000 T _ZN16TVectorSouthPark6ObjectC1Ev
         U __cxa_allocate_exception
         U __cxa_throw
00000000 T _ZN6TArrayIN16TVectorSouthPark6ObjectEE8InsertAtEiRKS1_
00000000 T _ZNK6TArrayIN16TVectorSouthPark6ObjectEEixEi
00000000 T _ZN16TVectorSouthPark13AddFillObjectEPKhiPKfj
         U _ZN5TPathC1Ev
         U _ZN5TPathC1EjPKhPKf
         U _ZN5TPathD1Ev
00000128 T _ZN16TVectorSouthPark15AddStrokeObjectEPKhiPKfjf
00000264 T _ZN16TVectorSouthPark14AddFillObjectMEPKhiPKfjS3_
         U _ZN5TPath9TransformERK10TMatrix3x3
000003f0 T _ZN16TVectorSouthPark23AddFillAndStrokeObjectMEPKhiPKfjjfS3_
00000000 T _ZN6_TRectIfEC1ERKS0_
00000000 T _ZNK6_TRectIfE7CombineERKS0_
000005b0 T _ZN16TVectorSouthParkC1Ev
         U _ZN6_TRectIfE8nullRectE
         U _ZNK5TPath12GetBoundRectEv
         U _ZN5TPath9TranslateEff
00000f78 T _ZN16TVectorSouthParkC2Ev
00000f98 T _ZN16TVectorSouthParkD1Ev
00000fb8 T _ZN16TVectorSouthParkD2Ev
00000fd8 T _ZN16TVectorSouthPark4DrawER8TPainter
         U _ZN14TVectorPainter11ScaleMatrixEff
         U _ZN14TVectorPainter12SetFillPaintERK6TPaint
         U _ZN14TVectorPainter8FillPathERK5TPath
         U _ZN14TVectorPainter14SetStrokePaintERK6TPaint
         U _ZN14TVectorPainter12SetPathWidthEf
         U _ZN14TVectorPainter10StrokePathERK5TPath
         U _ZTVN10__cxxabiv117__class_type_infoE

tilconDemoVectorGraphics.o:
00000020 d FLOAT_TEMP.2161
00000024 d FLOAT_TEMP.2162
00000028 d FLOAT_TEMP.2163
0000002c d FLOAT_TEMP.2407
00000030 d FLOAT_TEMP.2408
00000034 d FLOAT_TEMP.2409
00000038 d FLOAT_TEMP.2410
0000003c d FLOAT_TEMP.2411
00000040 d FLOAT_TEMP.2412
00000044 d FLOAT_TEMP.2418
         U _ZTVSt9exception
         U _ZTVSt13bad_exception
         U _ZTVSt9bad_alloc
00000000 V _ZTV10TException
         U _ZTV17TChildrenDelegate
         U _ZTV6TImage
00000000 V _ZTV10TilconDemo
00000000 V _ZTV18VectorGraphicsDemo
         U _ZTV6TArrayIP5TNodeE
00000000 V _ZTVN7_TEventI10EventParamE15THandlerAdaptorE
         U _ZTV6TArrayI9ColorStopE
00000000 V _ZTVN7_TEventI10EventParamE17MemberFuncHandlerI18VectorGraphicsDemoEE
00000000 V _ZTI10TException
         U _ZTI17TChildrenDelegate
         U _ZTI6TArrayIP5TNodeE
00000000 V _ZTIN7_TEventI10EventParamE15THandlerAdaptorE
00000000 V _ZTIN7_TEventI10EventParamE17MemberFuncHandlerI18VectorGraphicsDemoEE
         U _ZTI6TImage
         U _ZTI6TArrayI9ColorStopE
00000000 V _ZTI10TilconDemo
00000000 V _ZTI18VectorGraphicsDemo
         U _ZTISt9exception
         U _ZTISt13bad_exception
         U _ZTISt9bad_alloc
00000000 V _ZTS10TException
         U _ZTS17TChildrenDelegate
         U _ZTS6TArrayIP5TNodeE
00000000 V _ZTSN7_TEventI10EventParamE15THandlerAdaptorE
00000000 V _ZTSN7_TEventI10EventParamE17MemberFuncHandlerI18VectorGraphicsDemoEE
         U _ZTS6TImage
         U _ZTS6TArrayI9ColorStopE
00000000 V _ZTS10TilconDemo
00000000 V _ZTS18VectorGraphicsDemo
         U _ZTSSt9exception
         U _ZTSSt13bad_exception
         U _ZTSSt9bad_alloc
00000000 T _ZN10TExceptionD1Ev
00000000 T _ZN10TExceptionD0Ev
         U _ZdlPv
00000000 T _ZN6TColorC1Ej
00000000 T _ZN6TColorC1ERKS_
00000000 T _ZN8TWStringC1EPKw
         U __frameinfo_used
         U __cxa_allocate_exception
         U __cxa_throw
         U _Znaj
         U memcpy
00000000 T _ZN6_TRectIiEC1ERKS0_
00000000 T _ZN6_TRectIiEC1ERK7_TPointIiERK6_TSizeIiE
00000000 T _ZNK6_TRectIiEmiERK7_TPointIiE
00000000 T _ZN7_TEventI10EventParamE10SetHandlerI18VectorGraphicsDemoEEvPT_NS1_17MemberFuncHandlerIS4_E8FuncTypeE
         U _Znwj
         U __diab_Unwind_Resume
         U __diab_personality_v0
00000000 T _ZN7_TEventI10EventParamE15THandlerAdaptorD1Ev
00000000 T _ZN7_TEventI10EventParamE15THandlerAdaptorD0Ev
00000000 T _ZN7_TEventI10EventParamE17MemberFuncHandlerI18VectorGraphicsDemoED1Ev
00000000 T _ZN7_TEventI10EventParamE17MemberFuncHandlerI18VectorGraphicsDemoED0Ev
00000000 T _ZNK7_TEventI10EventParamE17MemberFuncHandlerI18VectorGraphicsDemoE6InvokeERS0_
00000000 T _ZN7_TEventI10EventParamE17MemberFuncHandlerI18VectorGraphicsDemoE3dupEv
00000000 T _ZN6TTimerC1Ev
00000000 T _ZNK8_TMarginIiEneERKS0_
00000000 T _ZNK6TArrayIN11TGridLayout10LayoutInfoEEixEi
00000000 T _ZN11TGridLayout10SetRowSizeEiNS_12LayoutMethodEi
00000000 T _ZN11TGridLayout13SetColumnSizeEiNS_12LayoutMethodEi
00000000 T _ZN10TilconDemoC1Eiiiiii
         U _ZN10TGridPanelC2Eiiiiii
         U _ZN5TNode6UpdateEv
         U _ZN5TNode18OnChildBoundChangeEP8TControl
         U _ZN5TNode8OnResizeEv
         U _ZN10TGridPanelD2Ev
00000000 T _ZN10TilconDemoD1Ev
00000000 T _ZN10TilconDemoD0Ev
00000000 T _ZN18VectorGraphicsDemoC1Ev
         U _ZN14TCustomControlC1Eiiii
         U _ZN10TGridPanelC1Eiiiiii
         U _ZN11TCustomFillC1Ev
         U _ZN6TLabelC1EiiiiRK8TWString
         U _ZdaPv
         U _ZN7TSliderC1Eiiii15OrientationTypeiii
         U _ZN9TCheckBoxC1EiiiiRK8TWString
         U _ZN12TRadioButtonC1Eiiii
         U _ZN11TVectorLionC1Ev
         U _ZN16TVectorSouthParkC1Ev
         U _ZN17TVectorStringPathC1Ev
         U _ZN10TGridPanel10AddControlEP8TControliRK8GridCell
         U _ZN12TRadioButton7AddItemERK8TWString
         U _ZN12TPixelBufferC1Eii
         U _ZN8TPainterC1Ev
         U _ZN8TPainter10BeginPaintER12TPixelBuffer
         U _ZN12TPixelBufferC1Ev
         U _ZN8TPainter8SetBrushERK6TBrush
         U _ZN12TPixelBufferD1Ev
         U _ZN8TPainter8FillRectERK6_TRectIiE
         U _ZN8TPainter8EndPaintEv
         U _ZN12TPatternFillC1ERK12TPixelBuffer
         U _ZN11TCustomFillaSERK12TPatternFill
         U _ZN12TPatternFillD1Ev
         U _ZN8TPainterD1Ev
         U _ZN17TVectorStringPathD1Ev
         U _ZN16TVectorSouthParkD1Ev
         U _ZN11TVectorLionD1Ev
         U _ZN12TRadioButtonD1Ev
         U _ZN9TCheckBoxD1Ev
         U _ZN7TSliderD1Ev
         U _ZN6TLabelD1Ev
         U _ZN11TCustomFillD1Ev
         U _ZN10TGridPanelD1Ev
         U _ZN14TCustomControlD1Ev
00000e0c T _ZN18VectorGraphicsDemoC2Ev
00000e2c T _ZN18VectorGraphicsDemoD1Ev
00001154 T _ZN18VectorGraphicsDemoD0Ev
00001180 T _ZN18VectorGraphicsDemoD2Ev
000011a0 T _ZN18VectorGraphicsDemo12PaintHandlerER10EventParam
         U _ZNK11TCustomFill8FillRectER8TPainterRK6_TRectIiE
         U __div32
         U _ZN14TVectorPainter15TranslateMatrixEff
         U _ZN14TVectorPainter12RotateMatrixEf
         U _ZN14TVectorPainter11ScaleMatrixEff
         U _ZNK12TRadioButton12GetSelectionEv
         U _ZN11TVectorLion4DrawER8TPainter
         U _ZN16TVectorSouthPark4DrawER8TPainter
         U _ZN17TVectorStringPath4DrawER8TPainter
00001374 T _ZN18VectorGraphicsDemo12TimerHandlerER10EventParam
         U _ZN7TSlider8SetValueEi
000014a0 T _ZN18VectorGraphicsDemo13SliderHandlerER10EventParam
0000151c T _ZN18VectorGraphicsDemo12RadioHandlerER10EventParam
00001540 T _ZN18VectorGraphicsDemo8OnAttachEv
         U _ZN6TTimer5StartEv
00001578 T _ZN18VectorGraphicsDemo8OnDetachEv
         U _ZN6TTimer4StopEv
         U __cxa_pure_virtual
         U _ZTVN10__cxxabiv117__class_type_infoE
         U _ZTVN10__cxxabiv120__si_class_type_infoE
         U _ZTI10TGridPanel

tilconDemoPainter.o:
00000010 d FLOAT_TEMP.2494
00000014 d FLOAT_TEMP.2881
00000018 d FLOAT_TEMP.2882
0000001c d FLOAT_TEMP.2883
00000020 d FLOAT_TEMP.2884
00000024 d FLOAT_TEMP.2885
00000028 d FLOAT_TEMP.2886
0000002c d FLOAT_TEMP.2887
00000030 d FLOAT_TEMP.2888
00000034 d FLOAT_TEMP.2889
         U _ZTVSt9exception
         U _ZTVSt13bad_exception
         U _ZTVSt9bad_alloc
00000000 V _ZTV10TException
         U _ZTV17TChildrenDelegate
00000000 V _ZTV6TImage
00000000 V _ZTV10TilconDemo
00000000 V _ZTV11PainterDemo
         U _ZTV6TArrayIP5TNodeE
00000000 V _ZTVN7_TEventI10EventParamE15THandlerAdaptorE
00000000 V _ZTV6TArrayI9ColorStopE
00000000 V _ZTVN7_TEventI10EventParamE17MemberFuncHandlerI11PainterDemoEE
00000000 V _ZTI10TException
         U _ZTI17TChildrenDelegate
         U _ZTI6TArrayIP5TNodeE
00000000 V _ZTIN7_TEventI10EventParamE15THandlerAdaptorE
00000000 V _ZTIN7_TEventI10EventParamE17MemberFuncHandlerI11PainterDemoEE
00000000 V _ZTI6TImage
00000000 V _ZTI6TArrayI9ColorStopE
00000000 V _ZTI10TilconDemo
00000000 V _ZTI11PainterDemo
         U _ZTISt9exception
         U _ZTISt13bad_exception
         U _ZTISt9bad_alloc
00000000 V _ZTS10TException
         U _ZTS17TChildrenDelegate
         U _ZTS6TArrayIP5TNodeE
00000000 V _ZTSN7_TEventI10EventParamE15THandlerAdaptorE
00000000 V _ZTSN7_TEventI10EventParamE17MemberFuncHandlerI11PainterDemoEE
00000000 V _ZTS6TImage
00000000 V _ZTS6TArrayI9ColorStopE
00000000 V _ZTS10TilconDemo
00000000 V _ZTS11PainterDemo
         U _ZTSSt9exception
         U _ZTSSt13bad_exception
         U _ZTSSt9bad_alloc
00000000 T _ZN10TExceptionD1Ev
00000000 T _ZN10TExceptionD0Ev
         U _ZdlPv
00000000 T _ZN6TColorC1Ej
00000000 T _ZN6TColorC1ERKS_
00000000 T _ZN8TWStringC1EPKw
         U __frameinfo_used
         U __cxa_allocate_exception
         U __cxa_throw
         U _Znaj
         U memcpy
00000000 T _ZN6_TRectIiEC1ERK7_TPointIiERK6_TSizeIiE
00000000 T _ZNK6_TRectIiEmiERK7_TPointIiE
00000000 T _ZN7_TEventI10EventParamE10SetHandlerI11PainterDemoEEvPT_NS1_17MemberFuncHandlerIS4_E8FuncTypeE
         U _Znwj
         U __diab_Unwind_Resume
         U __diab_personality_v0
00000000 T _ZN7_TEventI10EventParamE15THandlerAdaptorD1Ev
00000000 T _ZN7_TEventI10EventParamE15THandlerAdaptorD0Ev
00000000 T _ZN7_TEventI10EventParamE17MemberFuncHandlerI11PainterDemoED1Ev
00000000 T _ZN7_TEventI10EventParamE17MemberFuncHandlerI11PainterDemoED0Ev
00000000 T _ZNK7_TEventI10EventParamE17MemberFuncHandlerI11PainterDemoE6InvokeERS0_
00000000 T _ZN7_TEventI10EventParamE17MemberFuncHandlerI11PainterDemoE3dupEv
00000000 T _ZNK10TSharedPtrI9ImageDataE5DerefEv
         U _ZN9ImageDataD1Ev
00000000 T _ZN6TImageD1Ev
00000000 T _ZN6TImageD0Ev
00000000 T _ZN10TSharedPtrI18LinearGradientDataEaSERKS1_
00000000 T _ZN10TSharedPtrI18RadialGradientDataEaSERKS1_
00000000 T _ZN6TArrayI9ColorStopED1Ev
         U __cxa_vec_delete
00000000 T _ZNK10TSharedPtrI13ColorStopDataE5DerefEv
00000000 T _ZN10TSharedPtrI13ColorStopDataEaSERKS1_
00000000 T _ZN9TGradientC1ERKS_
00000000 T _ZN9TGradientaSERKS_
00000000 T _ZN6TArrayI9ColorStopED0Ev
00000000 T _ZN6TPaintC1Ev
         U _ZN9TGradientC1Ev
         U _ZN12TPixelBufferC1Ev
         U _ZN9TGradientD1Ev
00000000 T _ZN6TPaintC1ERK6TColor
00000000 T _ZN6TPaintC1ERK9TGradient
00000000 T _ZN6TPaintD1Ev
         U _ZN12TPixelBufferD1Ev
00000000 T _ZN6TPaintaSERKS_
         U _ZN12TPixelBufferaSERKS_
00000000 T _ZN6TBrushC1ERK6TColor
00000000 T _ZNK8_TMarginIiEneERKS0_
00000000 T _ZN8TControl9SetMarginERK8_TMarginIiE
         U _ZN5TNode18OnChildBoundChangeEP8TControl
         U _ZN5TNode8OnResizeEv
         U _ZN5TNode6UpdateEv
00000000 T _ZN8TControl6UpdateEv
00000000 T _ZNK6TArrayIN11TGridLayout10LayoutInfoEEixEi
00000000 T _ZN11TGridLayout10SetRowSizeEiNS_12LayoutMethodEi
00000000 T _ZN11TGridLayout13SetColumnSizeEiNS_12LayoutMethodEi
00000000 T _ZN10TilconDemoC1Eiiiiii
         U _ZN10TGridPanelC2Eiiiiii
         U _ZN10TGridPanelD2Ev
00000000 T _ZN10TilconDemoD1Ev
00000000 T _ZN10TilconDemoD0Ev
00000000 T _ZN6_TRectIfEC1Ev
         U _ZN6_TRectIfE8nullRectE
00000000 T _ZN11PainterDemoC1Ev
         U _ZN11TCustomFillC1Ev
         U _ZN14TCustomControlC1Eiiii
         U _ZN10TGridPanelC1Eiiiiii
         U _ZN6TLabelC1EiiiiRK8TWString
         U _ZdaPv
         U _ZN9TCheckBoxC1EiiiiRK8TWString
         U _ZN12TRadioButtonC1Eiiii
         U _ZN7TSliderC1Eiiii15OrientationTypeiii
         U _ZN5TPathC1Ev
         U _ZN10TGridPanel10AddControlEP8TControliRK8GridCell
         U _ZN12TRadioButton7AddItemERK8TWString
         U _ZN12TRadioButton12SetSelectionEi
         U _ZN5TFontC1EPKcj
         U _ZN5TPath7AddTextERK5TFontRK8TWString
         U _ZNK5TPath12GetBoundRectEv
         U _ZN5TPath9TranslateEff
         U _ZN12TPixelBufferC1Eii
         U _ZN8TPainterC1Ev
         U _ZN8TPainter10BeginPaintER12TPixelBuffer
         U _ZN8TPainter8SetBrushERK6TBrush
         U _ZN8TPainter8FillRectERK6_TRectIiE
         U _ZN8TPainter8EndPaintEv
         U _ZN6TImageC1ERK12TPixelBuffer
         U _ZN12TPixelBufferC1ERK6TImage
         U _ZN12TPatternFillC1ERK12TPixelBuffer
         U _ZN11TCustomFillaSERK12TPatternFill
         U _ZN12TPatternFillD1Ev
         U _ZN8TPainterD1Ev
         U _ZN5TFontD1Ev
         U _ZN5TPathD1Ev
         U _ZN7TSliderD1Ev
         U _ZN12TRadioButtonD1Ev
         U _ZN9TCheckBoxD1Ev
         U _ZN6TLabelD1Ev
         U _ZN10TGridPanelD1Ev
         U _ZN14TCustomControlD1Ev
         U _ZN11TCustomFillD1Ev
000015d4 T _ZN11PainterDemoC2Ev
000015f4 T _ZN11PainterDemoD1Ev
000019a4 T _ZN11PainterDemoD0Ev
000019d0 T _ZN11PainterDemoD2Ev
000019f0 T _ZN11PainterDemo12PaintHandlerER10EventParam
         U __div32
         U _ZNK11TCustomFill8FillRectER8TPainterRK6_TRectIiE
         U _ZNK12TRadioButton12GetSelectionEv
         U _ZN14TVectorPainter12SetBlendModeE9BlendMode
         U cos
         U sin
         U _ZN9TGradientC1EffffjPK6TColorPKf
         U _ZN9TGradientC1EfffffjPK6TColorPKf
         U _ZN14TVectorPainter15TranslateMatrixEff
         U _ZN14TVectorPainter11ScaleMatrixEff
         U _ZN14TVectorPainter12SetFillPaintERK6TPaint
         U _ZN14TVectorPainter8FillPathERK5TPath
         U _ZN14TVectorPainter14SetStrokePaintERK6TPaint
         U _ZN14TVectorPainter12SetPathWidthEf
         U _ZN14TVectorPainter10StrokePathERK5TPath
         U _ZN14TVectorPainter11ResetMatrixEv
00002424 T _ZN11PainterDemo13UpdateHandlerER10EventParam
00002448 T _ZN11PainterDemo8OnAttachEv
0000244c T _ZN11PainterDemo8OnDetachEv
         U __cxa_pure_virtual
         U _ZTVN10__cxxabiv117__class_type_infoE
         U _ZTVN10__cxxabiv120__si_class_type_infoE
         U _ZTI10TGridPanel

tilconVectorLion.o:
00000000 d coords.1611
00000180 d coords.1613
00000240 d coords.1615
00000270 d coords.1617
000002d8 d coords.1619
000003f8 d coords.1621
000004b8 d coords.1623
00000660 d coords.1625
00000718 d coords.1627
00000770 d coords.1629
000007d0 d coords.1631
00000880 d coords.1633
000008d8 d coords.1635
00000900 d coords.1637
00000938 d coords.1639
000009c0 d coords.1641
00000a48 d coords.1643
00000b40 d coords.1645
00000b80 d coords.1647
00000c60 d coords.1649
00000c98 d coords.1651
00000cd0 d coords.1653
00000e10 d coords.1655
00000ef0 d coords.1657
00000f28 d coords.1659
00000f60 d coords.1661
00001018 d coords.1663
00001158 d coords.1665
00001230 d coords.1667
00001260 d coords.1669
00001298 d coords.1671
000012c8 d coords.1673
00001360 d coords.1675
000013d8 d coords.1677
00001478 d coords.1679
00001498 d coords.1681
000014f0 d coords.1683
00001570 d coords.1685
00001600 d coords.1687
000016b8 d coords.1689
00001720 d coords.1691
00001760 d coords.1693
000017b0 d coords.1695
000017e8 d coords.1697
00001820 d coords.1699
00001860 d coords.1701
000018c0 d coords.1703
000018e8 d coords.1705
00001930 d coords.1707
00001968 d coords.1709
00001990 d coords.1711
000019b0 d coords.1713
00001aa8 d coords.1715
00001ba8 d coords.1717
00001bf8 d coords.1719
00001c20 d coords.1721
00001d60 d coords.1723
00001d98 d coords.1725
00001dd8 d coords.1727
00001e08 d coords.1729
00001e38 d coords.1731
00001f50 d coords.1733
000020a0 d coords.1735
000020e8 d coords.1737
00002110 d coords.1739
00002130 d coords.1741
000022d0 d coords.1743
000022f8 d coords.1745
00002318 d coords.1747
00002338 d coords.1749
000023a0 d coords.1751
000024f0 d coords.1753
00002588 d coords.1755
000025d0 d coords.1757
00002600 d coords.1759
000026e8 d coords.1761
00002718 d coords.1763
00002748 d coords.1765
000027b8 d coords.1767
000027e0 d coords.1769
00002818 d coords.1771
00002868 d coords.1773
00002960 d coords.1775
00002980 d coords.1777
000029a0 d coords.1779
000029c0 d coords.1781
000029e0 d coords.1783
00002a00 d coords.1785
00002aa8 d coords.1787
00002b98 d coords.1789
00002bf0 d coords.1791
00002c18 d coords.1793
00002d08 d coords.1795
00002d80 d coords.1797
00002ea8 d coords.1799
00002fc8 d coords.1801
00003040 d coords.1803
00003140 d coords.1805
000031b0 d coords.1807
000032b0 d coords.1809
000032f0 d coords.1811
00003358 d coords.1813
00003380 d coords.1815
000033c0 d coords.1817
000033e8 d coords.1819
000034e8 d coords.1821
00003508 d coords.1823
00003528 d coords.1825
00003548 d coords.1827
00003638 d coords.1829
00003658 d coords.1831
00003678 d coords.1833
00003698 d coords.1835
000036b8 d coords.1837
000036f8 d coords.1839
00003718 d coords.1841
00003740 d coords.1843
00003790 d coords.1845
000037d8 d coords.1847
00003800 d coords.1849
00003830 d coords.1851
00003860 d coords.1853
00003890 d coords.1855
000038b8 d coords.1857
000038e8 d coords.1859
00003918 d coords.1861
000039c0 d coords.1863
00003a38 d coords.1865
00003b30 d coords.1867
00003c58 d coords.1869
00003c80 d coords.1871
00003cb0 d coords.1873
00003ce0 d FLOAT_TEMP.2328
00003ce4 d FLOAT_TEMP.2329
         U _ZTVSt9exception
         U _ZTVSt13bad_exception
         U _ZTVSt9bad_alloc
         U _ZTV10TException
         U _ZTV17TChildrenDelegate
         U _ZTV6TImage
         U _ZTV10TilconDemo
         U _ZTV6TArrayIP5TNodeE
         U _ZTV6TArrayI9ColorStopE
         U _ZTI10TException
         U _ZTI17TChildrenDelegate
         U _ZTI6TArrayIP5TNodeE
         U _ZTI6TImage
         U _ZTI6TArrayI9ColorStopE
         U _ZTI10TilconDemo
         U _ZTISt9exception
         U _ZTISt13bad_exception
         U _ZTISt9bad_alloc
         U _ZTS10TException
         U _ZTS17TChildrenDelegate
         U _ZTS6TArrayIP5TNodeE
         U _ZTS6TImage
         U _ZTS6TArrayI9ColorStopE
         U _ZTS10TilconDemo
         U _ZTSSt9exception
         U _ZTSSt13bad_exception
         U _ZTSSt9bad_alloc
00000000 T _ZN6TColorC1Ev
00000000 T _ZN6TColorC1ERKS_
00000000 T _ZN6TPaintC1ERK6TColor
         U __frameinfo_used
         U _ZN9TGradientC1Ev
         U _ZN12TPixelBufferC1Ev
         U _ZN9TGradientD1Ev
         U __diab_Unwind_Resume
         U __diab_personality_v0
00000000 T _ZN6TPaintD1Ev
         U _ZN12TPixelBufferD1Ev
00000000 T _ZN11TVectorLion4initEijPKfi
         U memset
         U _ZN5TPathC1EjPKhPKf
         U _ZN5TPathaSERKS_
         U _ZN5TPathD1Ev
000000d0 T _ZN11TVectorLion5poly0Ev
00000104 T _ZN11TVectorLion5poly1Ev
00000138 T _ZN11TVectorLion5poly2Ev
0000016c T _ZN11TVectorLion5poly3Ev
000001a0 T _ZN11TVectorLion5poly4Ev
000001d4 T _ZN11TVectorLion5poly5Ev
00000208 T _ZN11TVectorLion5poly6Ev
0000023c T _ZN11TVectorLion5poly7Ev
00000270 T _ZN11TVectorLion5poly8Ev
000002a4 T _ZN11TVectorLion5poly9Ev
000002d8 T _ZN11TVectorLion6poly10Ev
0000030c T _ZN11TVectorLion6poly11Ev
0000033c T _ZN11TVectorLion6poly12Ev
00000370 T _ZN11TVectorLion6poly13Ev
000003a4 T _ZN11TVectorLion6poly14Ev
000003d8 T _ZN11TVectorLion6poly15Ev
0000040c T _ZN11TVectorLion6poly16Ev
00000440 T _ZN11TVectorLion6poly17Ev
00000474 T _ZN11TVectorLion6poly18Ev
000004a8 T _ZN11TVectorLion6poly19Ev
000004dc T _ZN11TVectorLion6poly20Ev
00000510 T _ZN11TVectorLion6poly21Ev
00000544 T _ZN11TVectorLion6poly22Ev
00000578 T _ZN11TVectorLion6poly23Ev
000005ac T _ZN11TVectorLion6poly24Ev
000005e0 T _ZN11TVectorLion6poly25Ev
00000614 T _ZN11TVectorLion6poly26Ev
00000648 T _ZN11TVectorLion6poly27Ev
00000678 T _ZN11TVectorLion6poly28Ev
000006ac T _ZN11TVectorLion6poly29Ev
000006e0 T _ZN11TVectorLion6poly30Ev
00000714 T _ZN11TVectorLion6poly31Ev
00000748 T _ZN11TVectorLion6poly32Ev
0000077c T _ZN11TVectorLion6poly33Ev
000007b0 T _ZN11TVectorLion6poly34Ev
000007e4 T _ZN11TVectorLion6poly35Ev
00000818 T _ZN11TVectorLion6poly36Ev
0000084c T _ZN11TVectorLion6poly37Ev
00000880 T _ZN11TVectorLion6poly38Ev
000008b4 T _ZN11TVectorLion6poly39Ev
000008e8 T _ZN11TVectorLion6poly40Ev
0000091c T _ZN11TVectorLion6poly41Ev
00000950 T _ZN11TVectorLion6poly42Ev
00000984 T _ZN11TVectorLion6poly43Ev
000009b8 T _ZN11TVectorLion6poly44Ev
000009ec T _ZN11TVectorLion6poly45Ev
00000a20 T _ZN11TVectorLion6poly46Ev
00000a54 T _ZN11TVectorLion6poly47Ev
00000a88 T _ZN11TVectorLion6poly48Ev
00000abc T _ZN11TVectorLion6poly49Ev
00000af0 T _ZN11TVectorLion6poly50Ev
00000b24 T _ZN11TVectorLion6poly51Ev
00000b58 T _ZN11TVectorLion6poly52Ev
00000b8c T _ZN11TVectorLion6poly53Ev
00000bc0 T _ZN11TVectorLion6poly54Ev
00000bf4 T _ZN11TVectorLion6poly55Ev
00000c28 T _ZN11TVectorLion6poly56Ev
00000c5c T _ZN11TVectorLion6poly57Ev
00000c90 T _ZN11TVectorLion6poly58Ev
00000cc4 T _ZN11TVectorLion6poly59Ev
00000cf8 T _ZN11TVectorLion6poly60Ev
00000d2c T _ZN11TVectorLion6poly61Ev
00000d60 T _ZN11TVectorLion6poly62Ev
00000d94 T _ZN11TVectorLion6poly63Ev
00000dc8 T _ZN11TVectorLion6poly64Ev
00000dfc T _ZN11TVectorLion6poly65Ev
00000e30 T _ZN11TVectorLion6poly66Ev
00000e64 T _ZN11TVectorLion6poly67Ev
00000e98 T _ZN11TVectorLion6poly68Ev
00000ecc T _ZN11TVectorLion6poly69Ev
00000f00 T _ZN11TVectorLion6poly70Ev
00000f34 T _ZN11TVectorLion6poly71Ev
00000f9c T _ZN11TVectorLion6poly72Ev
00000fd0 T _ZN11TVectorLion6poly73Ev
00001004 T _ZN11TVectorLion6poly74Ev
00001038 T _ZN11TVectorLion6poly75Ev
0000106c T _ZN11TVectorLion6poly76Ev
000010c0 T _ZN11TVectorLion6poly77Ev
000010f4 T _ZN11TVectorLion6poly78Ev
00001128 T _ZN11TVectorLion6poly79Ev
0000115c T _ZN11TVectorLion6poly80Ev
00001190 T _ZN11TVectorLion6poly81Ev
000011e0 T _ZN11TVectorLion6poly82Ev
00001214 T _ZN11TVectorLion6poly83Ev
00001248 T _ZN11TVectorLion6poly84Ev
0000127c T _ZN11TVectorLion6poly85Ev
000012b0 T _ZN11TVectorLion6poly86Ev
00001304 T _ZN11TVectorLion6poly87Ev
00001338 T _ZN11TVectorLion6poly88Ev
0000136c T _ZN11TVectorLion6poly89Ev
000013a0 T _ZN11TVectorLion6poly90Ev
000013d4 T _ZN11TVectorLion6poly91Ev
00001424 T _ZN11TVectorLion6poly92Ev
00001458 T _ZN11TVectorLion6poly93Ev
0000148c T _ZN11TVectorLion6poly94Ev
000014c0 T _ZN11TVectorLion6poly95Ev
000014f4 T _ZN11TVectorLion6poly96Ev
00001544 T _ZN11TVectorLion6poly97Ev
00001578 T _ZN11TVectorLion6poly98Ev
000015ac T _ZN11TVectorLion6poly99Ev
000015e0 T _ZN11TVectorLion7poly100Ev
00001614 T _ZN11TVectorLion7poly101Ev
00001668 T _ZN11TVectorLion7poly102Ev
0000169c T _ZN11TVectorLion7poly103Ev
000016d0 T _ZN11TVectorLion7poly104Ev
00001704 T _ZN11TVectorLion7poly105Ev
00001738 T _ZN11TVectorLion7poly106Ev
00001788 T _ZN11TVectorLion7poly107Ev
000017bc T _ZN11TVectorLion7poly108Ev
000017f0 T _ZN11TVectorLion7poly109Ev
00001824 T _ZN11TVectorLion7poly110Ev
00001858 T _ZN11TVectorLion7poly111Ev
000018a8 T _ZN11TVectorLion7poly112Ev
000018dc T _ZN11TVectorLion7poly113Ev
00001910 T _ZN11TVectorLion7poly114Ev
00001944 T _ZN11TVectorLion7poly115Ev
00001978 T _ZN11TVectorLion7poly116Ev
000019cc T _ZN11TVectorLion7poly117Ev
00001a00 T _ZN11TVectorLion7poly118Ev
00001a34 T _ZN11TVectorLion7poly119Ev
00001a68 T _ZN11TVectorLion7poly120Ev
00001a9c T _ZN11TVectorLion7poly121Ev
00001aec T _ZN11TVectorLion7poly122Ev
00001b20 T _ZN11TVectorLion7poly123Ev
00001b54 T _ZN11TVectorLion7poly124Ev
00001b88 T _ZN11TVectorLion7poly125Ev
00001bbc T _ZN11TVectorLion7poly126Ev
00001bf0 T _ZN11TVectorLion7poly127Ev
00001c40 T _ZN11TVectorLion7poly128Ev
00001c74 T _ZN11TVectorLion7poly129Ev
00001ca8 T _ZN11TVectorLion7poly130Ev
00001cdc T _ZN11TVectorLion7poly131Ev
00000000 T _ZN6_TRectIfEC1ERKS0_
00000000 T _ZNK6_TRectIfE7CombineERKS0_
00001d10 T _ZN11TVectorLionC1Ev
         U __cxa_vec_ctor
         U _ZN5TPathC1Ev
         U _ZN6_TRectIfE8nullRectE
         U _ZNK5TPath12GetBoundRectEv
         U _ZN5TPath9TranslateEff
         U __cxa_vec_dtor
0000279c T _ZN11TVectorLionC2Ev
000027bc T _ZN11TVectorLionD1Ev
00002800 T _ZN11TVectorLionD2Ev
00002820 T _ZN11TVectorLion4DrawER8TPainter
         U _ZN14TVectorPainter12SetFillPaintERK6TPaint
         U _ZN14TVectorPainter8FillPathERK5TPath

tilconOscilloscope.o:
00001e34 t _Z22tilconOscilloscopeTaskRK9TAppParam
00000048 d FLOAT_TEMP.3209
0000004c d FLOAT_TEMP.3210
00000050 d FLOAT_TEMP.3211
00000054 d FLOAT_TEMP.3212
00000000 d t1.2056
00000058 d FLOAT_TEMP.3242
0000005c d FLOAT_TEMP.3243
00000060 d FLOAT_TEMP.3244
00000064 d FLOAT_TEMP.3245
00000068 d FLOAT_TEMP.3246
0000006c d FLOAT_TEMP.3247
00000070 d FLOAT_TEMP.3248
00000074 d FLOAT_TEMP.3249
00000078 d FLOAT_TEMP.3285
0000007c d FLOAT_TEMP.3286
00000080 d FLOAT_TEMP.3287
00000084 d FLOAT_TEMP.3288
00000088 d FLOAT_TEMP.3289
00000004 d t2.2057
         U _ZTVSt9exception
         U _ZTVSt13bad_exception
         U _ZTVSt9bad_alloc
00000000 V _ZTV10TException
         U _ZTV17TChildrenDelegate
         U _ZTV6TImage
00000000 V _ZTV13TOscilloscope
         U _ZTV6TArrayIP5TNodeE
00000000 V _ZTVN7_TEventI10EventParamE15THandlerAdaptorE
         U _ZTV6TArrayI9ColorStopE
00000000 V _ZTVN7_TEventI10EventParamE17MemberFuncHandlerI13TOscilloscopeEE
00000000 V _ZTI10TException
         U _ZTI17TChildrenDelegate
         U _ZTI6TArrayIP5TNodeE
00000000 V _ZTIN7_TEventI10EventParamE15THandlerAdaptorE
00000000 V _ZTIN7_TEventI10EventParamE17MemberFuncHandlerI13TOscilloscopeEE
         U _ZTI6TImage
         U _ZTI6TArrayI9ColorStopE
00000000 V _ZTI13TOscilloscope
         U _ZTISt9exception
         U _ZTISt13bad_exception
         U _ZTISt9bad_alloc
00000000 V _ZTS10TException
         U _ZTS17TChildrenDelegate
         U _ZTS6TArrayIP5TNodeE
00000000 V _ZTSN7_TEventI10EventParamE15THandlerAdaptorE
00000000 V _ZTSN7_TEventI10EventParamE17MemberFuncHandlerI13TOscilloscopeEE
         U _ZTS6TImage
         U _ZTS6TArrayI9ColorStopE
00000000 V _ZTS13TOscilloscope
         U _ZTSSt9exception
         U _ZTSSt13bad_exception
         U _ZTSSt9bad_alloc
00000000 T _ZN6TColorC1Ehhh
00000000 T _ZN8TWStringC1EPKw
         U __frameinfo_used
         U __cxa_allocate_exception
         U __cxa_throw
00000000 T _ZN10TExceptionD1Ev
         U _Znaj
         U memcpy
00000000 T _ZN8GridCellC1Eii
00000000 T _ZN7_TEventI10EventParamED1Ev
00000000 T _ZN7_TEventI10EventParamE10SetHandlerI13TOscilloscopeEEvPT_NS1_17MemberFuncHandlerIS4_E8FuncTypeE
         U _Znwj
         U __diab_Unwind_Resume
         U __diab_personality_v0
00000000 T _ZN6TColorC1ERKS_
00000000 T _ZN4TPenC1ERK6TColoriNS_9LineStyleE
00000000 T _ZN6TTimerC1Ev
00000000 T _ZN8_TMarginIiEC1Eiiii
00000000 T _ZNK8_TMarginIiEneERKS0_
00000000 T _ZN8TControl9SetMarginERK8_TMarginIiE
         U _ZN5TNode18OnChildBoundChangeEP8TControl
         U _ZN5TNode8OnResizeEv
         U _ZN5TNode6UpdateEv
00000000 T _ZN8TControl12SetFrameTypeE9FrameType
00000000 T _ZN7TWindow15AddControlAtTopEP8TControl
         U _ZN6TGroup10AddControlEP8TControli
00000000 T _ZN7TWindow12SetFrameTypeE9FrameType
00000000 T _ZN7TWindow9SetMarginERK8_TMarginIiE
00000000 T _ZN8TWStringaSERKS_
         U _ZdaPv
00000000 T _ZNK8TWStringneERKS_
00000000 T _ZN11TPushButton7SetTextERK8TWString
00000000 T _ZN13TToggleButton10SetOutTextERK8TWString
00000000 T _ZN13TToggleButton9SetInTextERK8TWString
00000000 T _ZNK6TArrayIN11TGridLayout10LayoutInfoEEixEi
00000000 T _ZN11TGridLayout10SetRowSizeEiNS_12LayoutMethodEi
00000000 T _ZN11TGridLayout15SetFixedRowSizeEii
00000000 T _ZN11TGridLayout13SetColumnSizeEiNS_12LayoutMethodEi
00000000 T _ZN11TGridLayout18SetFixedColumnSizeEii
00000000 T _ZN11TGridLayout10SetSpacingERK8_TMarginIiE
00000000 T _ZN10TLineChart19SetSamplesPerScreenEj
00000000 T _ZNK6TArrayIN10TLineChart11ChannelInfoEEixEi
00000000 T _ZN10TLineChart10ScrollData10InsertDataEf
         U __urem32
00000000 T _ZN10TLineChart9SweepData10InsertDataEf
00000000 T _ZN10TLineChart10InsertDataEif
00000000 T _ZN9TGroupBox15AddControlAtTopEP8TControl
00000000 T _ZN13TOscilloscopeC1Eiiii
         U _ZN7TWindowC2EiiiiPS_NS_12WindowSizingENS_10WindowTypeE
         U _ZN10TGridPanelC1Eiiiiii
         U _ZN9TGroupBoxC1EiiiiRK8TWString
         U _ZN6TLabelC1EiiiiRK8TWString
         U _ZN12TTextSpinBoxC1Eiiii
         U _ZN12TRadioButtonC1Eiiii
         U _ZN8TSpinBoxC1Eiiii
         U _ZN13TToggleButtonC1Eiiii
         U _ZN11TPushButtonC1Eiiii
         U _ZN10TLineChartC1Eiiiijj
         U _ZN8TControl18SetAlignmentPolicyE19HorizontalAlignment17VerticalAlignment
         U _ZN10TGridPanel15AddControlAtTopEP8TControlRK8GridCell
         U _ZN12TTextSpinBox7AddItemERK8TWString
         U _ZN12TTextSpinBox15ChangeSelectionEi
         U _ZN12TRadioButton14SetItemsPerRowEi
         U _ZN12TRadioButton7AddItemERK8TWString
         U _ZN8TSpinBox11SetMinValueEi
         U _ZN8TSpinBox11SetMaxValueEi
         U _ZN8TSpinBox12SetIncrementEi
         U _ZN8TSpinBox8SetValueEi
         U _ZN10TLineChart13SetChannelPenEiRK4TPen
         U _ZN10TLineChart16SetChannelOffsetEif
         U _ZN6TTimer5StartEv
         U _ZN10TLineChartD1Ev
         U _ZN11TPushButtonD1Ev
         U _ZN10TGridPanelD1Ev
         U _ZN13TToggleButtonD1Ev
         U _ZN8TSpinBoxD1Ev
         U _ZN6TLabelD1Ev
         U _ZN12TRadioButtonD1Ev
         U _ZN9TGroupBoxD1Ev
         U _ZN12TTextSpinBoxD1Ev
         U _ZN7TWindowD2Ev
         U _ZN12TApplicationC1ERK9TAppParam
         U _ZN7TWindow4ShowEi
         U _ZN12TApplication3RunEv
         U _ZN7TWindow7DestroyEv
         U _ZN12TApplicationD1Ev
         U _ZdlPv
00002034 T tilconOscilloscopeTaskEntry
         U _ZN9TAppParamC1EPKc
         U _ZN9TAppParam3AddEPKc
         U _ZN9TAppParamD1Ev
000020d0 T tilconOscilloscope
         U taskSpawn
00000000 T _ZN10TExceptionD0Ev
00000000 T _ZN7_TEventI10EventParamE15THandlerAdaptorD1Ev
00000000 T _ZN7_TEventI10EventParamE15THandlerAdaptorD0Ev
00000000 T _ZN7_TEventI10EventParamE17MemberFuncHandlerI13TOscilloscopeED1Ev
00000000 T _ZN7_TEventI10EventParamE17MemberFuncHandlerI13TOscilloscopeED0Ev
00000000 T _ZNK7_TEventI10EventParamE17MemberFuncHandlerI13TOscilloscopeE6InvokeERS0_
00000000 T _ZN7_TEventI10EventParamE17MemberFuncHandlerI13TOscilloscopeE3dupEv
00002154 T _ZN13TOscilloscopeC2Eiiii
0000217c T _ZN13TOscilloscopeD1Ev
000027d8 T _ZN13TOscilloscopeD0Ev
00002804 T _ZN13TOscilloscopeD2Ev
00002824 T _ZN13TOscilloscope18GenerateSampleDataEij
         U _ZNK12TRadioButton12GetSelectionEv
         U sin
00002924 T _ZN13TOscilloscope12TimerHandlerER10EventParam
000029fc T _ZN13TOscilloscope16ScaleSpinHandlerER10EventParam
         U _ZNK12TTextSpinBox12GetSelectionEv
         U _ZN10TChartBody15GenerateYLabelsERK8_TLinearIfERKNS_8BodyInfoER6TArrayI8TWStringE
00002c1c T _ZN13TOscilloscope16SpeedSpinHandlerER10EventParam
         U _ZN10TChartBody15GenerateXLabelsERK8_TLinearIfERKNS_8BodyInfoER6TArrayI8TWStringE
00002ee4 T _ZN13TOscilloscope16CurveSpinHandlerER10EventParam
         U _ZN10TLineChart19SetChannelAmplifierEif
00002fd0 T _ZN13TOscilloscope17ShowToggleHandlerER10EventParam
         U _ZN10TLineChart17SetChannelVisibleEii
00003018 T _ZN13TOscilloscope11ExitHandlerER10EventParam
         U _ZN12TApplication8InstanceEv
         U _ZN12TApplication4StopEi
         U __cxa_pure_virtual
         U _ZTVN10__cxxabiv117__class_type_infoE
         U _ZTVN10__cxxabiv120__si_class_type_infoE
         U _ZTI7TWindow

tilconMineField.o:
00000018 d FLOAT_TEMP.2689
00000020 d FLOAT_TEMP.3063
00000028 d FLOAT_TEMP.3064
0000002c d FLOAT_TEMP.3065
00000030 d FLOAT_TEMP.3066
00000038 d FLOAT_TEMP.3067
00000040 d FLOAT_TEMP.3068
00000048 d FLOAT_TEMP.3069
00000050 d FLOAT_TEMP.3070
00000058 d FLOAT_TEMP.3071
00000060 d FLOAT_TEMP.3072
00000068 d FLOAT_TEMP.3073
00000070 d FLOAT_TEMP.3074
00000078 d FLOAT_TEMP.3075
00000080 d FLOAT_TEMP.3076
00000088 d FLOAT_TEMP.3077
00000090 d FLOAT_TEMP.3078
00000098 d FLOAT_TEMP.3079
000000a0 d FLOAT_TEMP.3080
000000a8 d FLOAT_TEMP.3081
000000b0 d FLOAT_TEMP.3082
000000b8 d FLOAT_TEMP.3083
000000bc d FLOAT_TEMP.3084
000000c0 d FLOAT_TEMP.3085
000000c4 d FLOAT_TEMP.3086
000000c8 d FLOAT_TEMP.3087
000000cc d FLOAT_TEMP.3088
000000d0 d FLOAT_TEMP.3089
         U _ZTVSt9exception
         U _ZTVSt13bad_exception
         U _ZTVSt9bad_alloc
00000000 V _ZTV10TException
         U _ZTV17TChildrenDelegate
         U _ZTV6TImage
00000000 V _ZTV10TMineField
         U _ZTV6TArrayIP5TNodeE
00000000 V _ZTVN7_TEventI10EventParamE15THandlerAdaptorE
         U _ZTV6TArrayI9ColorStopE
00000000 V _ZTV6TArrayIN10TMineField4TileEE
00000000 V _ZTVN7_TEventI10EventParamE17MemberFuncHandlerI10TMineFieldEE
00000000 V _ZTV6TArrayIiE
00000000 V _ZTV6TArrayI7_TPointIiEE
00000000 V _ZTI10TException
         U _ZTI17TChildrenDelegate
         U _ZTI6TArrayIP5TNodeE
00000000 V _ZTIN7_TEventI10EventParamE15THandlerAdaptorE
00000000 V _ZTIN7_TEventI10EventParamE17MemberFuncHandlerI10TMineFieldEE
         U _ZTI6TImage
         U _ZTI6TArrayI9ColorStopE
00000000 V _ZTI6TArrayIN10TMineField4TileEE
00000000 V _ZTI10TMineField
00000000 V _ZTI6TArrayIiE
00000000 V _ZTI6TArrayI7_TPointIiEE
         U _ZTISt9exception
         U _ZTISt13bad_exception
         U _ZTISt9bad_alloc
00000000 V _ZTS10TException
         U _ZTS17TChildrenDelegate
         U _ZTS6TArrayIP5TNodeE
00000000 V _ZTSN7_TEventI10EventParamE15THandlerAdaptorE
00000000 V _ZTSN7_TEventI10EventParamE17MemberFuncHandlerI10TMineFieldEE
         U _ZTS6TImage
         U _ZTS6TArrayI9ColorStopE
00000000 V _ZTS6TArrayIN10TMineField4TileEE
         U _ZTI14TEventDelegate
         U _ZTS14TEventDelegate
00000000 V _ZTS10TMineField
00000000 V _ZTS6TArrayIiE
00000000 V _ZTS6TArrayI7_TPointIiEE
         U _ZTSSt9exception
         U _ZTSSt13bad_exception
         U _ZTSSt9bad_alloc
00000000 T _ZN10TExceptionD1Ev
00000000 T _ZN10TExceptionD0Ev
         U _ZdlPv
00000000 T _ZN6TColorC1Ej
00000000 T _ZN6TColorC1ERKS_
00000000 T _ZN8TWStringC1EPKw
         U __frameinfo_used
         U __cxa_allocate_exception
         U __cxa_throw
         U _Znaj
         U memcpy
00000000 T _ZN7_TPointIiEC1Ev
00000000 T _ZN6_TRectIiEC1Ev
         U _ZN6_TRectIiE8nullRectE
00000000 T _ZN6_TRectIiEC1ERKS0_
00000000 T _ZNK6_TRectIiE6AdjustERK8_TMarginIiE
00000000 T _ZNK6_TRectIiE7CombineERKS0_
00000000 T _ZNK6_TRectIiEmiERK7_TPointIiE
00000000 T _ZN7_TEventI10EventParamE10SetHandlerI10TMineFieldEEvPT_NS1_17MemberFuncHandlerIS4_E8FuncTypeE
         U _Znwj
         U __diab_Unwind_Resume
         U __diab_personality_v0
00000000 T _ZN7_TEventI10EventParamE15THandlerAdaptorD1Ev
00000000 T _ZN7_TEventI10EventParamE15THandlerAdaptorD0Ev
00000000 T _ZN7_TEventI10EventParamE17MemberFuncHandlerI10TMineFieldED1Ev
00000000 T _ZN7_TEventI10EventParamE17MemberFuncHandlerI10TMineFieldED0Ev
00000000 T _ZNK7_TEventI10EventParamE17MemberFuncHandlerI10TMineFieldE6InvokeERS0_
00000000 T _ZN7_TEventI10EventParamE17MemberFuncHandlerI10TMineFieldE3dupEv
00000000 T _ZN7_TPointIfEC1Ev
00000000 T _ZN7_TPointIfED1Ev
00000000 T _ZN6TPaintC1ERK6TColor
         U _ZN9TGradientC1Ev
         U _ZN12TPixelBufferC1Ev
         U _ZN9TGradientD1Ev
00000000 T _ZN6TPaintD1Ev
         U _ZN12TPixelBufferD1Ev
00000000 T _ZNK8_TMarginIiEneERKS0_
00000000 T _ZN6TArrayIN10TMineField4TileEE13RoundCapacityEi
00000000 T _ZN6TArrayIN10TMineField4TileEE8ExpandAtEii
         U _ZdaPv
00000000 T _ZN6TArrayIN10TMineField4TileEEC1Ei
00000000 T _ZN6TArrayIN10TMineField4TileEED1Ev
00000000 T _ZN6TArrayIN10TMineField4TileEED0Ev
00000000 T _ZNK6TArrayIN10TMineField4TileEEixEi
00000000 T _ZN10TMineField10ClearFieldEv
00000088 T _ZN10TMineFieldC1Eii
         U _ZN14TCustomControlC2Eiiii
         U __cxa_vec_ctor
         U _ZN5TNode6UpdateEv
         U _ZN5TNode18OnChildBoundChangeEP8TControl
         U _ZN5TNode8OnResizeEv
         U __cxa_vec_dtor
         U _ZN14TCustomControlD2Ev
00000408 T _ZN10TMineFieldC2Eii
00000428 T _ZN10TMineFieldD1Ev
000005c8 T _ZN10TMineFieldD0Ev
000005f4 T _ZN10TMineFieldD2Ev
00000614 T _ZN10TMineField13CheckProgressEv
000006fc T _ZN10TMineField9StartGameEi
00000744 T _ZN10TMineField13ResizeHandlerER10EventParam
         U __div32
         U _ZN7TVisualC1E9FrameType
         U _ZN8TPainterC1Ev
         U _ZN12TPixelBufferC1Eii
         U _ZN12TPixelBufferaSERKS_
         U _ZN8TPainter10BeginPaintER12TPixelBuffer
         U memset
         U _ZNK7TVisual4DrawER8TPainterRK11VisualStateRK6_TRectIiE
         U _ZN8TPainter8EndPaintEv
         U sin
         U cos
         U _ZN14TVectorPainter11ScaleMatrixEff
         U _ZN14TVectorPainter12SetFillPaintERK6TPaint
         U _ZN14TVectorPainter8FillPathEPK7_TPointIfEj
         U _ZN5TPathC1Ev
         U _ZN5TPath6MoveToEff
         U _ZN5TPath6LineToEff
         U _ZN14TVectorPainter12SetPathWidthEf
         U _ZN14TVectorPainter14SetStrokePaintERK6TPaint
         U _ZN14TVectorPainter10StrokePathERK5TPath
         U _ZN5TPath5ClearEv
         U _ZN5TPath5CloseEv
         U _ZN14TVectorPainter8FillPathERK5TPath
         U _ZN5TFontC1EPKcj
         U _ZN5TPath7AddTextERK5TFontRK8TWString
         U _ZN5TFontD1Ev
         U _ZNK5TPath12GetBoundRectEv
         U _ZN5TPath9TranslateEff
         U _ZN5TPath5ScaleEff
         U _ZN14TVectorPainter15TranslateMatrixEff
         U _ZN5TPathD1Ev
         U _ZN8TPainterD1Ev
         U _ZN7TVisualD1Ev
00002008 T _ZNK10TMineField12IsValidPointERK7_TPointIiE
00002064 T _ZNK10TMineField12PointToIndexERK7_TPointIiE
000020d4 T _ZN10TMineField2UpERK7_TPointIiERS1_
00002104 T _ZN10TMineField4DownERK7_TPointIiERS1_
0000213c T _ZN10TMineField4LeftERK7_TPointIiERS1_
00002168 T _ZN10TMineField5RightERK7_TPointIiERS1_
0000219c T _ZN10TMineField6UpLeftERK7_TPointIiERS1_
000021f8 T _ZN10TMineField7UpRightERK7_TPointIiERS1_
0000223c T _ZN10TMineField8DownLeftERK7_TPointIiERS1_
00002280 T _ZN10TMineField9DownRightERK7_TPointIiERS1_
00000000 T _ZN6TArrayIiE13RoundCapacityEi
00000000 T _ZN6TArrayIiE8ExpandAtEii
00000000 T _ZN6TArrayIiEC1Ei
00000000 T _ZN6TArrayIiE8ShrinkAtEii
00000000 T _ZN6TArrayIiE8RemoveAtEi
00000000 T _ZNK6TArrayIiEixEi
000022d0 T _ZN10TMineField13PopulateFieldERK7_TPointIiEi
         U srand
         U rand
000028cc T _ZN10TMineField8MarkCellERK7_TPointIiE
00000000 T _ZNK10TMineField8ExpandedERK7_TPointIiE
00000000 T _ZN6TArrayI7_TPointIiEED1Ev
         U __cxa_vec_delete
00000000 T _ZN6TArrayI7_TPointIiEE13RoundCapacityEi
00000000 T _ZN6TArrayI7_TPointIiEE8ExpandAtEii
         U __cxa_vec_new2
00000000 T _ZN6TArrayI7_TPointIiEE8InsertAtEiRKS1_
00000000 T _ZN6TArrayI7_TPointIiEE8ShrinkAtEii
00000000 T _ZN6TArrayI7_TPointIiEE8RemoveAtEi
00000000 T _ZNK6TArrayI7_TPointIiEEixEi
00002970 T _ZN10TMineField11ExpandSpaceERK7_TPointIiE
00002e8c T _ZN10TMineField8OpenCellERK7_TPointIiE
00002f60 T _ZN10TMineField14OpenCellAroundERK7_TPointIiE
00003664 T _ZN10TMineField12MouseHandlerER10EventParam
00003984 T _ZN10TMineField12PaintHandlerER10EventParam
         U _ZN8TPainter15DrawPixelBufferERK12TPixelBufferii
         U _ZN8TPainter12SetTextColorERK6TColor
         U _ZN8TPainter7SetFontERK5TFont
         U _ZN8TPainter11DrawUCSTextERK8TWStringRK6_TRectIiE23TextHorizontalAlignment21TextVerticalAlignment
00000000 T _ZN6TArrayIiED1Ev
00000000 T _ZN6TArrayIiED0Ev
00000000 T _ZN6TArrayI7_TPointIiEED0Ev
         U _ZN14TCustomControl7OnEventER10EventParam
         U _ZThn144_N14TCustomControl7OnEventER10EventParam
         U __cxa_pure_virtual
         U _ZTVN10__cxxabiv117__class_type_infoE
         U _ZTVN10__cxxabiv120__si_class_type_infoE
         U _ZTI14TCustomControl

tilconMineSweeper.o:
00000c00 t _Z15mineSweeperTaskRK9TAppParam
         U _ZTVSt9exception
         U _ZTVSt13bad_exception
         U _ZTVSt9bad_alloc
00000000 V _ZTV10TException
         U _ZTV17TChildrenDelegate
         U _ZTV6TImage
00000000 V _ZTV8TSweeper
         U _ZTV6TArrayIP5TNodeE
00000000 V _ZTVN7_TEventI10EventParamE15THandlerAdaptorE
         U _ZTV6TArrayI9ColorStopE
00000000 V _ZTVN7_TEventI10EventParamE17MemberFuncHandlerI8TSweeperEE
00000000 V _ZTI10TException
         U _ZTI17TChildrenDelegate
         U _ZTI6TArrayIP5TNodeE
00000000 V _ZTIN7_TEventI10EventParamE15THandlerAdaptorE
00000000 V _ZTIN7_TEventI10EventParamE17MemberFuncHandlerI8TSweeperEE
         U _ZTI6TImage
         U _ZTI6TArrayI9ColorStopE
00000000 V _ZTI8TSweeper
         U _ZTISt9exception
         U _ZTISt13bad_exception
         U _ZTISt9bad_alloc
00000000 V _ZTS10TException
         U _ZTS17TChildrenDelegate
         U _ZTS6TArrayIP5TNodeE
00000000 V _ZTSN7_TEventI10EventParamE15THandlerAdaptorE
00000000 V _ZTSN7_TEventI10EventParamE17MemberFuncHandlerI8TSweeperEE
         U _ZTS6TImage
         U _ZTS6TArrayI9ColorStopE
00000000 V _ZTS8TSweeper
         U _ZTSSt9exception
         U _ZTSSt13bad_exception
         U _ZTSSt9bad_alloc
00000000 T _ZN6TColorC1Ej
00000000 T _ZNK6TColorneERKS_
00000000 T _ZN8TWStringC1EPKw
         U __frameinfo_used
         U __cxa_allocate_exception
         U __cxa_throw
00000000 T _ZN10TExceptionD1Ev
         U _Znaj
         U memcpy
00000000 T _ZN8TWStringaSERKS_
         U _ZdaPv
00000000 T _ZNK8TWStringneERKS_
00000000 T _ZN7_TEventI10EventParamE10SetHandlerI8TSweeperEEvPT_NS1_17MemberFuncHandlerIS4_E8FuncTypeE
         U _Znwj
         U __diab_Unwind_Resume
         U __diab_personality_v0
00000000 T _ZNK6TArrayIN11TGridLayout10LayoutInfoEEixEi
00000000 T _ZN11TGridLayout13SetColumnSizeEiNS_12LayoutMethodEi
00000000 T _ZN8TSweeperC1Eiiii
         U _ZN7TWindowC2EiiiiPS_NS_12WindowSizingENS_10WindowTypeE
         U _ZN10TGridPanelC1Eiiiiii
         U _ZN11TPushButtonC1Eiiii
         U _ZN6TLabelC1EiiiiRK8TWString
         U _ZN12TProgressBarC1Eiiii15OrientationTypeiii
         U _ZN10TMineFieldC1Eii
         U _ZN5TNode8OnResizeEv
         U _ZN5TNode6UpdateEv
         U _ZN5TFontC1EPKcj
         U _ZNK5TFontneERKS_
         U _ZN5TFontaSERKS_
         U _ZN5TNode18OnChildBoundChangeEP8TControl
         U _ZN5TFontD1Ev
         U _ZN8TControl18SetAlignmentPolicyE19HorizontalAlignment17VerticalAlignment
         U _ZN10TGridPanel15AddControlAtTopEP8TControlRK8GridCell
         U _ZN6TGroup10AddControlEP8TControli
         U _ZN10TMineFieldD1Ev
         U _ZN12TProgressBarD1Ev
         U _ZN6TLabelD1Ev
         U _ZN11TPushButtonD1Ev
         U _ZN10TGridPanelD1Ev
         U _ZN7TWindowD2Ev
         U _ZN12TApplicationC1ERK9TAppParam
         U _ZN7TWindow4ShowEi
         U _ZN12TApplication3RunEv
         U _ZN7TWindow7DestroyEv
         U _ZN12TApplicationD1Ev
         U _ZdlPv
00000dd4 T tilconMineSweeperTaskEntry
         U _ZN9TAppParamC1EPKc
         U _ZN9TAppParam3AddEPKc
         U _ZN9TAppParamD1Ev
00000e58 T tilconMineSweeper
         U taskSpawn
00000000 T _ZN10TExceptionD0Ev
00000000 T _ZN8TWStringC1ERK7TString
00000000 T _ZN7_TEventI10EventParamE15THandlerAdaptorD1Ev
00000000 T _ZN7_TEventI10EventParamE15THandlerAdaptorD0Ev
00000000 T _ZN7_TEventI10EventParamE17MemberFuncHandlerI8TSweeperED1Ev
00000000 T _ZN7_TEventI10EventParamE17MemberFuncHandlerI8TSweeperED0Ev
00000000 T _ZNK7_TEventI10EventParamE17MemberFuncHandlerI8TSweeperE6InvokeERS0_
00000000 T _ZN7_TEventI10EventParamE17MemberFuncHandlerI8TSweeperE3dupEv
00000edc T _ZN8TSweeperC2Eiiii
00000f04 T _ZN8TSweeperD1Ev
000010c4 T _ZN8TSweeperD0Ev
0000111c T _ZN8TSweeperD2Ev
0000113c T _ZN8TSweeper18ButtonClickHandlerER10EventParam
         U _ZN10TMineField9StartGameEi
0000118c T _ZN8TSweeper11UpdateStateEv
         U _ZN7TStringC1Ev
         U _ZN7TString6FormatEiPKcz
         U _ZN12TProgressBar8SetRangeEii
         U _ZN12TProgressBar11SetProgressEi
         U free
000013e4 T _ZN8TSweeper15ProgressHandlerER10EventParam
         U __cxa_pure_virtual
         U _ZTVN10__cxxabiv117__class_type_infoE
         U _ZTVN10__cxxabiv120__si_class_type_infoE
         U _ZTI7TWindow

tilconTwd.o:
00000040 d FLOAT_TEMP.2209
00000044 d FLOAT_TEMP.2210
00000d60 t _Z13tilconTwdTaskRK9TAppParam
00000048 d FLOAT_TEMP.2428
0000004c d FLOAT_TEMP.2439
00000050 d FLOAT_TEMP.2440
00000054 d FLOAT_TEMP.2441
00000058 d FLOAT_TEMP.2442
0000005c d FLOAT_TEMP.2443
00000060 d FLOAT_TEMP.2444
00000064 d FLOAT_TEMP.2445
00000000 d n.1781
00000068 d FLOAT_TEMP.2446
0000006c d FLOAT_TEMP.2447
00000004 d c.1780
         U _ZTVSt9exception
         U _ZTVSt13bad_exception
         U _ZTVSt9bad_alloc
00000000 V _ZTV10TException
         U _ZTV17TChildrenDelegate
         U _ZTV6TImage
         U _ZTV6TArrayIP5TNodeE
00000000 V _ZTVN7_TEventI10EventParamE15THandlerAdaptorE
         U _ZTV6TArrayI9ColorStopE
00000000 V _ZTVN7_TEventI10EventParamE17MemberFuncHandlerI17TOscilloscopeDemoEE
00000000 V _ZTI10TException
         U _ZTI17TChildrenDelegate
         U _ZTI6TArrayIP5TNodeE
00000000 V _ZTIN7_TEventI10EventParamE15THandlerAdaptorE
00000000 V _ZTIN7_TEventI10EventParamE17MemberFuncHandlerI17TOscilloscopeDemoEE
         U _ZTI6TImage
         U _ZTI6TArrayI9ColorStopE
         U _ZTISt9exception
         U _ZTISt13bad_exception
         U _ZTISt9bad_alloc
00000000 V _ZTS10TException
         U _ZTS17TChildrenDelegate
         U _ZTS6TArrayIP5TNodeE
00000000 V _ZTSN7_TEventI10EventParamE15THandlerAdaptorE
00000000 V _ZTSN7_TEventI10EventParamE17MemberFuncHandlerI17TOscilloscopeDemoEE
         U _ZTS6TImage
         U _ZTS6TArrayI9ColorStopE
         U _ZTSSt9exception
         U _ZTSSt13bad_exception
         U _ZTSSt9bad_alloc
00000000 T _ZN6TTimerC1Ev
00000000 T _ZN17TOscilloscopeDemoC1Ev
         U __frameinfo_used
         U _ZN7TWDFileC1Ev
00000058 T _ZN17TOscilloscopeDemoD1Ev
         U _ZN7TWDFileD1Ev
         U __diab_Unwind_Resume
         U __diab_personality_v0
00000000 T _ZN6TColorC1Ej
00000000 T _ZN6TColorC1ERKS_
00000000 T _ZN7_TEventI10EventParamE10SetHandlerI17TOscilloscopeDemoEEvPT_NS1_17MemberFuncHandlerIS4_E8FuncTypeE
         U _Znwj
00000000 T _ZN13TCustomVisualC1ERK11TCustomFill
         U _ZN11TCustomFillC1ERKS_
         U _ZN11TCustomFillD1Ev
00000000 T _ZN13TCustomVisualD1Ev
00000000 T _ZN13TCustomVisualaSERKS_
         U _ZN11TCustomFillaSERKS_
00000000 T _ZNK8_TMarginIiEneERKS0_
00000000 T _ZN10TChartBody8BodyInfoC1Ev
         U _ZN6TScale9ScaleInfoC1Ev
         U _ZN5TFontD1Ev
00000000 T _ZN10TChartBody8BodyInfoD1Ev
00000000 T _ZN12TextPropertyaSERKS_
         U _ZN5TFontaSERKS_
00000000 T _ZN6TScale9ScaleInfoaSERKS0_
00000000 T _ZN10TChartBody8BodyInfoaSERKS0_
00000000 T _ZNK6TArrayIN10TLineChart11ChannelInfoEEixEi
         U __cxa_allocate_exception
         U __cxa_throw
00000000 T _ZN10TExceptionD1Ev
00000000 T _ZN10TLineChart10ScrollData10InsertDataEf
         U __urem32
00000000 T _ZN10TLineChart9SweepData10InsertDataEf
00000000 T _ZN10TLineChart10InsertDataEif
         U _ZN5TNode6UpdateEv
000000c8 T _ZN17TOscilloscopeDemo4InitEPKc
         U _ZN7TStringC1EPKc
         U _ZN7TWDFile4LoadERK7TString
         U free
         U printf
         U _ZNK7TWDFile16GetControlByNameERK7TString
         U _ZN8TSpinBox11SetMinValueEi
         U _ZN8TSpinBox11SetMaxValueEi
         U _ZN10TSolidFillC1ERK6TColor
         U _ZN11TCustomFillC1ERK10TSolidFill
         U _ZN10TSolidFillD1Ev
         U _ZN5TNode18OnChildBoundChangeEP8TControl
         U _ZN5TNode8OnResizeEv
         U _ZN10TLineChart11SetDataSizeEj
         U _ZN10TChartBody15GenerateYLabelsERK8_TLinearIfERKNS_8BodyInfoER6TArrayI8TWStringE
         U _ZN10TLineChart13SetChannelPenEiRK4TPen
         U _ZN12TPixelBufferC1Ev
         U _ZN10TLineChart15SetChannelBrushEiRK6TBrush
         U _ZN12TPixelBufferD1Ev
         U _ZN6TTimer5StartEv
         U _ZN11TPushButton5ClickEv
         U _ZN12TRadioButton15ChangeSelectionEi
         U _ZN17TMultiStateButton11ChangeStateEi
         U _ZN8TSpinBox11ChangeValueEi
         U _ZN7TWindow4ShowEi
         U _ZN12TApplication6CreateERK9TAppParam
         U _ZN12TApplication3RunEv
         U _ZdlPv
         U _ZN12TApplication7DestroyEPS_
00000ea0 T tilconTwdTaskEntry
         U _ZN9TAppParamC1EPKc
         U _ZN9TAppParam3AddEPKc
         U _ZN9TAppParamD1Ev
00000f24 T tilconTwd
         U taskSpawn
00000000 T _ZN10TExceptionD0Ev
00000000 T _ZN7_TEventI10EventParamE15THandlerAdaptorD1Ev
00000000 T _ZN7_TEventI10EventParamE15THandlerAdaptorD0Ev
00000000 T _ZN7_TEventI10EventParamE17MemberFuncHandlerI17TOscilloscopeDemoED1Ev
00000000 T _ZN7_TEventI10EventParamE17MemberFuncHandlerI17TOscilloscopeDemoED0Ev
00000000 T _ZNK7_TEventI10EventParamE17MemberFuncHandlerI17TOscilloscopeDemoE6InvokeERS0_
00000000 T _ZN7_TEventI10EventParamE17MemberFuncHandlerI17TOscilloscopeDemoE3dupEv
00000000 T _ZN10TLineChart10ScrollData5ResetEv
00000000 T _ZN10TLineChart9SweepData5ResetEv
00000000 T _ZN10TLineChart9ResetDataEi
00000fa8 T _ZN17TOscilloscopeDemoC2Ev
00000fc8 T _ZN17TOscilloscopeDemoD2Ev
00001008 T _ZN17TOscilloscopeDemo18GenerateSampleDataEj
         U _ZNK12TRadioButton12GetSelectionEv
         U sin
         U rand
         U __rem32
000011fc T _ZN17TOscilloscopeDemo12TimerHandlerER10EventParam
00001238 T _ZN17TOscilloscopeDemo23CurveShapeButtonHandlerER10EventParam
000012d0 T _ZN17TOscilloscopeDemo22CurveModeButtonHanlderER10EventParam
00001334 T _ZN17TOscilloscopeDemo18ScaleButtonHandlerER10EventParam
         U _ZN10TLineChart19SetChannelAmplifierEif
00001374 T _ZN17TOscilloscopeDemo17OffsetSpinHandlerER10EventParam
         U _ZN10TLineChart16SetChannelOffsetEif
000013ac T _ZN17TOscilloscopeDemo17ExitButtonHandlerER10EventParam
         U _ZN12TApplication8InstanceEv
         U _ZN12TApplication4StopEi
         U __cxa_pure_virtual
         U _ZTVN10__cxxabiv117__class_type_infoE
         U _ZTVN10__cxxabiv120__si_class_type_infoE

tilconRadar.o:
00000038 d FLOAT_TEMP.2787
0000003c d FLOAT_TEMP.2788
00000040 d FLOAT_TEMP.2789
00000044 d FLOAT_TEMP.2790
00000048 d FLOAT_TEMP.3091
0000004c d FLOAT_TEMP.3092
00000050 d FLOAT_TEMP.3163
000015ec t _Z15tilconRadarTaskRK9TAppParam
00000054 d FLOAT_TEMP.3399
00000058 d FLOAT_TEMP.3466
0000005c d FLOAT_TEMP.3467
00000060 d FLOAT_TEMP.3468
00000064 d FLOAT_TEMP.3469
00000068 d FLOAT_TEMP.3470
00000000 V _ZTVSt9exception
         U _ZTVSt13bad_exception
         U _ZTVSt9bad_alloc
00000000 V _ZTV10TException
         U _ZTV17TChildrenDelegate
         U _ZTV6TImage
00000000 V _ZTVSt11logic_error
         U _ZTVSt12domain_error
         U _ZTVSt16invalid_argument
00000000 V _ZTVSt12length_error
         U _ZTVSt12out_of_range
         U _ZTVSt13runtime_error
         U _ZTVSt14overflow_error
         U _ZTVSt15underflow_error
         U _ZTVSt11range_error
         U _ZTV6TArrayIP5TNodeE
00000000 V _ZTVN7_TEventI10EventParamE15THandlerAdaptorE
         U _ZTV6TArrayI9ColorStopE
00000000 V _ZZNSt4listIPN9TRadarApp5PLANEESaIS2_EE8_IncsizeEjEs
00000000 V _ZTVN7_TEventI10EventParamE17MemberFuncHandlerI9TRadarAppEE
00000000 V _ZTI10TException
         U _ZTI17TChildrenDelegate
         U _ZTI6TArrayIP5TNodeE
00000000 V _ZTIN7_TEventI10EventParamE15THandlerAdaptorE
00000000 V _ZTIN7_TEventI10EventParamE17MemberFuncHandlerI9TRadarAppEE
         U _ZTI6TImage
         U _ZTI6TArrayI9ColorStopE
00000000 V _ZTISt9exception
         U _ZTISt13bad_exception
         U _ZTISt9bad_alloc
00000000 V _ZTISt11logic_error
         U _ZTISt12domain_error
         U _ZTISt16invalid_argument
00000000 V _ZTISt12length_error
         U _ZTISt12out_of_range
         U _ZTISt13runtime_error
         U _ZTISt14overflow_error
         U _ZTISt15underflow_error
         U _ZTISt11range_error
00000000 V _ZTS10TException
         U _ZTS17TChildrenDelegate
         U _ZTS6TArrayIP5TNodeE
00000000 V _ZTSN7_TEventI10EventParamE15THandlerAdaptorE
00000000 V _ZTSN7_TEventI10EventParamE17MemberFuncHandlerI9TRadarAppEE
         U _ZTS6TImage
         U _ZTS6TArrayI9ColorStopE
00000000 V _ZTSSt9exception
         U _ZTSSt13bad_exception
         U _ZTSSt9bad_alloc
00000000 V _ZTSSt11logic_error
         U _ZTSSt12domain_error
         U _ZTSSt16invalid_argument
00000000 V _ZTSSt12length_error
         U _ZTSSt12out_of_range
         U _ZTSSt13runtime_error
         U _ZTSSt14overflow_error
         U _ZTSSt15underflow_error
         U _ZTSSt11range_error
00000000 T _ZN6TColorC1Ej
00000000 T _ZNK6TColorneERKS_
00000000 T _ZN8TWStringC1EPKw
         U __frameinfo_used
         U __cxa_allocate_exception
         U __cxa_throw
00000000 T _ZN10TExceptionD1Ev
         U _Znaj
         U memcpy
00000000 T _ZN8TWStringaSERKS_
         U _ZdaPv
00000000 T _ZNK8TWStringneERKS_
00000000 T _ZN6_TRectIiEC1Ev
         U _ZN6_TRectIiE8nullRectE
00000000 T _ZN6_TRectIiEC1ERKS0_
00000000 T _ZN7_TEventI10EventParamE10SetHandlerI9TRadarAppEEvPT_NS1_17MemberFuncHandlerIS4_E8FuncTypeE
         U _Znwj
         U __diab_Unwind_Resume
         U __diab_personality_v0
00000000 T _ZN6TTimerC1Ev
00000000 T _ZNK8_TMarginIiEneERKS0_
00000000 T _ZNSt4listIPN9TRadarApp5PLANEESaIS2_EE8_BuynodeEv
00000000 T _ZNSt4listIPN9TRadarApp5PLANEESaIS2_EE5clearEv
         U _ZdlPv
00000000 T _ZNSt4listIPN9TRadarApp5PLANEESaIS2_EE5_TidyEv
00000000 T _ZN9TRadarAppC1ERK9TAppParam
         U _ZN12TApplicationC2ERK9TAppParam
         U _ZN7TWindowC1EiiiiPS_NS_12WindowSizingENS_10WindowTypeE
         U _ZN12TProgressBarC1Eiiii15OrientationTypeiii
         U _ZN11TPushButtonC1Eiiii
         U _ZN6TLabelC1EiiiiRK8TWString
         U _ZN10TGridPanelC1Eiiiiii
         U _ZN5TPathC1Ev
         U _ZN5TNode8OnResizeEv
         U _ZN5TNode6UpdateEv
         U _ZN8TControl18SetAlignmentPolicyE19HorizontalAlignment17VerticalAlignment
         U _ZN6TGroup10AddControlEP8TControli
         U _ZN5TNode18OnChildBoundChangeEP8TControl
         U _ZN10TGridPanel15AddControlAtTopEP8TControlRK8GridCell
         U __div32
         U _ZN5TFontC1EPKcj
         U _ZNK5TFontneERKS_
         U _ZN5TFontaSERKS_
         U _ZN5TFontD1Ev
         U _ZN5TPath6MoveToEff
         U _ZN5TPath6LineToEff
         U _ZN5TPath5CloseEv
         U _ZN5TPath5ScaleEff
         U _ZN5TPath6RotateEf
         U _ZN5TPathD1Ev
         U _ZN10TGridPanelD1Ev
         U _ZN6TLabelD1Ev
         U _ZN11TPushButtonD1Ev
         U _ZN12TProgressBarD1Ev
         U _ZN7TWindowD1Ev
         U _ZN12TApplicationD2Ev
00000000 T _ZN6TColorC1ERKS_
00000000 T _ZN6TPaintC1ERK6TColor
         U _ZN9TGradientC1Ev
         U _ZN12TPixelBufferC1Ev
         U _ZN9TGradientD1Ev
00000000 T _ZN6TPaintD1Ev
         U _ZN12TPixelBufferD1Ev
00000000 T _ZN8TWStringC1ERK7TString
00000000 T _ZNSt4listIPN9TRadarApp5PLANEESaIS2_EE8_BuynodeEPNSt9_List_nodIS2_S3_E5_NodeES8_RKS2_
00000000 T _ZNSs5eraseEjj
         U _ZNKSt12_String_base5_XranEv
         U memmove
00000000 T _ZNSs5_TidyEbj
00000000 T _ZNSs5_CopyEjj
         U __udiv32
         U __cxa_end_catch
         U __cxa_begin_catch
         U __cxa_rethrow
00000000 T _ZNSs5_GrowEjb
         U _ZNKSt12_String_base5_XlenEv
00000000 T _ZNSs6assignERKSsjj
00000000 T _ZNSs7_InsideEPKc
00000000 T _ZNSs6assignEPKcj
00000000 T _ZNSt11logic_errorC1ERKSs
00000000 T _ZNSt4listIPN9TRadarApp5PLANEESaIS2_EE8_IncsizeEj
         U strlen
00000000 T _ZNSt12length_errorD1Ev
         U __cxa_free_exception
00000000 T _ZNSt4listIPN9TRadarApp5PLANEESaIS2_EE7_InsertENS4_8iteratorERKS2_
00000d60 T _ZN9TRadarApp8AddPlaneEv
         U _ZN7TStringC1Ev
         U rand
         U __rem32
         U _ZN7TString6FormatEiPKcz
         U free
0000105c T _ZN9TRadarApp3RunEv
         U _ZN8TPainterC1Ev
         U _ZN5TPathC1ERK5TFontRK8TWString
         U _ZNK5TPath12GetBoundRectEv
         U _ZN12TPixelBufferC1Eii
         U _ZN8TPainter10BeginPaintER12TPixelBuffer
         U _ZN8TPainter8SetBrushERK6TBrush
         U _ZN8TPainter8FillRectEiiii
         U _ZN14TVectorPainter15TranslateMatrixEff
         U _ZN14TVectorPainter12SetFillPaintERK6TPaint
         U _ZN14TVectorPainter8FillPathERK5TPath
         U _ZN8TPainter8EndPaintEv
         U _ZN12TApplication8InstanceEv
         U _ZN7TWindow4rootE
         U _ZN8TPainter10BeginPaintER7TWindow
         U _ZN12TPixelBufferC1ERKS_
         U _ZN7TWindow14InvalidateRectERK6_TRectIiE
         U _ZN6_TRectIiE7maxRectE
         U _ZN7TWindow6CreateEv
         U _ZN6TTimer5StartEv
         U _ZN12TApplication3RunEv
         U _ZN6TTimer4StopEv
         U _ZN7TWindow7DestroyEv
         U _ZN8TPainterD1Ev
00000000 T _ZN9TRadarAppD1Ev
00001660 T tilconRadarTaskEntry
         U _ZN9TAppParamC1EPKc
         U _ZN9TAppParam3AddEPKc
         U _ZN9TAppParamD1Ev
0000170c T tilconRadar
         U taskSpawn
00000000 T _ZN10TExceptionD0Ev
00000000 T _ZN6_TRectIiEC1ERK7_TPointIiERK6_TSizeIiE
00000000 T _ZNK6_TRectIiEmiERK7_TPointIiE
00000000 T _ZN7_TEventI10EventParamE15THandlerAdaptorD1Ev
00000000 T _ZN7_TEventI10EventParamE15THandlerAdaptorD0Ev
00000000 T _ZN7_TEventI10EventParamE17MemberFuncHandlerI9TRadarAppED1Ev
00000000 T _ZN7_TEventI10EventParamE17MemberFuncHandlerI9TRadarAppED0Ev
00000000 T _ZNK7_TEventI10EventParamE17MemberFuncHandlerI9TRadarAppE6InvokeERS0_
00000000 T _ZN7_TEventI10EventParamE17MemberFuncHandlerI9TRadarAppE3dupEv
00001790 T _ZN9TRadarAppC2ERK9TAppParam
000017b0 T _ZN9TRadarApp9DrawRadarEv
         U _ZNK7TWindow13GetWindowRectEv
         U _ZN10TSolidFillC1ERK6TColor
         U _ZNK10TSolidFill8FillRectER8TPainterRK6_TRectIiE
         U _ZN8TPainter6SetPenERK4TPen
         U _ZN8TPainter10DrawCircleERK6_TRectIiE
         U _ZN14TVectorPainter14SetStrokePaintERK6TPaint
         U _ZN14TVectorPainter10StrokePathERK5TPath
         U _ZN14TVectorPainter12RotateMatrixEf
         U _ZN8TPainter11DrawUCSTextEPKwiii
         U _ZN14TVectorPainter11ResetMatrixEv
         U _ZN8TPainter12SetTextColorERK6TColor
         U _ZN8TPainter7SetFontERK5TFont
         U _ZN8TPainter11DrawUCSTextERK8TWStringii
         U _ZN10TSolidFillD1Ev
00000000 T _ZNSt4listIPN9TRadarApp5PLANEESaIS2_EE5eraseENS4_8iteratorE
00001e58 T _ZN9TRadarApp11RemovePlaneEv
00001ee8 T _ZN9TRadarApp10UpatePlaneEv
         U cos
         U sin
000021f0 T _ZN9TRadarApp12TimerHandlerER10EventParam
         U _ZN7TWindow13SetWindowRectERK6_TRectIiE
         U _ZN7TWindow4ShowEi
         U _ZN12TProgressBar11SetProgressEi
         U _ZN7TWindow4HideEv
00002474 T _ZN9TRadarApp11AnimHandlerER10EventParam
000024a4 T _ZN9TRadarApp13WindowHandlerER10EventParam
00002500 T _ZN9TRadarApp16AddButtonHandlerER10EventParam
00002670 T _ZN9TRadarApp19RemoveButtonHandlerER10EventParam
00000000 T _ZNSt9exceptionD1Ev
00000000 T _ZNSt9exceptionD0Ev
00000000 T _ZNKSt9exception4whatEv
00000000 T _ZNSt11logic_errorD1Ev
         U __cxa_call_unexpected
00000000 T _ZNSt11logic_errorD0Ev
00000000 T _ZNKSt11logic_error4whatEv
00000000 T _ZNSt12length_errorD0Ev
         U __cxa_pure_virtual
         U _ZTVN10__cxxabiv117__class_type_infoE
         U _ZTVN10__cxxabiv120__si_class_type_infoE

libtilconDemo.a:

tilconDemoRandomCurve.o:
00000018 d FLOAT_TEMP.2086
0000001c d FLOAT_TEMP.2087
00000020 d FLOAT_TEMP.2088
00000024 d FLOAT_TEMP.2089
00000028 d FLOAT_TEMP.2090
0000002c d FLOAT_TEMP.2091
00000030 d FLOAT_TEMP.2119
00000038 d FLOAT_TEMP.2120
0000003c d FLOAT_TEMP.2121
00000040 d FLOAT_TEMP.2122
00000044 d FLOAT_TEMP.2123
         U _ZTVSt9exception
         U _ZTVSt13bad_exception
         U _ZTVSt9bad_alloc
00000000 V _ZTV10TException
         U _ZTV17TChildrenDelegate
00000000 V _ZTV6TImage
00000000 V _ZTV10TilconDemo
00000000 V _ZTV15RandomCurveDemo
         U _ZTV6TArrayIP5TNodeE
00000000 V _ZTVN7_TEventI10EventParamE15THandlerAdaptorE
         U _ZTV6TArrayI9ColorStopE
00000000 V _ZTVN7_TEventI10EventParamE17MemberFuncHandlerI15RandomCurveDemoEE
00000000 V _ZTI10TException
         U _ZTI17TChildrenDelegate
         U _ZTI6TArrayIP5TNodeE
00000000 V _ZTIN7_TEventI10EventParamE15THandlerAdaptorE
00000000 V _ZTIN7_TEventI10EventParamE17MemberFuncHandlerI15RandomCurveDemoEE
00000000 V _ZTI6TImage
         U _ZTI6TArrayI9ColorStopE
00000000 V _ZTI10TilconDemo
00000000 V _ZTI15RandomCurveDemo
         U _ZTISt9exception
         U _ZTISt13bad_exception
         U _ZTISt9bad_alloc
00000000 V _ZTS10TException
         U _ZTS17TChildrenDelegate
         U _ZTS6TArrayIP5TNodeE
00000000 V _ZTSN7_TEventI10EventParamE15THandlerAdaptorE
00000000 V _ZTSN7_TEventI10EventParamE17MemberFuncHandlerI15RandomCurveDemoEE
00000000 V _ZTS6TImage
         U _ZTS6TArrayI9ColorStopE
00000000 V _ZTS10TilconDemo
00000000 V _ZTS15RandomCurveDemo
         U _ZTSSt9exception
         U _ZTSSt13bad_exception
         U _ZTSSt9bad_alloc
00000000 T _ZN10TExceptionD1Ev
00000000 T _ZN10TExceptionD0Ev
         U _ZdlPv
00000000 T _ZN6TColorC1Ej
00000000 T _ZN6TColorC1ERKS_
00000000 T _ZN8TWStringC1EPKw
         U __frameinfo_used
         U __cxa_allocate_exception
         U __cxa_throw
         U _Znaj
         U memcpy
00000000 T _ZN6_TRectIiEC1ERKS0_
00000000 T _ZN6_TRectIiEC1ERK7_TPointIiERK6_TSizeIiE
00000000 T _ZNK6_TRectIiEmiERK7_TPointIiE
00000000 T _ZN7_TEventI10EventParamE10SetHandlerI15RandomCurveDemoEEvPT_NS1_17MemberFuncHandlerIS4_E8FuncTypeE
         U _Znwj
         U __diab_Unwind_Resume
         U __diab_personality_v0
00000000 T _ZN7_TEventI10EventParamE15THandlerAdaptorD1Ev
00000000 T _ZN7_TEventI10EventParamE15THandlerAdaptorD0Ev
00000000 T _ZN7_TEventI10EventParamE17MemberFuncHandlerI15RandomCurveDemoED1Ev
00000000 T _ZN7_TEventI10EventParamE17MemberFuncHandlerI15RandomCurveDemoED0Ev
00000000 T _ZNK7_TEventI10EventParamE17MemberFuncHandlerI15RandomCurveDemoE6InvokeERS0_
00000000 T _ZN7_TEventI10EventParamE17MemberFuncHandlerI15RandomCurveDemoE3dupEv
00000000 T _ZNK10TSharedPtrI9ImageDataE5DerefEv
         U _ZN9ImageDataD1Ev
00000000 T _ZN6TImageD1Ev
00000000 T _ZN6TImageD0Ev
00000000 T _ZN6TPaintC1ERK6TColor
         U _ZN9TGradientC1Ev
         U _ZN12TPixelBufferC1Ev
         U _ZN9TGradientD1Ev
00000000 T _ZN6TPaintD1Ev
         U _ZN12TPixelBufferD1Ev
00000000 T _ZN6TTimerC1Ev
00000000 T _ZNK8_TMarginIiEneERKS0_
00000000 T _ZNK6TArrayIN11TGridLayout10LayoutInfoEEixEi
00000000 T _ZN11TGridLayout10SetRowSizeEiNS_12LayoutMethodEi
00000000 T _ZN11TGridLayout13SetColumnSizeEiNS_12LayoutMethodEi
00000000 T _ZN10TilconDemoC1Eiiiiii
         U _ZN10TGridPanelC2Eiiiiii
         U _ZN5TNode6UpdateEv
         U _ZN5TNode18OnChildBoundChangeEP8TControl
         U _ZN5TNode8OnResizeEv
         U _ZN10TGridPanelD2Ev
00000000 T _ZN10TilconDemoD1Ev
00000000 T _ZN10TilconDemoD0Ev
00000000 T _ZN13TVectorRandomC1Ev
         U __div32
         U rand
00000130 T _ZN13TVectorRandomC2Ev
00000150 T _ZN13TVectorRandomD1Ev
00000154 T _ZN13TVectorRandomD2Ev
00000158 T _ZN13TVectorRandom4DrawER8TPainter
         U cos
         U sin
         U _ZN5TPathC1EjPKhPKf
         U _ZN14TVectorPainter14SetStrokePaintERK6TPaint
         U _ZN14TVectorPainter10StrokePathERK5TPath
         U _ZN14TVectorPainter12SetFillPaintERK6TPaint
         U _ZN14TVectorPainter8FillPathERK5TPath
         U _ZN5TPathD1Ev
0000080c T _ZN15RandomCurveDemoC1Ev
         U _ZN11TCustomFillC1Ev
         U _ZN14TCustomControlC1Eiiii
         U _ZN10TGridPanelC1Eiiiiii
         U _ZN6TLabelC1EiiiiRK8TWString
         U _ZdaPv
         U _ZN12TRadioButtonC1Eiiii
         U _ZN9TCheckBoxC1EiiiiRK8TWString
         U _ZN10TGridPanel10AddControlEP8TControliRK8GridCell
         U _ZN12TRadioButton7AddItemERK8TWString
         U _ZN12TRadioButton15ChangeSelectionEi
         U _ZN12TPixelBufferC1Eii
         U _ZN8TPainterC1Ev
         U _ZN8TPainter10BeginPaintER12TPixelBuffer
         U _ZN8TPainter8SetBrushERK6TBrush
         U _ZN8TPainter8FillRectERK6_TRectIiE
         U _ZN8TPainter8EndPaintEv
         U _ZN6TImageC1ERK12TPixelBuffer
         U _ZN12TPixelBufferC1ERK6TImage
         U _ZN12TPatternFillC1ERK12TPixelBuffer
         U _ZN11TCustomFillaSERK12TPatternFill
         U _ZN12TPatternFillD1Ev
         U _ZN8TPainterD1Ev
         U _ZN9TCheckBoxD1Ev
         U _ZN12TRadioButtonD1Ev
         U _ZN6TLabelD1Ev
         U _ZN10TGridPanelD1Ev
         U _ZN14TCustomControlD1Ev
         U _ZN11TCustomFillD1Ev
000012b0 T _ZN15RandomCurveDemoC2Ev
000012d0 T _ZN15RandomCurveDemoD1Ev
00001470 T _ZN15RandomCurveDemoD0Ev
000014b0 T _ZN15RandomCurveDemoD2Ev
000014d0 T _ZN15RandomCurveDemo12PaintHandlerER10EventParam
         U _ZNK11TCustomFill8FillRectER8TPainterRK6_TRectIiE
         U _ZN14TVectorPainter15TranslateMatrixEff
000015d4 T _ZN15RandomCurveDemo12TimerHandlerER10EventParam
00001620 T _ZN15RandomCurveDemo12RadioHandlerER10EventParam
0000167c T _ZN15RandomCurveDemo8OnAttachEv
         U _ZN6TTimer5StartEv
000016a0 T _ZN15RandomCurveDemo8OnDetachEv
         U _ZN6TTimer4StopEv
         U __cxa_pure_virtual
         U _ZTVN10__cxxabiv117__class_type_infoE
         U _ZTVN10__cxxabiv120__si_class_type_infoE
         U _ZTI10TGridPanel

tilconDemoFont.o:
         U _ZTVSt9exception
         U _ZTVSt13bad_exception
         U _ZTVSt9bad_alloc
00000000 V _ZTV10TException
         U _ZTV17TChildrenDelegate
00000000 V _ZTV6TImage
00000000 V _ZTV10TilconDemo
00000000 V _ZTV8FontDemo
         U _ZTV6TArrayIP5TNodeE
00000000 V _ZTVN7_TEventI10EventParamE15THandlerAdaptorE
         U _ZTV6TArrayI9ColorStopE
00000000 V _ZTVN7_TEventI10EventParamE17MemberFuncHandlerI8FontDemoEE
00000000 V _ZTI10TException
         U _ZTI17TChildrenDelegate
         U _ZTI6TArrayIP5TNodeE
00000000 V _ZTIN7_TEventI10EventParamE15THandlerAdaptorE
00000000 V _ZTIN7_TEventI10EventParamE17MemberFuncHandlerI8FontDemoEE
00000000 V _ZTI6TImage
         U _ZTI6TArrayI9ColorStopE
00000000 V _ZTI10TilconDemo
00000000 V _ZTI8FontDemo
         U _ZTISt9exception
         U _ZTISt13bad_exception
         U _ZTISt9bad_alloc
00000000 V _ZTS10TException
         U _ZTS17TChildrenDelegate
         U _ZTS6TArrayIP5TNodeE
00000000 V _ZTSN7_TEventI10EventParamE15THandlerAdaptorE
00000000 V _ZTSN7_TEventI10EventParamE17MemberFuncHandlerI8FontDemoEE
00000000 V _ZTS6TImage
         U _ZTS6TArrayI9ColorStopE
00000000 V _ZTS10TilconDemo
00000000 V _ZTS8FontDemo
         U _ZTSSt9exception
         U _ZTSSt13bad_exception
         U _ZTSSt9bad_alloc
00000000 T _ZN10TExceptionD1Ev
00000000 T _ZN10TExceptionD0Ev
         U _ZdlPv
00000000 T _ZN6TColorC1Ej
00000000 T _ZN6TColorC1ERKS_
00000000 T _ZN8TWStringC1EPKw
         U __frameinfo_used
         U __cxa_allocate_exception
         U __cxa_throw
         U _Znaj
         U memcpy
00000000 T _ZN6_TRectIiEC1Ev
         U _ZN6_TRectIiE8nullRectE
00000000 T _ZN6_TRectIiEC1ERK7_TPointIiERK6_TSizeIiE
00000000 T _ZNK6_TRectIiEmiERK7_TPointIiE
00000000 T _ZN7_TEventI10EventParamE10SetHandlerI8FontDemoEEvPT_NS1_17MemberFuncHandlerIS4_E8FuncTypeE
         U _Znwj
         U __diab_Unwind_Resume
         U __diab_personality_v0
00000000 T _ZN7_TEventI10EventParamE15THandlerAdaptorD1Ev
00000000 T _ZN7_TEventI10EventParamE15THandlerAdaptorD0Ev
00000000 T _ZN7_TEventI10EventParamE17MemberFuncHandlerI8FontDemoED1Ev
00000000 T _ZN7_TEventI10EventParamE17MemberFuncHandlerI8FontDemoED0Ev
00000000 T _ZNK7_TEventI10EventParamE17MemberFuncHandlerI8FontDemoE6InvokeERS0_
00000000 T _ZN7_TEventI10EventParamE17MemberFuncHandlerI8FontDemoE3dupEv
00000000 T _ZNK10TSharedPtrI9ImageDataE5DerefEv
         U _ZN9ImageDataD1Ev
00000000 T _ZN6TImageD1Ev
00000000 T _ZN6TImageD0Ev
00000000 T _ZNK8_TMarginIiEneERKS0_
00000000 T _ZNK6TArrayIN11TGridLayout10LayoutInfoEEixEi
00000000 T _ZN11TGridLayout10SetRowSizeEiNS_12LayoutMethodEi
00000000 T _ZN11TGridLayout13SetColumnSizeEiNS_12LayoutMethodEi
00000000 T _ZN10TilconDemoC1Eiiiiii
         U _ZN10TGridPanelC2Eiiiiii
         U _ZN5TNode6UpdateEv
         U _ZN5TNode18OnChildBoundChangeEP8TControl
         U _ZN5TNode8OnResizeEv
         U _ZN10TGridPanelD2Ev
00000000 T _ZN10TilconDemoD1Ev
00000000 T _ZN10TilconDemoD0Ev
00000000 T _ZN8FontDemoC1Ev
         U _ZN11TCustomFillC1Ev
         U _ZN14TCustomControlC1Eiiii
         U _ZN10TGridPanelC1Eiiiiii
         U _ZN6TLabelC1EiiiiRK8TWString
         U _ZdaPv
         U _ZN12TRadioButtonC1Eiiii
         U _ZN10TGridPanel10AddControlEP8TControliRK8GridCell
         U _ZN12TRadioButton7AddItemERK8TWString
         U _ZN12TRadioButton12SetSelectionEi
         U _ZN12TPixelBufferC1Eii
         U _ZN8TPainterC1Ev
         U _ZN8TPainter10BeginPaintER12TPixelBuffer
         U _ZN12TPixelBufferC1Ev
         U _ZN8TPainter8SetBrushERK6TBrush
         U _ZN12TPixelBufferD1Ev
         U _ZN8TPainter8FillRectERK6_TRectIiE
         U _ZN8TPainter8EndPaintEv
         U _ZN6TImageC1ERK12TPixelBuffer
         U _ZN12TPixelBufferC1ERK6TImage
         U _ZN12TPatternFillC1ERK12TPixelBuffer
         U _ZN11TCustomFillaSERK12TPatternFill
         U _ZN12TPatternFillD1Ev
         U _ZN8TPainterD1Ev
         U _ZN12TRadioButtonD1Ev
         U _ZN6TLabelD1Ev
         U _ZN10TGridPanelD1Ev
         U _ZN14TCustomControlD1Ev
         U _ZN11TCustomFillD1Ev
000008ec T _ZN8FontDemoC2Ev
0000090c T _ZN8FontDemoD1Ev
00000a30 T _ZN8FontDemoD0Ev
00000a5c T _ZN8FontDemoD2Ev
00000a7c T _ZN8FontDemo11DrawBmfFontER8TPainterRK6_TRectIiE
         U _ZN5TFontC1EPKcj
         U _ZNK5TFont10GetMetricsER11FontMetrics
         U _ZNK5TFont12GetTextWidthEPKwj
         U _ZN8TPainter6SetPenERK4TPen
         U _ZN8TPainter8DrawLineERK7_TPointIiES3_
         U _ZN8TPainter7SetFontERK5TFont
         U _ZN8TPainter11DrawUCSTextERK8TWStringii
         U __cxa_vec_dtor
         U _ZN5TFontD1Ev
000012b0 T _ZN8FontDemo14DrawVectorFontER8TPainterRK6_TRectIiE
00001890 T _ZN8FontDemo12PaintHandlerER10EventParam
         U _ZNK11TCustomFill8FillRectER8TPainterRK6_TRectIiE
         U _ZNK12TRadioButton12GetSelectionEv
00001960 T _ZN8FontDemo12RadioHandlerER10EventParam
00001984 T _ZN8FontDemo8OnAttachEv
00001988 T _ZN8FontDemo8OnDetachEv
         U __cxa_pure_virtual
         U _ZTVN10__cxxabiv117__class_type_infoE
         U _ZTVN10__cxxabiv120__si_class_type_infoE
         U _ZTI10TGridPanel

tilconBasic.o:
000006c4 t _Z15tilconBasicTaskRK9TAppParam
         U _ZTVSt9exception
         U _ZTVSt13bad_exception
         U _ZTVSt9bad_alloc
00000000 V _ZTV10TException
         U _ZTV17TChildrenDelegate
         U _ZTV6TImage
         U _ZTV10TilconDemo
00000000 V _ZTV11TTabbedDemo
         U _ZTV6TArrayIP5TNodeE
00000000 V _ZTVN7_TEventI10EventParamE15THandlerAdaptorE
         U _ZTV6TArrayI9ColorStopE
00000000 V _ZTVN7_TEventI10EventParamE17MemberFuncHandlerI11TTabbedDemoEE
00000000 V _ZTI10TException
         U _ZTI17TChildrenDelegate
         U _ZTI6TArrayIP5TNodeE
00000000 V _ZTIN7_TEventI10EventParamE15THandlerAdaptorE
00000000 V _ZTIN7_TEventI10EventParamE17MemberFuncHandlerI11TTabbedDemoEE
         U _ZTI6TImage
         U _ZTI6TArrayI9ColorStopE
         U _ZTI10TilconDemo
00000000 V _ZTI11TTabbedDemo
         U _ZTISt9exception
         U _ZTISt13bad_exception
         U _ZTISt9bad_alloc
00000000 V _ZTS10TException
         U _ZTS17TChildrenDelegate
         U _ZTS6TArrayIP5TNodeE
00000000 V _ZTSN7_TEventI10EventParamE15THandlerAdaptorE
00000000 V _ZTSN7_TEventI10EventParamE17MemberFuncHandlerI11TTabbedDemoEE
         U _ZTS6TImage
         U _ZTS6TArrayI9ColorStopE
         U _ZTS10TilconDemo
00000000 V _ZTS11TTabbedDemo
         U _ZTSSt9exception
         U _ZTSSt13bad_exception
         U _ZTSSt9bad_alloc
00000000 T _ZN8TWStringC1EPKw
         U __frameinfo_used
         U __cxa_allocate_exception
         U __cxa_throw
00000000 T _ZN10TExceptionD1Ev
         U _Znaj
         U memcpy
00000000 T _ZN8TWStringaSERKS_
         U _ZdaPv
00000000 T _ZNK8TWStringneERKS_
00000000 T _ZN7_TEventI10EventParamE10SetHandlerI11TTabbedDemoEEvPT_NS1_17MemberFuncHandlerIS4_E8FuncTypeE
         U _Znwj
         U __diab_Unwind_Resume
         U __diab_personality_v0
00000000 T _ZN11TTabbedDemoC1Ev
         U _ZN7TWindowC2EiiiiPS_NS_12WindowSizingENS_10WindowTypeE
         U _ZN4TTabC1Eiiiii
         U _ZN11TPushButtonC1Eiiii
         U _ZN5TNode8OnResizeEv
         U _ZN5TNode6UpdateEv
         U _ZN8TControl18SetAlignmentPolicyE19HorizontalAlignment17VerticalAlignment
         U _ZN4TTab10SetTabTextEiRK8TWString
         U _ZN6TGroup10AddControlEP8TControli
         U _ZN18VectorGraphicsDemoC1Ev
         U _ZN8AnimDemoC1Ev
         U _ZN11PainterDemoC1Ev
         U _ZN13PrimitiveDemoC1Ev
         U _ZN8FontDemoC1Ev
         U _ZN10WidgetDemoC1Ev
         U _ZN13UpdateGUIDemoC1Ev
         U _ZN4TTab10AddControlEiP8TControli
         U _ZdlPv
         U _ZN11TPushButtonD1Ev
         U _ZN4TTabD1Ev
         U _ZN7TWindowD2Ev
00000690 T _ZN11TTabbedDemo4ShowEv
         U _ZN7TWindow4ShowEi
         U _ZN4TTab8SwitchToEi
         U _ZN12TApplicationC1ERK9TAppParam
         U _ZN12TApplication3RunEv
         U _ZN7TWindow7DestroyEv
         U _ZN12TApplicationD1Ev
00000884 T tilconBasicTaskEntry
         U _ZN9TAppParamC1EPKc
         U _ZN9TAppParam3AddEPKc
         U _ZN9TAppParamD1Ev
00000908 T tilconBasic
         U taskSpawn
00000000 T _ZN10TExceptionD0Ev
00000000 T _ZN7_TEventI10EventParamE15THandlerAdaptorD1Ev
00000000 T _ZN7_TEventI10EventParamE15THandlerAdaptorD0Ev
00000000 T _ZN7_TEventI10EventParamE17MemberFuncHandlerI11TTabbedDemoED1Ev
00000000 T _ZN7_TEventI10EventParamE17MemberFuncHandlerI11TTabbedDemoED0Ev
00000000 T _ZNK7_TEventI10EventParamE17MemberFuncHandlerI11TTabbedDemoE6InvokeERS0_
00000000 T _ZN7_TEventI10EventParamE17MemberFuncHandlerI11TTabbedDemoE3dupEv
0000098c T _ZN11TTabbedDemoC2Ev
000009ac T _ZN11TTabbedDemoD1Ev
         U _ZN4TTab13RemoveControlEiP8TControl
00000aac T _ZN11TTabbedDemoD0Ev
00000ad8 T _ZN11TTabbedDemoD2Ev
00000af8 T _ZN11TTabbedDemo16TabChangeHandlerER10EventParam
00000b4c T _ZN11TTabbedDemo17QuitButtonHandlerER10EventParam
         U _ZN12TApplication8InstanceEv
         U _ZN12TApplication4StopEi
         U __cxa_pure_virtual
         U _ZTVN10__cxxabiv117__class_type_infoE
         U _ZTVN10__cxxabiv120__si_class_type_infoE
         U _ZTI7TWindow

tilconDemoPrimitive.o:
         U _ZTVSt9exception
         U _ZTVSt13bad_exception
         U _ZTVSt9bad_alloc
00000000 V _ZTV10TException
         U _ZTV17TChildrenDelegate
00000000 V _ZTV6TImage
00000000 V _ZTV10TilconDemo
00000000 V _ZTV13PrimitiveDemo
         U _ZTV6TArrayIP5TNodeE
00000000 V _ZTVN7_TEventI10EventParamE15THandlerAdaptorE
         U _ZTV6TArrayI9ColorStopE
00000000 V _ZTVN7_TEventI10EventParamE17MemberFuncHandlerI13PrimitiveDemoEE
00000000 V _ZTI10TException
         U _ZTI17TChildrenDelegate
         U _ZTI6TArrayIP5TNodeE
00000000 V _ZTIN7_TEventI10EventParamE15THandlerAdaptorE
00000000 V _ZTIN7_TEventI10EventParamE17MemberFuncHandlerI13PrimitiveDemoEE
00000000 V _ZTI6TImage
         U _ZTI6TArrayI9ColorStopE
00000000 V _ZTI10TilconDemo
00000000 V _ZTI13PrimitiveDemo
         U _ZTISt9exception
         U _ZTISt13bad_exception
         U _ZTISt9bad_alloc
00000000 V _ZTS10TException
         U _ZTS17TChildrenDelegate
         U _ZTS6TArrayIP5TNodeE
00000000 V _ZTSN7_TEventI10EventParamE15THandlerAdaptorE
00000000 V _ZTSN7_TEventI10EventParamE17MemberFuncHandlerI13PrimitiveDemoEE
00000000 V _ZTS6TImage
         U _ZTS6TArrayI9ColorStopE
00000000 V _ZTS10TilconDemo
00000000 V _ZTS13PrimitiveDemo
         U _ZTSSt9exception
         U _ZTSSt13bad_exception
         U _ZTSSt9bad_alloc
00000000 T _ZN10TExceptionD1Ev
00000000 T _ZN10TExceptionD0Ev
         U _ZdlPv
00000000 T _ZN6TColorC1Ej
00000000 T _ZN6TColorC1ERKS_
00000000 T _ZN8TWStringC1EPKw
         U __frameinfo_used
         U __cxa_allocate_exception
         U __cxa_throw
         U _Znaj
         U memcpy
00000000 T _ZN6_TRectIiEC1ERK7_TPointIiERK6_TSizeIiE
00000000 T _ZNK6_TRectIiEmiERK7_TPointIiE
00000000 T _ZN7_TEventI10EventParamE10SetHandlerI13PrimitiveDemoEEvPT_NS1_17MemberFuncHandlerIS4_E8FuncTypeE
         U _Znwj
         U __diab_Unwind_Resume
         U __diab_personality_v0
00000000 T _ZN7_TEventI10EventParamE15THandlerAdaptorD1Ev
00000000 T _ZN7_TEventI10EventParamE15THandlerAdaptorD0Ev
00000000 T _ZN7_TEventI10EventParamE17MemberFuncHandlerI13PrimitiveDemoED1Ev
00000000 T _ZN7_TEventI10EventParamE17MemberFuncHandlerI13PrimitiveDemoED0Ev
00000000 T _ZNK7_TEventI10EventParamE17MemberFuncHandlerI13PrimitiveDemoE6InvokeERS0_
00000000 T _ZN7_TEventI10EventParamE17MemberFuncHandlerI13PrimitiveDemoE3dupEv
00000000 T _ZNK10TSharedPtrI9ImageDataE5DerefEv
         U _ZN9ImageDataD1Ev
00000000 T _ZN6TImageD1Ev
00000000 T _ZN6TImageD0Ev
00000000 T _ZN6TTimerC1Ev
00000000 T _ZNK8_TMarginIiEneERKS0_
00000000 T _ZNK6TArrayIN11TGridLayout10LayoutInfoEEixEi
00000000 T _ZN11TGridLayout10SetRowSizeEiNS_12LayoutMethodEi
00000000 T _ZN11TGridLayout13SetColumnSizeEiNS_12LayoutMethodEi
00000000 T _ZN10TilconDemoC1Eiiiiii
         U _ZN10TGridPanelC2Eiiiiii
         U _ZN5TNode6UpdateEv
         U _ZN5TNode18OnChildBoundChangeEP8TControl
         U _ZN5TNode8OnResizeEv
         U _ZN10TGridPanelD2Ev
00000000 T _ZN10TilconDemoD1Ev
00000000 T _ZN10TilconDemoD0Ev
00000000 T _ZN13PrimitiveDemo16FormationPriDataEv
         U rand
         U __rem32
000001ec T _ZN13PrimitiveDemoC1Ev
         U _ZN11TCustomFillC1Ev
         U _ZN14TCustomControlC1Eiiii
         U _ZN10TGridPanelC1Eiiiiii
         U _ZN6TLabelC1EiiiiRK8TWString
         U _ZdaPv
         U _ZN12TRadioButtonC1Eiiii
         U _ZN12TPixelBufferC1Ev
         U _ZN10TGridPanel10AddControlEP8TControliRK8GridCell
         U _ZN12TRadioButton7AddItemERK8TWString
         U _ZN12TRadioButton12SetSelectionEi
         U _ZN12TPixelBufferC1Eii
         U _ZN8TPainterC1Ev
         U _ZN8TPainter10BeginPaintER12TPixelBuffer
         U _ZN8TPainter8SetBrushERK6TBrush
         U _ZN12TPixelBufferD1Ev
         U _ZN8TPainter8FillRectERK6_TRectIiE
         U _ZN8TPainter8EndPaintEv
         U _ZN6TImageC1ERK12TPixelBuffer
         U _ZN12TPixelBufferC1ERK6TImage
         U _ZN12TPatternFillC1ERK12TPixelBuffer
         U _ZN11TCustomFillaSERK12TPatternFill
         U _ZN12TPatternFillD1Ev
         U _ZN8TPainterD1Ev
         U _ZN12TRadioButtonD1Ev
         U _ZN6TLabelD1Ev
         U _ZN10TGridPanelD1Ev
         U _ZN14TCustomControlD1Ev
         U _ZN11TCustomFillD1Ev
00000ce4 T _ZN13PrimitiveDemoC2Ev
00000d04 T _ZN13PrimitiveDemoD1Ev
00000ea8 T _ZN13PrimitiveDemoD0Ev
00000ed4 T _ZN13PrimitiveDemoD2Ev
00000ef4 T _ZN13PrimitiveDemo12PaintHandlerER10EventParam
         U _ZNK11TCustomFill8FillRectER8TPainterRK6_TRectIiE
         U _ZN6TImage16defaultImageDataE
         U _ZN12TPixelBufferaSERKS_
         U _ZN8TPainter6SetPenERK4TPen
         U _ZNK12TRadioButton12GetSelectionEv
         U _ZN8TPainter8DrawLineERK7_TPointIiES3_
         U _ZN8TPainter10DrawCircleERK6_TRectIiE
         U _ZN8TPainter11DrawEllipseERK6_TRectIiE
         U _ZN8TPainter7DrawArcERK6_TRectIiERK7_TPointIiES7_
         U _ZN8TPainter7DrawPieERK6_TRectIiERK7_TPointIiES7_
000015b4 T _ZN13PrimitiveDemo13UpdateHandlerER10EventParam
000015e4 T _ZN13PrimitiveDemo12TimerHandlerER10EventParam
00001670 T _ZN13PrimitiveDemo8OnAttachEv
         U _ZN6TTimer5StartEv
000016a4 T _ZN13PrimitiveDemo8OnDetachEv
         U _ZN6TTimer4StopEv
         U __cxa_pure_virtual
         U _ZTVN10__cxxabiv117__class_type_infoE
         U _ZTVN10__cxxabiv120__si_class_type_infoE
         U _ZTI10TGridPanel

tilconDemoWidget.o:
         U _ZTVSt9exception
         U _ZTVSt13bad_exception
         U _ZTVSt9bad_alloc
00000000 V _ZTV10TException
         U _ZTV17TChildrenDelegate
         U _ZTV6TImage
00000000 V _ZTV10TilconDemo
00000000 V _ZTV10WidgetDemo
         U _ZTV6TArrayIP5TNodeE
00000000 V _ZTVN7_TEventI10EventParamE15THandlerAdaptorE
         U _ZTV6TArrayI9ColorStopE
00000000 V _ZTVN7_TEventI10EventParamE17MemberFuncHandlerI10WidgetDemoEE
00000000 V _ZTI10TException
         U _ZTI17TChildrenDelegate
         U _ZTI6TArrayIP5TNodeE
00000000 V _ZTIN7_TEventI10EventParamE15THandlerAdaptorE
00000000 V _ZTIN7_TEventI10EventParamE17MemberFuncHandlerI10WidgetDemoEE
         U _ZTI6TImage
         U _ZTI6TArrayI9ColorStopE
00000000 V _ZTI10TilconDemo
00000000 V _ZTI10WidgetDemo
         U _ZTISt9exception
         U _ZTISt13bad_exception
         U _ZTISt9bad_alloc
00000000 V _ZTS10TException
         U _ZTS17TChildrenDelegate
         U _ZTS6TArrayIP5TNodeE
00000000 V _ZTSN7_TEventI10EventParamE15THandlerAdaptorE
00000000 V _ZTSN7_TEventI10EventParamE17MemberFuncHandlerI10WidgetDemoEE
         U _ZTS6TImage
         U _ZTS6TArrayI9ColorStopE
00000000 V _ZTS10TilconDemo
00000000 V _ZTS10WidgetDemo
         U _ZTSSt9exception
         U _ZTSSt13bad_exception
         U _ZTSSt9bad_alloc
00000000 T _ZN8TWStringC1EPKw
         U __frameinfo_used
         U __cxa_allocate_exception
         U __cxa_throw
00000000 T _ZN10TExceptionD1Ev
         U _Znaj
         U memcpy
         U _ZN6TLabelC1EiiiiRK8TWString
         U _ZdaPv
         U __diab_Unwind_Resume
         U __diab_personality_v0
         U _ZN6TPanelC1Eiiii
00000000 T _ZN10TExceptionD0Ev
         U _ZdlPv
00000000 T _ZN8TWStringaSERKS_
00000000 T _ZN15AlignmentPolicyC1Ev
00000000 T _ZN8GridCellC1Eii
00000000 T _ZN7_TEventI10EventParamE10SetHandlerI10WidgetDemoEEvPT_NS1_17MemberFuncHandlerIS4_E8FuncTypeE
         U _Znwj
00000000 T _ZN7_TEventI10EventParamE15THandlerAdaptorD1Ev
00000000 T _ZN7_TEventI10EventParamE15THandlerAdaptorD0Ev
00000000 T _ZN7_TEventI10EventParamE17MemberFuncHandlerI10WidgetDemoED1Ev
00000000 T _ZN7_TEventI10EventParamE17MemberFuncHandlerI10WidgetDemoED0Ev
00000000 T _ZNK7_TEventI10EventParamE17MemberFuncHandlerI10WidgetDemoE6InvokeERS0_
00000000 T _ZN7_TEventI10EventParamE17MemberFuncHandlerI10WidgetDemoE3dupEv
00000000 T _ZN8_TMarginIiEC1Ei
00000000 T _ZNK8_TMarginIiEneERKS0_
00000000 T _ZN8TControl9SetMarginERK8_TMarginIiE
         U _ZN5TNode18OnChildBoundChangeEP8TControl
         U _ZN5TNode8OnResizeEv
         U _ZN5TNode6UpdateEv
00000000 T _ZN8TControl12SetFrameTypeE9FrameType
00000000 T _ZN8TControl6UpdateEv
00000000 T _ZN8TControl15UpdateBoundRectEv
00000000 T _ZNK6TArrayIN11TGridLayout10LayoutInfoEEixEi
00000000 T _ZN11TGridLayout10SetRowSizeEiNS_12LayoutMethodEi
00000000 T _ZN11TGridLayout13SetColumnSizeEiNS_12LayoutMethodEi
00000000 T _ZN11TGridLayout15SetFixedRowSizeEii
00000000 T _ZN11TGridLayout18SetFixedColumnSizeEii
00000000 T _ZN6TLabel7SetTextERK8TWString
00000000 T _ZN8TListBox18SetColumnWidthModeENS_15ColumnWidthModeE
00000000 T _ZN9TComboBox7AddItemERK8TWString
         U _ZN8TListBox6AddRowERK8TWStringi
00000000 T _ZN10TilconDemoC1Eiiiiii
         U _ZN10TGridPanelC2Eiiiiii
         U _ZN10TGridPanelD2Ev
00000000 T _ZN10TilconDemoC2Eiiiiii
00000000 T _ZN10TilconDemoD1Ev
00000000 T _ZN10TilconDemoD0Ev
000000b4 T _ZN10WidgetDemoC1Ev
         U _ZN10TGridPanelC1Eiiiiii
         U _ZN9TComboBoxC1Eiiii
         U _ZN9TCheckBoxC1EiiiiRK8TWString
         U _ZN10TScrollBarC1Eiiii15OrientationTypeiii
         U _ZN11TScrollAreaC1Eiiiiii
         U _ZN12TRadioButtonC1Eiiii
         U _ZN7TSliderC1Eiiii15OrientationTypeiii
         U _ZN15TSingleLineEditC1EiiiiRK8TWString
         U _ZN12TProgressBarC1Eiiii15OrientationTypeiii
         U _ZN10TTextTableC1Eiiiiii
         U _ZN8TSpinBoxC1Eiiii
         U _ZN8TListBoxC1Eiiiii
         U _ZN6TLabelD1Ev
         U __cxa_vec_ctor
         U _ZN6TPanelD1Ev
         U _ZN10TGridPanel10AddControlEP8TControliRK8GridCell
         U _ZN8TControl7SetRectERK6_TRectIiE
         U _ZN6TGroup10AddControlEP8TControli
         U _ZN8TListBox19SetColumnHeaderTextEiRK8TWString
         U _ZN8TListBox19SetFixedColumnWidthEii
         U _ZN8TListBox11SetItemTextEiiRK8TWString
         U _ZN12TRadioButton7AddItemERK8TWString
         U _ZN9TComboBox12SetSelectionEi
         U _ZN12TRadioButton15ChangeSelectionEi
         U _ZN12TRadioButtonD1Ev
         U __cxa_vec_dtor
         U _ZN8TListBoxD1Ev
         U _ZN8TSpinBoxD1Ev
         U _ZN10TTextTableD1Ev
         U _ZN12TProgressBarD1Ev
         U _ZN15TSingleLineEditD1Ev
         U _ZN7TSliderD1Ev
         U _ZN11TScrollAreaD1Ev
         U _ZN10TScrollBarD1Ev
         U _ZN9TCheckBoxD1Ev
         U _ZN9TComboBoxD1Ev
         U _ZN10TGridPanelD1Ev
00002298 T _ZN10WidgetDemoC2Ev
000022b8 T _ZN10WidgetDemoD1Ev
0000279c T _ZN10WidgetDemoD0Ev
000027c8 T _ZN10WidgetDemoD2Ev
000027e8 T _ZN10WidgetDemo18SizingRadioHandlerER10EventParam
         U _ZN8TControl18SetAlignmentPolicyE19HorizontalAlignment17VerticalAlignment
00002864 T _ZN10WidgetDemo14HaRadioHandlerER10EventParam
00002914 T _ZN10WidgetDemo14VaRadioHandlerER10EventParam
000029c4 T _ZN10WidgetDemo8OnAttachEv
000029c8 T _ZN10WidgetDemo8OnDetachEv
         U __cxa_pure_virtual
         U _ZTVN10__cxxabiv117__class_type_infoE
         U _ZTVN10__cxxabiv120__si_class_type_infoE
         U _ZTI10TGridPanel

tilconDemoAnimation.o:
00000024 d FLOAT_TEMP.2508
00000028 d FLOAT_TEMP.2706
0000002c d FLOAT_TEMP.2886
00000030 d FLOAT_TEMP.2887
00000034 d FLOAT_TEMP.2888
00000038 d FLOAT_TEMP.2889
0000003c d FLOAT_TEMP.2890
00000040 d FLOAT_TEMP.2891
00000044 d FLOAT_TEMP.2892
00000048 d FLOAT_TEMP.3173
0000004c d FLOAT_TEMP.3174
00000050 d FLOAT_TEMP.3175
00000054 d FLOAT_TEMP.3176
00000058 d FLOAT_TEMP.3177
0000005c d FLOAT_TEMP.3262
00000060 d FLOAT_TEMP.3263
         U _ZTVSt9exception
         U _ZTVSt13bad_exception
         U _ZTVSt9bad_alloc
00000000 V _ZTV10TException
         U _ZTV17TChildrenDelegate
         U _ZTV6TImage
00000000 V _ZTV10TilconDemo
00000000 V _ZTV8AnimDemo
         U _ZTV6TArrayIP5TNodeE
00000000 V _ZTVN7_TEventI10EventParamE15THandlerAdaptorE
         U _ZTV6TArrayI9ColorStopE
00000000 V _ZTV6TArrayIN16TAnimationHelper7CommandEE
00000000 V _ZTVN7_TEventI10EventParamE17MemberFuncHandlerI8AnimDemoEE
00000000 V _ZTI10TException
         U _ZTI17TChildrenDelegate
         U _ZTI6TArrayIP5TNodeE
00000000 V _ZTIN7_TEventI10EventParamE15THandlerAdaptorE
00000000 V _ZTIN7_TEventI10EventParamE17MemberFuncHandlerI8AnimDemoEE
         U _ZTI6TImage
         U _ZTI6TArrayI9ColorStopE
00000000 V _ZTI10TilconDemo
00000000 V _ZTI6TArrayIN16TAnimationHelper7CommandEE
00000000 V _ZTI8AnimDemo
         U _ZTISt9exception
         U _ZTISt13bad_exception
         U _ZTISt9bad_alloc
00000000 V _ZTS10TException
         U _ZTS17TChildrenDelegate
         U _ZTS6TArrayIP5TNodeE
00000000 V _ZTSN7_TEventI10EventParamE15THandlerAdaptorE
00000000 V _ZTSN7_TEventI10EventParamE17MemberFuncHandlerI8AnimDemoEE
         U _ZTS6TImage
         U _ZTS6TArrayI9ColorStopE
00000000 V _ZTS10TilconDemo
00000000 V _ZTS6TArrayIN16TAnimationHelper7CommandEE
00000000 V _ZTS8AnimDemo
         U _ZTSSt9exception
         U _ZTSSt13bad_exception
         U _ZTSSt9bad_alloc
         U __frameinfo_used
         U _ZN11TPushButtonC1Eiiii
00000000 T _ZN10TExceptionD1Ev
00000000 T _ZN10TExceptionD0Ev
         U _ZdlPv
00000000 T _ZN6TColorC1Ej
00000000 T _ZN6TColorC1ERKS_
00000000 T _ZN8TWStringC1EPKw
         U __cxa_allocate_exception
         U __cxa_throw
         U _Znaj
         U memcpy
00000000 T _ZN6_TRectIiEC1Ev
         U _ZN6_TRectIiE8nullRectE
00000000 T _ZN6_TRectIiEC1ERK6_TSizeIiE
00000000 T _ZN6_TRectIiEC1ERK7_TPointIiERK6_TSizeIiE
00000000 T _ZNK6_TRectIiE6AdjustERK8_TMarginIiE
00000000 T _ZNK6_TRectIiEmiERK7_TPointIiE
00000000 T _ZN7_TEventI10EventParamED1Ev
00000000 T _ZN7_TEventI10EventParamE10SetHandlerI8AnimDemoEEvPT_NS1_17MemberFuncHandlerIS4_E8FuncTypeE
         U _Znwj
         U __diab_Unwind_Resume
         U __diab_personality_v0
00000000 T _ZN7_TEventI10EventParamE15THandlerAdaptorD1Ev
00000000 T _ZN7_TEventI10EventParamE15THandlerAdaptorD0Ev
00000000 T _ZN7_TEventI10EventParamE17MemberFuncHandlerI8AnimDemoED1Ev
00000000 T _ZN7_TEventI10EventParamE17MemberFuncHandlerI8AnimDemoED0Ev
00000000 T _ZNK7_TEventI10EventParamE17MemberFuncHandlerI8AnimDemoE6InvokeERS0_
00000000 T _ZN7_TEventI10EventParamE17MemberFuncHandlerI8AnimDemoE3dupEv
00000000 T _ZN7_TPointIfEC1Ev
00000000 T _ZN7_TPointIfED1Ev
00000000 T _ZN9TGradientC1ERKS_
00000000 T _ZN6TPaintC1ERK6TColor
         U _ZN9TGradientC1Ev
         U _ZN12TPixelBufferC1Ev
         U _ZN9TGradientD1Ev
00000000 T _ZN6TPaintC1ERK9TGradient
00000000 T _ZN6TPaintD1Ev
         U _ZN12TPixelBufferD1Ev
00000000 T _ZN6TTimerC1Ev
00000000 T _ZN13TCustomVisualC1ERK11TCustomFill
         U _ZN11TCustomFillC1ERKS_
         U _ZN11TCustomFillD1Ev
00000000 T _ZN13TCustomVisualD1Ev
00000000 T _ZN13TCustomVisualaSERKS_
         U _ZN11TCustomFillaSERKS_
00000000 T _ZNK8_TMarginIiEneERKS0_
00000000 T _ZN8TControl9SetMarginERK8_TMarginIiE
         U _ZN5TNode18OnChildBoundChangeEP8TControl
         U _ZN5TNode8OnResizeEv
         U _ZN5TNode6UpdateEv
00000000 T _ZNK6TArrayIN11TGridLayout10LayoutInfoEEixEi
00000000 T _ZN11TGridLayout10SetRowSizeEiNS_12LayoutMethodEi
00000000 T _ZN11TGridLayout13SetColumnSizeEiNS_12LayoutMethodEi
00000000 T _ZN10TilconDemoC1Eiiiiii
         U _ZN10TGridPanelC2Eiiiiii
         U _ZN10TGridPanelD2Ev
00000000 T _ZN10TilconDemoD1Ev
00000000 T _ZN10TilconDemoD0Ev
00000000 T _ZN6TArrayIN16TAnimationHelper7CommandEED1Ev
         U _ZdaPv
00000000 T _ZN6TArrayIN16TAnimationHelper7CommandEED0Ev
00000000 T _ZN6TArrayIN16TAnimationHelper7CommandEE13RoundCapacityEi
00000000 T _ZN6TArrayIN16TAnimationHelper7CommandEE8ExpandAtEii
00000000 T _ZN6TArrayIN16TAnimationHelper7CommandEE8InsertAtEiRKS1_
00000000 T _ZN6TArrayIN16TAnimationHelper7CommandEE5ClearEv
00000000 T _ZNK6TArrayIN16TAnimationHelper7CommandEEixEi
0000002c T _ZN16TAnimationHelperC1Ev
00000074 T _ZN16TAnimationHelperC2Ev
00000094 T _ZNK16TAnimationHelper11LastCommandEv
00000018 D _ZN16TAnimationHelper11nullCommandE
000000d8 T _ZN16TAnimationHelper10AddCommandEi
00000140 T _ZN16TAnimationHelper10AddCommandEffi
000001c4 T _ZN16TAnimationHelper10AddCommandEffffi
00000270 T _ZN16TAnimationHelper12ClearCommandEv
00000294 T _ZN16TAnimationHelper4StepEv
         U _ZN8TControl11SetPositionERK7_TPointIiE
00000000 T _ZN16TAnimationHelperD1Ev
000003b0 T _ZN8AnimDemoC1Ev
         U _ZN11TPushButtonD1Ev
         U __cxa_vec_ctor
         U _ZN6TPanelC1Eiiii
         U _ZN10TGridPanelC1Eiiiiii
         U _ZN6TLabelC1EiiiiRK8TWString
         U _ZN12TRadioButtonC1Eiiii
         U _ZN7TSliderC1Eiiii15OrientationTypeiii
         U _ZN10TGridPanel10AddControlEP8TControliRK8GridCell
         U _ZN12TRadioButton7AddItemERK8TWString
         U _ZN10TGridPanel15AddControlAtTopEP8TControlRK8GridCell
         U _ZN12TRadioButton12SetSelectionEi
         U _ZN12TPixelBufferC1Eii
         U _ZN8TPainterC1Ev
         U _ZN8TPainter10BeginPaintER12TPixelBuffer
         U _ZN8TPainter8SetBrushERK6TBrush
         U _ZN8TPainter8FillRectERK6_TRectIiE
         U _ZN8TPainter8EndPaintEv
         U _ZN12TPatternFillC1ERK12TPixelBuffer
         U _ZN11TCustomFillC1ERK12TPatternFill
         U _ZN9TGradientC1EffffjPK6TColorPKf
         U _ZN12TPixelBufferaSERKS_
         U _ZN14TVectorPainter12SetBlendModeE9BlendMode
         U _ZN14TVectorPainter12SetFillPaintERK6TPaint
         U _ZN5TPathC1ERK6_TRectIiE
         U _ZN14TVectorPainter8FillPathERK5TPath
         U _ZN5TPathD1Ev
         U _ZN14TVectorPainter14SetStrokePaintERK6TPaint
         U _ZN14TVectorPainter10StrokePathEPK7_TPointIfEji
         U _ZN10TImageFillC1ERK12TPixelBuffer
         U _ZN11TCustomFillC1ERK10TImageFill
         U _ZN10TImageFillD1Ev
         U _ZN6TGroup10AddControlEP8TControli
         U _ZN12TPatternFillD1Ev
         U _ZN8TPainterD1Ev
         U __cxa_vec_dtor
         U _ZN7TSliderD1Ev
         U _ZN6TLabelD1Ev
         U _ZN12TRadioButtonD1Ev
         U _ZN10TGridPanelD1Ev
         U _ZN6TPanelD1Ev
000015e0 T _ZN8AnimDemoC2Ev
00001600 T _ZN8AnimDemoD1Ev
00001898 T _ZN8AnimDemoD0Ev
000018c4 T _ZN8AnimDemoD2Ev
000018e4 T _ZN8AnimDemo16AnimTimerHandlerER10EventParam
         U _ZNK12TRadioButton12GetSelectionEv
00001a8c T _ZN8AnimDemo24FormationChangeAnimationEv
         U __div32
         U __rem32
         U cos
         U sin
00002c3c T _ZN8AnimDemo19RandomMoveAnimationEv
         U rand
00002d18 T _ZN8AnimDemo18FormatRadioHandlerER10EventParam
00002d54 T _ZN8AnimDemo18SpeedSliderHandlerER10EventParam
00002d90 T _ZN8AnimDemo12SetAnimationEi
00002dd4 T _ZN8AnimDemo8OnAttachEv
         U _ZN8TControl7SetRectERK6_TRectIiE
         U _ZN6TTimer5StartEv
00002ed4 T _ZN8AnimDemo8OnDetachEv
         U _ZN6TTimer4StopEv
         U __cxa_pure_virtual
         U _ZTVN10__cxxabiv117__class_type_infoE
         U _ZTVN10__cxxabiv120__si_class_type_infoE
         U _ZTI10TGridPanel

tilconVectorFont.o:
00000000 d FLOAT_TEMP.1722
00000004 d FLOAT_TEMP.1723
         U _ZTVSt9exception
         U _ZTVSt13bad_exception
         U _ZTVSt9bad_alloc
00000000 V _ZTV10TException
         U _ZTV17TChildrenDelegate
         U _ZTV6TImage
         U _ZTV10TilconDemo
         U _ZTV6TArrayIP5TNodeE
         U _ZTV6TArrayI9ColorStopE
00000000 V _ZTI10TException
         U _ZTI17TChildrenDelegate
         U _ZTI6TArrayIP5TNodeE
         U _ZTI6TImage
         U _ZTI6TArrayI9ColorStopE
         U _ZTI10TilconDemo
         U _ZTISt9exception
         U _ZTISt13bad_exception
         U _ZTISt9bad_alloc
00000000 V _ZTS10TException
         U _ZTS17TChildrenDelegate
         U _ZTS6TArrayIP5TNodeE
         U _ZTS6TImage
         U _ZTS6TArrayI9ColorStopE
         U _ZTS10TilconDemo
         U _ZTSSt9exception
         U _ZTSSt13bad_exception
         U _ZTSSt9bad_alloc
00000000 T _ZN10TExceptionD1Ev
00000000 T _ZN10TExceptionD0Ev
         U _ZdlPv
00000000 T _ZN6TColorC1ERKS_
00000000 T _ZN8TWStringC1EPKw
         U __frameinfo_used
         U __cxa_allocate_exception
         U __cxa_throw
         U _Znaj
         U memcpy
00000000 T _ZN6TPaintC1ERK6TColor
         U _ZN9TGradientC1Ev
         U _ZN12TPixelBufferC1Ev
         U _ZN9TGradientD1Ev
         U __diab_Unwind_Resume
         U __diab_personality_v0
00000000 T _ZN6TPaintD1Ev
         U _ZN12TPixelBufferD1Ev
00000000 T _ZN17TVectorStringPathC1Ev
         U _ZN5TPathC1Ev
         U _ZN5TFontC1EPKcj
         U _ZN5TPath7AddTextERK5TFontRK8TWString
         U _ZdaPv
         U _ZNK5TPath12GetBoundRectEv
         U _ZN5TPath9TranslateEff
         U _ZN5TFontD1Ev
         U _ZN5TPathD1Ev
0000014c T _ZN17TVectorStringPathC2Ev
0000016c T _ZN17TVectorStringPathD1Ev
0000018c T _ZN17TVectorStringPathD2Ev
000001ac T _ZN17TVectorStringPath4DrawER8TPainter
         U _ZN14TVectorPainter12SetFillPaintERK6TPaint
         U _ZN14TVectorPainter8FillPathERK5TPath
         U _ZTVN10__cxxabiv117__class_type_infoE

tilconDemoUpdateGUI.o:
00000010 d FLOAT_TEMP.2145
00000014 d FLOAT_TEMP.2146
         U _ZTVSt9exception
         U _ZTVSt13bad_exception
         U _ZTVSt9bad_alloc
00000000 V _ZTV10TException
         U _ZTV17TChildrenDelegate
         U _ZTV6TImage
00000000 V _ZTV10TilconDemo
00000000 V _ZTV13UpdateGUIDemo
         U _ZTV6TArrayIP5TNodeE
00000000 V _ZTVN7_TEventI10EventParamE15THandlerAdaptorE
         U _ZTV6TArrayI9ColorStopE
00000000 V _ZTVN7_TEventI10EventParamE17MemberFuncHandlerI13UpdateGUIDemoEE
00000000 V _ZTI10TException
         U _ZTI17TChildrenDelegate
         U _ZTI6TArrayIP5TNodeE
00000000 V _ZTIN7_TEventI10EventParamE15THandlerAdaptorE
00000000 V _ZTIN7_TEventI10EventParamE17MemberFuncHandlerI13UpdateGUIDemoEE
         U _ZTI6TImage
         U _ZTI6TArrayI9ColorStopE
00000000 V _ZTI10TilconDemo
00000000 V _ZTI13UpdateGUIDemo
         U _ZTISt9exception
         U _ZTISt13bad_exception
         U _ZTISt9bad_alloc
00000000 V _ZTS10TException
         U _ZTS17TChildrenDelegate
         U _ZTS6TArrayIP5TNodeE
00000000 V _ZTSN7_TEventI10EventParamE15THandlerAdaptorE
00000000 V _ZTSN7_TEventI10EventParamE17MemberFuncHandlerI13UpdateGUIDemoEE
         U _ZTS6TImage
         U _ZTS6TArrayI9ColorStopE
00000000 V _ZTS10TilconDemo
00000000 V _ZTS13UpdateGUIDemo
         U _ZTSSt9exception
         U _ZTSSt13bad_exception
         U _ZTSSt9bad_alloc
00000000 T _Z9JobThreadPv
         U __frameinfo_used
         U _ZN12TApplication8InstanceEv
00000128 T _Z14MessageCallbckPv
         U taskDelay
         U _ZN12TApplication11SendMessageERK8_app_msgi
00000004 C jobHandle
00000000 T _ZN6TColorC1Ej
00000000 T _ZNK6TColorneERKS_
00000078 T _ZN13UpdateGUIDemo10UpdateRateEv
         U _ZN5TNode6UpdateEv
00000000 T _ZN10TExceptionD1Ev
00000000 T _ZN10TExceptionD0Ev
         U _ZdlPv
00000000 T _ZN6TColorC1ERKS_
00000000 T _ZN8TWStringC1EPKw
         U __cxa_allocate_exception
         U __cxa_throw
         U _Znaj
         U memcpy
00000000 T _ZN8TWStringC1ERK7TString
00000000 T _ZN8TWStringaSERKS_
         U _ZdaPv
00000000 T _ZNK8TWStringneERKS_
00000000 T _ZNK6_TRectIiEmiERK7_TPointIiE
00000000 T _ZN7_TEventI10EventParamE10SetHandlerI13UpdateGUIDemoEEvPT_NS1_17MemberFuncHandlerIS4_E8FuncTypeE
         U _Znwj
         U __diab_Unwind_Resume
         U __diab_personality_v0
00000000 T _ZN7_TEventI10EventParamE15THandlerAdaptorD1Ev
00000000 T _ZN7_TEventI10EventParamE15THandlerAdaptorD0Ev
00000000 T _ZN7_TEventI10EventParamE17MemberFuncHandlerI13UpdateGUIDemoED1Ev
00000000 T _ZN7_TEventI10EventParamE17MemberFuncHandlerI13UpdateGUIDemoED0Ev
00000000 T _ZNK7_TEventI10EventParamE17MemberFuncHandlerI13UpdateGUIDemoE6InvokeERS0_
00000000 T _ZN7_TEventI10EventParamE17MemberFuncHandlerI13UpdateGUIDemoE3dupEv
00000000 T _ZN6TPaintC1ERK6TColor
         U _ZN9TGradientC1Ev
         U _ZN12TPixelBufferC1Ev
         U _ZN9TGradientD1Ev
00000000 T _ZN6TPaintD1Ev
         U _ZN12TPixelBufferD1Ev
00000000 T _ZNK8_TMarginIiEneERKS0_
00000000 T _ZNK6TArrayIN11TGridLayout10LayoutInfoEEixEi
00000000 T _ZN11TGridLayout10SetRowSizeEiNS_12LayoutMethodEi
00000000 T _ZN11TGridLayout13SetColumnSizeEiNS_12LayoutMethodEi
00000000 T _ZN10TilconDemoC1Eiiiiii
         U _ZN10TGridPanelC2Eiiiiii
         U _ZN5TNode18OnChildBoundChangeEP8TControl
         U _ZN5TNode8OnResizeEv
         U _ZN10TGridPanelD2Ev
00000000 T _ZN10TilconDemoD1Ev
00000000 T _ZN10TilconDemoD0Ev
00000148 T _ZN13UpdateGUIDemoC1Ev
         U _ZN14TCustomControlC1Eiiii
         U _ZN10TGridPanelC1Eiiiiii
         U _ZN7TSliderC1Eiiii15OrientationTypeiii
         U _ZN11TPushButtonC1Eiiii
         U _ZN10TGridPanel10AddControlEP8TControliRK8GridCell
         U _ZN7TSlider8SetRangeEii
         U _ZN11TPushButtonD1Ev
         U _ZN7TSliderD1Ev
         U _ZN10TGridPanelD1Ev
         U _ZN14TCustomControlD1Ev
0000078c T _ZN13UpdateGUIDemoC2Ev
000007ac T _ZN13UpdateGUIDemoD1Ev
000008a8 T _ZN13UpdateGUIDemoD0Ev
000008d4 T _ZN13UpdateGUIDemoD2Ev
00000000 T _ZN6_TRectIfEC1Ev
         U _ZN6_TRectIfE8nullRectE
000008f4 T _ZN13UpdateGUIDemo13UpdateHandlerER10EventParam
         U _ZN5TPathC1Ev
         U sprintf
         U _ZN7TStringC1EPKc
         U _ZN5TFontC1EPKcj
         U _ZN5TPath7AddTextERK5TFontRK8TWString
         U _ZNK5TPath12GetBoundRectEv
         U _ZN5TPath9TranslateEff
         U _ZN8TPainter6SetPenERK4TPen
         U __div32
         U _ZN14TVectorPainter15TranslateMatrixEff
         U _ZN14TVectorPainter11ScaleMatrixEff
         U _ZN14TVectorPainter12SetFillPaintERK6TPaint
         U _ZN14TVectorPainter8FillPathERK5TPath
         U _ZN7TSlider8SetValueEi
         U _ZN5TFontD1Ev
         U free
         U _ZN5TPathD1Ev
00000d04 T _ZN13UpdateGUIDemo13ButtonHandlerER10EventParam
         U taskSpawn
00000e04 T _ZN13UpdateGUIDemo8OnAttachEv
00000e08 T _ZN13UpdateGUIDemo8OnDetachEv
         U __cxa_pure_virtual
         U _ZTVN10__cxxabiv117__class_type_infoE
         U _ZTVN10__cxxabiv120__si_class_type_infoE
         U _ZTI10TGridPanel

tilconVectorSouthPark.o:
00000914 d FLOAT_TEMP.2119
00000918 d FLOAT_TEMP.2120
0000091c d FLOAT_TEMP.2121
00000920 d FLOAT_TEMP.2122
00000924 d FLOAT_TEMP.2123
00000928 d FLOAT_TEMP.2124
         U _ZTVSt9exception
         U _ZTVSt13bad_exception
         U _ZTVSt9bad_alloc
00000000 V _ZTV10TException
         U _ZTV17TChildrenDelegate
         U _ZTV6TImage
         U _ZTV10TilconDemo
         U _ZTV6TArrayIP5TNodeE
         U _ZTV6TArrayI9ColorStopE
00000000 V _ZTV6TArrayIN16TVectorSouthPark6ObjectEE
00000000 V _ZTI10TException
         U _ZTI17TChildrenDelegate
         U _ZTI6TArrayIP5TNodeE
         U _ZTI6TImage
         U _ZTI6TArrayI9ColorStopE
         U _ZTI10TilconDemo
00000000 V _ZTI6TArrayIN16TVectorSouthPark6ObjectEE
         U _ZTISt9exception
         U _ZTISt13bad_exception
         U _ZTISt9bad_alloc
00000000 V _ZTS10TException
         U _ZTS17TChildrenDelegate
         U _ZTS6TArrayIP5TNodeE
         U _ZTS6TImage
         U _ZTS6TArrayI9ColorStopE
         U _ZTS10TilconDemo
00000000 V _ZTS6TArrayIN16TVectorSouthPark6ObjectEE
         U _ZTSSt9exception
         U _ZTSSt13bad_exception
         U _ZTSSt9bad_alloc
00000000 T _ZN10TExceptionD1Ev
00000000 T _ZN10TExceptionD0Ev
         U _ZdlPv
00000000 T _ZN10TMatrix3x3C1Efffffffff
00000000 T _ZN6TColorC1ERKS_
00000000 T _ZN6TPaintC1ERK6TColor
         U __frameinfo_used
         U _ZN9TGradientC1Ev
         U _ZN12TPixelBufferC1Ev
         U _ZN9TGradientD1Ev
         U __diab_Unwind_Resume
         U __diab_personality_v0
00000000 T _ZN6TPaintD1Ev
         U _ZN12TPixelBufferD1Ev
00000000 T _ZN6TArrayIN16TVectorSouthPark6ObjectEED1Ev
         U __cxa_vec_delete
00000000 T _ZN16TVectorSouthPark6ObjectD1Ev
00000000 T _ZN6TArrayIN16TVectorSouthPark6ObjectEED0Ev
00000000 T _ZN6TArrayIN16TVectorSouthPark6ObjectEE13RoundCapacityEi
00000000 T _ZN16TVectorSouthPark6ObjectaSERKS0_
         U _ZN5TPathaSERKS_
00000000 T _ZN6TArrayIN16TVectorSouthPark6ObjectEE8ExpandAtEii
         U _Znaj
         U _ZdaPv
         U __cxa_vec_new2
00000000 T _ZN16TVectorSouthPark6ObjectC1Ev
         U __cxa_allocate_exception
         U __cxa_throw
00000000 T _ZN6TArrayIN16TVectorSouthPark6ObjectEE8InsertAtEiRKS1_
00000000 T _ZNK6TArrayIN16TVectorSouthPark6ObjectEEixEi
00000000 T _ZN16TVectorSouthPark13AddFillObjectEPKhiPKfj
         U _ZN5TPathC1Ev
         U _ZN5TPathC1EjPKhPKf
         U _ZN5TPathD1Ev
00000128 T _ZN16TVectorSouthPark15AddStrokeObjectEPKhiPKfjf
00000264 T _ZN16TVectorSouthPark14AddFillObjectMEPKhiPKfjS3_
         U _ZN5TPath9TransformERK10TMatrix3x3
000003f0 T _ZN16TVectorSouthPark23AddFillAndStrokeObjectMEPKhiPKfjjfS3_
00000000 T _ZN6_TRectIfEC1ERKS0_
00000000 T _ZNK6_TRectIfE7CombineERKS0_
000005b0 T _ZN16TVectorSouthParkC1Ev
         U _ZN6_TRectIfE8nullRectE
         U _ZNK5TPath12GetBoundRectEv
         U _ZN5TPath9TranslateEff
00000f78 T _ZN16TVectorSouthParkC2Ev
00000f98 T _ZN16TVectorSouthParkD1Ev
00000fb8 T _ZN16TVectorSouthParkD2Ev
00000fd8 T _ZN16TVectorSouthPark4DrawER8TPainter
         U _ZN14TVectorPainter11ScaleMatrixEff
         U _ZN14TVectorPainter12SetFillPaintERK6TPaint
         U _ZN14TVectorPainter8FillPathERK5TPath
         U _ZN14TVectorPainter14SetStrokePaintERK6TPaint
         U _ZN14TVectorPainter12SetPathWidthEf
         U _ZN14TVectorPainter10StrokePathERK5TPath
         U _ZTVN10__cxxabiv117__class_type_infoE

tilconDemoVectorGraphics.o:
00000020 d FLOAT_TEMP.2161
00000024 d FLOAT_TEMP.2162
00000028 d FLOAT_TEMP.2163
0000002c d FLOAT_TEMP.2407
00000030 d FLOAT_TEMP.2408
00000034 d FLOAT_TEMP.2409
00000038 d FLOAT_TEMP.2410
0000003c d FLOAT_TEMP.2411
00000040 d FLOAT_TEMP.2412
00000044 d FLOAT_TEMP.2418
         U _ZTVSt9exception
         U _ZTVSt13bad_exception
         U _ZTVSt9bad_alloc
00000000 V _ZTV10TException
         U _ZTV17TChildrenDelegate
         U _ZTV6TImage
00000000 V _ZTV10TilconDemo
00000000 V _ZTV18VectorGraphicsDemo
         U _ZTV6TArrayIP5TNodeE
00000000 V _ZTVN7_TEventI10EventParamE15THandlerAdaptorE
         U _ZTV6TArrayI9ColorStopE
00000000 V _ZTVN7_TEventI10EventParamE17MemberFuncHandlerI18VectorGraphicsDemoEE
00000000 V _ZTI10TException
         U _ZTI17TChildrenDelegate
         U _ZTI6TArrayIP5TNodeE
00000000 V _ZTIN7_TEventI10EventParamE15THandlerAdaptorE
00000000 V _ZTIN7_TEventI10EventParamE17MemberFuncHandlerI18VectorGraphicsDemoEE
         U _ZTI6TImage
         U _ZTI6TArrayI9ColorStopE
00000000 V _ZTI10TilconDemo
00000000 V _ZTI18VectorGraphicsDemo
         U _ZTISt9exception
         U _ZTISt13bad_exception
         U _ZTISt9bad_alloc
00000000 V _ZTS10TException
         U _ZTS17TChildrenDelegate
         U _ZTS6TArrayIP5TNodeE
00000000 V _ZTSN7_TEventI10EventParamE15THandlerAdaptorE
00000000 V _ZTSN7_TEventI10EventParamE17MemberFuncHandlerI18VectorGraphicsDemoEE
         U _ZTS6TImage
         U _ZTS6TArrayI9ColorStopE
00000000 V _ZTS10TilconDemo
00000000 V _ZTS18VectorGraphicsDemo
         U _ZTSSt9exception
         U _ZTSSt13bad_exception
         U _ZTSSt9bad_alloc
00000000 T _ZN10TExceptionD1Ev
00000000 T _ZN10TExceptionD0Ev
         U _ZdlPv
00000000 T _ZN6TColorC1Ej
00000000 T _ZN6TColorC1ERKS_
00000000 T _ZN8TWStringC1EPKw
         U __frameinfo_used
         U __cxa_allocate_exception
         U __cxa_throw
         U _Znaj
         U memcpy
00000000 T _ZN6_TRectIiEC1ERKS0_
00000000 T _ZN6_TRectIiEC1ERK7_TPointIiERK6_TSizeIiE
00000000 T _ZNK6_TRectIiEmiERK7_TPointIiE
00000000 T _ZN7_TEventI10EventParamE10SetHandlerI18VectorGraphicsDemoEEvPT_NS1_17MemberFuncHandlerIS4_E8FuncTypeE
         U _Znwj
         U __diab_Unwind_Resume
         U __diab_personality_v0
00000000 T _ZN7_TEventI10EventParamE15THandlerAdaptorD1Ev
00000000 T _ZN7_TEventI10EventParamE15THandlerAdaptorD0Ev
00000000 T _ZN7_TEventI10EventParamE17MemberFuncHandlerI18VectorGraphicsDemoED1Ev
00000000 T _ZN7_TEventI10EventParamE17MemberFuncHandlerI18VectorGraphicsDemoED0Ev
00000000 T _ZNK7_TEventI10EventParamE17MemberFuncHandlerI18VectorGraphicsDemoE6InvokeERS0_
00000000 T _ZN7_TEventI10EventParamE17MemberFuncHandlerI18VectorGraphicsDemoE3dupEv
00000000 T _ZN6TTimerC1Ev
00000000 T _ZNK8_TMarginIiEneERKS0_
00000000 T _ZNK6TArrayIN11TGridLayout10LayoutInfoEEixEi
00000000 T _ZN11TGridLayout10SetRowSizeEiNS_12LayoutMethodEi
00000000 T _ZN11TGridLayout13SetColumnSizeEiNS_12LayoutMethodEi
00000000 T _ZN10TilconDemoC1Eiiiiii
         U _ZN10TGridPanelC2Eiiiiii
         U _ZN5TNode6UpdateEv
         U _ZN5TNode18OnChildBoundChangeEP8TControl
         U _ZN5TNode8OnResizeEv
         U _ZN10TGridPanelD2Ev
00000000 T _ZN10TilconDemoD1Ev
00000000 T _ZN10TilconDemoD0Ev
00000000 T _ZN18VectorGraphicsDemoC1Ev
         U _ZN14TCustomControlC1Eiiii
         U _ZN10TGridPanelC1Eiiiiii
         U _ZN11TCustomFillC1Ev
         U _ZN6TLabelC1EiiiiRK8TWString
         U _ZdaPv
         U _ZN7TSliderC1Eiiii15OrientationTypeiii
         U _ZN9TCheckBoxC1EiiiiRK8TWString
         U _ZN12TRadioButtonC1Eiiii
         U _ZN11TVectorLionC1Ev
         U _ZN16TVectorSouthParkC1Ev
         U _ZN17TVectorStringPathC1Ev
         U _ZN10TGridPanel10AddControlEP8TControliRK8GridCell
         U _ZN12TRadioButton7AddItemERK8TWString
         U _ZN12TPixelBufferC1Eii
         U _ZN8TPainterC1Ev
         U _ZN8TPainter10BeginPaintER12TPixelBuffer
         U _ZN12TPixelBufferC1Ev
         U _ZN8TPainter8SetBrushERK6TBrush
         U _ZN12TPixelBufferD1Ev
         U _ZN8TPainter8FillRectERK6_TRectIiE
         U _ZN8TPainter8EndPaintEv
         U _ZN12TPatternFillC1ERK12TPixelBuffer
         U _ZN11TCustomFillaSERK12TPatternFill
         U _ZN12TPatternFillD1Ev
         U _ZN8TPainterD1Ev
         U _ZN17TVectorStringPathD1Ev
         U _ZN16TVectorSouthParkD1Ev
         U _ZN11TVectorLionD1Ev
         U _ZN12TRadioButtonD1Ev
         U _ZN9TCheckBoxD1Ev
         U _ZN7TSliderD1Ev
         U _ZN6TLabelD1Ev
         U _ZN11TCustomFillD1Ev
         U _ZN10TGridPanelD1Ev
         U _ZN14TCustomControlD1Ev
00000e0c T _ZN18VectorGraphicsDemoC2Ev
00000e2c T _ZN18VectorGraphicsDemoD1Ev
00001154 T _ZN18VectorGraphicsDemoD0Ev
00001180 T _ZN18VectorGraphicsDemoD2Ev
000011a0 T _ZN18VectorGraphicsDemo12PaintHandlerER10EventParam
         U _ZNK11TCustomFill8FillRectER8TPainterRK6_TRectIiE
         U __div32
         U _ZN14TVectorPainter15TranslateMatrixEff
         U _ZN14TVectorPainter12RotateMatrixEf
         U _ZN14TVectorPainter11ScaleMatrixEff
         U _ZNK12TRadioButton12GetSelectionEv
         U _ZN11TVectorLion4DrawER8TPainter
         U _ZN16TVectorSouthPark4DrawER8TPainter
         U _ZN17TVectorStringPath4DrawER8TPainter
00001374 T _ZN18VectorGraphicsDemo12TimerHandlerER10EventParam
         U _ZN7TSlider8SetValueEi
000014a0 T _ZN18VectorGraphicsDemo13SliderHandlerER10EventParam
0000151c T _ZN18VectorGraphicsDemo12RadioHandlerER10EventParam
00001540 T _ZN18VectorGraphicsDemo8OnAttachEv
         U _ZN6TTimer5StartEv
00001578 T _ZN18VectorGraphicsDemo8OnDetachEv
         U _ZN6TTimer4StopEv
         U __cxa_pure_virtual
         U _ZTVN10__cxxabiv117__class_type_infoE
         U _ZTVN10__cxxabiv120__si_class_type_infoE
         U _ZTI10TGridPanel

tilconDemoPainter.o:
00000010 d FLOAT_TEMP.2494
00000014 d FLOAT_TEMP.2881
00000018 d FLOAT_TEMP.2882
0000001c d FLOAT_TEMP.2883
00000020 d FLOAT_TEMP.2884
00000024 d FLOAT_TEMP.2885
00000028 d FLOAT_TEMP.2886
0000002c d FLOAT_TEMP.2887
00000030 d FLOAT_TEMP.2888
00000034 d FLOAT_TEMP.2889
         U _ZTVSt9exception
         U _ZTVSt13bad_exception
         U _ZTVSt9bad_alloc
00000000 V _ZTV10TException
         U _ZTV17TChildrenDelegate
00000000 V _ZTV6TImage
00000000 V _ZTV10TilconDemo
00000000 V _ZTV11PainterDemo
         U _ZTV6TArrayIP5TNodeE
00000000 V _ZTVN7_TEventI10EventParamE15THandlerAdaptorE
00000000 V _ZTV6TArrayI9ColorStopE
00000000 V _ZTVN7_TEventI10EventParamE17MemberFuncHandlerI11PainterDemoEE
00000000 V _ZTI10TException
         U _ZTI17TChildrenDelegate
         U _ZTI6TArrayIP5TNodeE
00000000 V _ZTIN7_TEventI10EventParamE15THandlerAdaptorE
00000000 V _ZTIN7_TEventI10EventParamE17MemberFuncHandlerI11PainterDemoEE
00000000 V _ZTI6TImage
00000000 V _ZTI6TArrayI9ColorStopE
00000000 V _ZTI10TilconDemo
00000000 V _ZTI11PainterDemo
         U _ZTISt9exception
         U _ZTISt13bad_exception
         U _ZTISt9bad_alloc
00000000 V _ZTS10TException
         U _ZTS17TChildrenDelegate
         U _ZTS6TArrayIP5TNodeE
00000000 V _ZTSN7_TEventI10EventParamE15THandlerAdaptorE
00000000 V _ZTSN7_TEventI10EventParamE17MemberFuncHandlerI11PainterDemoEE
00000000 V _ZTS6TImage
00000000 V _ZTS6TArrayI9ColorStopE
00000000 V _ZTS10TilconDemo
00000000 V _ZTS11PainterDemo
         U _ZTSSt9exception
         U _ZTSSt13bad_exception
         U _ZTSSt9bad_alloc
00000000 T _ZN10TExceptionD1Ev
00000000 T _ZN10TExceptionD0Ev
         U _ZdlPv
00000000 T _ZN6TColorC1Ej
00000000 T _ZN6TColorC1ERKS_
00000000 T _ZN8TWStringC1EPKw
         U __frameinfo_used
         U __cxa_allocate_exception
         U __cxa_throw
         U _Znaj
         U memcpy
00000000 T _ZN6_TRectIiEC1ERK7_TPointIiERK6_TSizeIiE
00000000 T _ZNK6_TRectIiEmiERK7_TPointIiE
00000000 T _ZN7_TEventI10EventParamE10SetHandlerI11PainterDemoEEvPT_NS1_17MemberFuncHandlerIS4_E8FuncTypeE
         U _Znwj
         U __diab_Unwind_Resume
         U __diab_personality_v0
00000000 T _ZN7_TEventI10EventParamE15THandlerAdaptorD1Ev
00000000 T _ZN7_TEventI10EventParamE15THandlerAdaptorD0Ev
00000000 T _ZN7_TEventI10EventParamE17MemberFuncHandlerI11PainterDemoED1Ev
00000000 T _ZN7_TEventI10EventParamE17MemberFuncHandlerI11PainterDemoED0Ev
00000000 T _ZNK7_TEventI10EventParamE17MemberFuncHandlerI11PainterDemoE6InvokeERS0_
00000000 T _ZN7_TEventI10EventParamE17MemberFuncHandlerI11PainterDemoE3dupEv
00000000 T _ZNK10TSharedPtrI9ImageDataE5DerefEv
         U _ZN9ImageDataD1Ev
00000000 T _ZN6TImageD1Ev
00000000 T _ZN6TImageD0Ev
00000000 T _ZN10TSharedPtrI18LinearGradientDataEaSERKS1_
00000000 T _ZN10TSharedPtrI18RadialGradientDataEaSERKS1_
00000000 T _ZN6TArrayI9ColorStopED1Ev
         U __cxa_vec_delete
00000000 T _ZNK10TSharedPtrI13ColorStopDataE5DerefEv
00000000 T _ZN10TSharedPtrI13ColorStopDataEaSERKS1_
00000000 T _ZN9TGradientC1ERKS_
00000000 T _ZN9TGradientaSERKS_
00000000 T _ZN6TArrayI9ColorStopED0Ev
00000000 T _ZN6TPaintC1Ev
         U _ZN9TGradientC1Ev
         U _ZN12TPixelBufferC1Ev
         U _ZN9TGradientD1Ev
00000000 T _ZN6TPaintC1ERK6TColor
00000000 T _ZN6TPaintC1ERK9TGradient
00000000 T _ZN6TPaintD1Ev
         U _ZN12TPixelBufferD1Ev
00000000 T _ZN6TPaintaSERKS_
         U _ZN12TPixelBufferaSERKS_
00000000 T _ZN6TBrushC1ERK6TColor
00000000 T _ZNK8_TMarginIiEneERKS0_
00000000 T _ZN8TControl9SetMarginERK8_TMarginIiE
         U _ZN5TNode18OnChildBoundChangeEP8TControl
         U _ZN5TNode8OnResizeEv
         U _ZN5TNode6UpdateEv
00000000 T _ZN8TControl6UpdateEv
00000000 T _ZNK6TArrayIN11TGridLayout10LayoutInfoEEixEi
00000000 T _ZN11TGridLayout10SetRowSizeEiNS_12LayoutMethodEi
00000000 T _ZN11TGridLayout13SetColumnSizeEiNS_12LayoutMethodEi
00000000 T _ZN10TilconDemoC1Eiiiiii
         U _ZN10TGridPanelC2Eiiiiii
         U _ZN10TGridPanelD2Ev
00000000 T _ZN10TilconDemoD1Ev
00000000 T _ZN10TilconDemoD0Ev
00000000 T _ZN6_TRectIfEC1Ev
         U _ZN6_TRectIfE8nullRectE
00000000 T _ZN11PainterDemoC1Ev
         U _ZN11TCustomFillC1Ev
         U _ZN14TCustomControlC1Eiiii
         U _ZN10TGridPanelC1Eiiiiii
         U _ZN6TLabelC1EiiiiRK8TWString
         U _ZdaPv
         U _ZN9TCheckBoxC1EiiiiRK8TWString
         U _ZN12TRadioButtonC1Eiiii
         U _ZN7TSliderC1Eiiii15OrientationTypeiii
         U _ZN5TPathC1Ev
         U _ZN10TGridPanel10AddControlEP8TControliRK8GridCell
         U _ZN12TRadioButton7AddItemERK8TWString
         U _ZN12TRadioButton12SetSelectionEi
         U _ZN5TFontC1EPKcj
         U _ZN5TPath7AddTextERK5TFontRK8TWString
         U _ZNK5TPath12GetBoundRectEv
         U _ZN5TPath9TranslateEff
         U _ZN12TPixelBufferC1Eii
         U _ZN8TPainterC1Ev
         U _ZN8TPainter10BeginPaintER12TPixelBuffer
         U _ZN8TPainter8SetBrushERK6TBrush
         U _ZN8TPainter8FillRectERK6_TRectIiE
         U _ZN8TPainter8EndPaintEv
         U _ZN6TImageC1ERK12TPixelBuffer
         U _ZN12TPixelBufferC1ERK6TImage
         U _ZN12TPatternFillC1ERK12TPixelBuffer
         U _ZN11TCustomFillaSERK12TPatternFill
         U _ZN12TPatternFillD1Ev
         U _ZN8TPainterD1Ev
         U _ZN5TFontD1Ev
         U _ZN5TPathD1Ev
         U _ZN7TSliderD1Ev
         U _ZN12TRadioButtonD1Ev
         U _ZN9TCheckBoxD1Ev
         U _ZN6TLabelD1Ev
         U _ZN10TGridPanelD1Ev
         U _ZN14TCustomControlD1Ev
         U _ZN11TCustomFillD1Ev
000015d4 T _ZN11PainterDemoC2Ev
000015f4 T _ZN11PainterDemoD1Ev
000019a4 T _ZN11PainterDemoD0Ev
000019d0 T _ZN11PainterDemoD2Ev
000019f0 T _ZN11PainterDemo12PaintHandlerER10EventParam
         U __div32
         U _ZNK11TCustomFill8FillRectER8TPainterRK6_TRectIiE
         U _ZNK12TRadioButton12GetSelectionEv
         U _ZN14TVectorPainter12SetBlendModeE9BlendMode
         U cos
         U sin
         U _ZN9TGradientC1EffffjPK6TColorPKf
         U _ZN9TGradientC1EfffffjPK6TColorPKf
         U _ZN14TVectorPainter15TranslateMatrixEff
         U _ZN14TVectorPainter11ScaleMatrixEff
         U _ZN14TVectorPainter12SetFillPaintERK6TPaint
         U _ZN14TVectorPainter8FillPathERK5TPath
         U _ZN14TVectorPainter14SetStrokePaintERK6TPaint
         U _ZN14TVectorPainter12SetPathWidthEf
         U _ZN14TVectorPainter10StrokePathERK5TPath
         U _ZN14TVectorPainter11ResetMatrixEv
00002424 T _ZN11PainterDemo13UpdateHandlerER10EventParam
00002448 T _ZN11PainterDemo8OnAttachEv
0000244c T _ZN11PainterDemo8OnDetachEv
         U __cxa_pure_virtual
         U _ZTVN10__cxxabiv117__class_type_infoE
         U _ZTVN10__cxxabiv120__si_class_type_infoE
         U _ZTI10TGridPanel

tilconVectorLion.o:
00000000 d coords.1611
00000180 d coords.1613
00000240 d coords.1615
00000270 d coords.1617
000002d8 d coords.1619
000003f8 d coords.1621
000004b8 d coords.1623
00000660 d coords.1625
00000718 d coords.1627
00000770 d coords.1629
000007d0 d coords.1631
00000880 d coords.1633
000008d8 d coords.1635
00000900 d coords.1637
00000938 d coords.1639
000009c0 d coords.1641
00000a48 d coords.1643
00000b40 d coords.1645
00000b80 d coords.1647
00000c60 d coords.1649
00000c98 d coords.1651
00000cd0 d coords.1653
00000e10 d coords.1655
00000ef0 d coords.1657
00000f28 d coords.1659
00000f60 d coords.1661
00001018 d coords.1663
00001158 d coords.1665
00001230 d coords.1667
00001260 d coords.1669
00001298 d coords.1671
000012c8 d coords.1673
00001360 d coords.1675
000013d8 d coords.1677
00001478 d coords.1679
00001498 d coords.1681
000014f0 d coords.1683
00001570 d coords.1685
00001600 d coords.1687
000016b8 d coords.1689
00001720 d coords.1691
00001760 d coords.1693
000017b0 d coords.1695
000017e8 d coords.1697
00001820 d coords.1699
00001860 d coords.1701
000018c0 d coords.1703
000018e8 d coords.1705
00001930 d coords.1707
00001968 d coords.1709
00001990 d coords.1711
000019b0 d coords.1713
00001aa8 d coords.1715
00001ba8 d coords.1717
00001bf8 d coords.1719
00001c20 d coords.1721
00001d60 d coords.1723
00001d98 d coords.1725
00001dd8 d coords.1727
00001e08 d coords.1729
00001e38 d coords.1731
00001f50 d coords.1733
000020a0 d coords.1735
000020e8 d coords.1737
00002110 d coords.1739
00002130 d coords.1741
000022d0 d coords.1743
000022f8 d coords.1745
00002318 d coords.1747
00002338 d coords.1749
000023a0 d coords.1751
000024f0 d coords.1753
00002588 d coords.1755
000025d0 d coords.1757
00002600 d coords.1759
000026e8 d coords.1761
00002718 d coords.1763
00002748 d coords.1765
000027b8 d coords.1767
000027e0 d coords.1769
00002818 d coords.1771
00002868 d coords.1773
00002960 d coords.1775
00002980 d coords.1777
000029a0 d coords.1779
000029c0 d coords.1781
000029e0 d coords.1783
00002a00 d coords.1785
00002aa8 d coords.1787
00002b98 d coords.1789
00002bf0 d coords.1791
00002c18 d coords.1793
00002d08 d coords.1795
00002d80 d coords.1797
00002ea8 d coords.1799
00002fc8 d coords.1801
00003040 d coords.1803
00003140 d coords.1805
000031b0 d coords.1807
000032b0 d coords.1809
000032f0 d coords.1811
00003358 d coords.1813
00003380 d coords.1815
000033c0 d coords.1817
000033e8 d coords.1819
000034e8 d coords.1821
00003508 d coords.1823
00003528 d coords.1825
00003548 d coords.1827
00003638 d coords.1829
00003658 d coords.1831
00003678 d coords.1833
00003698 d coords.1835
000036b8 d coords.1837
000036f8 d coords.1839
00003718 d coords.1841
00003740 d coords.1843
00003790 d coords.1845
000037d8 d coords.1847
00003800 d coords.1849
00003830 d coords.1851
00003860 d coords.1853
00003890 d coords.1855
000038b8 d coords.1857
000038e8 d coords.1859
00003918 d coords.1861
000039c0 d coords.1863
00003a38 d coords.1865
00003b30 d coords.1867
00003c58 d coords.1869
00003c80 d coords.1871
00003cb0 d coords.1873
00003ce0 d FLOAT_TEMP.2328
00003ce4 d FLOAT_TEMP.2329
         U _ZTVSt9exception
         U _ZTVSt13bad_exception
         U _ZTVSt9bad_alloc
         U _ZTV10TException
         U _ZTV17TChildrenDelegate
         U _ZTV6TImage
         U _ZTV10TilconDemo
         U _ZTV6TArrayIP5TNodeE
         U _ZTV6TArrayI9ColorStopE
         U _ZTI10TException
         U _ZTI17TChildrenDelegate
         U _ZTI6TArrayIP5TNodeE
         U _ZTI6TImage
         U _ZTI6TArrayI9ColorStopE
         U _ZTI10TilconDemo
         U _ZTISt9exception
         U _ZTISt13bad_exception
         U _ZTISt9bad_alloc
         U _ZTS10TException
         U _ZTS17TChildrenDelegate
         U _ZTS6TArrayIP5TNodeE
         U _ZTS6TImage
         U _ZTS6TArrayI9ColorStopE
         U _ZTS10TilconDemo
         U _ZTSSt9exception
         U _ZTSSt13bad_exception
         U _ZTSSt9bad_alloc
00000000 T _ZN6TColorC1Ev
00000000 T _ZN6TColorC1ERKS_
00000000 T _ZN6TPaintC1ERK6TColor
         U __frameinfo_used
         U _ZN9TGradientC1Ev
         U _ZN12TPixelBufferC1Ev
         U _ZN9TGradientD1Ev
         U __diab_Unwind_Resume
         U __diab_personality_v0
00000000 T _ZN6TPaintD1Ev
         U _ZN12TPixelBufferD1Ev
00000000 T _ZN11TVectorLion4initEijPKfi
         U memset
         U _ZN5TPathC1EjPKhPKf
         U _ZN5TPathaSERKS_
         U _ZN5TPathD1Ev
000000d0 T _ZN11TVectorLion5poly0Ev
00000104 T _ZN11TVectorLion5poly1Ev
00000138 T _ZN11TVectorLion5poly2Ev
0000016c T _ZN11TVectorLion5poly3Ev
000001a0 T _ZN11TVectorLion5poly4Ev
000001d4 T _ZN11TVectorLion5poly5Ev
00000208 T _ZN11TVectorLion5poly6Ev
0000023c T _ZN11TVectorLion5poly7Ev
00000270 T _ZN11TVectorLion5poly8Ev
000002a4 T _ZN11TVectorLion5poly9Ev
000002d8 T _ZN11TVectorLion6poly10Ev
0000030c T _ZN11TVectorLion6poly11Ev
0000033c T _ZN11TVectorLion6poly12Ev
00000370 T _ZN11TVectorLion6poly13Ev
000003a4 T _ZN11TVectorLion6poly14Ev
000003d8 T _ZN11TVectorLion6poly15Ev
0000040c T _ZN11TVectorLion6poly16Ev
00000440 T _ZN11TVectorLion6poly17Ev
00000474 T _ZN11TVectorLion6poly18Ev
000004a8 T _ZN11TVectorLion6poly19Ev
000004dc T _ZN11TVectorLion6poly20Ev
00000510 T _ZN11TVectorLion6poly21Ev
00000544 T _ZN11TVectorLion6poly22Ev
00000578 T _ZN11TVectorLion6poly23Ev
000005ac T _ZN11TVectorLion6poly24Ev
000005e0 T _ZN11TVectorLion6poly25Ev
00000614 T _ZN11TVectorLion6poly26Ev
00000648 T _ZN11TVectorLion6poly27Ev
00000678 T _ZN11TVectorLion6poly28Ev
000006ac T _ZN11TVectorLion6poly29Ev
000006e0 T _ZN11TVectorLion6poly30Ev
00000714 T _ZN11TVectorLion6poly31Ev
00000748 T _ZN11TVectorLion6poly32Ev
0000077c T _ZN11TVectorLion6poly33Ev
000007b0 T _ZN11TVectorLion6poly34Ev
000007e4 T _ZN11TVectorLion6poly35Ev
00000818 T _ZN11TVectorLion6poly36Ev
0000084c T _ZN11TVectorLion6poly37Ev
00000880 T _ZN11TVectorLion6poly38Ev
000008b4 T _ZN11TVectorLion6poly39Ev
000008e8 T _ZN11TVectorLion6poly40Ev
0000091c T _ZN11TVectorLion6poly41Ev
00000950 T _ZN11TVectorLion6poly42Ev
00000984 T _ZN11TVectorLion6poly43Ev
000009b8 T _ZN11TVectorLion6poly44Ev
000009ec T _ZN11TVectorLion6poly45Ev
00000a20 T _ZN11TVectorLion6poly46Ev
00000a54 T _ZN11TVectorLion6poly47Ev
00000a88 T _ZN11TVectorLion6poly48Ev
00000abc T _ZN11TVectorLion6poly49Ev
00000af0 T _ZN11TVectorLion6poly50Ev
00000b24 T _ZN11TVectorLion6poly51Ev
00000b58 T _ZN11TVectorLion6poly52Ev
00000b8c T _ZN11TVectorLion6poly53Ev
00000bc0 T _ZN11TVectorLion6poly54Ev
00000bf4 T _ZN11TVectorLion6poly55Ev
00000c28 T _ZN11TVectorLion6poly56Ev
00000c5c T _ZN11TVectorLion6poly57Ev
00000c90 T _ZN11TVectorLion6poly58Ev
00000cc4 T _ZN11TVectorLion6poly59Ev
00000cf8 T _ZN11TVectorLion6poly60Ev
00000d2c T _ZN11TVectorLion6poly61Ev
00000d60 T _ZN11TVectorLion6poly62Ev
00000d94 T _ZN11TVectorLion6poly63Ev
00000dc8 T _ZN11TVectorLion6poly64Ev
00000dfc T _ZN11TVectorLion6poly65Ev
00000e30 T _ZN11TVectorLion6poly66Ev
00000e64 T _ZN11TVectorLion6poly67Ev
00000e98 T _ZN11TVectorLion6poly68Ev
00000ecc T _ZN11TVectorLion6poly69Ev
00000f00 T _ZN11TVectorLion6poly70Ev
00000f34 T _ZN11TVectorLion6poly71Ev
00000f9c T _ZN11TVectorLion6poly72Ev
00000fd0 T _ZN11TVectorLion6poly73Ev
00001004 T _ZN11TVectorLion6poly74Ev
00001038 T _ZN11TVectorLion6poly75Ev
0000106c T _ZN11TVectorLion6poly76Ev
000010c0 T _ZN11TVectorLion6poly77Ev
000010f4 T _ZN11TVectorLion6poly78Ev
00001128 T _ZN11TVectorLion6poly79Ev
0000115c T _ZN11TVectorLion6poly80Ev
00001190 T _ZN11TVectorLion6poly81Ev
000011e0 T _ZN11TVectorLion6poly82Ev
00001214 T _ZN11TVectorLion6poly83Ev
00001248 T _ZN11TVectorLion6poly84Ev
0000127c T _ZN11TVectorLion6poly85Ev
000012b0 T _ZN11TVectorLion6poly86Ev
00001304 T _ZN11TVectorLion6poly87Ev
00001338 T _ZN11TVectorLion6poly88Ev
0000136c T _ZN11TVectorLion6poly89Ev
000013a0 T _ZN11TVectorLion6poly90Ev
000013d4 T _ZN11TVectorLion6poly91Ev
00001424 T _ZN11TVectorLion6poly92Ev
00001458 T _ZN11TVectorLion6poly93Ev
0000148c T _ZN11TVectorLion6poly94Ev
000014c0 T _ZN11TVectorLion6poly95Ev
000014f4 T _ZN11TVectorLion6poly96Ev
00001544 T _ZN11TVectorLion6poly97Ev
00001578 T _ZN11TVectorLion6poly98Ev
000015ac T _ZN11TVectorLion6poly99Ev
000015e0 T _ZN11TVectorLion7poly100Ev
00001614 T _ZN11TVectorLion7poly101Ev
00001668 T _ZN11TVectorLion7poly102Ev
0000169c T _ZN11TVectorLion7poly103Ev
000016d0 T _ZN11TVectorLion7poly104Ev
00001704 T _ZN11TVectorLion7poly105Ev
00001738 T _ZN11TVectorLion7poly106Ev
00001788 T _ZN11TVectorLion7poly107Ev
000017bc T _ZN11TVectorLion7poly108Ev
000017f0 T _ZN11TVectorLion7poly109Ev
00001824 T _ZN11TVectorLion7poly110Ev
00001858 T _ZN11TVectorLion7poly111Ev
000018a8 T _ZN11TVectorLion7poly112Ev
000018dc T _ZN11TVectorLion7poly113Ev
00001910 T _ZN11TVectorLion7poly114Ev
00001944 T _ZN11TVectorLion7poly115Ev
00001978 T _ZN11TVectorLion7poly116Ev
000019cc T _ZN11TVectorLion7poly117Ev
00001a00 T _ZN11TVectorLion7poly118Ev
00001a34 T _ZN11TVectorLion7poly119Ev
00001a68 T _ZN11TVectorLion7poly120Ev
00001a9c T _ZN11TVectorLion7poly121Ev
00001aec T _ZN11TVectorLion7poly122Ev
00001b20 T _ZN11TVectorLion7poly123Ev
00001b54 T _ZN11TVectorLion7poly124Ev
00001b88 T _ZN11TVectorLion7poly125Ev
00001bbc T _ZN11TVectorLion7poly126Ev
00001bf0 T _ZN11TVectorLion7poly127Ev
00001c40 T _ZN11TVectorLion7poly128Ev
00001c74 T _ZN11TVectorLion7poly129Ev
00001ca8 T _ZN11TVectorLion7poly130Ev
00001cdc T _ZN11TVectorLion7poly131Ev
00000000 T _ZN6_TRectIfEC1ERKS0_
00000000 T _ZNK6_TRectIfE7CombineERKS0_
00001d10 T _ZN11TVectorLionC1Ev
         U __cxa_vec_ctor
         U _ZN5TPathC1Ev
         U _ZN6_TRectIfE8nullRectE
         U _ZNK5TPath12GetBoundRectEv
         U _ZN5TPath9TranslateEff
         U __cxa_vec_dtor
0000279c T _ZN11TVectorLionC2Ev
000027bc T _ZN11TVectorLionD1Ev
00002800 T _ZN11TVectorLionD2Ev
00002820 T _ZN11TVectorLion4DrawER8TPainter
         U _ZN14TVectorPainter12SetFillPaintERK6TPaint
         U _ZN14TVectorPainter8FillPathERK5TPath

tilconOscilloscope.o:
00001e34 t _Z22tilconOscilloscopeTaskRK9TAppParam
00000048 d FLOAT_TEMP.3209
0000004c d FLOAT_TEMP.3210
00000050 d FLOAT_TEMP.3211
00000054 d FLOAT_TEMP.3212
00000000 d t1.2056
00000058 d FLOAT_TEMP.3242
0000005c d FLOAT_TEMP.3243
00000060 d FLOAT_TEMP.3244
00000064 d FLOAT_TEMP.3245
00000068 d FLOAT_TEMP.3246
0000006c d FLOAT_TEMP.3247
00000070 d FLOAT_TEMP.3248
00000074 d FLOAT_TEMP.3249
00000078 d FLOAT_TEMP.3285
0000007c d FLOAT_TEMP.3286
00000080 d FLOAT_TEMP.3287
00000084 d FLOAT_TEMP.3288
00000088 d FLOAT_TEMP.3289
00000004 d t2.2057
         U _ZTVSt9exception
         U _ZTVSt13bad_exception
         U _ZTVSt9bad_alloc
00000000 V _ZTV10TException
         U _ZTV17TChildrenDelegate
         U _ZTV6TImage
00000000 V _ZTV13TOscilloscope
         U _ZTV6TArrayIP5TNodeE
00000000 V _ZTVN7_TEventI10EventParamE15THandlerAdaptorE
         U _ZTV6TArrayI9ColorStopE
00000000 V _ZTVN7_TEventI10EventParamE17MemberFuncHandlerI13TOscilloscopeEE
00000000 V _ZTI10TException
         U _ZTI17TChildrenDelegate
         U _ZTI6TArrayIP5TNodeE
00000000 V _ZTIN7_TEventI10EventParamE15THandlerAdaptorE
00000000 V _ZTIN7_TEventI10EventParamE17MemberFuncHandlerI13TOscilloscopeEE
         U _ZTI6TImage
         U _ZTI6TArrayI9ColorStopE
00000000 V _ZTI13TOscilloscope
         U _ZTISt9exception
         U _ZTISt13bad_exception
         U _ZTISt9bad_alloc
00000000 V _ZTS10TException
         U _ZTS17TChildrenDelegate
         U _ZTS6TArrayIP5TNodeE
00000000 V _ZTSN7_TEventI10EventParamE15THandlerAdaptorE
00000000 V _ZTSN7_TEventI10EventParamE17MemberFuncHandlerI13TOscilloscopeEE
         U _ZTS6TImage
         U _ZTS6TArrayI9ColorStopE
00000000 V _ZTS13TOscilloscope
         U _ZTSSt9exception
         U _ZTSSt13bad_exception
         U _ZTSSt9bad_alloc
00000000 T _ZN6TColorC1Ehhh
00000000 T _ZN8TWStringC1EPKw
         U __frameinfo_used
         U __cxa_allocate_exception
         U __cxa_throw
00000000 T _ZN10TExceptionD1Ev
         U _Znaj
         U memcpy
00000000 T _ZN8GridCellC1Eii
00000000 T _ZN7_TEventI10EventParamED1Ev
00000000 T _ZN7_TEventI10EventParamE10SetHandlerI13TOscilloscopeEEvPT_NS1_17MemberFuncHandlerIS4_E8FuncTypeE
         U _Znwj
         U __diab_Unwind_Resume
         U __diab_personality_v0
00000000 T _ZN6TColorC1ERKS_
00000000 T _ZN4TPenC1ERK6TColoriNS_9LineStyleE
00000000 T _ZN6TTimerC1Ev
00000000 T _ZN8_TMarginIiEC1Eiiii
00000000 T _ZNK8_TMarginIiEneERKS0_
00000000 T _ZN8TControl9SetMarginERK8_TMarginIiE
         U _ZN5TNode18OnChildBoundChangeEP8TControl
         U _ZN5TNode8OnResizeEv
         U _ZN5TNode6UpdateEv
00000000 T _ZN8TControl12SetFrameTypeE9FrameType
00000000 T _ZN7TWindow15AddControlAtTopEP8TControl
         U _ZN6TGroup10AddControlEP8TControli
00000000 T _ZN7TWindow12SetFrameTypeE9FrameType
00000000 T _ZN7TWindow9SetMarginERK8_TMarginIiE
00000000 T _ZN8TWStringaSERKS_
         U _ZdaPv
00000000 T _ZNK8TWStringneERKS_
00000000 T _ZN11TPushButton7SetTextERK8TWString
00000000 T _ZN13TToggleButton10SetOutTextERK8TWString
00000000 T _ZN13TToggleButton9SetInTextERK8TWString
00000000 T _ZNK6TArrayIN11TGridLayout10LayoutInfoEEixEi
00000000 T _ZN11TGridLayout10SetRowSizeEiNS_12LayoutMethodEi
00000000 T _ZN11TGridLayout15SetFixedRowSizeEii
00000000 T _ZN11TGridLayout13SetColumnSizeEiNS_12LayoutMethodEi
00000000 T _ZN11TGridLayout18SetFixedColumnSizeEii
00000000 T _ZN11TGridLayout10SetSpacingERK8_TMarginIiE
00000000 T _ZN10TLineChart19SetSamplesPerScreenEj
00000000 T _ZNK6TArrayIN10TLineChart11ChannelInfoEEixEi
00000000 T _ZN10TLineChart10ScrollData10InsertDataEf
         U __urem32
00000000 T _ZN10TLineChart9SweepData10InsertDataEf
00000000 T _ZN10TLineChart10InsertDataEif
00000000 T _ZN9TGroupBox15AddControlAtTopEP8TControl
00000000 T _ZN13TOscilloscopeC1Eiiii
         U _ZN7TWindowC2EiiiiPS_NS_12WindowSizingENS_10WindowTypeE
         U _ZN10TGridPanelC1Eiiiiii
         U _ZN9TGroupBoxC1EiiiiRK8TWString
         U _ZN6TLabelC1EiiiiRK8TWString
         U _ZN12TTextSpinBoxC1Eiiii
         U _ZN12TRadioButtonC1Eiiii
         U _ZN8TSpinBoxC1Eiiii
         U _ZN13TToggleButtonC1Eiiii
         U _ZN11TPushButtonC1Eiiii
         U _ZN10TLineChartC1Eiiiijj
         U _ZN8TControl18SetAlignmentPolicyE19HorizontalAlignment17VerticalAlignment
         U _ZN10TGridPanel15AddControlAtTopEP8TControlRK8GridCell
         U _ZN12TTextSpinBox7AddItemERK8TWString
         U _ZN12TTextSpinBox15ChangeSelectionEi
         U _ZN12TRadioButton14SetItemsPerRowEi
         U _ZN12TRadioButton7AddItemERK8TWString
         U _ZN8TSpinBox11SetMinValueEi
         U _ZN8TSpinBox11SetMaxValueEi
         U _ZN8TSpinBox12SetIncrementEi
         U _ZN8TSpinBox8SetValueEi
         U _ZN10TLineChart13SetChannelPenEiRK4TPen
         U _ZN10TLineChart16SetChannelOffsetEif
         U _ZN6TTimer5StartEv
         U _ZN10TLineChartD1Ev
         U _ZN11TPushButtonD1Ev
         U _ZN10TGridPanelD1Ev
         U _ZN13TToggleButtonD1Ev
         U _ZN8TSpinBoxD1Ev
         U _ZN6TLabelD1Ev
         U _ZN12TRadioButtonD1Ev
         U _ZN9TGroupBoxD1Ev
         U _ZN12TTextSpinBoxD1Ev
         U _ZN7TWindowD2Ev
         U _ZN12TApplicationC1ERK9TAppParam
         U _ZN7TWindow4ShowEi
         U _ZN12TApplication3RunEv
         U _ZN7TWindow7DestroyEv
         U _ZN12TApplicationD1Ev
         U _ZdlPv
00002034 T tilconOscilloscopeTaskEntry
         U _ZN9TAppParamC1EPKc
         U _ZN9TAppParam3AddEPKc
         U _ZN9TAppParamD1Ev
000020d0 T tilconOscilloscope
         U taskSpawn
00000000 T _ZN10TExceptionD0Ev
00000000 T _ZN7_TEventI10EventParamE15THandlerAdaptorD1Ev
00000000 T _ZN7_TEventI10EventParamE15THandlerAdaptorD0Ev
00000000 T _ZN7_TEventI10EventParamE17MemberFuncHandlerI13TOscilloscopeED1Ev
00000000 T _ZN7_TEventI10EventParamE17MemberFuncHandlerI13TOscilloscopeED0Ev
00000000 T _ZNK7_TEventI10EventParamE17MemberFuncHandlerI13TOscilloscopeE6InvokeERS0_
00000000 T _ZN7_TEventI10EventParamE17MemberFuncHandlerI13TOscilloscopeE3dupEv
00002154 T _ZN13TOscilloscopeC2Eiiii
0000217c T _ZN13TOscilloscopeD1Ev
000027d8 T _ZN13TOscilloscopeD0Ev
00002804 T _ZN13TOscilloscopeD2Ev
00002824 T _ZN13TOscilloscope18GenerateSampleDataEij
         U _ZNK12TRadioButton12GetSelectionEv
         U sin
00002924 T _ZN13TOscilloscope12TimerHandlerER10EventParam
000029fc T _ZN13TOscilloscope16ScaleSpinHandlerER10EventParam
         U _ZNK12TTextSpinBox12GetSelectionEv
         U _ZN10TChartBody15GenerateYLabelsERK8_TLinearIfERKNS_8BodyInfoER6TArrayI8TWStringE
00002c1c T _ZN13TOscilloscope16SpeedSpinHandlerER10EventParam
         U _ZN10TChartBody15GenerateXLabelsERK8_TLinearIfERKNS_8BodyInfoER6TArrayI8TWStringE
00002ee4 T _ZN13TOscilloscope16CurveSpinHandlerER10EventParam
         U _ZN10TLineChart19SetChannelAmplifierEif
00002fd0 T _ZN13TOscilloscope17ShowToggleHandlerER10EventParam
         U _ZN10TLineChart17SetChannelVisibleEii
00003018 T _ZN13TOscilloscope11ExitHandlerER10EventParam
         U _ZN12TApplication8InstanceEv
         U _ZN12TApplication4StopEi
         U __cxa_pure_virtual
         U _ZTVN10__cxxabiv117__class_type_infoE
         U _ZTVN10__cxxabiv120__si_class_type_infoE
         U _ZTI7TWindow

tilconMineField.o:
00000018 d FLOAT_TEMP.2689
00000020 d FLOAT_TEMP.3063
00000028 d FLOAT_TEMP.3064
0000002c d FLOAT_TEMP.3065
00000030 d FLOAT_TEMP.3066
00000038 d FLOAT_TEMP.3067
00000040 d FLOAT_TEMP.3068
00000048 d FLOAT_TEMP.3069
00000050 d FLOAT_TEMP.3070
00000058 d FLOAT_TEMP.3071
00000060 d FLOAT_TEMP.3072
00000068 d FLOAT_TEMP.3073
00000070 d FLOAT_TEMP.3074
00000078 d FLOAT_TEMP.3075
00000080 d FLOAT_TEMP.3076
00000088 d FLOAT_TEMP.3077
00000090 d FLOAT_TEMP.3078
00000098 d FLOAT_TEMP.3079
000000a0 d FLOAT_TEMP.3080
000000a8 d FLOAT_TEMP.3081
000000b0 d FLOAT_TEMP.3082
000000b8 d FLOAT_TEMP.3083
000000bc d FLOAT_TEMP.3084
000000c0 d FLOAT_TEMP.3085
000000c4 d FLOAT_TEMP.3086
000000c8 d FLOAT_TEMP.3087
000000cc d FLOAT_TEMP.3088
000000d0 d FLOAT_TEMP.3089
         U _ZTVSt9exception
         U _ZTVSt13bad_exception
         U _ZTVSt9bad_alloc
00000000 V _ZTV10TException
         U _ZTV17TChildrenDelegate
         U _ZTV6TImage
00000000 V _ZTV10TMineField
         U _ZTV6TArrayIP5TNodeE
00000000 V _ZTVN7_TEventI10EventParamE15THandlerAdaptorE
         U _ZTV6TArrayI9ColorStopE
00000000 V _ZTV6TArrayIN10TMineField4TileEE
00000000 V _ZTVN7_TEventI10EventParamE17MemberFuncHandlerI10TMineFieldEE
00000000 V _ZTV6TArrayIiE
00000000 V _ZTV6TArrayI7_TPointIiEE
00000000 V _ZTI10TException
         U _ZTI17TChildrenDelegate
         U _ZTI6TArrayIP5TNodeE
00000000 V _ZTIN7_TEventI10EventParamE15THandlerAdaptorE
00000000 V _ZTIN7_TEventI10EventParamE17MemberFuncHandlerI10TMineFieldEE
         U _ZTI6TImage
         U _ZTI6TArrayI9ColorStopE
00000000 V _ZTI6TArrayIN10TMineField4TileEE
00000000 V _ZTI10TMineField
00000000 V _ZTI6TArrayIiE
00000000 V _ZTI6TArrayI7_TPointIiEE
         U _ZTISt9exception
         U _ZTISt13bad_exception
         U _ZTISt9bad_alloc
00000000 V _ZTS10TException
         U _ZTS17TChildrenDelegate
         U _ZTS6TArrayIP5TNodeE
00000000 V _ZTSN7_TEventI10EventParamE15THandlerAdaptorE
00000000 V _ZTSN7_TEventI10EventParamE17MemberFuncHandlerI10TMineFieldEE
         U _ZTS6TImage
         U _ZTS6TArrayI9ColorStopE
00000000 V _ZTS6TArrayIN10TMineField4TileEE
         U _ZTI14TEventDelegate
         U _ZTS14TEventDelegate
00000000 V _ZTS10TMineField
00000000 V _ZTS6TArrayIiE
00000000 V _ZTS6TArrayI7_TPointIiEE
         U _ZTSSt9exception
         U _ZTSSt13bad_exception
         U _ZTSSt9bad_alloc
00000000 T _ZN10TExceptionD1Ev
00000000 T _ZN10TExceptionD0Ev
         U _ZdlPv
00000000 T _ZN6TColorC1Ej
00000000 T _ZN6TColorC1ERKS_
00000000 T _ZN8TWStringC1EPKw
         U __frameinfo_used
         U __cxa_allocate_exception
         U __cxa_throw
         U _Znaj
         U memcpy
00000000 T _ZN7_TPointIiEC1Ev
00000000 T _ZN6_TRectIiEC1Ev
         U _ZN6_TRectIiE8nullRectE
00000000 T _ZN6_TRectIiEC1ERKS0_
00000000 T _ZNK6_TRectIiE6AdjustERK8_TMarginIiE
00000000 T _ZNK6_TRectIiE7CombineERKS0_
00000000 T _ZNK6_TRectIiEmiERK7_TPointIiE
00000000 T _ZN7_TEventI10EventParamE10SetHandlerI10TMineFieldEEvPT_NS1_17MemberFuncHandlerIS4_E8FuncTypeE
         U _Znwj
         U __diab_Unwind_Resume
         U __diab_personality_v0
00000000 T _ZN7_TEventI10EventParamE15THandlerAdaptorD1Ev
00000000 T _ZN7_TEventI10EventParamE15THandlerAdaptorD0Ev
00000000 T _ZN7_TEventI10EventParamE17MemberFuncHandlerI10TMineFieldED1Ev
00000000 T _ZN7_TEventI10EventParamE17MemberFuncHandlerI10TMineFieldED0Ev
00000000 T _ZNK7_TEventI10EventParamE17MemberFuncHandlerI10TMineFieldE6InvokeERS0_
00000000 T _ZN7_TEventI10EventParamE17MemberFuncHandlerI10TMineFieldE3dupEv
00000000 T _ZN7_TPointIfEC1Ev
00000000 T _ZN7_TPointIfED1Ev
00000000 T _ZN6TPaintC1ERK6TColor
         U _ZN9TGradientC1Ev
         U _ZN12TPixelBufferC1Ev
         U _ZN9TGradientD1Ev
00000000 T _ZN6TPaintD1Ev
         U _ZN12TPixelBufferD1Ev
00000000 T _ZNK8_TMarginIiEneERKS0_
00000000 T _ZN6TArrayIN10TMineField4TileEE13RoundCapacityEi
00000000 T _ZN6TArrayIN10TMineField4TileEE8ExpandAtEii
         U _ZdaPv
00000000 T _ZN6TArrayIN10TMineField4TileEEC1Ei
00000000 T _ZN6TArrayIN10TMineField4TileEED1Ev
00000000 T _ZN6TArrayIN10TMineField4TileEED0Ev
00000000 T _ZNK6TArrayIN10TMineField4TileEEixEi
00000000 T _ZN10TMineField10ClearFieldEv
00000088 T _ZN10TMineFieldC1Eii
         U _ZN14TCustomControlC2Eiiii
         U __cxa_vec_ctor
         U _ZN5TNode6UpdateEv
         U _ZN5TNode18OnChildBoundChangeEP8TControl
         U _ZN5TNode8OnResizeEv
         U __cxa_vec_dtor
         U _ZN14TCustomControlD2Ev
00000408 T _ZN10TMineFieldC2Eii
00000428 T _ZN10TMineFieldD1Ev
000005c8 T _ZN10TMineFieldD0Ev
000005f4 T _ZN10TMineFieldD2Ev
00000614 T _ZN10TMineField13CheckProgressEv
000006fc T _ZN10TMineField9StartGameEi
00000744 T _ZN10TMineField13ResizeHandlerER10EventParam
         U __div32
         U _ZN7TVisualC1E9FrameType
         U _ZN8TPainterC1Ev
         U _ZN12TPixelBufferC1Eii
         U _ZN12TPixelBufferaSERKS_
         U _ZN8TPainter10BeginPaintER12TPixelBuffer
         U memset
         U _ZNK7TVisual4DrawER8TPainterRK11VisualStateRK6_TRectIiE
         U _ZN8TPainter8EndPaintEv
         U sin
         U cos
         U _ZN14TVectorPainter11ScaleMatrixEff
         U _ZN14TVectorPainter12SetFillPaintERK6TPaint
         U _ZN14TVectorPainter8FillPathEPK7_TPointIfEj
         U _ZN5TPathC1Ev
         U _ZN5TPath6MoveToEff
         U _ZN5TPath6LineToEff
         U _ZN14TVectorPainter12SetPathWidthEf
         U _ZN14TVectorPainter14SetStrokePaintERK6TPaint
         U _ZN14TVectorPainter10StrokePathERK5TPath
         U _ZN5TPath5ClearEv
         U _ZN5TPath5CloseEv
         U _ZN14TVectorPainter8FillPathERK5TPath
         U _ZN5TFontC1EPKcj
         U _ZN5TPath7AddTextERK5TFontRK8TWString
         U _ZN5TFontD1Ev
         U _ZNK5TPath12GetBoundRectEv
         U _ZN5TPath9TranslateEff
         U _ZN5TPath5ScaleEff
         U _ZN14TVectorPainter15TranslateMatrixEff
         U _ZN5TPathD1Ev
         U _ZN8TPainterD1Ev
         U _ZN7TVisualD1Ev
00002008 T _ZNK10TMineField12IsValidPointERK7_TPointIiE
00002064 T _ZNK10TMineField12PointToIndexERK7_TPointIiE
000020d4 T _ZN10TMineField2UpERK7_TPointIiERS1_
00002104 T _ZN10TMineField4DownERK7_TPointIiERS1_
0000213c T _ZN10TMineField4LeftERK7_TPointIiERS1_
00002168 T _ZN10TMineField5RightERK7_TPointIiERS1_
0000219c T _ZN10TMineField6UpLeftERK7_TPointIiERS1_
000021f8 T _ZN10TMineField7UpRightERK7_TPointIiERS1_
0000223c T _ZN10TMineField8DownLeftERK7_TPointIiERS1_
00002280 T _ZN10TMineField9DownRightERK7_TPointIiERS1_
00000000 T _ZN6TArrayIiE13RoundCapacityEi
00000000 T _ZN6TArrayIiE8ExpandAtEii
00000000 T _ZN6TArrayIiEC1Ei
00000000 T _ZN6TArrayIiE8ShrinkAtEii
00000000 T _ZN6TArrayIiE8RemoveAtEi
00000000 T _ZNK6TArrayIiEixEi
000022d0 T _ZN10TMineField13PopulateFieldERK7_TPointIiEi
         U srand
         U rand
000028cc T _ZN10TMineField8MarkCellERK7_TPointIiE
00000000 T _ZNK10TMineField8ExpandedERK7_TPointIiE
00000000 T _ZN6TArrayI7_TPointIiEED1Ev
         U __cxa_vec_delete
00000000 T _ZN6TArrayI7_TPointIiEE13RoundCapacityEi
00000000 T _ZN6TArrayI7_TPointIiEE8ExpandAtEii
         U __cxa_vec_new2
00000000 T _ZN6TArrayI7_TPointIiEE8InsertAtEiRKS1_
00000000 T _ZN6TArrayI7_TPointIiEE8ShrinkAtEii
00000000 T _ZN6TArrayI7_TPointIiEE8RemoveAtEi
00000000 T _ZNK6TArrayI7_TPointIiEEixEi
00002970 T _ZN10TMineField11ExpandSpaceERK7_TPointIiE
00002e8c T _ZN10TMineField8OpenCellERK7_TPointIiE
00002f60 T _ZN10TMineField14OpenCellAroundERK7_TPointIiE
00003664 T _ZN10TMineField12MouseHandlerER10EventParam
00003984 T _ZN10TMineField12PaintHandlerER10EventParam
         U _ZN8TPainter15DrawPixelBufferERK12TPixelBufferii
         U _ZN8TPainter12SetTextColorERK6TColor
         U _ZN8TPainter7SetFontERK5TFont
         U _ZN8TPainter11DrawUCSTextERK8TWStringRK6_TRectIiE23TextHorizontalAlignment21TextVerticalAlignment
00000000 T _ZN6TArrayIiED1Ev
00000000 T _ZN6TArrayIiED0Ev
00000000 T _ZN6TArrayI7_TPointIiEED0Ev
         U _ZN14TCustomControl7OnEventER10EventParam
         U _ZThn144_N14TCustomControl7OnEventER10EventParam
         U __cxa_pure_virtual
         U _ZTVN10__cxxabiv117__class_type_infoE
         U _ZTVN10__cxxabiv120__si_class_type_infoE
         U _ZTI14TCustomControl

tilconMineSweeper.o:
00000c00 t _Z15mineSweeperTaskRK9TAppParam
         U _ZTVSt9exception
         U _ZTVSt13bad_exception
         U _ZTVSt9bad_alloc
00000000 V _ZTV10TException
         U _ZTV17TChildrenDelegate
         U _ZTV6TImage
00000000 V _ZTV8TSweeper
         U _ZTV6TArrayIP5TNodeE
00000000 V _ZTVN7_TEventI10EventParamE15THandlerAdaptorE
         U _ZTV6TArrayI9ColorStopE
00000000 V _ZTVN7_TEventI10EventParamE17MemberFuncHandlerI8TSweeperEE
00000000 V _ZTI10TException
         U _ZTI17TChildrenDelegate
         U _ZTI6TArrayIP5TNodeE
00000000 V _ZTIN7_TEventI10EventParamE15THandlerAdaptorE
00000000 V _ZTIN7_TEventI10EventParamE17MemberFuncHandlerI8TSweeperEE
         U _ZTI6TImage
         U _ZTI6TArrayI9ColorStopE
00000000 V _ZTI8TSweeper
         U _ZTISt9exception
         U _ZTISt13bad_exception
         U _ZTISt9bad_alloc
00000000 V _ZTS10TException
         U _ZTS17TChildrenDelegate
         U _ZTS6TArrayIP5TNodeE
00000000 V _ZTSN7_TEventI10EventParamE15THandlerAdaptorE
00000000 V _ZTSN7_TEventI10EventParamE17MemberFuncHandlerI8TSweeperEE
         U _ZTS6TImage
         U _ZTS6TArrayI9ColorStopE
00000000 V _ZTS8TSweeper
         U _ZTSSt9exception
         U _ZTSSt13bad_exception
         U _ZTSSt9bad_alloc
00000000 T _ZN6TColorC1Ej
00000000 T _ZNK6TColorneERKS_
00000000 T _ZN8TWStringC1EPKw
         U __frameinfo_used
         U __cxa_allocate_exception
         U __cxa_throw
00000000 T _ZN10TExceptionD1Ev
         U _Znaj
         U memcpy
00000000 T _ZN8TWStringaSERKS_
         U _ZdaPv
00000000 T _ZNK8TWStringneERKS_
00000000 T _ZN7_TEventI10EventParamE10SetHandlerI8TSweeperEEvPT_NS1_17MemberFuncHandlerIS4_E8FuncTypeE
         U _Znwj
         U __diab_Unwind_Resume
         U __diab_personality_v0
00000000 T _ZNK6TArrayIN11TGridLayout10LayoutInfoEEixEi
00000000 T _ZN11TGridLayout13SetColumnSizeEiNS_12LayoutMethodEi
00000000 T _ZN8TSweeperC1Eiiii
         U _ZN7TWindowC2EiiiiPS_NS_12WindowSizingENS_10WindowTypeE
         U _ZN10TGridPanelC1Eiiiiii
         U _ZN11TPushButtonC1Eiiii
         U _ZN6TLabelC1EiiiiRK8TWString
         U _ZN12TProgressBarC1Eiiii15OrientationTypeiii
         U _ZN10TMineFieldC1Eii
         U _ZN5TNode8OnResizeEv
         U _ZN5TNode6UpdateEv
         U _ZN5TFontC1EPKcj
         U _ZNK5TFontneERKS_
         U _ZN5TFontaSERKS_
         U _ZN5TNode18OnChildBoundChangeEP8TControl
         U _ZN5TFontD1Ev
         U _ZN8TControl18SetAlignmentPolicyE19HorizontalAlignment17VerticalAlignment
         U _ZN10TGridPanel15AddControlAtTopEP8TControlRK8GridCell
         U _ZN6TGroup10AddControlEP8TControli
         U _ZN10TMineFieldD1Ev
         U _ZN12TProgressBarD1Ev
         U _ZN6TLabelD1Ev
         U _ZN11TPushButtonD1Ev
         U _ZN10TGridPanelD1Ev
         U _ZN7TWindowD2Ev
         U _ZN12TApplicationC1ERK9TAppParam
         U _ZN7TWindow4ShowEi
         U _ZN12TApplication3RunEv
         U _ZN7TWindow7DestroyEv
         U _ZN12TApplicationD1Ev
         U _ZdlPv
00000dd4 T tilconMineSweeperTaskEntry
         U _ZN9TAppParamC1EPKc
         U _ZN9TAppParam3AddEPKc
         U _ZN9TAppParamD1Ev
00000e58 T tilconMineSweeper
         U taskSpawn
00000000 T _ZN10TExceptionD0Ev
00000000 T _ZN8TWStringC1ERK7TString
00000000 T _ZN7_TEventI10EventParamE15THandlerAdaptorD1Ev
00000000 T _ZN7_TEventI10EventParamE15THandlerAdaptorD0Ev
00000000 T _ZN7_TEventI10EventParamE17MemberFuncHandlerI8TSweeperED1Ev
00000000 T _ZN7_TEventI10EventParamE17MemberFuncHandlerI8TSweeperED0Ev
00000000 T _ZNK7_TEventI10EventParamE17MemberFuncHandlerI8TSweeperE6InvokeERS0_
00000000 T _ZN7_TEventI10EventParamE17MemberFuncHandlerI8TSweeperE3dupEv
00000edc T _ZN8TSweeperC2Eiiii
00000f04 T _ZN8TSweeperD1Ev
000010c4 T _ZN8TSweeperD0Ev
0000111c T _ZN8TSweeperD2Ev
0000113c T _ZN8TSweeper18ButtonClickHandlerER10EventParam
         U _ZN10TMineField9StartGameEi
0000118c T _ZN8TSweeper11UpdateStateEv
         U _ZN7TStringC1Ev
         U _ZN7TString6FormatEiPKcz
         U _ZN12TProgressBar8SetRangeEii
         U _ZN12TProgressBar11SetProgressEi
         U free
000013e4 T _ZN8TSweeper15ProgressHandlerER10EventParam
         U __cxa_pure_virtual
         U _ZTVN10__cxxabiv117__class_type_infoE
         U _ZTVN10__cxxabiv120__si_class_type_infoE
         U _ZTI7TWindow

tilconTwd.o:
00000040 d FLOAT_TEMP.2209
00000044 d FLOAT_TEMP.2210
00000d60 t _Z13tilconTwdTaskRK9TAppParam
00000048 d FLOAT_TEMP.2428
0000004c d FLOAT_TEMP.2439
00000050 d FLOAT_TEMP.2440
00000054 d FLOAT_TEMP.2441
00000058 d FLOAT_TEMP.2442
0000005c d FLOAT_TEMP.2443
00000060 d FLOAT_TEMP.2444
00000064 d FLOAT_TEMP.2445
00000000 d n.1781
00000068 d FLOAT_TEMP.2446
0000006c d FLOAT_TEMP.2447
00000004 d c.1780
         U _ZTVSt9exception
         U _ZTVSt13bad_exception
         U _ZTVSt9bad_alloc
00000000 V _ZTV10TException
         U _ZTV17TChildrenDelegate
         U _ZTV6TImage
         U _ZTV6TArrayIP5TNodeE
00000000 V _ZTVN7_TEventI10EventParamE15THandlerAdaptorE
         U _ZTV6TArrayI9ColorStopE
00000000 V _ZTVN7_TEventI10EventParamE17MemberFuncHandlerI17TOscilloscopeDemoEE
00000000 V _ZTI10TException
         U _ZTI17TChildrenDelegate
         U _ZTI6TArrayIP5TNodeE
00000000 V _ZTIN7_TEventI10EventParamE15THandlerAdaptorE
00000000 V _ZTIN7_TEventI10EventParamE17MemberFuncHandlerI17TOscilloscopeDemoEE
         U _ZTI6TImage
         U _ZTI6TArrayI9ColorStopE
         U _ZTISt9exception
         U _ZTISt13bad_exception
         U _ZTISt9bad_alloc
00000000 V _ZTS10TException
         U _ZTS17TChildrenDelegate
         U _ZTS6TArrayIP5TNodeE
00000000 V _ZTSN7_TEventI10EventParamE15THandlerAdaptorE
00000000 V _ZTSN7_TEventI10EventParamE17MemberFuncHandlerI17TOscilloscopeDemoEE
         U _ZTS6TImage
         U _ZTS6TArrayI9ColorStopE
         U _ZTSSt9exception
         U _ZTSSt13bad_exception
         U _ZTSSt9bad_alloc
00000000 T _ZN6TTimerC1Ev
00000000 T _ZN17TOscilloscopeDemoC1Ev
         U __frameinfo_used
         U _ZN7TWDFileC1Ev
00000058 T _ZN17TOscilloscopeDemoD1Ev
         U _ZN7TWDFileD1Ev
         U __diab_Unwind_Resume
         U __diab_personality_v0
00000000 T _ZN6TColorC1Ej
00000000 T _ZN6TColorC1ERKS_
00000000 T _ZN7_TEventI10EventParamE10SetHandlerI17TOscilloscopeDemoEEvPT_NS1_17MemberFuncHandlerIS4_E8FuncTypeE
         U _Znwj
00000000 T _ZN13TCustomVisualC1ERK11TCustomFill
         U _ZN11TCustomFillC1ERKS_
         U _ZN11TCustomFillD1Ev
00000000 T _ZN13TCustomVisualD1Ev
00000000 T _ZN13TCustomVisualaSERKS_
         U _ZN11TCustomFillaSERKS_
00000000 T _ZNK8_TMarginIiEneERKS0_
00000000 T _ZN10TChartBody8BodyInfoC1Ev
         U _ZN6TScale9ScaleInfoC1Ev
         U _ZN5TFontD1Ev
00000000 T _ZN10TChartBody8BodyInfoD1Ev
00000000 T _ZN12TextPropertyaSERKS_
         U _ZN5TFontaSERKS_
00000000 T _ZN6TScale9ScaleInfoaSERKS0_
00000000 T _ZN10TChartBody8BodyInfoaSERKS0_
00000000 T _ZNK6TArrayIN10TLineChart11ChannelInfoEEixEi
         U __cxa_allocate_exception
         U __cxa_throw
00000000 T _ZN10TExceptionD1Ev
00000000 T _ZN10TLineChart10ScrollData10InsertDataEf
         U __urem32
00000000 T _ZN10TLineChart9SweepData10InsertDataEf
00000000 T _ZN10TLineChart10InsertDataEif
         U _ZN5TNode6UpdateEv
000000c8 T _ZN17TOscilloscopeDemo4InitEPKc
         U _ZN7TStringC1EPKc
         U _ZN7TWDFile4LoadERK7TString
         U free
         U printf
         U _ZNK7TWDFile16GetControlByNameERK7TString
         U _ZN8TSpinBox11SetMinValueEi
         U _ZN8TSpinBox11SetMaxValueEi
         U _ZN10TSolidFillC1ERK6TColor
         U _ZN11TCustomFillC1ERK10TSolidFill
         U _ZN10TSolidFillD1Ev
         U _ZN5TNode18OnChildBoundChangeEP8TControl
         U _ZN5TNode8OnResizeEv
         U _ZN10TLineChart11SetDataSizeEj
         U _ZN10TChartBody15GenerateYLabelsERK8_TLinearIfERKNS_8BodyInfoER6TArrayI8TWStringE
         U _ZN10TLineChart13SetChannelPenEiRK4TPen
         U _ZN12TPixelBufferC1Ev
         U _ZN10TLineChart15SetChannelBrushEiRK6TBrush
         U _ZN12TPixelBufferD1Ev
         U _ZN6TTimer5StartEv
         U _ZN11TPushButton5ClickEv
         U _ZN12TRadioButton15ChangeSelectionEi
         U _ZN17TMultiStateButton11ChangeStateEi
         U _ZN8TSpinBox11ChangeValueEi
         U _ZN7TWindow4ShowEi
         U _ZN12TApplication6CreateERK9TAppParam
         U _ZN12TApplication3RunEv
         U _ZdlPv
         U _ZN12TApplication7DestroyEPS_
00000ea0 T tilconTwdTaskEntry
         U _ZN9TAppParamC1EPKc
         U _ZN9TAppParam3AddEPKc
         U _ZN9TAppParamD1Ev
00000f24 T tilconTwd
         U taskSpawn
00000000 T _ZN10TExceptionD0Ev
00000000 T _ZN7_TEventI10EventParamE15THandlerAdaptorD1Ev
00000000 T _ZN7_TEventI10EventParamE15THandlerAdaptorD0Ev
00000000 T _ZN7_TEventI10EventParamE17MemberFuncHandlerI17TOscilloscopeDemoED1Ev
00000000 T _ZN7_TEventI10EventParamE17MemberFuncHandlerI17TOscilloscopeDemoED0Ev
00000000 T _ZNK7_TEventI10EventParamE17MemberFuncHandlerI17TOscilloscopeDemoE6InvokeERS0_
00000000 T _ZN7_TEventI10EventParamE17MemberFuncHandlerI17TOscilloscopeDemoE3dupEv
00000000 T _ZN10TLineChart10ScrollData5ResetEv
00000000 T _ZN10TLineChart9SweepData5ResetEv
00000000 T _ZN10TLineChart9ResetDataEi
00000fa8 T _ZN17TOscilloscopeDemoC2Ev
00000fc8 T _ZN17TOscilloscopeDemoD2Ev
00001008 T _ZN17TOscilloscopeDemo18GenerateSampleDataEj
         U _ZNK12TRadioButton12GetSelectionEv
         U sin
         U rand
         U __rem32
000011fc T _ZN17TOscilloscopeDemo12TimerHandlerER10EventParam
00001238 T _ZN17TOscilloscopeDemo23CurveShapeButtonHandlerER10EventParam
000012d0 T _ZN17TOscilloscopeDemo22CurveModeButtonHanlderER10EventParam
00001334 T _ZN17TOscilloscopeDemo18ScaleButtonHandlerER10EventParam
         U _ZN10TLineChart19SetChannelAmplifierEif
00001374 T _ZN17TOscilloscopeDemo17OffsetSpinHandlerER10EventParam
         U _ZN10TLineChart16SetChannelOffsetEif
000013ac T _ZN17TOscilloscopeDemo17ExitButtonHandlerER10EventParam
         U _ZN12TApplication8InstanceEv
         U _ZN12TApplication4StopEi
         U __cxa_pure_virtual
         U _ZTVN10__cxxabiv117__class_type_infoE
         U _ZTVN10__cxxabiv120__si_class_type_infoE

tilconRadar.o:
00000038 d FLOAT_TEMP.2787
0000003c d FLOAT_TEMP.2788
00000040 d FLOAT_TEMP.2789
00000044 d FLOAT_TEMP.2790
00000048 d FLOAT_TEMP.3091
0000004c d FLOAT_TEMP.3092
00000050 d FLOAT_TEMP.3163
000015ec t _Z15tilconRadarTaskRK9TAppParam
00000054 d FLOAT_TEMP.3399
00000058 d FLOAT_TEMP.3466
0000005c d FLOAT_TEMP.3467
00000060 d FLOAT_TEMP.3468
00000064 d FLOAT_TEMP.3469
00000068 d FLOAT_TEMP.3470
00000000 V _ZTVSt9exception
         U _ZTVSt13bad_exception
         U _ZTVSt9bad_alloc
00000000 V _ZTV10TException
         U _ZTV17TChildrenDelegate
         U _ZTV6TImage
00000000 V _ZTVSt11logic_error
         U _ZTVSt12domain_error
         U _ZTVSt16invalid_argument
00000000 V _ZTVSt12length_error
         U _ZTVSt12out_of_range
         U _ZTVSt13runtime_error
         U _ZTVSt14overflow_error
         U _ZTVSt15underflow_error
         U _ZTVSt11range_error
         U _ZTV6TArrayIP5TNodeE
00000000 V _ZTVN7_TEventI10EventParamE15THandlerAdaptorE
         U _ZTV6TArrayI9ColorStopE
00000000 V _ZZNSt4listIPN9TRadarApp5PLANEESaIS2_EE8_IncsizeEjEs
00000000 V _ZTVN7_TEventI10EventParamE17MemberFuncHandlerI9TRadarAppEE
00000000 V _ZTI10TException
         U _ZTI17TChildrenDelegate
         U _ZTI6TArrayIP5TNodeE
00000000 V _ZTIN7_TEventI10EventParamE15THandlerAdaptorE
00000000 V _ZTIN7_TEventI10EventParamE17MemberFuncHandlerI9TRadarAppEE
         U _ZTI6TImage
         U _ZTI6TArrayI9ColorStopE
00000000 V _ZTISt9exception
         U _ZTISt13bad_exception
         U _ZTISt9bad_alloc
00000000 V _ZTISt11logic_error
         U _ZTISt12domain_error
         U _ZTISt16invalid_argument
00000000 V _ZTISt12length_error
         U _ZTISt12out_of_range
         U _ZTISt13runtime_error
         U _ZTISt14overflow_error
         U _ZTISt15underflow_error
         U _ZTISt11range_error
00000000 V _ZTS10TException
         U _ZTS17TChildrenDelegate
         U _ZTS6TArrayIP5TNodeE
00000000 V _ZTSN7_TEventI10EventParamE15THandlerAdaptorE
00000000 V _ZTSN7_TEventI10EventParamE17MemberFuncHandlerI9TRadarAppEE
         U _ZTS6TImage
         U _ZTS6TArrayI9ColorStopE
00000000 V _ZTSSt9exception
         U _ZTSSt13bad_exception
         U _ZTSSt9bad_alloc
00000000 V _ZTSSt11logic_error
         U _ZTSSt12domain_error
         U _ZTSSt16invalid_argument
00000000 V _ZTSSt12length_error
         U _ZTSSt12out_of_range
         U _ZTSSt13runtime_error
         U _ZTSSt14overflow_error
         U _ZTSSt15underflow_error
         U _ZTSSt11range_error
00000000 T _ZN6TColorC1Ej
00000000 T _ZNK6TColorneERKS_
00000000 T _ZN8TWStringC1EPKw
         U __frameinfo_used
         U __cxa_allocate_exception
         U __cxa_throw
00000000 T _ZN10TExceptionD1Ev
         U _Znaj
         U memcpy
00000000 T _ZN8TWStringaSERKS_
         U _ZdaPv
00000000 T _ZNK8TWStringneERKS_
00000000 T _ZN6_TRectIiEC1Ev
         U _ZN6_TRectIiE8nullRectE
00000000 T _ZN6_TRectIiEC1ERKS0_
00000000 T _ZN7_TEventI10EventParamE10SetHandlerI9TRadarAppEEvPT_NS1_17MemberFuncHandlerIS4_E8FuncTypeE
         U _Znwj
         U __diab_Unwind_Resume
         U __diab_personality_v0
00000000 T _ZN6TTimerC1Ev
00000000 T _ZNK8_TMarginIiEneERKS0_
00000000 T _ZNSt4listIPN9TRadarApp5PLANEESaIS2_EE8_BuynodeEv
00000000 T _ZNSt4listIPN9TRadarApp5PLANEESaIS2_EE5clearEv
         U _ZdlPv
00000000 T _ZNSt4listIPN9TRadarApp5PLANEESaIS2_EE5_TidyEv
00000000 T _ZN9TRadarAppC1ERK9TAppParam
         U _ZN12TApplicationC2ERK9TAppParam
         U _ZN7TWindowC1EiiiiPS_NS_12WindowSizingENS_10WindowTypeE
         U _ZN12TProgressBarC1Eiiii15OrientationTypeiii
         U _ZN11TPushButtonC1Eiiii
         U _ZN6TLabelC1EiiiiRK8TWString
         U _ZN10TGridPanelC1Eiiiiii
         U _ZN5TPathC1Ev
         U _ZN5TNode8OnResizeEv
         U _ZN5TNode6UpdateEv
         U _ZN8TControl18SetAlignmentPolicyE19HorizontalAlignment17VerticalAlignment
         U _ZN6TGroup10AddControlEP8TControli
         U _ZN5TNode18OnChildBoundChangeEP8TControl
         U _ZN10TGridPanel15AddControlAtTopEP8TControlRK8GridCell
         U __div32
         U _ZN5TFontC1EPKcj
         U _ZNK5TFontneERKS_
         U _ZN5TFontaSERKS_
         U _ZN5TFontD1Ev
         U _ZN5TPath6MoveToEff
         U _ZN5TPath6LineToEff
         U _ZN5TPath5CloseEv
         U _ZN5TPath5ScaleEff
         U _ZN5TPath6RotateEf
         U _ZN5TPathD1Ev
         U _ZN10TGridPanelD1Ev
         U _ZN6TLabelD1Ev
         U _ZN11TPushButtonD1Ev
         U _ZN12TProgressBarD1Ev
         U _ZN7TWindowD1Ev
         U _ZN12TApplicationD2Ev
00000000 T _ZN6TColorC1ERKS_
00000000 T _ZN6TPaintC1ERK6TColor
         U _ZN9TGradientC1Ev
         U _ZN12TPixelBufferC1Ev
         U _ZN9TGradientD1Ev
00000000 T _ZN6TPaintD1Ev
         U _ZN12TPixelBufferD1Ev
00000000 T _ZN8TWStringC1ERK7TString
00000000 T _ZNSt4listIPN9TRadarApp5PLANEESaIS2_EE8_BuynodeEPNSt9_List_nodIS2_S3_E5_NodeES8_RKS2_
00000000 T _ZNSs5eraseEjj
         U _ZNKSt12_String_base5_XranEv
         U memmove
00000000 T _ZNSs5_TidyEbj
00000000 T _ZNSs5_CopyEjj
         U __udiv32
         U __cxa_end_catch
         U __cxa_begin_catch
         U __cxa_rethrow
00000000 T _ZNSs5_GrowEjb
         U _ZNKSt12_String_base5_XlenEv
00000000 T _ZNSs6assignERKSsjj
00000000 T _ZNSs7_InsideEPKc
00000000 T _ZNSs6assignEPKcj
00000000 T _ZNSt11logic_errorC1ERKSs
00000000 T _ZNSt4listIPN9TRadarApp5PLANEESaIS2_EE8_IncsizeEj
         U strlen
00000000 T _ZNSt12length_errorD1Ev
         U __cxa_free_exception
00000000 T _ZNSt4listIPN9TRadarApp5PLANEESaIS2_EE7_InsertENS4_8iteratorERKS2_
00000d60 T _ZN9TRadarApp8AddPlaneEv
         U _ZN7TStringC1Ev
         U rand
         U __rem32
         U _ZN7TString6FormatEiPKcz
         U free
0000105c T _ZN9TRadarApp3RunEv
         U _ZN8TPainterC1Ev
         U _ZN5TPathC1ERK5TFontRK8TWString
         U _ZNK5TPath12GetBoundRectEv
         U _ZN12TPixelBufferC1Eii
         U _ZN8TPainter10BeginPaintER12TPixelBuffer
         U _ZN8TPainter8SetBrushERK6TBrush
         U _ZN8TPainter8FillRectEiiii
         U _ZN14TVectorPainter15TranslateMatrixEff
         U _ZN14TVectorPainter12SetFillPaintERK6TPaint
         U _ZN14TVectorPainter8FillPathERK5TPath
         U _ZN8TPainter8EndPaintEv
         U _ZN12TApplication8InstanceEv
         U _ZN7TWindow4rootE
         U _ZN8TPainter10BeginPaintER7TWindow
         U _ZN12TPixelBufferC1ERKS_
         U _ZN7TWindow14InvalidateRectERK6_TRectIiE
         U _ZN6_TRectIiE7maxRectE
         U _ZN7TWindow6CreateEv
         U _ZN6TTimer5StartEv
         U _ZN12TApplication3RunEv
         U _ZN6TTimer4StopEv
         U _ZN7TWindow7DestroyEv
         U _ZN8TPainterD1Ev
00000000 T _ZN9TRadarAppD1Ev
00001660 T tilconRadarTaskEntry
         U _ZN9TAppParamC1EPKc
         U _ZN9TAppParam3AddEPKc
         U _ZN9TAppParamD1Ev
0000170c T tilconRadar
         U taskSpawn
00000000 T _ZN10TExceptionD0Ev
00000000 T _ZN6_TRectIiEC1ERK7_TPointIiERK6_TSizeIiE
00000000 T _ZNK6_TRectIiEmiERK7_TPointIiE
00000000 T _ZN7_TEventI10EventParamE15THandlerAdaptorD1Ev
00000000 T _ZN7_TEventI10EventParamE15THandlerAdaptorD0Ev
00000000 T _ZN7_TEventI10EventParamE17MemberFuncHandlerI9TRadarAppED1Ev
00000000 T _ZN7_TEventI10EventParamE17MemberFuncHandlerI9TRadarAppED0Ev
00000000 T _ZNK7_TEventI10EventParamE17MemberFuncHandlerI9TRadarAppE6InvokeERS0_
00000000 T _ZN7_TEventI10EventParamE17MemberFuncHandlerI9TRadarAppE3dupEv
00001790 T _ZN9TRadarAppC2ERK9TAppParam
000017b0 T _ZN9TRadarApp9DrawRadarEv
         U _ZNK7TWindow13GetWindowRectEv
         U _ZN10TSolidFillC1ERK6TColor
         U _ZNK10TSolidFill8FillRectER8TPainterRK6_TRectIiE
         U _ZN8TPainter6SetPenERK4TPen
         U _ZN8TPainter10DrawCircleERK6_TRectIiE
         U _ZN14TVectorPainter14SetStrokePaintERK6TPaint
         U _ZN14TVectorPainter10StrokePathERK5TPath
         U _ZN14TVectorPainter12RotateMatrixEf
         U _ZN8TPainter11DrawUCSTextEPKwiii
         U _ZN14TVectorPainter11ResetMatrixEv
         U _ZN8TPainter12SetTextColorERK6TColor
         U _ZN8TPainter7SetFontERK5TFont
         U _ZN8TPainter11DrawUCSTextERK8TWStringii
         U _ZN10TSolidFillD1Ev
00000000 T _ZNSt4listIPN9TRadarApp5PLANEESaIS2_EE5eraseENS4_8iteratorE
00001e58 T _ZN9TRadarApp11RemovePlaneEv
00001ee8 T _ZN9TRadarApp10UpatePlaneEv
         U cos
         U sin
000021f0 T _ZN9TRadarApp12TimerHandlerER10EventParam
         U _ZN7TWindow13SetWindowRectERK6_TRectIiE
         U _ZN7TWindow4ShowEi
         U _ZN12TProgressBar11SetProgressEi
         U _ZN7TWindow4HideEv
00002474 T _ZN9TRadarApp11AnimHandlerER10EventParam
000024a4 T _ZN9TRadarApp13WindowHandlerER10EventParam
00002500 T _ZN9TRadarApp16AddButtonHandlerER10EventParam
00002670 T _ZN9TRadarApp19RemoveButtonHandlerER10EventParam
00000000 T _ZNSt9exceptionD1Ev
00000000 T _ZNSt9exceptionD0Ev
00000000 T _ZNKSt9exception4whatEv
00000000 T _ZNSt11logic_errorD1Ev
         U __cxa_call_unexpected
00000000 T _ZNSt11logic_errorD0Ev
00000000 T _ZNKSt11logic_error4whatEv
00000000 T _ZNSt12length_errorD0Ev
         U __cxa_pure_virtual
         U _ZTVN10__cxxabiv117__class_type_infoE
         U _ZTVN10__cxxabiv120__si_class_type_infoE
