Symbol _ZTVSt9exception {
}
Symbol _ZTVSt13bad_exception {
}
Symbol _ZTVSt9bad_alloc {
}
Symbol _ZTV10TException {
}
Symbol _ZTV17TChildrenDelegate {
}
Symbol _ZTV6TImage {
}
Symbol _ZTV10TilconDemo {
}
Symbol _ZTV15RandomCurveDemo {
}
Symbol _ZTV6TArrayIP5TNodeE {
}
Symbol _ZTVN7_TEventI10EventParamE15THandlerAdaptorE {
}
Symbol _ZTV6TArrayI9ColorStopE {
}
Symbol _ZTVN7_TEventI10EventParamE17MemberFuncHandlerI15RandomCurveDemoEE {
}
Symbol _ZTI10TException {
}
Symbol _ZTI17TChildrenDelegate {
}
Symbol _ZTI6TArrayIP5TNodeE {
}
Symbol _ZTIN7_TEventI10EventParamE15THandlerAdaptorE {
}
Symbol _ZTIN7_TEventI10EventParamE17MemberFuncHandlerI15RandomCurveDemoEE {
}
Symbol _ZTI6TImage {
}
Symbol _ZTI6TArrayI9ColorStopE {
}
Symbol _ZTI10TilconDemo {
}
Symbol _ZTI15RandomCurveDemo {
}
Symbol _ZTISt9exception {
}
Symbol _ZTISt13bad_exception {
}
Symbol _ZTISt9bad_alloc {
}
Symbol _ZTS10TException {
}
Symbol _ZTS17TChildrenDelegate {
}
Symbol _ZTS6TArrayIP5TNodeE {
}
Symbol _ZTSN7_TEventI10EventParamE15THandlerAdaptorE {
}
Symbol _ZTSN7_TEventI10EventParamE17MemberFuncHandlerI15RandomCurveDemoEE {
}
Symbol _ZTS6TImage {
}
Symbol _ZTS6TArrayI9ColorStopE {
}
Symbol _ZTS10TilconDemo {
}
Symbol _ZTS15RandomCurveDemo {
}
Symbol _ZTSSt9exception {
}
Symbol _ZTSSt13bad_exception {
}
Symbol _ZTSSt9bad_alloc {
}
Symbol _ZN10TExceptionD1Ev {
}
Symbol _ZN10TExceptionD0Ev {
}
Symbol _ZdlPv {
}
Symbol _ZN6TColorC1Ej {
}
Symbol _ZN6TColorC1ERKS_ {
}
Symbol _ZN8TWStringC1EPKw {
}
Symbol __frameinfo_used {
}
Symbol __cxa_allocate_exception {
}
Symbol __cxa_throw {
}
Symbol _Znaj {
}
Symbol memcpy {
}
Symbol _ZN6_TRectIiEC1ERKS0_ {
}
Symbol _ZN6_TRectIiEC1ERK7_TPointIiERK6_TSizeIiE {
}
Symbol _ZNK6_TRectIiEmiERK7_TPointIiE {
}
Symbol _ZN7_TEventI10EventParamE10SetHandlerI15RandomCurveDemoEEvPT_NS1_17MemberFuncHandlerIS4_E8FuncTypeE {
}
Symbol _Znwj {
}
Symbol __diab_Unwind_Resume {
}
Symbol __diab_personality_v0 {
}
Symbol _ZN7_TEventI10EventParamE15THandlerAdaptorD1Ev {
}
Symbol _ZN7_TEventI10EventParamE15THandlerAdaptorD0Ev {
}
Symbol _ZN7_TEventI10EventParamE17MemberFuncHandlerI15RandomCurveDemoED1Ev {
}
Symbol _ZN7_TEventI10EventParamE17MemberFuncHandlerI15RandomCurveDemoED0Ev {
}
Symbol _ZNK7_TEventI10EventParamE17MemberFuncHandlerI15RandomCurveDemoE6InvokeERS0_ {
}
Symbol _ZN7_TEventI10EventParamE17MemberFuncHandlerI15RandomCurveDemoE3dupEv {
}
Symbol _ZNK10TSharedPtrI9ImageDataE5DerefEv {
}
Symbol _ZN9ImageDataD1Ev {
}
Symbol _ZN6TImageD1Ev {
}
Symbol _ZN6TImageD0Ev {
}
Symbol _ZN6TPaintC1ERK6TColor {
}
Symbol _ZN9TGradientC1Ev {
}
Symbol _ZN12TPixelBufferC1Ev {
}
Symbol _ZN9TGradientD1Ev {
}
Symbol _ZN6TPaintD1Ev {
}
Symbol _ZN12TPixelBufferD1Ev {
}
Symbol _ZN6TTimerC1Ev {
}
Symbol _ZNK8_TMarginIiEneERKS0_ {
}
Symbol _ZNK6TArrayIN11TGridLayout10LayoutInfoEEixEi {
}
Symbol _ZN11TGridLayout10SetRowSizeEiNS_12LayoutMethodEi {
}
Symbol _ZN11TGridLayout13SetColumnSizeEiNS_12LayoutMethodEi {
}
Symbol _ZN10TilconDemoC1Eiiiiii {
}
Symbol _ZN10TGridPanelC2Eiiiiii {
}
Symbol _ZN5TNode6UpdateEv {
}
Symbol _ZN5TNode18OnChildBoundChangeEP8TControl {
}
Symbol _ZN5TNode8OnResizeEv {
}
Symbol _ZN10TGridPanelD2Ev {
}
Symbol _ZN10TilconDemoD1Ev {
}
Symbol _ZN10TilconDemoD0Ev {
}
Symbol _ZN13TVectorRandomC1Ev {
}
Symbol __div32 {
}
Symbol rand {
}
Symbol _ZN13TVectorRandomC2Ev {
}
Symbol _ZN13TVectorRandomD1Ev {
}
Symbol _ZN13TVectorRandomD2Ev {
}
Symbol _ZN13TVectorRandom4DrawER8TPainter {
}
Symbol cos {
}
Symbol sin {
}
Symbol _ZN5TPathC1EjPKhPKf {
}
Symbol _ZN14TVectorPainter14SetStrokePaintERK6TPaint {
}
Symbol _ZN14TVectorPainter10StrokePathERK5TPath {
}
Symbol _ZN14TVectorPainter12SetFillPaintERK6TPaint {
}
Symbol _ZN14TVectorPainter8FillPathERK5TPath {
}
Symbol _ZN5TPathD1Ev {
}
Symbol _ZN15RandomCurveDemoC1Ev {
}
Symbol _ZN11TCustomFillC1Ev {
}
Symbol _ZN14TCustomControlC1Eiiii {
}
Symbol _ZN10TGridPanelC1Eiiiiii {
}
Symbol _ZN6TLabelC1EiiiiRK8TWString {
}
Symbol _ZdaPv {
}
Symbol _ZN12TRadioButtonC1Eiiii {
}
Symbol _ZN9TCheckBoxC1EiiiiRK8TWString {
}
Symbol _ZN10TGridPanel10AddControlEP8TControliRK8GridCell {
}
Symbol _ZN12TRadioButton7AddItemERK8TWString {
}
Symbol _ZN12TRadioButton15ChangeSelectionEi {
}
Symbol _ZN12TPixelBufferC1Eii {
}
Symbol _ZN8TPainterC1Ev {
}
Symbol _ZN8TPainter10BeginPaintER12TPixelBuffer {
}
Symbol _ZN8TPainter8SetBrushERK6TBrush {
}
Symbol _ZN8TPainter8FillRectERK6_TRectIiE {
}
Symbol _ZN8TPainter8EndPaintEv {
}
Symbol _ZN6TImageC1ERK12TPixelBuffer {
}
Symbol _ZN12TPixelBufferC1ERK6TImage {
}
Symbol _ZN12TPatternFillC1ERK12TPixelBuffer {
}
Symbol _ZN11TCustomFillaSERK12TPatternFill {
}
Symbol _ZN12TPatternFillD1Ev {
}
Symbol _ZN8TPainterD1Ev {
}
Symbol _ZN9TCheckBoxD1Ev {
}
Symbol _ZN12TRadioButtonD1Ev {
}
Symbol _ZN6TLabelD1Ev {
}
Symbol _ZN10TGridPanelD1Ev {
}
Symbol _ZN14TCustomControlD1Ev {
}
Symbol _ZN11TCustomFillD1Ev {
}
Symbol _ZN15RandomCurveDemoC2Ev {
}
Symbol _ZN15RandomCurveDemoD1Ev {
}
Symbol _ZN15RandomCurveDemoD0Ev {
}
Symbol _ZN15RandomCurveDemoD2Ev {
}
Symbol _ZN15RandomCurveDemo12PaintHandlerER10EventParam {
}
Symbol _ZNK11TCustomFill8FillRectER8TPainterRK6_TRectIiE {
}
Symbol _ZN14TVectorPainter15TranslateMatrixEff {
}
Symbol _ZN15RandomCurveDemo12TimerHandlerER10EventParam {
}
Symbol _ZN15RandomCurveDemo12RadioHandlerER10EventParam {
}
Symbol _ZN15RandomCurveDemo8OnAttachEv {
}
Symbol _ZN6TTimer5StartEv {
}
Symbol _ZN15RandomCurveDemo8OnDetachEv {
}
Symbol _ZN6TTimer4StopEv {
}
Symbol __cxa_pure_virtual {
}
Symbol _ZTVN10__cxxabiv117__class_type_infoE {
}
Symbol _ZTVN10__cxxabiv120__si_class_type_infoE {
}
Symbol _ZTI10TGridPanel {
}
Symbol _ZTV8FontDemo {
}
Symbol _ZTVN7_TEventI10EventParamE17MemberFuncHandlerI8FontDemoEE {
}
Symbol _ZTIN7_TEventI10EventParamE17MemberFuncHandlerI8FontDemoEE {
}
Symbol _ZTI8FontDemo {
}
Symbol _ZTSN7_TEventI10EventParamE17MemberFuncHandlerI8FontDemoEE {
}
Symbol _ZTS8FontDemo {
}
Symbol _ZN6_TRectIiEC1Ev {
}
Symbol _ZN6_TRectIiE8nullRectE {
}
Symbol _ZN7_TEventI10EventParamE10SetHandlerI8FontDemoEEvPT_NS1_17MemberFuncHandlerIS4_E8FuncTypeE {
}
Symbol _ZN7_TEventI10EventParamE17MemberFuncHandlerI8FontDemoED1Ev {
}
Symbol _ZN7_TEventI10EventParamE17MemberFuncHandlerI8FontDemoED0Ev {
}
Symbol _ZNK7_TEventI10EventParamE17MemberFuncHandlerI8FontDemoE6InvokeERS0_ {
}
Symbol _ZN7_TEventI10EventParamE17MemberFuncHandlerI8FontDemoE3dupEv {
}
Symbol _ZN8FontDemoC1Ev {
}
Symbol _ZN12TRadioButton12SetSelectionEi {
}
Symbol _ZN8FontDemoC2Ev {
}
Symbol _ZN8FontDemoD1Ev {
}
Symbol _ZN8FontDemoD0Ev {
}
Symbol _ZN8FontDemoD2Ev {
}
Symbol _ZN8FontDemo11DrawBmfFontER8TPainterRK6_TRectIiE {
}
Symbol _ZN5TFontC1EPKcj {
}
Symbol _ZNK5TFont10GetMetricsER11FontMetrics {
}
Symbol _ZNK5TFont12GetTextWidthEPKwj {
}
Symbol _ZN8TPainter6SetPenERK4TPen {
}
Symbol _ZN8TPainter8DrawLineERK7_TPointIiES3_ {
}
Symbol _ZN8TPainter7SetFontERK5TFont {
}
Symbol _ZN8TPainter11DrawUCSTextERK8TWStringii {
}
Symbol __cxa_vec_dtor {
}
Symbol _ZN5TFontD1Ev {
}
Symbol _ZN8FontDemo14DrawVectorFontER8TPainterRK6_TRectIiE {
}
Symbol _ZN8FontDemo12PaintHandlerER10EventParam {
}
Symbol _ZNK12TRadioButton12GetSelectionEv {
}
Symbol _ZN8FontDemo12RadioHandlerER10EventParam {
}
Symbol _ZN8FontDemo8OnAttachEv {
}
Symbol _ZN8FontDemo8OnDetachEv {
}
Symbol _ZTV11TTabbedDemo {
}
Symbol _ZTVN7_TEventI10EventParamE17MemberFuncHandlerI11TTabbedDemoEE {
}
Symbol _ZTIN7_TEventI10EventParamE17MemberFuncHandlerI11TTabbedDemoEE {
}
Symbol _ZTI11TTabbedDemo {
}
Symbol _ZTSN7_TEventI10EventParamE17MemberFuncHandlerI11TTabbedDemoEE {
}
Symbol _ZTS11TTabbedDemo {
}
Symbol _ZN8TWStringaSERKS_ {
}
Symbol _ZNK8TWStringneERKS_ {
}
Symbol _ZN7_TEventI10EventParamE10SetHandlerI11TTabbedDemoEEvPT_NS1_17MemberFuncHandlerIS4_E8FuncTypeE {
}
Symbol _ZN11TTabbedDemoC1Ev {
}
Symbol _ZN7TWindowC2EiiiiPS_NS_12WindowSizingENS_10WindowTypeE {
}
Symbol _ZN4TTabC1Eiiiii {
}
Symbol _ZN11TPushButtonC1Eiiii {
}
Symbol _ZN8TControl18SetAlignmentPolicyE19HorizontalAlignment17VerticalAlignment {
}
Symbol _ZN4TTab10SetTabTextEiRK8TWString {
}
Symbol _ZN6TGroup10AddControlEP8TControli {
}
Symbol _ZN18VectorGraphicsDemoC1Ev {
}
Symbol _ZN8AnimDemoC1Ev {
}
Symbol _ZN11PainterDemoC1Ev {
}
Symbol _ZN13PrimitiveDemoC1Ev {
}
Symbol _ZN10WidgetDemoC1Ev {
}
Symbol _ZN13UpdateGUIDemoC1Ev {
}
Symbol _ZN4TTab10AddControlEiP8TControli {
}
Symbol _ZN11TPushButtonD1Ev {
}
Symbol _ZN4TTabD1Ev {
}
Symbol _ZN7TWindowD2Ev {
}
Symbol _ZN11TTabbedDemo4ShowEv {
}
Symbol _ZN7TWindow4ShowEi {
}
Symbol _ZN4TTab8SwitchToEi {
}
Symbol _ZN12TApplicationC1ERK9TAppParam {
}
Symbol _ZN12TApplication3RunEv {
}
Symbol _ZN7TWindow7DestroyEv {
}
Symbol _ZN12TApplicationD1Ev {
}
Symbol tilconBasicTaskEntry {
}
Symbol _ZN9TAppParamC1EPKc {
}
Symbol _ZN9TAppParam3AddEPKc {
}
Symbol _ZN9TAppParamD1Ev {
}
Symbol tilconBasic {
}
Symbol taskSpawn {
}
Symbol _ZN7_TEventI10EventParamE17MemberFuncHandlerI11TTabbedDemoED1Ev {
}
Symbol _ZN7_TEventI10EventParamE17MemberFuncHandlerI11TTabbedDemoED0Ev {
}
Symbol _ZNK7_TEventI10EventParamE17MemberFuncHandlerI11TTabbedDemoE6InvokeERS0_ {
}
Symbol _ZN7_TEventI10EventParamE17MemberFuncHandlerI11TTabbedDemoE3dupEv {
}
Symbol _ZN11TTabbedDemoC2Ev {
}
Symbol _ZN11TTabbedDemoD1Ev {
}
Symbol _ZN4TTab13RemoveControlEiP8TControl {
}
Symbol _ZN11TTabbedDemoD0Ev {
}
Symbol _ZN11TTabbedDemoD2Ev {
}
Symbol _ZN11TTabbedDemo16TabChangeHandlerER10EventParam {
}
Symbol _ZN11TTabbedDemo17QuitButtonHandlerER10EventParam {
}
Symbol _ZN12TApplication8InstanceEv {
}
Symbol _ZN12TApplication4StopEi {
}
Symbol _ZTI7TWindow {
}
Symbol _ZTV13PrimitiveDemo {
}
Symbol _ZTVN7_TEventI10EventParamE17MemberFuncHandlerI13PrimitiveDemoEE {
}
Symbol _ZTIN7_TEventI10EventParamE17MemberFuncHandlerI13PrimitiveDemoEE {
}
Symbol _ZTI13PrimitiveDemo {
}
Symbol _ZTSN7_TEventI10EventParamE17MemberFuncHandlerI13PrimitiveDemoEE {
}
Symbol _ZTS13PrimitiveDemo {
}
Symbol _ZN7_TEventI10EventParamE10SetHandlerI13PrimitiveDemoEEvPT_NS1_17MemberFuncHandlerIS4_E8FuncTypeE {
}
Symbol _ZN7_TEventI10EventParamE17MemberFuncHandlerI13PrimitiveDemoED1Ev {
}
Symbol _ZN7_TEventI10EventParamE17MemberFuncHandlerI13PrimitiveDemoED0Ev {
}
Symbol _ZNK7_TEventI10EventParamE17MemberFuncHandlerI13PrimitiveDemoE6InvokeERS0_ {
}
Symbol _ZN7_TEventI10EventParamE17MemberFuncHandlerI13PrimitiveDemoE3dupEv {
}
Symbol _ZN13PrimitiveDemo16FormationPriDataEv {
}
Symbol __rem32 {
}
Symbol _ZN13PrimitiveDemoC2Ev {
}
Symbol _ZN13PrimitiveDemoD1Ev {
}
Symbol _ZN13PrimitiveDemoD0Ev {
}
Symbol _ZN13PrimitiveDemoD2Ev {
}
Symbol _ZN13PrimitiveDemo12PaintHandlerER10EventParam {
}
Symbol _ZN6TImage16defaultImageDataE {
}
Symbol _ZN12TPixelBufferaSERKS_ {
}
Symbol _ZN8TPainter10DrawCircleERK6_TRectIiE {
}
Symbol _ZN8TPainter11DrawEllipseERK6_TRectIiE {
}
Symbol _ZN8TPainter7DrawArcERK6_TRectIiERK7_TPointIiES7_ {
}
Symbol _ZN8TPainter7DrawPieERK6_TRectIiERK7_TPointIiES7_ {
}
Symbol _ZN13PrimitiveDemo13UpdateHandlerER10EventParam {
}
Symbol _ZN13PrimitiveDemo12TimerHandlerER10EventParam {
}
Symbol _ZN13PrimitiveDemo8OnAttachEv {
}
Symbol _ZN13PrimitiveDemo8OnDetachEv {
}
Symbol _ZTV10WidgetDemo {
}
Symbol _ZTVN7_TEventI10EventParamE17MemberFuncHandlerI10WidgetDemoEE {
}
Symbol _ZTIN7_TEventI10EventParamE17MemberFuncHandlerI10WidgetDemoEE {
}
Symbol _ZTI10WidgetDemo {
}
Symbol _ZTSN7_TEventI10EventParamE17MemberFuncHandlerI10WidgetDemoEE {
}
Symbol _ZTS10WidgetDemo {
}
Symbol _ZN6TPanelC1Eiiii {
}
Symbol _ZN15AlignmentPolicyC1Ev {
}
Symbol _ZN8GridCellC1Eii {
}
Symbol _ZN7_TEventI10EventParamE10SetHandlerI10WidgetDemoEEvPT_NS1_17MemberFuncHandlerIS4_E8FuncTypeE {
}
Symbol _ZN7_TEventI10EventParamE17MemberFuncHandlerI10WidgetDemoED1Ev {
}
Symbol _ZN7_TEventI10EventParamE17MemberFuncHandlerI10WidgetDemoED0Ev {
}
Symbol _ZNK7_TEventI10EventParamE17MemberFuncHandlerI10WidgetDemoE6InvokeERS0_ {
}
Symbol _ZN7_TEventI10EventParamE17MemberFuncHandlerI10WidgetDemoE3dupEv {
}
Symbol _ZN8_TMarginIiEC1Ei {
}
Symbol _ZN8TControl9SetMarginERK8_TMarginIiE {
}
Symbol _ZN8TControl12SetFrameTypeE9FrameType {
}
Symbol _ZN8TControl6UpdateEv {
}
Symbol _ZN8TControl15UpdateBoundRectEv {
}
Symbol _ZN11TGridLayout15SetFixedRowSizeEii {
}
Symbol _ZN11TGridLayout18SetFixedColumnSizeEii {
}
Symbol _ZN6TLabel7SetTextERK8TWString {
}
Symbol _ZN8TListBox18SetColumnWidthModeENS_15ColumnWidthModeE {
}
Symbol _ZN9TComboBox7AddItemERK8TWString {
}
Symbol _ZN8TListBox6AddRowERK8TWStringi {
}
Symbol _ZN10TilconDemoC2Eiiiiii {
}
Symbol _ZN9TComboBoxC1Eiiii {
}
Symbol _ZN10TScrollBarC1Eiiii15OrientationTypeiii {
}
Symbol _ZN11TScrollAreaC1Eiiiiii {
}
Symbol _ZN7TSliderC1Eiiii15OrientationTypeiii {
}
Symbol _ZN15TSingleLineEditC1EiiiiRK8TWString {
}
Symbol _ZN12TProgressBarC1Eiiii15OrientationTypeiii {
}
Symbol _ZN10TTextTableC1Eiiiiii {
}
Symbol _ZN8TSpinBoxC1Eiiii {
}
Symbol _ZN8TListBoxC1Eiiiii {
}
Symbol __cxa_vec_ctor {
}
Symbol _ZN6TPanelD1Ev {
}
Symbol _ZN8TControl7SetRectERK6_TRectIiE {
}
Symbol _ZN8TListBox19SetColumnHeaderTextEiRK8TWString {
}
Symbol _ZN8TListBox19SetFixedColumnWidthEii {
}
Symbol _ZN8TListBox11SetItemTextEiiRK8TWString {
}
Symbol _ZN9TComboBox12SetSelectionEi {
}
Symbol _ZN8TListBoxD1Ev {
}
Symbol _ZN8TSpinBoxD1Ev {
}
Symbol _ZN10TTextTableD1Ev {
}
Symbol _ZN12TProgressBarD1Ev {
}
Symbol _ZN15TSingleLineEditD1Ev {
}
Symbol _ZN7TSliderD1Ev {
}
Symbol _ZN11TScrollAreaD1Ev {
}
Symbol _ZN10TScrollBarD1Ev {
}
Symbol _ZN9TComboBoxD1Ev {
}
Symbol _ZN10WidgetDemoC2Ev {
}
Symbol _ZN10WidgetDemoD1Ev {
}
Symbol _ZN10WidgetDemoD0Ev {
}
Symbol _ZN10WidgetDemoD2Ev {
}
Symbol _ZN10WidgetDemo18SizingRadioHandlerER10EventParam {
}
Symbol _ZN10WidgetDemo14HaRadioHandlerER10EventParam {
}
Symbol _ZN10WidgetDemo14VaRadioHandlerER10EventParam {
}
Symbol _ZN10WidgetDemo8OnAttachEv {
}
Symbol _ZN10WidgetDemo8OnDetachEv {
}
Symbol _ZTV8AnimDemo {
}
Symbol _ZTV6TArrayIN16TAnimationHelper7CommandEE {
}
Symbol _ZTVN7_TEventI10EventParamE17MemberFuncHandlerI8AnimDemoEE {
}
Symbol _ZTIN7_TEventI10EventParamE17MemberFuncHandlerI8AnimDemoEE {
}
Symbol _ZTI6TArrayIN16TAnimationHelper7CommandEE {
}
Symbol _ZTI8AnimDemo {
}
Symbol _ZTSN7_TEventI10EventParamE17MemberFuncHandlerI8AnimDemoEE {
}
Symbol _ZTS6TArrayIN16TAnimationHelper7CommandEE {
}
Symbol _ZTS8AnimDemo {
}
Symbol _ZN6_TRectIiEC1ERK6_TSizeIiE {
}
Symbol _ZNK6_TRectIiE6AdjustERK8_TMarginIiE {
}
Symbol _ZN7_TEventI10EventParamED1Ev {
}
Symbol _ZN7_TEventI10EventParamE10SetHandlerI8AnimDemoEEvPT_NS1_17MemberFuncHandlerIS4_E8FuncTypeE {
}
Symbol _ZN7_TEventI10EventParamE17MemberFuncHandlerI8AnimDemoED1Ev {
}
Symbol _ZN7_TEventI10EventParamE17MemberFuncHandlerI8AnimDemoED0Ev {
}
Symbol _ZNK7_TEventI10EventParamE17MemberFuncHandlerI8AnimDemoE6InvokeERS0_ {
}
Symbol _ZN7_TEventI10EventParamE17MemberFuncHandlerI8AnimDemoE3dupEv {
}
Symbol _ZN7_TPointIfEC1Ev {
}
Symbol _ZN7_TPointIfED1Ev {
}
Symbol _ZN9TGradientC1ERKS_ {
}
Symbol _ZN6TPaintC1ERK9TGradient {
}
Symbol _ZN13TCustomVisualC1ERK11TCustomFill {
}
Symbol _ZN11TCustomFillC1ERKS_ {
}
Symbol _ZN13TCustomVisualD1Ev {
}
Symbol _ZN13TCustomVisualaSERKS_ {
}
Symbol _ZN11TCustomFillaSERKS_ {
}
Symbol _ZN6TArrayIN16TAnimationHelper7CommandEED1Ev {
}
Symbol _ZN6TArrayIN16TAnimationHelper7CommandEED0Ev {
}
Symbol _ZN6TArrayIN16TAnimationHelper7CommandEE13RoundCapacityEi {
}
Symbol _ZN6TArrayIN16TAnimationHelper7CommandEE8ExpandAtEii {
}
Symbol _ZN6TArrayIN16TAnimationHelper7CommandEE8InsertAtEiRKS1_ {
}
Symbol _ZN6TArrayIN16TAnimationHelper7CommandEE5ClearEv {
}
Symbol _ZNK6TArrayIN16TAnimationHelper7CommandEEixEi {
}
Symbol _ZN16TAnimationHelperC1Ev {
}
Symbol _ZN16TAnimationHelperC2Ev {
}
Symbol _ZNK16TAnimationHelper11LastCommandEv {
}
Symbol _ZN16TAnimationHelper11nullCommandE {
}
Symbol _ZN16TAnimationHelper10AddCommandEi {
}
Symbol _ZN16TAnimationHelper10AddCommandEffi {
}
Symbol _ZN16TAnimationHelper10AddCommandEffffi {
}
Symbol _ZN16TAnimationHelper12ClearCommandEv {
}
Symbol _ZN16TAnimationHelper4StepEv {
}
Symbol _ZN8TControl11SetPositionERK7_TPointIiE {
}
Symbol _ZN16TAnimationHelperD1Ev {
}
Symbol _ZN10TGridPanel15AddControlAtTopEP8TControlRK8GridCell {
}
Symbol _ZN11TCustomFillC1ERK12TPatternFill {
}
Symbol _ZN9TGradientC1EffffjPK6TColorPKf {
}
Symbol _ZN14TVectorPainter12SetBlendModeE9BlendMode {
}
Symbol _ZN5TPathC1ERK6_TRectIiE {
}
Symbol _ZN14TVectorPainter10StrokePathEPK7_TPointIfEji {
}
Symbol _ZN10TImageFillC1ERK12TPixelBuffer {
}
Symbol _ZN11TCustomFillC1ERK10TImageFill {
}
Symbol _ZN10TImageFillD1Ev {
}
Symbol _ZN8AnimDemoC2Ev {
}
Symbol _ZN8AnimDemoD1Ev {
}
Symbol _ZN8AnimDemoD0Ev {
}
Symbol _ZN8AnimDemoD2Ev {
}
Symbol _ZN8AnimDemo16AnimTimerHandlerER10EventParam {
}
Symbol _ZN8AnimDemo24FormationChangeAnimationEv {
}
Symbol _ZN8AnimDemo19RandomMoveAnimationEv {
}
Symbol _ZN8AnimDemo18FormatRadioHandlerER10EventParam {
}
Symbol _ZN8AnimDemo18SpeedSliderHandlerER10EventParam {
}
Symbol _ZN8AnimDemo12SetAnimationEi {
}
Symbol _ZN8AnimDemo8OnAttachEv {
}
Symbol _ZN8AnimDemo8OnDetachEv {
}
Symbol _ZN17TVectorStringPathC1Ev {
}
Symbol _ZN5TPathC1Ev {
}
Symbol _ZN5TPath7AddTextERK5TFontRK8TWString {
}
Symbol _ZNK5TPath12GetBoundRectEv {
}
Symbol _ZN5TPath9TranslateEff {
}
Symbol _ZN17TVectorStringPathC2Ev {
}
Symbol _ZN17TVectorStringPathD1Ev {
}
Symbol _ZN17TVectorStringPathD2Ev {
}
Symbol _ZN17TVectorStringPath4DrawER8TPainter {
}
Symbol _ZTV13UpdateGUIDemo {
}
Symbol _ZTVN7_TEventI10EventParamE17MemberFuncHandlerI13UpdateGUIDemoEE {
}
Symbol _ZTIN7_TEventI10EventParamE17MemberFuncHandlerI13UpdateGUIDemoEE {
}
Symbol _ZTI13UpdateGUIDemo {
}
Symbol _ZTSN7_TEventI10EventParamE17MemberFuncHandlerI13UpdateGUIDemoEE {
}
Symbol _ZTS13UpdateGUIDemo {
}
Symbol _Z9JobThreadPv {
}
Symbol _Z14MessageCallbckPv {
}
Symbol taskDelay {
}
Symbol _ZN12TApplication11SendMessageERK8_app_msgi {
}
Symbol jobHandle {
}
Symbol _ZNK6TColorneERKS_ {
}
Symbol _ZN13UpdateGUIDemo10UpdateRateEv {
}
Symbol _ZN8TWStringC1ERK7TString {
}
Symbol _ZN7_TEventI10EventParamE10SetHandlerI13UpdateGUIDemoEEvPT_NS1_17MemberFuncHandlerIS4_E8FuncTypeE {
}
Symbol _ZN7_TEventI10EventParamE17MemberFuncHandlerI13UpdateGUIDemoED1Ev {
}
Symbol _ZN7_TEventI10EventParamE17MemberFuncHandlerI13UpdateGUIDemoED0Ev {
}
Symbol _ZNK7_TEventI10EventParamE17MemberFuncHandlerI13UpdateGUIDemoE6InvokeERS0_ {
}
Symbol _ZN7_TEventI10EventParamE17MemberFuncHandlerI13UpdateGUIDemoE3dupEv {
}
Symbol _ZN7TSlider8SetRangeEii {
}
Symbol _ZN13UpdateGUIDemoC2Ev {
}
Symbol _ZN13UpdateGUIDemoD1Ev {
}
Symbol _ZN13UpdateGUIDemoD0Ev {
}
Symbol _ZN13UpdateGUIDemoD2Ev {
}
Symbol _ZN6_TRectIfEC1Ev {
}
Symbol _ZN6_TRectIfE8nullRectE {
}
Symbol _ZN13UpdateGUIDemo13UpdateHandlerER10EventParam {
}
Symbol sprintf {
}
Symbol _ZN7TStringC1EPKc {
}
Symbol _ZN14TVectorPainter11ScaleMatrixEff {
}
Symbol _ZN7TSlider8SetValueEi {
}
Symbol free {
}
Symbol _ZN13UpdateGUIDemo13ButtonHandlerER10EventParam {
}
Symbol _ZN13UpdateGUIDemo8OnAttachEv {
}
Symbol _ZN13UpdateGUIDemo8OnDetachEv {
}
Symbol _ZTV6TArrayIN16TVectorSouthPark6ObjectEE {
}
Symbol _ZTI6TArrayIN16TVectorSouthPark6ObjectEE {
}
Symbol _ZTS6TArrayIN16TVectorSouthPark6ObjectEE {
}
Symbol _ZN10TMatrix3x3C1Efffffffff {
}
Symbol _ZN6TArrayIN16TVectorSouthPark6ObjectEED1Ev {
}
Symbol __cxa_vec_delete {
}
Symbol _ZN16TVectorSouthPark6ObjectD1Ev {
}
Symbol _ZN6TArrayIN16TVectorSouthPark6ObjectEED0Ev {
}
Symbol _ZN6TArrayIN16TVectorSouthPark6ObjectEE13RoundCapacityEi {
}
Symbol _ZN16TVectorSouthPark6ObjectaSERKS0_ {
}
Symbol _ZN5TPathaSERKS_ {
}
Symbol _ZN6TArrayIN16TVectorSouthPark6ObjectEE8ExpandAtEii {
}
Symbol __cxa_vec_new2 {
}
Symbol _ZN16TVectorSouthPark6ObjectC1Ev {
}
Symbol _ZN6TArrayIN16TVectorSouthPark6ObjectEE8InsertAtEiRKS1_ {
}
Symbol _ZNK6TArrayIN16TVectorSouthPark6ObjectEEixEi {
}
Symbol _ZN16TVectorSouthPark13AddFillObjectEPKhiPKfj {
}
Symbol _ZN16TVectorSouthPark15AddStrokeObjectEPKhiPKfjf {
}
Symbol _ZN16TVectorSouthPark14AddFillObjectMEPKhiPKfjS3_ {
}
Symbol _ZN5TPath9TransformERK10TMatrix3x3 {
}
Symbol _ZN16TVectorSouthPark23AddFillAndStrokeObjectMEPKhiPKfjjfS3_ {
}
Symbol _ZN6_TRectIfEC1ERKS0_ {
}
Symbol _ZNK6_TRectIfE7CombineERKS0_ {
}
Symbol _ZN16TVectorSouthParkC1Ev {
}
Symbol _ZN16TVectorSouthParkC2Ev {
}
Symbol _ZN16TVectorSouthParkD1Ev {
}
Symbol _ZN16TVectorSouthParkD2Ev {
}
Symbol _ZN16TVectorSouthPark4DrawER8TPainter {
}
Symbol _ZN14TVectorPainter12SetPathWidthEf {
}
Symbol _ZTV18VectorGraphicsDemo {
}
Symbol _ZTVN7_TEventI10EventParamE17MemberFuncHandlerI18VectorGraphicsDemoEE {
}
Symbol _ZTIN7_TEventI10EventParamE17MemberFuncHandlerI18VectorGraphicsDemoEE {
}
Symbol _ZTI18VectorGraphicsDemo {
}
Symbol _ZTSN7_TEventI10EventParamE17MemberFuncHandlerI18VectorGraphicsDemoEE {
}
Symbol _ZTS18VectorGraphicsDemo {
}
Symbol _ZN7_TEventI10EventParamE10SetHandlerI18VectorGraphicsDemoEEvPT_NS1_17MemberFuncHandlerIS4_E8FuncTypeE {
}
Symbol _ZN7_TEventI10EventParamE17MemberFuncHandlerI18VectorGraphicsDemoED1Ev {
}
Symbol _ZN7_TEventI10EventParamE17MemberFuncHandlerI18VectorGraphicsDemoED0Ev {
}
Symbol _ZNK7_TEventI10EventParamE17MemberFuncHandlerI18VectorGraphicsDemoE6InvokeERS0_ {
}
Symbol _ZN7_TEventI10EventParamE17MemberFuncHandlerI18VectorGraphicsDemoE3dupEv {
}
Symbol _ZN11TVectorLionC1Ev {
}
Symbol _ZN11TVectorLionD1Ev {
}
Symbol _ZN18VectorGraphicsDemoC2Ev {
}
Symbol _ZN18VectorGraphicsDemoD1Ev {
}
Symbol _ZN18VectorGraphicsDemoD0Ev {
}
Symbol _ZN18VectorGraphicsDemoD2Ev {
}
Symbol _ZN18VectorGraphicsDemo12PaintHandlerER10EventParam {
}
Symbol _ZN14TVectorPainter12RotateMatrixEf {
}
Symbol _ZN11TVectorLion4DrawER8TPainter {
}
Symbol _ZN18VectorGraphicsDemo12TimerHandlerER10EventParam {
}
Symbol _ZN18VectorGraphicsDemo13SliderHandlerER10EventParam {
}
Symbol _ZN18VectorGraphicsDemo12RadioHandlerER10EventParam {
}
Symbol _ZN18VectorGraphicsDemo8OnAttachEv {
}
Symbol _ZN18VectorGraphicsDemo8OnDetachEv {
}
Symbol _ZTV11PainterDemo {
}
Symbol _ZTVN7_TEventI10EventParamE17MemberFuncHandlerI11PainterDemoEE {
}
Symbol _ZTIN7_TEventI10EventParamE17MemberFuncHandlerI11PainterDemoEE {
}
Symbol _ZTI11PainterDemo {
}
Symbol _ZTSN7_TEventI10EventParamE17MemberFuncHandlerI11PainterDemoEE {
}
Symbol _ZTS11PainterDemo {
}
Symbol _ZN7_TEventI10EventParamE10SetHandlerI11PainterDemoEEvPT_NS1_17MemberFuncHandlerIS4_E8FuncTypeE {
}
Symbol _ZN7_TEventI10EventParamE17MemberFuncHandlerI11PainterDemoED1Ev {
}
Symbol _ZN7_TEventI10EventParamE17MemberFuncHandlerI11PainterDemoED0Ev {
}
Symbol _ZNK7_TEventI10EventParamE17MemberFuncHandlerI11PainterDemoE6InvokeERS0_ {
}
Symbol _ZN7_TEventI10EventParamE17MemberFuncHandlerI11PainterDemoE3dupEv {
}
Symbol _ZN10TSharedPtrI18LinearGradientDataEaSERKS1_ {
}
Symbol _ZN10TSharedPtrI18RadialGradientDataEaSERKS1_ {
}
Symbol _ZN6TArrayI9ColorStopED1Ev {
}
Symbol _ZNK10TSharedPtrI13ColorStopDataE5DerefEv {
}
Symbol _ZN10TSharedPtrI13ColorStopDataEaSERKS1_ {
}
Symbol _ZN9TGradientaSERKS_ {
}
Symbol _ZN6TArrayI9ColorStopED0Ev {
}
Symbol _ZN6TPaintC1Ev {
}
Symbol _ZN6TPaintaSERKS_ {
}
Symbol _ZN6TBrushC1ERK6TColor {
}
Symbol _ZN11PainterDemoC2Ev {
}
Symbol _ZN11PainterDemoD1Ev {
}
Symbol _ZN11PainterDemoD0Ev {
}
Symbol _ZN11PainterDemoD2Ev {
}
Symbol _ZN11PainterDemo12PaintHandlerER10EventParam {
}
Symbol _ZN9TGradientC1EfffffjPK6TColorPKf {
}
Symbol _ZN14TVectorPainter11ResetMatrixEv {
}
Symbol _ZN11PainterDemo13UpdateHandlerER10EventParam {
}
Symbol _ZN11PainterDemo8OnAttachEv {
}
Symbol _ZN11PainterDemo8OnDetachEv {
}
Symbol _ZN6TColorC1Ev {
}
Symbol _ZN11TVectorLion4initEijPKfi {
}
Symbol memset {
}
Symbol _ZN11TVectorLion5poly0Ev {
}
Symbol _ZN11TVectorLion5poly1Ev {
}
Symbol _ZN11TVectorLion5poly2Ev {
}
Symbol _ZN11TVectorLion5poly3Ev {
}
Symbol _ZN11TVectorLion5poly4Ev {
}
Symbol _ZN11TVectorLion5poly5Ev {
}
Symbol _ZN11TVectorLion5poly6Ev {
}
Symbol _ZN11TVectorLion5poly7Ev {
}
Symbol _ZN11TVectorLion5poly8Ev {
}
Symbol _ZN11TVectorLion5poly9Ev {
}
Symbol _ZN11TVectorLion6poly10Ev {
}
Symbol _ZN11TVectorLion6poly11Ev {
}
Symbol _ZN11TVectorLion6poly12Ev {
}
Symbol _ZN11TVectorLion6poly13Ev {
}
Symbol _ZN11TVectorLion6poly14Ev {
}
Symbol _ZN11TVectorLion6poly15Ev {
}
Symbol _ZN11TVectorLion6poly16Ev {
}
Symbol _ZN11TVectorLion6poly17Ev {
}
Symbol _ZN11TVectorLion6poly18Ev {
}
Symbol _ZN11TVectorLion6poly19Ev {
}
Symbol _ZN11TVectorLion6poly20Ev {
}
Symbol _ZN11TVectorLion6poly21Ev {
}
Symbol _ZN11TVectorLion6poly22Ev {
}
Symbol _ZN11TVectorLion6poly23Ev {
}
Symbol _ZN11TVectorLion6poly24Ev {
}
Symbol _ZN11TVectorLion6poly25Ev {
}
Symbol _ZN11TVectorLion6poly26Ev {
}
Symbol _ZN11TVectorLion6poly27Ev {
}
Symbol _ZN11TVectorLion6poly28Ev {
}
Symbol _ZN11TVectorLion6poly29Ev {
}
Symbol _ZN11TVectorLion6poly30Ev {
}
Symbol _ZN11TVectorLion6poly31Ev {
}
Symbol _ZN11TVectorLion6poly32Ev {
}
Symbol _ZN11TVectorLion6poly33Ev {
}
Symbol _ZN11TVectorLion6poly34Ev {
}
Symbol _ZN11TVectorLion6poly35Ev {
}
Symbol _ZN11TVectorLion6poly36Ev {
}
Symbol _ZN11TVectorLion6poly37Ev {
}
Symbol _ZN11TVectorLion6poly38Ev {
}
Symbol _ZN11TVectorLion6poly39Ev {
}
Symbol _ZN11TVectorLion6poly40Ev {
}
Symbol _ZN11TVectorLion6poly41Ev {
}
Symbol _ZN11TVectorLion6poly42Ev {
}
Symbol _ZN11TVectorLion6poly43Ev {
}
Symbol _ZN11TVectorLion6poly44Ev {
}
Symbol _ZN11TVectorLion6poly45Ev {
}
Symbol _ZN11TVectorLion6poly46Ev {
}
Symbol _ZN11TVectorLion6poly47Ev {
}
Symbol _ZN11TVectorLion6poly48Ev {
}
Symbol _ZN11TVectorLion6poly49Ev {
}
Symbol _ZN11TVectorLion6poly50Ev {
}
Symbol _ZN11TVectorLion6poly51Ev {
}
Symbol _ZN11TVectorLion6poly52Ev {
}
Symbol _ZN11TVectorLion6poly53Ev {
}
Symbol _ZN11TVectorLion6poly54Ev {
}
Symbol _ZN11TVectorLion6poly55Ev {
}
Symbol _ZN11TVectorLion6poly56Ev {
}
Symbol _ZN11TVectorLion6poly57Ev {
}
Symbol _ZN11TVectorLion6poly58Ev {
}
Symbol _ZN11TVectorLion6poly59Ev {
}
Symbol _ZN11TVectorLion6poly60Ev {
}
Symbol _ZN11TVectorLion6poly61Ev {
}
Symbol _ZN11TVectorLion6poly62Ev {
}
Symbol _ZN11TVectorLion6poly63Ev {
}
Symbol _ZN11TVectorLion6poly64Ev {
}
Symbol _ZN11TVectorLion6poly65Ev {
}
Symbol _ZN11TVectorLion6poly66Ev {
}
Symbol _ZN11TVectorLion6poly67Ev {
}
Symbol _ZN11TVectorLion6poly68Ev {
}
Symbol _ZN11TVectorLion6poly69Ev {
}
Symbol _ZN11TVectorLion6poly70Ev {
}
Symbol _ZN11TVectorLion6poly71Ev {
}
Symbol _ZN11TVectorLion6poly72Ev {
}
Symbol _ZN11TVectorLion6poly73Ev {
}
Symbol _ZN11TVectorLion6poly74Ev {
}
Symbol _ZN11TVectorLion6poly75Ev {
}
Symbol _ZN11TVectorLion6poly76Ev {
}
Symbol _ZN11TVectorLion6poly77Ev {
}
Symbol _ZN11TVectorLion6poly78Ev {
}
Symbol _ZN11TVectorLion6poly79Ev {
}
Symbol _ZN11TVectorLion6poly80Ev {
}
Symbol _ZN11TVectorLion6poly81Ev {
}
Symbol _ZN11TVectorLion6poly82Ev {
}
Symbol _ZN11TVectorLion6poly83Ev {
}
Symbol _ZN11TVectorLion6poly84Ev {
}
Symbol _ZN11TVectorLion6poly85Ev {
}
Symbol _ZN11TVectorLion6poly86Ev {
}
Symbol _ZN11TVectorLion6poly87Ev {
}
Symbol _ZN11TVectorLion6poly88Ev {
}
Symbol _ZN11TVectorLion6poly89Ev {
}
Symbol _ZN11TVectorLion6poly90Ev {
}
Symbol _ZN11TVectorLion6poly91Ev {
}
Symbol _ZN11TVectorLion6poly92Ev {
}
Symbol _ZN11TVectorLion6poly93Ev {
}
Symbol _ZN11TVectorLion6poly94Ev {
}
Symbol _ZN11TVectorLion6poly95Ev {
}
Symbol _ZN11TVectorLion6poly96Ev {
}
Symbol _ZN11TVectorLion6poly97Ev {
}
Symbol _ZN11TVectorLion6poly98Ev {
}
Symbol _ZN11TVectorLion6poly99Ev {
}
Symbol _ZN11TVectorLion7poly100Ev {
}
Symbol _ZN11TVectorLion7poly101Ev {
}
Symbol _ZN11TVectorLion7poly102Ev {
}
Symbol _ZN11TVectorLion7poly103Ev {
}
Symbol _ZN11TVectorLion7poly104Ev {
}
Symbol _ZN11TVectorLion7poly105Ev {
}
Symbol _ZN11TVectorLion7poly106Ev {
}
Symbol _ZN11TVectorLion7poly107Ev {
}
Symbol _ZN11TVectorLion7poly108Ev {
}
Symbol _ZN11TVectorLion7poly109Ev {
}
Symbol _ZN11TVectorLion7poly110Ev {
}
Symbol _ZN11TVectorLion7poly111Ev {
}
Symbol _ZN11TVectorLion7poly112Ev {
}
Symbol _ZN11TVectorLion7poly113Ev {
}
Symbol _ZN11TVectorLion7poly114Ev {
}
Symbol _ZN11TVectorLion7poly115Ev {
}
Symbol _ZN11TVectorLion7poly116Ev {
}
Symbol _ZN11TVectorLion7poly117Ev {
}
Symbol _ZN11TVectorLion7poly118Ev {
}
Symbol _ZN11TVectorLion7poly119Ev {
}
Symbol _ZN11TVectorLion7poly120Ev {
}
Symbol _ZN11TVectorLion7poly121Ev {
}
Symbol _ZN11TVectorLion7poly122Ev {
}
Symbol _ZN11TVectorLion7poly123Ev {
}
Symbol _ZN11TVectorLion7poly124Ev {
}
Symbol _ZN11TVectorLion7poly125Ev {
}
Symbol _ZN11TVectorLion7poly126Ev {
}
Symbol _ZN11TVectorLion7poly127Ev {
}
Symbol _ZN11TVectorLion7poly128Ev {
}
Symbol _ZN11TVectorLion7poly129Ev {
}
Symbol _ZN11TVectorLion7poly130Ev {
}
Symbol _ZN11TVectorLion7poly131Ev {
}
Symbol _ZN11TVectorLionC2Ev {
}
Symbol _ZN11TVectorLionD2Ev {
}
Symbol _ZTV13TOscilloscope {
}
Symbol _ZTVN7_TEventI10EventParamE17MemberFuncHandlerI13TOscilloscopeEE {
}
Symbol _ZTIN7_TEventI10EventParamE17MemberFuncHandlerI13TOscilloscopeEE {
}
Symbol _ZTI13TOscilloscope {
}
Symbol _ZTSN7_TEventI10EventParamE17MemberFuncHandlerI13TOscilloscopeEE {
}
Symbol _ZTS13TOscilloscope {
}
Symbol _ZN6TColorC1Ehhh {
}
Symbol _ZN7_TEventI10EventParamE10SetHandlerI13TOscilloscopeEEvPT_NS1_17MemberFuncHandlerIS4_E8FuncTypeE {
}
Symbol _ZN4TPenC1ERK6TColoriNS_9LineStyleE {
}
Symbol _ZN8_TMarginIiEC1Eiiii {
}
Symbol _ZN7TWindow15AddControlAtTopEP8TControl {
}
Symbol _ZN7TWindow12SetFrameTypeE9FrameType {
}
Symbol _ZN7TWindow9SetMarginERK8_TMarginIiE {
}
Symbol _ZN11TPushButton7SetTextERK8TWString {
}
Symbol _ZN13TToggleButton10SetOutTextERK8TWString {
}
Symbol _ZN13TToggleButton9SetInTextERK8TWString {
}
Symbol _ZN11TGridLayout10SetSpacingERK8_TMarginIiE {
}
Symbol _ZN10TLineChart19SetSamplesPerScreenEj {
}
Symbol _ZNK6TArrayIN10TLineChart11ChannelInfoEEixEi {
}
Symbol _ZN10TLineChart10ScrollData10InsertDataEf {
}
Symbol __urem32 {
}
Symbol _ZN10TLineChart9SweepData10InsertDataEf {
}
Symbol _ZN10TLineChart10InsertDataEif {
}
Symbol _ZN9TGroupBox15AddControlAtTopEP8TControl {
}
Symbol _ZN13TOscilloscopeC1Eiiii {
}
Symbol _ZN9TGroupBoxC1EiiiiRK8TWString {
}
Symbol _ZN12TTextSpinBoxC1Eiiii {
}
Symbol _ZN13TToggleButtonC1Eiiii {
}
Symbol _ZN10TLineChartC1Eiiiijj {
}
Symbol _ZN12TTextSpinBox7AddItemERK8TWString {
}
Symbol _ZN12TTextSpinBox15ChangeSelectionEi {
}
Symbol _ZN12TRadioButton14SetItemsPerRowEi {
}
Symbol _ZN8TSpinBox11SetMinValueEi {
}
Symbol _ZN8TSpinBox11SetMaxValueEi {
}
Symbol _ZN8TSpinBox12SetIncrementEi {
}
Symbol _ZN8TSpinBox8SetValueEi {
}
Symbol _ZN10TLineChart13SetChannelPenEiRK4TPen {
}
Symbol _ZN10TLineChart16SetChannelOffsetEif {
}
Symbol _ZN10TLineChartD1Ev {
}
Symbol _ZN13TToggleButtonD1Ev {
}
Symbol _ZN9TGroupBoxD1Ev {
}
Symbol _ZN12TTextSpinBoxD1Ev {
}
Symbol tilconOscilloscopeTaskEntry {
}
Symbol tilconOscilloscope {
}
Symbol _ZN7_TEventI10EventParamE17MemberFuncHandlerI13TOscilloscopeED1Ev {
}
Symbol _ZN7_TEventI10EventParamE17MemberFuncHandlerI13TOscilloscopeED0Ev {
}
Symbol _ZNK7_TEventI10EventParamE17MemberFuncHandlerI13TOscilloscopeE6InvokeERS0_ {
}
Symbol _ZN7_TEventI10EventParamE17MemberFuncHandlerI13TOscilloscopeE3dupEv {
}
Symbol _ZN13TOscilloscopeC2Eiiii {
}
Symbol _ZN13TOscilloscopeD1Ev {
}
Symbol _ZN13TOscilloscopeD0Ev {
}
Symbol _ZN13TOscilloscopeD2Ev {
}
Symbol _ZN13TOscilloscope18GenerateSampleDataEij {
}
Symbol _ZN13TOscilloscope12TimerHandlerER10EventParam {
}
Symbol _ZN13TOscilloscope16ScaleSpinHandlerER10EventParam {
}
Symbol _ZNK12TTextSpinBox12GetSelectionEv {
}
Symbol _ZN10TChartBody15GenerateYLabelsERK8_TLinearIfERKNS_8BodyInfoER6TArrayI8TWStringE {
}
Symbol _ZN13TOscilloscope16SpeedSpinHandlerER10EventParam {
}
Symbol _ZN10TChartBody15GenerateXLabelsERK8_TLinearIfERKNS_8BodyInfoER6TArrayI8TWStringE {
}
Symbol _ZN13TOscilloscope16CurveSpinHandlerER10EventParam {
}
Symbol _ZN10TLineChart19SetChannelAmplifierEif {
}
Symbol _ZN13TOscilloscope17ShowToggleHandlerER10EventParam {
}
Symbol _ZN10TLineChart17SetChannelVisibleEii {
}
Symbol _ZN13TOscilloscope11ExitHandlerER10EventParam {
}
Symbol _ZTV10TMineField {
}
Symbol _ZTV6TArrayIN10TMineField4TileEE {
}
Symbol _ZTVN7_TEventI10EventParamE17MemberFuncHandlerI10TMineFieldEE {
}
Symbol _ZTV6TArrayIiE {
}
Symbol _ZTV6TArrayI7_TPointIiEE {
}
Symbol _ZTIN7_TEventI10EventParamE17MemberFuncHandlerI10TMineFieldEE {
}
Symbol _ZTI6TArrayIN10TMineField4TileEE {
}
Symbol _ZTI10TMineField {
}
Symbol _ZTI6TArrayIiE {
}
Symbol _ZTI6TArrayI7_TPointIiEE {
}
Symbol _ZTSN7_TEventI10EventParamE17MemberFuncHandlerI10TMineFieldEE {
}
Symbol _ZTS6TArrayIN10TMineField4TileEE {
}
Symbol _ZTI14TEventDelegate {
}
Symbol _ZTS14TEventDelegate {
}
Symbol _ZTS10TMineField {
}
Symbol _ZTS6TArrayIiE {
}
Symbol _ZTS6TArrayI7_TPointIiEE {
}
Symbol _ZN7_TPointIiEC1Ev {
}
Symbol _ZNK6_TRectIiE7CombineERKS0_ {
}
Symbol _ZN7_TEventI10EventParamE10SetHandlerI10TMineFieldEEvPT_NS1_17MemberFuncHandlerIS4_E8FuncTypeE {
}
Symbol _ZN7_TEventI10EventParamE17MemberFuncHandlerI10TMineFieldED1Ev {
}
Symbol _ZN7_TEventI10EventParamE17MemberFuncHandlerI10TMineFieldED0Ev {
}
Symbol _ZNK7_TEventI10EventParamE17MemberFuncHandlerI10TMineFieldE6InvokeERS0_ {
}
Symbol _ZN7_TEventI10EventParamE17MemberFuncHandlerI10TMineFieldE3dupEv {
}
Symbol _ZN6TArrayIN10TMineField4TileEE13RoundCapacityEi {
}
Symbol _ZN6TArrayIN10TMineField4TileEE8ExpandAtEii {
}
Symbol _ZN6TArrayIN10TMineField4TileEEC1Ei {
}
Symbol _ZN6TArrayIN10TMineField4TileEED1Ev {
}
Symbol _ZN6TArrayIN10TMineField4TileEED0Ev {
}
Symbol _ZNK6TArrayIN10TMineField4TileEEixEi {
}
Symbol _ZN10TMineField10ClearFieldEv {
}
Symbol _ZN10TMineFieldC1Eii {
}
Symbol _ZN14TCustomControlC2Eiiii {
}
Symbol _ZN14TCustomControlD2Ev {
}
Symbol _ZN10TMineFieldC2Eii {
}
Symbol _ZN10TMineFieldD1Ev {
}
Symbol _ZN10TMineFieldD0Ev {
}
Symbol _ZN10TMineFieldD2Ev {
}
Symbol _ZN10TMineField13CheckProgressEv {
}
Symbol _ZN10TMineField9StartGameEi {
}
Symbol _ZN10TMineField13ResizeHandlerER10EventParam {
}
Symbol _ZN7TVisualC1E9FrameType {
}
Symbol _ZNK7TVisual4DrawER8TPainterRK11VisualStateRK6_TRectIiE {
}
Symbol _ZN14TVectorPainter8FillPathEPK7_TPointIfEj {
}
Symbol _ZN5TPath6MoveToEff {
}
Symbol _ZN5TPath6LineToEff {
}
Symbol _ZN5TPath5ClearEv {
}
Symbol _ZN5TPath5CloseEv {
}
Symbol _ZN5TPath5ScaleEff {
}
Symbol _ZN7TVisualD1Ev {
}
Symbol _ZNK10TMineField12IsValidPointERK7_TPointIiE {
}
Symbol _ZNK10TMineField12PointToIndexERK7_TPointIiE {
}
Symbol _ZN10TMineField2UpERK7_TPointIiERS1_ {
}
Symbol _ZN10TMineField4DownERK7_TPointIiERS1_ {
}
Symbol _ZN10TMineField4LeftERK7_TPointIiERS1_ {
}
Symbol _ZN10TMineField5RightERK7_TPointIiERS1_ {
}
Symbol _ZN10TMineField6UpLeftERK7_TPointIiERS1_ {
}
Symbol _ZN10TMineField7UpRightERK7_TPointIiERS1_ {
}
Symbol _ZN10TMineField8DownLeftERK7_TPointIiERS1_ {
}
Symbol _ZN10TMineField9DownRightERK7_TPointIiERS1_ {
}
Symbol _ZN6TArrayIiE13RoundCapacityEi {
}
Symbol _ZN6TArrayIiE8ExpandAtEii {
}
Symbol _ZN6TArrayIiEC1Ei {
}
Symbol _ZN6TArrayIiE8ShrinkAtEii {
}
Symbol _ZN6TArrayIiE8RemoveAtEi {
}
Symbol _ZNK6TArrayIiEixEi {
}
Symbol _ZN10TMineField13PopulateFieldERK7_TPointIiEi {
}
Symbol srand {
}
Symbol _ZN10TMineField8MarkCellERK7_TPointIiE {
}
Symbol _ZNK10TMineField8ExpandedERK7_TPointIiE {
}
Symbol _ZN6TArrayI7_TPointIiEED1Ev {
}
Symbol _ZN6TArrayI7_TPointIiEE13RoundCapacityEi {
}
Symbol _ZN6TArrayI7_TPointIiEE8ExpandAtEii {
}
Symbol _ZN6TArrayI7_TPointIiEE8InsertAtEiRKS1_ {
}
Symbol _ZN6TArrayI7_TPointIiEE8ShrinkAtEii {
}
Symbol _ZN6TArrayI7_TPointIiEE8RemoveAtEi {
}
Symbol _ZNK6TArrayI7_TPointIiEEixEi {
}
Symbol _ZN10TMineField11ExpandSpaceERK7_TPointIiE {
}
Symbol _ZN10TMineField8OpenCellERK7_TPointIiE {
}
Symbol _ZN10TMineField14OpenCellAroundERK7_TPointIiE {
}
Symbol _ZN10TMineField12MouseHandlerER10EventParam {
}
Symbol _ZN10TMineField12PaintHandlerER10EventParam {
}
Symbol _ZN8TPainter15DrawPixelBufferERK12TPixelBufferii {
}
Symbol _ZN8TPainter12SetTextColorERK6TColor {
}
Symbol _ZN8TPainter11DrawUCSTextERK8TWStringRK6_TRectIiE23TextHorizontalAlignment21TextVerticalAlignment {
}
Symbol _ZN6TArrayIiED1Ev {
}
Symbol _ZN6TArrayIiED0Ev {
}
Symbol _ZN6TArrayI7_TPointIiEED0Ev {
}
Symbol _ZN14TCustomControl7OnEventER10EventParam {
}
Symbol _ZThn144_N14TCustomControl7OnEventER10EventParam {
}
Symbol _ZTI14TCustomControl {
}
Symbol _ZTV8TSweeper {
}
Symbol _ZTVN7_TEventI10EventParamE17MemberFuncHandlerI8TSweeperEE {
}
Symbol _ZTIN7_TEventI10EventParamE17MemberFuncHandlerI8TSweeperEE {
}
Symbol _ZTI8TSweeper {
}
Symbol _ZTSN7_TEventI10EventParamE17MemberFuncHandlerI8TSweeperEE {
}
Symbol _ZTS8TSweeper {
}
Symbol _ZN7_TEventI10EventParamE10SetHandlerI8TSweeperEEvPT_NS1_17MemberFuncHandlerIS4_E8FuncTypeE {
}
Symbol _ZN8TSweeperC1Eiiii {
}
Symbol _ZNK5TFontneERKS_ {
}
Symbol _ZN5TFontaSERKS_ {
}
Symbol tilconMineSweeperTaskEntry {
}
Symbol tilconMineSweeper {
}
Symbol _ZN7_TEventI10EventParamE17MemberFuncHandlerI8TSweeperED1Ev {
}
Symbol _ZN7_TEventI10EventParamE17MemberFuncHandlerI8TSweeperED0Ev {
}
Symbol _ZNK7_TEventI10EventParamE17MemberFuncHandlerI8TSweeperE6InvokeERS0_ {
}
Symbol _ZN7_TEventI10EventParamE17MemberFuncHandlerI8TSweeperE3dupEv {
}
Symbol _ZN8TSweeperC2Eiiii {
}
Symbol _ZN8TSweeperD1Ev {
}
Symbol _ZN8TSweeperD0Ev {
}
Symbol _ZN8TSweeperD2Ev {
}
Symbol _ZN8TSweeper18ButtonClickHandlerER10EventParam {
}
Symbol _ZN8TSweeper11UpdateStateEv {
}
Symbol _ZN7TStringC1Ev {
}
Symbol _ZN7TString6FormatEiPKcz {
}
Symbol _ZN12TProgressBar8SetRangeEii {
}
Symbol _ZN12TProgressBar11SetProgressEi {
}
Symbol _ZN8TSweeper15ProgressHandlerER10EventParam {
}
Symbol _ZTVN7_TEventI10EventParamE17MemberFuncHandlerI17TOscilloscopeDemoEE {
}
Symbol _ZTIN7_TEventI10EventParamE17MemberFuncHandlerI17TOscilloscopeDemoEE {
}
Symbol _ZTSN7_TEventI10EventParamE17MemberFuncHandlerI17TOscilloscopeDemoEE {
}
Symbol _ZN17TOscilloscopeDemoC1Ev {
}
Symbol _ZN7TWDFileC1Ev {
}
Symbol _ZN17TOscilloscopeDemoD1Ev {
}
Symbol _ZN7TWDFileD1Ev {
}
Symbol _ZN7_TEventI10EventParamE10SetHandlerI17TOscilloscopeDemoEEvPT_NS1_17MemberFuncHandlerIS4_E8FuncTypeE {
}
Symbol _ZN10TChartBody8BodyInfoC1Ev {
}
Symbol _ZN6TScale9ScaleInfoC1Ev {
}
Symbol _ZN10TChartBody8BodyInfoD1Ev {
}
Symbol _ZN12TextPropertyaSERKS_ {
}
Symbol _ZN6TScale9ScaleInfoaSERKS0_ {
}
Symbol _ZN10TChartBody8BodyInfoaSERKS0_ {
}
Symbol _ZN17TOscilloscopeDemo4InitEPKc {
}
Symbol _ZN7TWDFile4LoadERK7TString {
}
Symbol printf {
}
Symbol _ZNK7TWDFile16GetControlByNameERK7TString {
}
Symbol _ZN10TSolidFillC1ERK6TColor {
}
Symbol _ZN11TCustomFillC1ERK10TSolidFill {
}
Symbol _ZN10TSolidFillD1Ev {
}
Symbol _ZN10TLineChart11SetDataSizeEj {
}
Symbol _ZN10TLineChart15SetChannelBrushEiRK6TBrush {
}
Symbol _ZN11TPushButton5ClickEv {
}
Symbol _ZN17TMultiStateButton11ChangeStateEi {
}
Symbol _ZN8TSpinBox11ChangeValueEi {
}
Symbol _ZN12TApplication6CreateERK9TAppParam {
}
Symbol _ZN12TApplication7DestroyEPS_ {
}
Symbol tilconTwdTaskEntry {
}
Symbol tilconTwd {
}
Symbol _ZN7_TEventI10EventParamE17MemberFuncHandlerI17TOscilloscopeDemoED1Ev {
}
Symbol _ZN7_TEventI10EventParamE17MemberFuncHandlerI17TOscilloscopeDemoED0Ev {
}
Symbol _ZNK7_TEventI10EventParamE17MemberFuncHandlerI17TOscilloscopeDemoE6InvokeERS0_ {
}
Symbol _ZN7_TEventI10EventParamE17MemberFuncHandlerI17TOscilloscopeDemoE3dupEv {
}
Symbol _ZN10TLineChart10ScrollData5ResetEv {
}
Symbol _ZN10TLineChart9SweepData5ResetEv {
}
Symbol _ZN10TLineChart9ResetDataEi {
}
Symbol _ZN17TOscilloscopeDemoC2Ev {
}
Symbol _ZN17TOscilloscopeDemoD2Ev {
}
Symbol _ZN17TOscilloscopeDemo18GenerateSampleDataEj {
}
Symbol _ZN17TOscilloscopeDemo12TimerHandlerER10EventParam {
}
Symbol _ZN17TOscilloscopeDemo23CurveShapeButtonHandlerER10EventParam {
}
Symbol _ZN17TOscilloscopeDemo22CurveModeButtonHanlderER10EventParam {
}
Symbol _ZN17TOscilloscopeDemo18ScaleButtonHandlerER10EventParam {
}
Symbol _ZN17TOscilloscopeDemo17OffsetSpinHandlerER10EventParam {
}
Symbol _ZN17TOscilloscopeDemo17ExitButtonHandlerER10EventParam {
}
Symbol _ZTVSt11logic_error {
}
Symbol _ZTVSt12domain_error {
}
Symbol _ZTVSt16invalid_argument {
}
Symbol _ZTVSt12length_error {
}
Symbol _ZTVSt12out_of_range {
}
Symbol _ZTVSt13runtime_error {
}
Symbol _ZTVSt14overflow_error {
}
Symbol _ZTVSt15underflow_error {
}
Symbol _ZTVSt11range_error {
}
Symbol _ZZNSt4listIPN9TRadarApp5PLANEESaIS2_EE8_IncsizeEjEs {
}
Symbol _ZTVN7_TEventI10EventParamE17MemberFuncHandlerI9TRadarAppEE {
}
Symbol _ZTIN7_TEventI10EventParamE17MemberFuncHandlerI9TRadarAppEE {
}
Symbol _ZTISt11logic_error {
}
Symbol _ZTISt12domain_error {
}
Symbol _ZTISt16invalid_argument {
}
Symbol _ZTISt12length_error {
}
Symbol _ZTISt12out_of_range {
}
Symbol _ZTISt13runtime_error {
}
Symbol _ZTISt14overflow_error {
}
Symbol _ZTISt15underflow_error {
}
Symbol _ZTISt11range_error {
}
Symbol _ZTSN7_TEventI10EventParamE17MemberFuncHandlerI9TRadarAppEE {
}
Symbol _ZTSSt11logic_error {
}
Symbol _ZTSSt12domain_error {
}
Symbol _ZTSSt16invalid_argument {
}
Symbol _ZTSSt12length_error {
}
Symbol _ZTSSt12out_of_range {
}
Symbol _ZTSSt13runtime_error {
}
Symbol _ZTSSt14overflow_error {
}
Symbol _ZTSSt15underflow_error {
}
Symbol _ZTSSt11range_error {
}
Symbol _ZN7_TEventI10EventParamE10SetHandlerI9TRadarAppEEvPT_NS1_17MemberFuncHandlerIS4_E8FuncTypeE {
}
Symbol _ZNSt4listIPN9TRadarApp5PLANEESaIS2_EE8_BuynodeEv {
}
Symbol _ZNSt4listIPN9TRadarApp5PLANEESaIS2_EE5clearEv {
}
Symbol _ZNSt4listIPN9TRadarApp5PLANEESaIS2_EE5_TidyEv {
}
Symbol _ZN9TRadarAppC1ERK9TAppParam {
}
Symbol _ZN12TApplicationC2ERK9TAppParam {
}
Symbol _ZN7TWindowC1EiiiiPS_NS_12WindowSizingENS_10WindowTypeE {
}
Symbol _ZN5TPath6RotateEf {
}
Symbol _ZN7TWindowD1Ev {
}
Symbol _ZN12TApplicationD2Ev {
}
Symbol _ZNSt4listIPN9TRadarApp5PLANEESaIS2_EE8_BuynodeEPNSt9_List_nodIS2_S3_E5_NodeES8_RKS2_ {
}
Symbol _ZNSs5eraseEjj {
}
Symbol _ZNKSt12_String_base5_XranEv {
}
Symbol memmove {
}
Symbol _ZNSs5_TidyEbj {
}
Symbol _ZNSs5_CopyEjj {
}
Symbol __udiv32 {
}
Symbol __cxa_end_catch {
}
Symbol __cxa_begin_catch {
}
Symbol __cxa_rethrow {
}
Symbol _ZNSs5_GrowEjb {
}
Symbol _ZNKSt12_String_base5_XlenEv {
}
Symbol _ZNSs6assignERKSsjj {
}
Symbol _ZNSs7_InsideEPKc {
}
Symbol _ZNSs6assignEPKcj {
}
Symbol _ZNSt11logic_errorC1ERKSs {
}
Symbol _ZNSt4listIPN9TRadarApp5PLANEESaIS2_EE8_IncsizeEj {
}
Symbol strlen {
}
Symbol _ZNSt12length_errorD1Ev {
}
Symbol __cxa_free_exception {
}
Symbol _ZNSt4listIPN9TRadarApp5PLANEESaIS2_EE7_InsertENS4_8iteratorERKS2_ {
}
Symbol _ZN9TRadarApp8AddPlaneEv {
}
Symbol _ZN9TRadarApp3RunEv {
}
Symbol _ZN5TPathC1ERK5TFontRK8TWString {
}
Symbol _ZN8TPainter8FillRectEiiii {
}
Symbol _ZN7TWindow4rootE {
}
Symbol _ZN8TPainter10BeginPaintER7TWindow {
}
Symbol _ZN12TPixelBufferC1ERKS_ {
}
Symbol _ZN7TWindow14InvalidateRectERK6_TRectIiE {
}
Symbol _ZN6_TRectIiE7maxRectE {
}
Symbol _ZN7TWindow6CreateEv {
}
Symbol _ZN9TRadarAppD1Ev {
}
Symbol tilconRadarTaskEntry {
}
Symbol tilconRadar {
}
Symbol _ZN7_TEventI10EventParamE17MemberFuncHandlerI9TRadarAppED1Ev {
}
Symbol _ZN7_TEventI10EventParamE17MemberFuncHandlerI9TRadarAppED0Ev {
}
Symbol _ZNK7_TEventI10EventParamE17MemberFuncHandlerI9TRadarAppE6InvokeERS0_ {
}
Symbol _ZN7_TEventI10EventParamE17MemberFuncHandlerI9TRadarAppE3dupEv {
}
Symbol _ZN9TRadarAppC2ERK9TAppParam {
}
Symbol _ZN9TRadarApp9DrawRadarEv {
}
Symbol _ZNK7TWindow13GetWindowRectEv {
}
Symbol _ZNK10TSolidFill8FillRectER8TPainterRK6_TRectIiE {
}
Symbol _ZN8TPainter11DrawUCSTextEPKwiii {
}
Symbol _ZNSt4listIPN9TRadarApp5PLANEESaIS2_EE5eraseENS4_8iteratorE {
}
Symbol _ZN9TRadarApp11RemovePlaneEv {
}
Symbol _ZN9TRadarApp10UpatePlaneEv {
}
Symbol _ZN9TRadarApp12TimerHandlerER10EventParam {
}
Symbol _ZN7TWindow13SetWindowRectERK6_TRectIiE {
}
Symbol _ZN7TWindow4HideEv {
}
Symbol _ZN9TRadarApp11AnimHandlerER10EventParam {
}
Symbol _ZN9TRadarApp13WindowHandlerER10EventParam {
}
Symbol _ZN9TRadarApp16AddButtonHandlerER10EventParam {
}
Symbol _ZN9TRadarApp19RemoveButtonHandlerER10EventParam {
}
Symbol _ZNSt9exceptionD1Ev {
}
Symbol _ZNSt9exceptionD0Ev {
}
Symbol _ZNKSt9exception4whatEv {
}
Symbol _ZNSt11logic_errorD1Ev {
}
Symbol __cxa_call_unexpected {
}
Symbol _ZNSt11logic_errorD0Ev {
}
Symbol _ZNKSt11logic_error4whatEv {
}
Symbol _ZNSt12length_errorD0Ev {
}
ObjectFile libtilconDemo.a::tilconDemoRandomCurve.o {
	NAME Object file tilconDemoRandomCurve.o from archive libtilconDemo.a
	EXPORTS _ZTV10TException _ZTV6TImage _ZTV10TilconDemo _ZTV15RandomCurveDemo _ZTVN7_TEventI10EventParamE15THandlerAdaptorE _ZTVN7_TEventI10EventParamE17MemberFuncHandlerI15RandomCurveDemoEE _ZTI10TException _ZTIN7_TEventI10EventParamE15THandlerAdaptorE _ZTIN7_TEventI10EventParamE17MemberFuncHandlerI15RandomCurveDemoEE _ZTI6TImage _ZTI10TilconDemo _ZTI15RandomCurveDemo _ZTS10TException _ZTSN7_TEventI10EventParamE15THandlerAdaptorE _ZTSN7_TEventI10EventParamE17MemberFuncHandlerI15RandomCurveDemoEE _ZTS6TImage _ZTS10TilconDemo _ZTS15RandomCurveDemo _ZN10TExceptionD1Ev _ZN10TExceptionD0Ev _ZN6TColorC1Ej _ZN6TColorC1ERKS_ _ZN8TWStringC1EPKw _ZN6_TRectIiEC1ERKS0_ _ZN6_TRectIiEC1ERK7_TPointIiERK6_TSizeIiE _ZNK6_TRectIiEmiERK7_TPointIiE _ZN7_TEventI10EventParamE10SetHandlerI15RandomCurveDemoEEvPT_NS1_17MemberFuncHandlerIS4_E8FuncTypeE _ZN7_TEventI10EventParamE15THandlerAdaptorD1Ev _ZN7_TEventI10EventParamE15THandlerAdaptorD0Ev _ZN7_TEventI10EventParamE17MemberFuncHandlerI15RandomCurveDemoED1Ev _ZN7_TEventI10EventParamE17MemberFuncHandlerI15RandomCurveDemoED0Ev _ZNK7_TEventI10EventParamE17MemberFuncHandlerI15RandomCurveDemoE6InvokeERS0_ _ZN7_TEventI10EventParamE17MemberFuncHandlerI15RandomCurveDemoE3dupEv _ZNK10TSharedPtrI9ImageDataE5DerefEv _ZN6TImageD1Ev _ZN6TImageD0Ev _ZN6TPaintC1ERK6TColor _ZN6TPaintD1Ev _ZN6TTimerC1Ev _ZNK8_TMarginIiEneERKS0_ _ZNK6TArrayIN11TGridLayout10LayoutInfoEEixEi _ZN11TGridLayout10SetRowSizeEiNS_12LayoutMethodEi _ZN11TGridLayout13SetColumnSizeEiNS_12LayoutMethodEi _ZN10TilconDemoC1Eiiiiii _ZN10TilconDemoD1Ev _ZN10TilconDemoD0Ev _ZN13TVectorRandomC1Ev _ZN13TVectorRandomC2Ev _ZN13TVectorRandomD1Ev _ZN13TVectorRandomD2Ev _ZN13TVectorRandom4DrawER8TPainter _ZN15RandomCurveDemoC1Ev _ZN15RandomCurveDemoC2Ev _ZN15RandomCurveDemoD1Ev _ZN15RandomCurveDemoD0Ev _ZN15RandomCurveDemoD2Ev _ZN15RandomCurveDemo12PaintHandlerER10EventParam _ZN15RandomCurveDemo12TimerHandlerER10EventParam _ZN15RandomCurveDemo12RadioHandlerER10EventParam _ZN15RandomCurveDemo8OnAttachEv _ZN15RandomCurveDemo8OnDetachEv
	IMPORTS _ZTVSt9exception _ZTVSt13bad_exception _ZTVSt9bad_alloc _ZTV17TChildrenDelegate _ZTV6TArrayIP5TNodeE _ZTV6TArrayI9ColorStopE _ZTI17TChildrenDelegate _ZTI6TArrayIP5TNodeE _ZTI6TArrayI9ColorStopE _ZTISt9exception _ZTISt13bad_exception _ZTISt9bad_alloc _ZTS17TChildrenDelegate _ZTS6TArrayIP5TNodeE _ZTS6TArrayI9ColorStopE _ZTSSt9exception _ZTSSt13bad_exception _ZTSSt9bad_alloc _ZdlPv __frameinfo_used __cxa_allocate_exception __cxa_throw _Znaj memcpy _Znwj __diab_Unwind_Resume __diab_personality_v0 _ZN9ImageDataD1Ev _ZN9TGradientC1Ev _ZN12TPixelBufferC1Ev _ZN9TGradientD1Ev _ZN12TPixelBufferD1Ev _ZN10TGridPanelC2Eiiiiii _ZN5TNode6UpdateEv _ZN5TNode18OnChildBoundChangeEP8TControl _ZN5TNode8OnResizeEv _ZN10TGridPanelD2Ev __div32 rand cos sin _ZN5TPathC1EjPKhPKf _ZN14TVectorPainter14SetStrokePaintERK6TPaint _ZN14TVectorPainter10StrokePathERK5TPath _ZN14TVectorPainter12SetFillPaintERK6TPaint _ZN14TVectorPainter8FillPathERK5TPath _ZN5TPathD1Ev _ZN11TCustomFillC1Ev _ZN14TCustomControlC1Eiiii _ZN10TGridPanelC1Eiiiiii _ZN6TLabelC1EiiiiRK8TWString _ZdaPv _ZN12TRadioButtonC1Eiiii _ZN9TCheckBoxC1EiiiiRK8TWString _ZN10TGridPanel10AddControlEP8TControliRK8GridCell _ZN12TRadioButton7AddItemERK8TWString _ZN12TRadioButton15ChangeSelectionEi _ZN12TPixelBufferC1Eii _ZN8TPainterC1Ev _ZN8TPainter10BeginPaintER12TPixelBuffer _ZN8TPainter8SetBrushERK6TBrush _ZN8TPainter8FillRectERK6_TRectIiE _ZN8TPainter8EndPaintEv _ZN6TImageC1ERK12TPixelBuffer _ZN12TPixelBufferC1ERK6TImage _ZN12TPatternFillC1ERK12TPixelBuffer _ZN11TCustomFillaSERK12TPatternFill _ZN12TPatternFillD1Ev _ZN8TPainterD1Ev _ZN9TCheckBoxD1Ev _ZN12TRadioButtonD1Ev _ZN6TLabelD1Ev _ZN10TGridPanelD1Ev _ZN14TCustomControlD1Ev _ZN11TCustomFillD1Ev _ZNK11TCustomFill8FillRectER8TPainterRK6_TRectIiE _ZN14TVectorPainter15TranslateMatrixEff _ZN6TTimer5StartEv _ZN6TTimer4StopEv __cxa_pure_virtual _ZTVN10__cxxabiv117__class_type_infoE _ZTVN10__cxxabiv120__si_class_type_infoE _ZTI10TGridPanel
	DECLARES 
	USES 
}
Module tilconDemoRandomCurve.o {
	OBJECT += libtilconDemo.a::tilconDemoRandomCurve.o
}
ObjectFile libtilconDemo.a::tilconDemoFont.o {
	NAME Object file tilconDemoFont.o from archive libtilconDemo.a
	EXPORTS _ZTV10TException _ZTV6TImage _ZTV10TilconDemo _ZTV8FontDemo _ZTVN7_TEventI10EventParamE15THandlerAdaptorE _ZTVN7_TEventI10EventParamE17MemberFuncHandlerI8FontDemoEE _ZTI10TException _ZTIN7_TEventI10EventParamE15THandlerAdaptorE _ZTIN7_TEventI10EventParamE17MemberFuncHandlerI8FontDemoEE _ZTI6TImage _ZTI10TilconDemo _ZTI8FontDemo _ZTS10TException _ZTSN7_TEventI10EventParamE15THandlerAdaptorE _ZTSN7_TEventI10EventParamE17MemberFuncHandlerI8FontDemoEE _ZTS6TImage _ZTS10TilconDemo _ZTS8FontDemo _ZN10TExceptionD1Ev _ZN10TExceptionD0Ev _ZN6TColorC1Ej _ZN6TColorC1ERKS_ _ZN8TWStringC1EPKw _ZN6_TRectIiEC1Ev _ZN6_TRectIiEC1ERK7_TPointIiERK6_TSizeIiE _ZNK6_TRectIiEmiERK7_TPointIiE _ZN7_TEventI10EventParamE10SetHandlerI8FontDemoEEvPT_NS1_17MemberFuncHandlerIS4_E8FuncTypeE _ZN7_TEventI10EventParamE15THandlerAdaptorD1Ev _ZN7_TEventI10EventParamE15THandlerAdaptorD0Ev _ZN7_TEventI10EventParamE17MemberFuncHandlerI8FontDemoED1Ev _ZN7_TEventI10EventParamE17MemberFuncHandlerI8FontDemoED0Ev _ZNK7_TEventI10EventParamE17MemberFuncHandlerI8FontDemoE6InvokeERS0_ _ZN7_TEventI10EventParamE17MemberFuncHandlerI8FontDemoE3dupEv _ZNK10TSharedPtrI9ImageDataE5DerefEv _ZN6TImageD1Ev _ZN6TImageD0Ev _ZNK8_TMarginIiEneERKS0_ _ZNK6TArrayIN11TGridLayout10LayoutInfoEEixEi _ZN11TGridLayout10SetRowSizeEiNS_12LayoutMethodEi _ZN11TGridLayout13SetColumnSizeEiNS_12LayoutMethodEi _ZN10TilconDemoC1Eiiiiii _ZN10TilconDemoD1Ev _ZN10TilconDemoD0Ev _ZN8FontDemoC1Ev _ZN8FontDemoC2Ev _ZN8FontDemoD1Ev _ZN8FontDemoD0Ev _ZN8FontDemoD2Ev _ZN8FontDemo11DrawBmfFontER8TPainterRK6_TRectIiE _ZN8FontDemo14DrawVectorFontER8TPainterRK6_TRectIiE _ZN8FontDemo12PaintHandlerER10EventParam _ZN8FontDemo12RadioHandlerER10EventParam _ZN8FontDemo8OnAttachEv _ZN8FontDemo8OnDetachEv
	IMPORTS _ZTVSt9exception _ZTVSt13bad_exception _ZTVSt9bad_alloc _ZTV17TChildrenDelegate _ZTV6TArrayIP5TNodeE _ZTV6TArrayI9ColorStopE _ZTI17TChildrenDelegate _ZTI6TArrayIP5TNodeE _ZTI6TArrayI9ColorStopE _ZTISt9exception _ZTISt13bad_exception _ZTISt9bad_alloc _ZTS17TChildrenDelegate _ZTS6TArrayIP5TNodeE _ZTS6TArrayI9ColorStopE _ZTSSt9exception _ZTSSt13bad_exception _ZTSSt9bad_alloc _ZdlPv __frameinfo_used __cxa_allocate_exception __cxa_throw _Znaj memcpy _ZN6_TRectIiE8nullRectE _Znwj __diab_Unwind_Resume __diab_personality_v0 _ZN9ImageDataD1Ev _ZN10TGridPanelC2Eiiiiii _ZN5TNode6UpdateEv _ZN5TNode18OnChildBoundChangeEP8TControl _ZN5TNode8OnResizeEv _ZN10TGridPanelD2Ev _ZN11TCustomFillC1Ev _ZN14TCustomControlC1Eiiii _ZN10TGridPanelC1Eiiiiii _ZN6TLabelC1EiiiiRK8TWString _ZdaPv _ZN12TRadioButtonC1Eiiii _ZN10TGridPanel10AddControlEP8TControliRK8GridCell _ZN12TRadioButton7AddItemERK8TWString _ZN12TRadioButton12SetSelectionEi _ZN12TPixelBufferC1Eii _ZN8TPainterC1Ev _ZN8TPainter10BeginPaintER12TPixelBuffer _ZN12TPixelBufferC1Ev _ZN8TPainter8SetBrushERK6TBrush _ZN12TPixelBufferD1Ev _ZN8TPainter8FillRectERK6_TRectIiE _ZN8TPainter8EndPaintEv _ZN6TImageC1ERK12TPixelBuffer _ZN12TPixelBufferC1ERK6TImage _ZN12TPatternFillC1ERK12TPixelBuffer _ZN11TCustomFillaSERK12TPatternFill _ZN12TPatternFillD1Ev _ZN8TPainterD1Ev _ZN12TRadioButtonD1Ev _ZN6TLabelD1Ev _ZN10TGridPanelD1Ev _ZN14TCustomControlD1Ev _ZN11TCustomFillD1Ev _ZN5TFontC1EPKcj _ZNK5TFont10GetMetricsER11FontMetrics _ZNK5TFont12GetTextWidthEPKwj _ZN8TPainter6SetPenERK4TPen _ZN8TPainter8DrawLineERK7_TPointIiES3_ _ZN8TPainter7SetFontERK5TFont _ZN8TPainter11DrawUCSTextERK8TWStringii __cxa_vec_dtor _ZN5TFontD1Ev _ZNK11TCustomFill8FillRectER8TPainterRK6_TRectIiE _ZNK12TRadioButton12GetSelectionEv __cxa_pure_virtual _ZTVN10__cxxabiv117__class_type_infoE _ZTVN10__cxxabiv120__si_class_type_infoE _ZTI10TGridPanel
	DECLARES 
	USES 
}
Module tilconDemoFont.o {
	OBJECT += libtilconDemo.a::tilconDemoFont.o
}
ObjectFile libtilconDemo.a::tilconBasic.o {
	NAME Object file tilconBasic.o from archive libtilconDemo.a
	EXPORTS _ZTV10TException _ZTV11TTabbedDemo _ZTVN7_TEventI10EventParamE15THandlerAdaptorE _ZTVN7_TEventI10EventParamE17MemberFuncHandlerI11TTabbedDemoEE _ZTI10TException _ZTIN7_TEventI10EventParamE15THandlerAdaptorE _ZTIN7_TEventI10EventParamE17MemberFuncHandlerI11TTabbedDemoEE _ZTI11TTabbedDemo _ZTS10TException _ZTSN7_TEventI10EventParamE15THandlerAdaptorE _ZTSN7_TEventI10EventParamE17MemberFuncHandlerI11TTabbedDemoEE _ZTS11TTabbedDemo _ZN8TWStringC1EPKw _ZN10TExceptionD1Ev _ZN8TWStringaSERKS_ _ZNK8TWStringneERKS_ _ZN7_TEventI10EventParamE10SetHandlerI11TTabbedDemoEEvPT_NS1_17MemberFuncHandlerIS4_E8FuncTypeE _ZN11TTabbedDemoC1Ev _ZN11TTabbedDemo4ShowEv tilconBasicTaskEntry tilconBasic _ZN10TExceptionD0Ev _ZN7_TEventI10EventParamE15THandlerAdaptorD1Ev _ZN7_TEventI10EventParamE15THandlerAdaptorD0Ev _ZN7_TEventI10EventParamE17MemberFuncHandlerI11TTabbedDemoED1Ev _ZN7_TEventI10EventParamE17MemberFuncHandlerI11TTabbedDemoED0Ev _ZNK7_TEventI10EventParamE17MemberFuncHandlerI11TTabbedDemoE6InvokeERS0_ _ZN7_TEventI10EventParamE17MemberFuncHandlerI11TTabbedDemoE3dupEv _ZN11TTabbedDemoC2Ev _ZN11TTabbedDemoD1Ev _ZN11TTabbedDemoD0Ev _ZN11TTabbedDemoD2Ev _ZN11TTabbedDemo16TabChangeHandlerER10EventParam _ZN11TTabbedDemo17QuitButtonHandlerER10EventParam
	IMPORTS _ZTVSt9exception _ZTVSt13bad_exception _ZTVSt9bad_alloc _ZTV17TChildrenDelegate _ZTV6TImage _ZTV10TilconDemo _ZTV6TArrayIP5TNodeE _ZTV6TArrayI9ColorStopE _ZTI17TChildrenDelegate _ZTI6TArrayIP5TNodeE _ZTI6TImage _ZTI6TArrayI9ColorStopE _ZTI10TilconDemo _ZTISt9exception _ZTISt13bad_exception _ZTISt9bad_alloc _ZTS17TChildrenDelegate _ZTS6TArrayIP5TNodeE _ZTS6TImage _ZTS6TArrayI9ColorStopE _ZTS10TilconDemo _ZTSSt9exception _ZTSSt13bad_exception _ZTSSt9bad_alloc __frameinfo_used __cxa_allocate_exception __cxa_throw _Znaj memcpy _ZdaPv _Znwj __diab_Unwind_Resume __diab_personality_v0 _ZN7TWindowC2EiiiiPS_NS_12WindowSizingENS_10WindowTypeE _ZN4TTabC1Eiiiii _ZN11TPushButtonC1Eiiii _ZN5TNode8OnResizeEv _ZN5TNode6UpdateEv _ZN8TControl18SetAlignmentPolicyE19HorizontalAlignment17VerticalAlignment _ZN4TTab10SetTabTextEiRK8TWString _ZN6TGroup10AddControlEP8TControli _ZN18VectorGraphicsDemoC1Ev _ZN8AnimDemoC1Ev _ZN11PainterDemoC1Ev _ZN13PrimitiveDemoC1Ev _ZN8FontDemoC1Ev _ZN10WidgetDemoC1Ev _ZN13UpdateGUIDemoC1Ev _ZN4TTab10AddControlEiP8TControli _ZdlPv _ZN11TPushButtonD1Ev _ZN4TTabD1Ev _ZN7TWindowD2Ev _ZN7TWindow4ShowEi _ZN4TTab8SwitchToEi _ZN12TApplicationC1ERK9TAppParam _ZN12TApplication3RunEv _ZN7TWindow7DestroyEv _ZN12TApplicationD1Ev _ZN9TAppParamC1EPKc _ZN9TAppParam3AddEPKc _ZN9TAppParamD1Ev taskSpawn _ZN4TTab13RemoveControlEiP8TControl _ZN12TApplication8InstanceEv _ZN12TApplication4StopEi __cxa_pure_virtual _ZTVN10__cxxabiv117__class_type_infoE _ZTVN10__cxxabiv120__si_class_type_infoE _ZTI7TWindow
	DECLARES 
	USES 
}
Module tilconBasic.o {
	OBJECT += libtilconDemo.a::tilconBasic.o
}
ObjectFile libtilconDemo.a::tilconDemoPrimitive.o {
	NAME Object file tilconDemoPrimitive.o from archive libtilconDemo.a
	EXPORTS _ZTV10TException _ZTV6TImage _ZTV10TilconDemo _ZTV13PrimitiveDemo _ZTVN7_TEventI10EventParamE15THandlerAdaptorE _ZTVN7_TEventI10EventParamE17MemberFuncHandlerI13PrimitiveDemoEE _ZTI10TException _ZTIN7_TEventI10EventParamE15THandlerAdaptorE _ZTIN7_TEventI10EventParamE17MemberFuncHandlerI13PrimitiveDemoEE _ZTI6TImage _ZTI10TilconDemo _ZTI13PrimitiveDemo _ZTS10TException _ZTSN7_TEventI10EventParamE15THandlerAdaptorE _ZTSN7_TEventI10EventParamE17MemberFuncHandlerI13PrimitiveDemoEE _ZTS6TImage _ZTS10TilconDemo _ZTS13PrimitiveDemo _ZN10TExceptionD1Ev _ZN10TExceptionD0Ev _ZN6TColorC1Ej _ZN6TColorC1ERKS_ _ZN8TWStringC1EPKw _ZN6_TRectIiEC1ERK7_TPointIiERK6_TSizeIiE _ZNK6_TRectIiEmiERK7_TPointIiE _ZN7_TEventI10EventParamE10SetHandlerI13PrimitiveDemoEEvPT_NS1_17MemberFuncHandlerIS4_E8FuncTypeE _ZN7_TEventI10EventParamE15THandlerAdaptorD1Ev _ZN7_TEventI10EventParamE15THandlerAdaptorD0Ev _ZN7_TEventI10EventParamE17MemberFuncHandlerI13PrimitiveDemoED1Ev _ZN7_TEventI10EventParamE17MemberFuncHandlerI13PrimitiveDemoED0Ev _ZNK7_TEventI10EventParamE17MemberFuncHandlerI13PrimitiveDemoE6InvokeERS0_ _ZN7_TEventI10EventParamE17MemberFuncHandlerI13PrimitiveDemoE3dupEv _ZNK10TSharedPtrI9ImageDataE5DerefEv _ZN6TImageD1Ev _ZN6TImageD0Ev _ZN6TTimerC1Ev _ZNK8_TMarginIiEneERKS0_ _ZNK6TArrayIN11TGridLayout10LayoutInfoEEixEi _ZN11TGridLayout10SetRowSizeEiNS_12LayoutMethodEi _ZN11TGridLayout13SetColumnSizeEiNS_12LayoutMethodEi _ZN10TilconDemoC1Eiiiiii _ZN10TilconDemoD1Ev _ZN10TilconDemoD0Ev _ZN13PrimitiveDemo16FormationPriDataEv _ZN13PrimitiveDemoC1Ev _ZN13PrimitiveDemoC2Ev _ZN13PrimitiveDemoD1Ev _ZN13PrimitiveDemoD0Ev _ZN13PrimitiveDemoD2Ev _ZN13PrimitiveDemo12PaintHandlerER10EventParam _ZN13PrimitiveDemo13UpdateHandlerER10EventParam _ZN13PrimitiveDemo12TimerHandlerER10EventParam _ZN13PrimitiveDemo8OnAttachEv _ZN13PrimitiveDemo8OnDetachEv
	IMPORTS _ZTVSt9exception _ZTVSt13bad_exception _ZTVSt9bad_alloc _ZTV17TChildrenDelegate _ZTV6TArrayIP5TNodeE _ZTV6TArrayI9ColorStopE _ZTI17TChildrenDelegate _ZTI6TArrayIP5TNodeE _ZTI6TArrayI9ColorStopE _ZTISt9exception _ZTISt13bad_exception _ZTISt9bad_alloc _ZTS17TChildrenDelegate _ZTS6TArrayIP5TNodeE _ZTS6TArrayI9ColorStopE _ZTSSt9exception _ZTSSt13bad_exception _ZTSSt9bad_alloc _ZdlPv __frameinfo_used __cxa_allocate_exception __cxa_throw _Znaj memcpy _Znwj __diab_Unwind_Resume __diab_personality_v0 _ZN9ImageDataD1Ev _ZN10TGridPanelC2Eiiiiii _ZN5TNode6UpdateEv _ZN5TNode18OnChildBoundChangeEP8TControl _ZN5TNode8OnResizeEv _ZN10TGridPanelD2Ev rand __rem32 _ZN11TCustomFillC1Ev _ZN14TCustomControlC1Eiiii _ZN10TGridPanelC1Eiiiiii _ZN6TLabelC1EiiiiRK8TWString _ZdaPv _ZN12TRadioButtonC1Eiiii _ZN12TPixelBufferC1Ev _ZN10TGridPanel10AddControlEP8TControliRK8GridCell _ZN12TRadioButton7AddItemERK8TWString _ZN12TRadioButton12SetSelectionEi _ZN12TPixelBufferC1Eii _ZN8TPainterC1Ev _ZN8TPainter10BeginPaintER12TPixelBuffer _ZN8TPainter8SetBrushERK6TBrush _ZN12TPixelBufferD1Ev _ZN8TPainter8FillRectERK6_TRectIiE _ZN8TPainter8EndPaintEv _ZN6TImageC1ERK12TPixelBuffer _ZN12TPixelBufferC1ERK6TImage _ZN12TPatternFillC1ERK12TPixelBuffer _ZN11TCustomFillaSERK12TPatternFill _ZN12TPatternFillD1Ev _ZN8TPainterD1Ev _ZN12TRadioButtonD1Ev _ZN6TLabelD1Ev _ZN10TGridPanelD1Ev _ZN14TCustomControlD1Ev _ZN11TCustomFillD1Ev _ZNK11TCustomFill8FillRectER8TPainterRK6_TRectIiE _ZN6TImage16defaultImageDataE _ZN12TPixelBufferaSERKS_ _ZN8TPainter6SetPenERK4TPen _ZNK12TRadioButton12GetSelectionEv _ZN8TPainter8DrawLineERK7_TPointIiES3_ _ZN8TPainter10DrawCircleERK6_TRectIiE _ZN8TPainter11DrawEllipseERK6_TRectIiE _ZN8TPainter7DrawArcERK6_TRectIiERK7_TPointIiES7_ _ZN8TPainter7DrawPieERK6_TRectIiERK7_TPointIiES7_ _ZN6TTimer5StartEv _ZN6TTimer4StopEv __cxa_pure_virtual _ZTVN10__cxxabiv117__class_type_infoE _ZTVN10__cxxabiv120__si_class_type_infoE _ZTI10TGridPanel
	DECLARES 
	USES 
}
Module tilconDemoPrimitive.o {
	OBJECT += libtilconDemo.a::tilconDemoPrimitive.o
}
ObjectFile libtilconDemo.a::tilconDemoWidget.o {
	NAME Object file tilconDemoWidget.o from archive libtilconDemo.a
	EXPORTS _ZTV10TException _ZTV10TilconDemo _ZTV10WidgetDemo _ZTVN7_TEventI10EventParamE15THandlerAdaptorE _ZTVN7_TEventI10EventParamE17MemberFuncHandlerI10WidgetDemoEE _ZTI10TException _ZTIN7_TEventI10EventParamE15THandlerAdaptorE _ZTIN7_TEventI10EventParamE17MemberFuncHandlerI10WidgetDemoEE _ZTI10TilconDemo _ZTI10WidgetDemo _ZTS10TException _ZTSN7_TEventI10EventParamE15THandlerAdaptorE _ZTSN7_TEventI10EventParamE17MemberFuncHandlerI10WidgetDemoEE _ZTS10TilconDemo _ZTS10WidgetDemo _ZN8TWStringC1EPKw _ZN10TExceptionD1Ev _ZN10TExceptionD0Ev _ZN8TWStringaSERKS_ _ZN15AlignmentPolicyC1Ev _ZN8GridCellC1Eii _ZN7_TEventI10EventParamE10SetHandlerI10WidgetDemoEEvPT_NS1_17MemberFuncHandlerIS4_E8FuncTypeE _ZN7_TEventI10EventParamE15THandlerAdaptorD1Ev _ZN7_TEventI10EventParamE15THandlerAdaptorD0Ev _ZN7_TEventI10EventParamE17MemberFuncHandlerI10WidgetDemoED1Ev _ZN7_TEventI10EventParamE17MemberFuncHandlerI10WidgetDemoED0Ev _ZNK7_TEventI10EventParamE17MemberFuncHandlerI10WidgetDemoE6InvokeERS0_ _ZN7_TEventI10EventParamE17MemberFuncHandlerI10WidgetDemoE3dupEv _ZN8_TMarginIiEC1Ei _ZNK8_TMarginIiEneERKS0_ _ZN8TControl9SetMarginERK8_TMarginIiE _ZN8TControl12SetFrameTypeE9FrameType _ZN8TControl6UpdateEv _ZN8TControl15UpdateBoundRectEv _ZNK6TArrayIN11TGridLayout10LayoutInfoEEixEi _ZN11TGridLayout10SetRowSizeEiNS_12LayoutMethodEi _ZN11TGridLayout13SetColumnSizeEiNS_12LayoutMethodEi _ZN11TGridLayout15SetFixedRowSizeEii _ZN11TGridLayout18SetFixedColumnSizeEii _ZN6TLabel7SetTextERK8TWString _ZN8TListBox18SetColumnWidthModeENS_15ColumnWidthModeE _ZN9TComboBox7AddItemERK8TWString _ZN10TilconDemoC1Eiiiiii _ZN10TilconDemoC2Eiiiiii _ZN10TilconDemoD1Ev _ZN10TilconDemoD0Ev _ZN10WidgetDemoC1Ev _ZN10WidgetDemoC2Ev _ZN10WidgetDemoD1Ev _ZN10WidgetDemoD0Ev _ZN10WidgetDemoD2Ev _ZN10WidgetDemo18SizingRadioHandlerER10EventParam _ZN10WidgetDemo14HaRadioHandlerER10EventParam _ZN10WidgetDemo14VaRadioHandlerER10EventParam _ZN10WidgetDemo8OnAttachEv _ZN10WidgetDemo8OnDetachEv
	IMPORTS _ZTVSt9exception _ZTVSt13bad_exception _ZTVSt9bad_alloc _ZTV17TChildrenDelegate _ZTV6TImage _ZTV6TArrayIP5TNodeE _ZTV6TArrayI9ColorStopE _ZTI17TChildrenDelegate _ZTI6TArrayIP5TNodeE _ZTI6TImage _ZTI6TArrayI9ColorStopE _ZTISt9exception _ZTISt13bad_exception _ZTISt9bad_alloc _ZTS17TChildrenDelegate _ZTS6TArrayIP5TNodeE _ZTS6TImage _ZTS6TArrayI9ColorStopE _ZTSSt9exception _ZTSSt13bad_exception _ZTSSt9bad_alloc __frameinfo_used __cxa_allocate_exception __cxa_throw _Znaj memcpy _ZN6TLabelC1EiiiiRK8TWString _ZdaPv __diab_Unwind_Resume __diab_personality_v0 _ZN6TPanelC1Eiiii _ZdlPv _Znwj _ZN5TNode18OnChildBoundChangeEP8TControl _ZN5TNode8OnResizeEv _ZN5TNode6UpdateEv _ZN8TListBox6AddRowERK8TWStringi _ZN10TGridPanelC2Eiiiiii _ZN10TGridPanelD2Ev _ZN10TGridPanelC1Eiiiiii _ZN9TComboBoxC1Eiiii _ZN9TCheckBoxC1EiiiiRK8TWString _ZN10TScrollBarC1Eiiii15OrientationTypeiii _ZN11TScrollAreaC1Eiiiiii _ZN12TRadioButtonC1Eiiii _ZN7TSliderC1Eiiii15OrientationTypeiii _ZN15TSingleLineEditC1EiiiiRK8TWString _ZN12TProgressBarC1Eiiii15OrientationTypeiii _ZN10TTextTableC1Eiiiiii _ZN8TSpinBoxC1Eiiii _ZN8TListBoxC1Eiiiii _ZN6TLabelD1Ev __cxa_vec_ctor _ZN6TPanelD1Ev _ZN10TGridPanel10AddControlEP8TControliRK8GridCell _ZN8TControl7SetRectERK6_TRectIiE _ZN6TGroup10AddControlEP8TControli _ZN8TListBox19SetColumnHeaderTextEiRK8TWString _ZN8TListBox19SetFixedColumnWidthEii _ZN8TListBox11SetItemTextEiiRK8TWString _ZN12TRadioButton7AddItemERK8TWString _ZN9TComboBox12SetSelectionEi _ZN12TRadioButton15ChangeSelectionEi _ZN12TRadioButtonD1Ev __cxa_vec_dtor _ZN8TListBoxD1Ev _ZN8TSpinBoxD1Ev _ZN10TTextTableD1Ev _ZN12TProgressBarD1Ev _ZN15TSingleLineEditD1Ev _ZN7TSliderD1Ev _ZN11TScrollAreaD1Ev _ZN10TScrollBarD1Ev _ZN9TCheckBoxD1Ev _ZN9TComboBoxD1Ev _ZN10TGridPanelD1Ev _ZN8TControl18SetAlignmentPolicyE19HorizontalAlignment17VerticalAlignment __cxa_pure_virtual _ZTVN10__cxxabiv117__class_type_infoE _ZTVN10__cxxabiv120__si_class_type_infoE _ZTI10TGridPanel
	DECLARES 
	USES 
}
Module tilconDemoWidget.o {
	OBJECT += libtilconDemo.a::tilconDemoWidget.o
}
ObjectFile libtilconDemo.a::tilconDemoAnimation.o {
	NAME Object file tilconDemoAnimation.o from archive libtilconDemo.a
	EXPORTS _ZTV10TException _ZTV10TilconDemo _ZTV8AnimDemo _ZTVN7_TEventI10EventParamE15THandlerAdaptorE _ZTV6TArrayIN16TAnimationHelper7CommandEE _ZTVN7_TEventI10EventParamE17MemberFuncHandlerI8AnimDemoEE _ZTI10TException _ZTIN7_TEventI10EventParamE15THandlerAdaptorE _ZTIN7_TEventI10EventParamE17MemberFuncHandlerI8AnimDemoEE _ZTI10TilconDemo _ZTI6TArrayIN16TAnimationHelper7CommandEE _ZTI8AnimDemo _ZTS10TException _ZTSN7_TEventI10EventParamE15THandlerAdaptorE _ZTSN7_TEventI10EventParamE17MemberFuncHandlerI8AnimDemoEE _ZTS10TilconDemo _ZTS6TArrayIN16TAnimationHelper7CommandEE _ZTS8AnimDemo _ZN10TExceptionD1Ev _ZN10TExceptionD0Ev _ZN6TColorC1Ej _ZN6TColorC1ERKS_ _ZN8TWStringC1EPKw _ZN6_TRectIiEC1Ev _ZN6_TRectIiEC1ERK6_TSizeIiE _ZN6_TRectIiEC1ERK7_TPointIiERK6_TSizeIiE _ZNK6_TRectIiE6AdjustERK8_TMarginIiE _ZNK6_TRectIiEmiERK7_TPointIiE _ZN7_TEventI10EventParamED1Ev _ZN7_TEventI10EventParamE10SetHandlerI8AnimDemoEEvPT_NS1_17MemberFuncHandlerIS4_E8FuncTypeE _ZN7_TEventI10EventParamE15THandlerAdaptorD1Ev _ZN7_TEventI10EventParamE15THandlerAdaptorD0Ev _ZN7_TEventI10EventParamE17MemberFuncHandlerI8AnimDemoED1Ev _ZN7_TEventI10EventParamE17MemberFuncHandlerI8AnimDemoED0Ev _ZNK7_TEventI10EventParamE17MemberFuncHandlerI8AnimDemoE6InvokeERS0_ _ZN7_TEventI10EventParamE17MemberFuncHandlerI8AnimDemoE3dupEv _ZN7_TPointIfEC1Ev _ZN7_TPointIfED1Ev _ZN9TGradientC1ERKS_ _ZN6TPaintC1ERK6TColor _ZN6TPaintC1ERK9TGradient _ZN6TPaintD1Ev _ZN6TTimerC1Ev _ZN13TCustomVisualC1ERK11TCustomFill _ZN13TCustomVisualD1Ev _ZN13TCustomVisualaSERKS_ _ZNK8_TMarginIiEneERKS0_ _ZN8TControl9SetMarginERK8_TMarginIiE _ZNK6TArrayIN11TGridLayout10LayoutInfoEEixEi _ZN11TGridLayout10SetRowSizeEiNS_12LayoutMethodEi _ZN11TGridLayout13SetColumnSizeEiNS_12LayoutMethodEi _ZN10TilconDemoC1Eiiiiii _ZN10TilconDemoD1Ev _ZN10TilconDemoD0Ev _ZN6TArrayIN16TAnimationHelper7CommandEED1Ev _ZN6TArrayIN16TAnimationHelper7CommandEED0Ev _ZN6TArrayIN16TAnimationHelper7CommandEE13RoundCapacityEi _ZN6TArrayIN16TAnimationHelper7CommandEE8ExpandAtEii _ZN6TArrayIN16TAnimationHelper7CommandEE8InsertAtEiRKS1_ _ZN6TArrayIN16TAnimationHelper7CommandEE5ClearEv _ZNK6TArrayIN16TAnimationHelper7CommandEEixEi _ZN16TAnimationHelperC1Ev _ZN16TAnimationHelperC2Ev _ZNK16TAnimationHelper11LastCommandEv _ZN16TAnimationHelper11nullCommandE _ZN16TAnimationHelper10AddCommandEi _ZN16TAnimationHelper10AddCommandEffi _ZN16TAnimationHelper10AddCommandEffffi _ZN16TAnimationHelper12ClearCommandEv _ZN16TAnimationHelper4StepEv _ZN16TAnimationHelperD1Ev _ZN8AnimDemoC1Ev _ZN8AnimDemoC2Ev _ZN8AnimDemoD1Ev _ZN8AnimDemoD0Ev _ZN8AnimDemoD2Ev _ZN8AnimDemo16AnimTimerHandlerER10EventParam _ZN8AnimDemo24FormationChangeAnimationEv _ZN8AnimDemo19RandomMoveAnimationEv _ZN8AnimDemo18FormatRadioHandlerER10EventParam _ZN8AnimDemo18SpeedSliderHandlerER10EventParam _ZN8AnimDemo12SetAnimationEi _ZN8AnimDemo8OnAttachEv _ZN8AnimDemo8OnDetachEv
	IMPORTS _ZTVSt9exception _ZTVSt13bad_exception _ZTVSt9bad_alloc _ZTV17TChildrenDelegate _ZTV6TImage _ZTV6TArrayIP5TNodeE _ZTV6TArrayI9ColorStopE _ZTI17TChildrenDelegate _ZTI6TArrayIP5TNodeE _ZTI6TImage _ZTI6TArrayI9ColorStopE _ZTISt9exception _ZTISt13bad_exception _ZTISt9bad_alloc _ZTS17TChildrenDelegate _ZTS6TArrayIP5TNodeE _ZTS6TImage _ZTS6TArrayI9ColorStopE _ZTSSt9exception _ZTSSt13bad_exception _ZTSSt9bad_alloc __frameinfo_used _ZN11TPushButtonC1Eiiii _ZdlPv __cxa_allocate_exception __cxa_throw _Znaj memcpy _ZN6_TRectIiE8nullRectE _Znwj __diab_Unwind_Resume __diab_personality_v0 _ZN9TGradientC1Ev _ZN12TPixelBufferC1Ev _ZN9TGradientD1Ev _ZN12TPixelBufferD1Ev _ZN11TCustomFillC1ERKS_ _ZN11TCustomFillD1Ev _ZN11TCustomFillaSERKS_ _ZN5TNode18OnChildBoundChangeEP8TControl _ZN5TNode8OnResizeEv _ZN5TNode6UpdateEv _ZN10TGridPanelC2Eiiiiii _ZN10TGridPanelD2Ev _ZdaPv _ZN8TControl11SetPositionERK7_TPointIiE _ZN11TPushButtonD1Ev __cxa_vec_ctor _ZN6TPanelC1Eiiii _ZN10TGridPanelC1Eiiiiii _ZN6TLabelC1EiiiiRK8TWString _ZN12TRadioButtonC1Eiiii _ZN7TSliderC1Eiiii15OrientationTypeiii _ZN10TGridPanel10AddControlEP8TControliRK8GridCell _ZN12TRadioButton7AddItemERK8TWString _ZN10TGridPanel15AddControlAtTopEP8TControlRK8GridCell _ZN12TRadioButton12SetSelectionEi _ZN12TPixelBufferC1Eii _ZN8TPainterC1Ev _ZN8TPainter10BeginPaintER12TPixelBuffer _ZN8TPainter8SetBrushERK6TBrush _ZN8TPainter8FillRectERK6_TRectIiE _ZN8TPainter8EndPaintEv _ZN12TPatternFillC1ERK12TPixelBuffer _ZN11TCustomFillC1ERK12TPatternFill _ZN9TGradientC1EffffjPK6TColorPKf _ZN12TPixelBufferaSERKS_ _ZN14TVectorPainter12SetBlendModeE9BlendMode _ZN14TVectorPainter12SetFillPaintERK6TPaint _ZN5TPathC1ERK6_TRectIiE _ZN14TVectorPainter8FillPathERK5TPath _ZN5TPathD1Ev _ZN14TVectorPainter14SetStrokePaintERK6TPaint _ZN14TVectorPainter10StrokePathEPK7_TPointIfEji _ZN10TImageFillC1ERK12TPixelBuffer _ZN11TCustomFillC1ERK10TImageFill _ZN10TImageFillD1Ev _ZN6TGroup10AddControlEP8TControli _ZN12TPatternFillD1Ev _ZN8TPainterD1Ev __cxa_vec_dtor _ZN7TSliderD1Ev _ZN6TLabelD1Ev _ZN12TRadioButtonD1Ev _ZN10TGridPanelD1Ev _ZN6TPanelD1Ev _ZNK12TRadioButton12GetSelectionEv __div32 __rem32 cos sin rand _ZN8TControl7SetRectERK6_TRectIiE _ZN6TTimer5StartEv _ZN6TTimer4StopEv __cxa_pure_virtual _ZTVN10__cxxabiv117__class_type_infoE _ZTVN10__cxxabiv120__si_class_type_infoE _ZTI10TGridPanel
	DECLARES 
	USES 
}
Module tilconDemoAnimation.o {
	OBJECT += libtilconDemo.a::tilconDemoAnimation.o
}
ObjectFile libtilconDemo.a::tilconVectorFont.o {
	NAME Object file tilconVectorFont.o from archive libtilconDemo.a
	EXPORTS _ZTV10TException _ZTI10TException _ZTS10TException _ZN10TExceptionD1Ev _ZN10TExceptionD0Ev _ZN6TColorC1ERKS_ _ZN8TWStringC1EPKw _ZN6TPaintC1ERK6TColor _ZN6TPaintD1Ev _ZN17TVectorStringPathC1Ev _ZN17TVectorStringPathC2Ev _ZN17TVectorStringPathD1Ev _ZN17TVectorStringPathD2Ev _ZN17TVectorStringPath4DrawER8TPainter
	IMPORTS _ZTVSt9exception _ZTVSt13bad_exception _ZTVSt9bad_alloc _ZTV17TChildrenDelegate _ZTV6TImage _ZTV10TilconDemo _ZTV6TArrayIP5TNodeE _ZTV6TArrayI9ColorStopE _ZTI17TChildrenDelegate _ZTI6TArrayIP5TNodeE _ZTI6TImage _ZTI6TArrayI9ColorStopE _ZTI10TilconDemo _ZTISt9exception _ZTISt13bad_exception _ZTISt9bad_alloc _ZTS17TChildrenDelegate _ZTS6TArrayIP5TNodeE _ZTS6TImage _ZTS6TArrayI9ColorStopE _ZTS10TilconDemo _ZTSSt9exception _ZTSSt13bad_exception _ZTSSt9bad_alloc _ZdlPv __frameinfo_used __cxa_allocate_exception __cxa_throw _Znaj memcpy _ZN9TGradientC1Ev _ZN12TPixelBufferC1Ev _ZN9TGradientD1Ev __diab_Unwind_Resume __diab_personality_v0 _ZN12TPixelBufferD1Ev _ZN5TPathC1Ev _ZN5TFontC1EPKcj _ZN5TPath7AddTextERK5TFontRK8TWString _ZdaPv _ZNK5TPath12GetBoundRectEv _ZN5TPath9TranslateEff _ZN5TFontD1Ev _ZN5TPathD1Ev _ZN14TVectorPainter12SetFillPaintERK6TPaint _ZN14TVectorPainter8FillPathERK5TPath _ZTVN10__cxxabiv117__class_type_infoE
	DECLARES 
	USES 
}
Module tilconVectorFont.o {
	OBJECT += libtilconDemo.a::tilconVectorFont.o
}
ObjectFile libtilconDemo.a::tilconDemoUpdateGUI.o {
	NAME Object file tilconDemoUpdateGUI.o from archive libtilconDemo.a
	EXPORTS _ZTV10TException _ZTV10TilconDemo _ZTV13UpdateGUIDemo _ZTVN7_TEventI10EventParamE15THandlerAdaptorE _ZTVN7_TEventI10EventParamE17MemberFuncHandlerI13UpdateGUIDemoEE _ZTI10TException _ZTIN7_TEventI10EventParamE15THandlerAdaptorE _ZTIN7_TEventI10EventParamE17MemberFuncHandlerI13UpdateGUIDemoEE _ZTI10TilconDemo _ZTI13UpdateGUIDemo _ZTS10TException _ZTSN7_TEventI10EventParamE15THandlerAdaptorE _ZTSN7_TEventI10EventParamE17MemberFuncHandlerI13UpdateGUIDemoEE _ZTS10TilconDemo _ZTS13UpdateGUIDemo _Z9JobThreadPv _Z14MessageCallbckPv _ZN6TColorC1Ej _ZNK6TColorneERKS_ _ZN13UpdateGUIDemo10UpdateRateEv _ZN10TExceptionD1Ev _ZN10TExceptionD0Ev _ZN6TColorC1ERKS_ _ZN8TWStringC1EPKw _ZN8TWStringC1ERK7TString _ZN8TWStringaSERKS_ _ZNK8TWStringneERKS_ _ZNK6_TRectIiEmiERK7_TPointIiE _ZN7_TEventI10EventParamE10SetHandlerI13UpdateGUIDemoEEvPT_NS1_17MemberFuncHandlerIS4_E8FuncTypeE _ZN7_TEventI10EventParamE15THandlerAdaptorD1Ev _ZN7_TEventI10EventParamE15THandlerAdaptorD0Ev _ZN7_TEventI10EventParamE17MemberFuncHandlerI13UpdateGUIDemoED1Ev _ZN7_TEventI10EventParamE17MemberFuncHandlerI13UpdateGUIDemoED0Ev _ZNK7_TEventI10EventParamE17MemberFuncHandlerI13UpdateGUIDemoE6InvokeERS0_ _ZN7_TEventI10EventParamE17MemberFuncHandlerI13UpdateGUIDemoE3dupEv _ZN6TPaintC1ERK6TColor _ZN6TPaintD1Ev _ZNK8_TMarginIiEneERKS0_ _ZNK6TArrayIN11TGridLayout10LayoutInfoEEixEi _ZN11TGridLayout10SetRowSizeEiNS_12LayoutMethodEi _ZN11TGridLayout13SetColumnSizeEiNS_12LayoutMethodEi _ZN10TilconDemoC1Eiiiiii _ZN10TilconDemoD1Ev _ZN10TilconDemoD0Ev _ZN13UpdateGUIDemoC1Ev _ZN13UpdateGUIDemoC2Ev _ZN13UpdateGUIDemoD1Ev _ZN13UpdateGUIDemoD0Ev _ZN13UpdateGUIDemoD2Ev _ZN6_TRectIfEC1Ev _ZN13UpdateGUIDemo13UpdateHandlerER10EventParam _ZN13UpdateGUIDemo13ButtonHandlerER10EventParam _ZN13UpdateGUIDemo8OnAttachEv _ZN13UpdateGUIDemo8OnDetachEv
	IMPORTS _ZTVSt9exception _ZTVSt13bad_exception _ZTVSt9bad_alloc _ZTV17TChildrenDelegate _ZTV6TImage _ZTV6TArrayIP5TNodeE _ZTV6TArrayI9ColorStopE _ZTI17TChildrenDelegate _ZTI6TArrayIP5TNodeE _ZTI6TImage _ZTI6TArrayI9ColorStopE _ZTISt9exception _ZTISt13bad_exception _ZTISt9bad_alloc _ZTS17TChildrenDelegate _ZTS6TArrayIP5TNodeE _ZTS6TImage _ZTS6TArrayI9ColorStopE _ZTSSt9exception _ZTSSt13bad_exception _ZTSSt9bad_alloc __frameinfo_used _ZN12TApplication8InstanceEv taskDelay _ZN12TApplication11SendMessageERK8_app_msgi _ZN5TNode6UpdateEv _ZdlPv __cxa_allocate_exception __cxa_throw _Znaj memcpy _ZdaPv _Znwj __diab_Unwind_Resume __diab_personality_v0 _ZN9TGradientC1Ev _ZN12TPixelBufferC1Ev _ZN9TGradientD1Ev _ZN12TPixelBufferD1Ev _ZN10TGridPanelC2Eiiiiii _ZN5TNode18OnChildBoundChangeEP8TControl _ZN5TNode8OnResizeEv _ZN10TGridPanelD2Ev _ZN14TCustomControlC1Eiiii _ZN10TGridPanelC1Eiiiiii _ZN7TSliderC1Eiiii15OrientationTypeiii _ZN11TPushButtonC1Eiiii _ZN10TGridPanel10AddControlEP8TControliRK8GridCell _ZN7TSlider8SetRangeEii _ZN11TPushButtonD1Ev _ZN7TSliderD1Ev _ZN10TGridPanelD1Ev _ZN14TCustomControlD1Ev _ZN6_TRectIfE8nullRectE _ZN5TPathC1Ev sprintf _ZN7TStringC1EPKc _ZN5TFontC1EPKcj _ZN5TPath7AddTextERK5TFontRK8TWString _ZNK5TPath12GetBoundRectEv _ZN5TPath9TranslateEff _ZN8TPainter6SetPenERK4TPen __div32 _ZN14TVectorPainter15TranslateMatrixEff _ZN14TVectorPainter11ScaleMatrixEff _ZN14TVectorPainter12SetFillPaintERK6TPaint _ZN14TVectorPainter8FillPathERK5TPath _ZN7TSlider8SetValueEi _ZN5TFontD1Ev free _ZN5TPathD1Ev taskSpawn __cxa_pure_virtual _ZTVN10__cxxabiv117__class_type_infoE _ZTVN10__cxxabiv120__si_class_type_infoE _ZTI10TGridPanel
	DECLARES jobHandle
	USES 
}
Module tilconDemoUpdateGUI.o {
	OBJECT += libtilconDemo.a::tilconDemoUpdateGUI.o
}
ObjectFile libtilconDemo.a::tilconVectorSouthPark.o {
	NAME Object file tilconVectorSouthPark.o from archive libtilconDemo.a
	EXPORTS _ZTV10TException _ZTV6TArrayIN16TVectorSouthPark6ObjectEE _ZTI10TException _ZTI6TArrayIN16TVectorSouthPark6ObjectEE _ZTS10TException _ZTS6TArrayIN16TVectorSouthPark6ObjectEE _ZN10TExceptionD1Ev _ZN10TExceptionD0Ev _ZN10TMatrix3x3C1Efffffffff _ZN6TColorC1ERKS_ _ZN6TPaintC1ERK6TColor _ZN6TPaintD1Ev _ZN6TArrayIN16TVectorSouthPark6ObjectEED1Ev _ZN16TVectorSouthPark6ObjectD1Ev _ZN6TArrayIN16TVectorSouthPark6ObjectEED0Ev _ZN6TArrayIN16TVectorSouthPark6ObjectEE13RoundCapacityEi _ZN16TVectorSouthPark6ObjectaSERKS0_ _ZN6TArrayIN16TVectorSouthPark6ObjectEE8ExpandAtEii _ZN16TVectorSouthPark6ObjectC1Ev _ZN6TArrayIN16TVectorSouthPark6ObjectEE8InsertAtEiRKS1_ _ZNK6TArrayIN16TVectorSouthPark6ObjectEEixEi _ZN16TVectorSouthPark13AddFillObjectEPKhiPKfj _ZN16TVectorSouthPark15AddStrokeObjectEPKhiPKfjf _ZN16TVectorSouthPark14AddFillObjectMEPKhiPKfjS3_ _ZN16TVectorSouthPark23AddFillAndStrokeObjectMEPKhiPKfjjfS3_ _ZN6_TRectIfEC1ERKS0_ _ZNK6_TRectIfE7CombineERKS0_ _ZN16TVectorSouthParkC1Ev _ZN16TVectorSouthParkC2Ev _ZN16TVectorSouthParkD1Ev _ZN16TVectorSouthParkD2Ev _ZN16TVectorSouthPark4DrawER8TPainter
	IMPORTS _ZTVSt9exception _ZTVSt13bad_exception _ZTVSt9bad_alloc _ZTV17TChildrenDelegate _ZTV6TImage _ZTV10TilconDemo _ZTV6TArrayIP5TNodeE _ZTV6TArrayI9ColorStopE _ZTI17TChildrenDelegate _ZTI6TArrayIP5TNodeE _ZTI6TImage _ZTI6TArrayI9ColorStopE _ZTI10TilconDemo _ZTISt9exception _ZTISt13bad_exception _ZTISt9bad_alloc _ZTS17TChildrenDelegate _ZTS6TArrayIP5TNodeE _ZTS6TImage _ZTS6TArrayI9ColorStopE _ZTS10TilconDemo _ZTSSt9exception _ZTSSt13bad_exception _ZTSSt9bad_alloc _ZdlPv __frameinfo_used _ZN9TGradientC1Ev _ZN12TPixelBufferC1Ev _ZN9TGradientD1Ev __diab_Unwind_Resume __diab_personality_v0 _ZN12TPixelBufferD1Ev __cxa_vec_delete _ZN5TPathaSERKS_ _Znaj _ZdaPv __cxa_vec_new2 __cxa_allocate_exception __cxa_throw _ZN5TPathC1Ev _ZN5TPathC1EjPKhPKf _ZN5TPathD1Ev _ZN5TPath9TransformERK10TMatrix3x3 _ZN6_TRectIfE8nullRectE _ZNK5TPath12GetBoundRectEv _ZN5TPath9TranslateEff _ZN14TVectorPainter11ScaleMatrixEff _ZN14TVectorPainter12SetFillPaintERK6TPaint _ZN14TVectorPainter8FillPathERK5TPath _ZN14TVectorPainter14SetStrokePaintERK6TPaint _ZN14TVectorPainter12SetPathWidthEf _ZN14TVectorPainter10StrokePathERK5TPath _ZTVN10__cxxabiv117__class_type_infoE
	DECLARES 
	USES 
}
Module tilconVectorSouthPark.o {
	OBJECT += libtilconDemo.a::tilconVectorSouthPark.o
}
ObjectFile libtilconDemo.a::tilconDemoVectorGraphics.o {
	NAME Object file tilconDemoVectorGraphics.o from archive libtilconDemo.a
	EXPORTS _ZTV10TException _ZTV10TilconDemo _ZTV18VectorGraphicsDemo _ZTVN7_TEventI10EventParamE15THandlerAdaptorE _ZTVN7_TEventI10EventParamE17MemberFuncHandlerI18VectorGraphicsDemoEE _ZTI10TException _ZTIN7_TEventI10EventParamE15THandlerAdaptorE _ZTIN7_TEventI10EventParamE17MemberFuncHandlerI18VectorGraphicsDemoEE _ZTI10TilconDemo _ZTI18VectorGraphicsDemo _ZTS10TException _ZTSN7_TEventI10EventParamE15THandlerAdaptorE _ZTSN7_TEventI10EventParamE17MemberFuncHandlerI18VectorGraphicsDemoEE _ZTS10TilconDemo _ZTS18VectorGraphicsDemo _ZN10TExceptionD1Ev _ZN10TExceptionD0Ev _ZN6TColorC1Ej _ZN6TColorC1ERKS_ _ZN8TWStringC1EPKw _ZN6_TRectIiEC1ERKS0_ _ZN6_TRectIiEC1ERK7_TPointIiERK6_TSizeIiE _ZNK6_TRectIiEmiERK7_TPointIiE _ZN7_TEventI10EventParamE10SetHandlerI18VectorGraphicsDemoEEvPT_NS1_17MemberFuncHandlerIS4_E8FuncTypeE _ZN7_TEventI10EventParamE15THandlerAdaptorD1Ev _ZN7_TEventI10EventParamE15THandlerAdaptorD0Ev _ZN7_TEventI10EventParamE17MemberFuncHandlerI18VectorGraphicsDemoED1Ev _ZN7_TEventI10EventParamE17MemberFuncHandlerI18VectorGraphicsDemoED0Ev _ZNK7_TEventI10EventParamE17MemberFuncHandlerI18VectorGraphicsDemoE6InvokeERS0_ _ZN7_TEventI10EventParamE17MemberFuncHandlerI18VectorGraphicsDemoE3dupEv _ZN6TTimerC1Ev _ZNK8_TMarginIiEneERKS0_ _ZNK6TArrayIN11TGridLayout10LayoutInfoEEixEi _ZN11TGridLayout10SetRowSizeEiNS_12LayoutMethodEi _ZN11TGridLayout13SetColumnSizeEiNS_12LayoutMethodEi _ZN10TilconDemoC1Eiiiiii _ZN10TilconDemoD1Ev _ZN10TilconDemoD0Ev _ZN18VectorGraphicsDemoC1Ev _ZN18VectorGraphicsDemoC2Ev _ZN18VectorGraphicsDemoD1Ev _ZN18VectorGraphicsDemoD0Ev _ZN18VectorGraphicsDemoD2Ev _ZN18VectorGraphicsDemo12PaintHandlerER10EventParam _ZN18VectorGraphicsDemo12TimerHandlerER10EventParam _ZN18VectorGraphicsDemo13SliderHandlerER10EventParam _ZN18VectorGraphicsDemo12RadioHandlerER10EventParam _ZN18VectorGraphicsDemo8OnAttachEv _ZN18VectorGraphicsDemo8OnDetachEv
	IMPORTS _ZTVSt9exception _ZTVSt13bad_exception _ZTVSt9bad_alloc _ZTV17TChildrenDelegate _ZTV6TImage _ZTV6TArrayIP5TNodeE _ZTV6TArrayI9ColorStopE _ZTI17TChildrenDelegate _ZTI6TArrayIP5TNodeE _ZTI6TImage _ZTI6TArrayI9ColorStopE _ZTISt9exception _ZTISt13bad_exception _ZTISt9bad_alloc _ZTS17TChildrenDelegate _ZTS6TArrayIP5TNodeE _ZTS6TImage _ZTS6TArrayI9ColorStopE _ZTSSt9exception _ZTSSt13bad_exception _ZTSSt9bad_alloc _ZdlPv __frameinfo_used __cxa_allocate_exception __cxa_throw _Znaj memcpy _Znwj __diab_Unwind_Resume __diab_personality_v0 _ZN10TGridPanelC2Eiiiiii _ZN5TNode6UpdateEv _ZN5TNode18OnChildBoundChangeEP8TControl _ZN5TNode8OnResizeEv _ZN10TGridPanelD2Ev _ZN14TCustomControlC1Eiiii _ZN10TGridPanelC1Eiiiiii _ZN11TCustomFillC1Ev _ZN6TLabelC1EiiiiRK8TWString _ZdaPv _ZN7TSliderC1Eiiii15OrientationTypeiii _ZN9TCheckBoxC1EiiiiRK8TWString _ZN12TRadioButtonC1Eiiii _ZN11TVectorLionC1Ev _ZN16TVectorSouthParkC1Ev _ZN17TVectorStringPathC1Ev _ZN10TGridPanel10AddControlEP8TControliRK8GridCell _ZN12TRadioButton7AddItemERK8TWString _ZN12TPixelBufferC1Eii _ZN8TPainterC1Ev _ZN8TPainter10BeginPaintER12TPixelBuffer _ZN12TPixelBufferC1Ev _ZN8TPainter8SetBrushERK6TBrush _ZN12TPixelBufferD1Ev _ZN8TPainter8FillRectERK6_TRectIiE _ZN8TPainter8EndPaintEv _ZN12TPatternFillC1ERK12TPixelBuffer _ZN11TCustomFillaSERK12TPatternFill _ZN12TPatternFillD1Ev _ZN8TPainterD1Ev _ZN17TVectorStringPathD1Ev _ZN16TVectorSouthParkD1Ev _ZN11TVectorLionD1Ev _ZN12TRadioButtonD1Ev _ZN9TCheckBoxD1Ev _ZN7TSliderD1Ev _ZN6TLabelD1Ev _ZN11TCustomFillD1Ev _ZN10TGridPanelD1Ev _ZN14TCustomControlD1Ev _ZNK11TCustomFill8FillRectER8TPainterRK6_TRectIiE __div32 _ZN14TVectorPainter15TranslateMatrixEff _ZN14TVectorPainter12RotateMatrixEf _ZN14TVectorPainter11ScaleMatrixEff _ZNK12TRadioButton12GetSelectionEv _ZN11TVectorLion4DrawER8TPainter _ZN16TVectorSouthPark4DrawER8TPainter _ZN17TVectorStringPath4DrawER8TPainter _ZN7TSlider8SetValueEi _ZN6TTimer5StartEv _ZN6TTimer4StopEv __cxa_pure_virtual _ZTVN10__cxxabiv117__class_type_infoE _ZTVN10__cxxabiv120__si_class_type_infoE _ZTI10TGridPanel
	DECLARES 
	USES 
}
Module tilconDemoVectorGraphics.o {
	OBJECT += libtilconDemo.a::tilconDemoVectorGraphics.o
}
ObjectFile libtilconDemo.a::tilconDemoPainter.o {
	NAME Object file tilconDemoPainter.o from archive libtilconDemo.a
	EXPORTS _ZTV10TException _ZTV6TImage _ZTV10TilconDemo _ZTV11PainterDemo _ZTVN7_TEventI10EventParamE15THandlerAdaptorE _ZTV6TArrayI9ColorStopE _ZTVN7_TEventI10EventParamE17MemberFuncHandlerI11PainterDemoEE _ZTI10TException _ZTIN7_TEventI10EventParamE15THandlerAdaptorE _ZTIN7_TEventI10EventParamE17MemberFuncHandlerI11PainterDemoEE _ZTI6TImage _ZTI6TArrayI9ColorStopE _ZTI10TilconDemo _ZTI11PainterDemo _ZTS10TException _ZTSN7_TEventI10EventParamE15THandlerAdaptorE _ZTSN7_TEventI10EventParamE17MemberFuncHandlerI11PainterDemoEE _ZTS6TImage _ZTS6TArrayI9ColorStopE _ZTS10TilconDemo _ZTS11PainterDemo _ZN10TExceptionD1Ev _ZN10TExceptionD0Ev _ZN6TColorC1Ej _ZN6TColorC1ERKS_ _ZN8TWStringC1EPKw _ZN6_TRectIiEC1ERK7_TPointIiERK6_TSizeIiE _ZNK6_TRectIiEmiERK7_TPointIiE _ZN7_TEventI10EventParamE10SetHandlerI11PainterDemoEEvPT_NS1_17MemberFuncHandlerIS4_E8FuncTypeE _ZN7_TEventI10EventParamE15THandlerAdaptorD1Ev _ZN7_TEventI10EventParamE15THandlerAdaptorD0Ev _ZN7_TEventI10EventParamE17MemberFuncHandlerI11PainterDemoED1Ev _ZN7_TEventI10EventParamE17MemberFuncHandlerI11PainterDemoED0Ev _ZNK7_TEventI10EventParamE17MemberFuncHandlerI11PainterDemoE6InvokeERS0_ _ZN7_TEventI10EventParamE17MemberFuncHandlerI11PainterDemoE3dupEv _ZNK10TSharedPtrI9ImageDataE5DerefEv _ZN6TImageD1Ev _ZN6TImageD0Ev _ZN10TSharedPtrI18LinearGradientDataEaSERKS1_ _ZN10TSharedPtrI18RadialGradientDataEaSERKS1_ _ZN6TArrayI9ColorStopED1Ev _ZNK10TSharedPtrI13ColorStopDataE5DerefEv _ZN10TSharedPtrI13ColorStopDataEaSERKS1_ _ZN9TGradientC1ERKS_ _ZN9TGradientaSERKS_ _ZN6TArrayI9ColorStopED0Ev _ZN6TPaintC1Ev _ZN6TPaintC1ERK6TColor _ZN6TPaintC1ERK9TGradient _ZN6TPaintD1Ev _ZN6TPaintaSERKS_ _ZN6TBrushC1ERK6TColor _ZNK8_TMarginIiEneERKS0_ _ZN8TControl9SetMarginERK8_TMarginIiE _ZN8TControl6UpdateEv _ZNK6TArrayIN11TGridLayout10LayoutInfoEEixEi _ZN11TGridLayout10SetRowSizeEiNS_12LayoutMethodEi _ZN11TGridLayout13SetColumnSizeEiNS_12LayoutMethodEi _ZN10TilconDemoC1Eiiiiii _ZN10TilconDemoD1Ev _ZN10TilconDemoD0Ev _ZN6_TRectIfEC1Ev _ZN11PainterDemoC1Ev _ZN11PainterDemoC2Ev _ZN11PainterDemoD1Ev _ZN11PainterDemoD0Ev _ZN11PainterDemoD2Ev _ZN11PainterDemo12PaintHandlerER10EventParam _ZN11PainterDemo13UpdateHandlerER10EventParam _ZN11PainterDemo8OnAttachEv _ZN11PainterDemo8OnDetachEv
	IMPORTS _ZTVSt9exception _ZTVSt13bad_exception _ZTVSt9bad_alloc _ZTV17TChildrenDelegate _ZTV6TArrayIP5TNodeE _ZTI17TChildrenDelegate _ZTI6TArrayIP5TNodeE _ZTISt9exception _ZTISt13bad_exception _ZTISt9bad_alloc _ZTS17TChildrenDelegate _ZTS6TArrayIP5TNodeE _ZTSSt9exception _ZTSSt13bad_exception _ZTSSt9bad_alloc _ZdlPv __frameinfo_used __cxa_allocate_exception __cxa_throw _Znaj memcpy _Znwj __diab_Unwind_Resume __diab_personality_v0 _ZN9ImageDataD1Ev __cxa_vec_delete _ZN9TGradientC1Ev _ZN12TPixelBufferC1Ev _ZN9TGradientD1Ev _ZN12TPixelBufferD1Ev _ZN12TPixelBufferaSERKS_ _ZN5TNode18OnChildBoundChangeEP8TControl _ZN5TNode8OnResizeEv _ZN5TNode6UpdateEv _ZN10TGridPanelC2Eiiiiii _ZN10TGridPanelD2Ev _ZN6_TRectIfE8nullRectE _ZN11TCustomFillC1Ev _ZN14TCustomControlC1Eiiii _ZN10TGridPanelC1Eiiiiii _ZN6TLabelC1EiiiiRK8TWString _ZdaPv _ZN9TCheckBoxC1EiiiiRK8TWString _ZN12TRadioButtonC1Eiiii _ZN7TSliderC1Eiiii15OrientationTypeiii _ZN5TPathC1Ev _ZN10TGridPanel10AddControlEP8TControliRK8GridCell _ZN12TRadioButton7AddItemERK8TWString _ZN12TRadioButton12SetSelectionEi _ZN5TFontC1EPKcj _ZN5TPath7AddTextERK5TFontRK8TWString _ZNK5TPath12GetBoundRectEv _ZN5TPath9TranslateEff _ZN12TPixelBufferC1Eii _ZN8TPainterC1Ev _ZN8TPainter10BeginPaintER12TPixelBuffer _ZN8TPainter8SetBrushERK6TBrush _ZN8TPainter8FillRectERK6_TRectIiE _ZN8TPainter8EndPaintEv _ZN6TImageC1ERK12TPixelBuffer _ZN12TPixelBufferC1ERK6TImage _ZN12TPatternFillC1ERK12TPixelBuffer _ZN11TCustomFillaSERK12TPatternFill _ZN12TPatternFillD1Ev _ZN8TPainterD1Ev _ZN5TFontD1Ev _ZN5TPathD1Ev _ZN7TSliderD1Ev _ZN12TRadioButtonD1Ev _ZN9TCheckBoxD1Ev _ZN6TLabelD1Ev _ZN10TGridPanelD1Ev _ZN14TCustomControlD1Ev _ZN11TCustomFillD1Ev __div32 _ZNK11TCustomFill8FillRectER8TPainterRK6_TRectIiE _ZNK12TRadioButton12GetSelectionEv _ZN14TVectorPainter12SetBlendModeE9BlendMode cos sin _ZN9TGradientC1EffffjPK6TColorPKf _ZN9TGradientC1EfffffjPK6TColorPKf _ZN14TVectorPainter15TranslateMatrixEff _ZN14TVectorPainter11ScaleMatrixEff _ZN14TVectorPainter12SetFillPaintERK6TPaint _ZN14TVectorPainter8FillPathERK5TPath _ZN14TVectorPainter14SetStrokePaintERK6TPaint _ZN14TVectorPainter12SetPathWidthEf _ZN14TVectorPainter10StrokePathERK5TPath _ZN14TVectorPainter11ResetMatrixEv __cxa_pure_virtual _ZTVN10__cxxabiv117__class_type_infoE _ZTVN10__cxxabiv120__si_class_type_infoE _ZTI10TGridPanel
	DECLARES 
	USES 
}
Module tilconDemoPainter.o {
	OBJECT += libtilconDemo.a::tilconDemoPainter.o
}
ObjectFile libtilconDemo.a::tilconVectorLion.o {
	NAME Object file tilconVectorLion.o from archive libtilconDemo.a
	EXPORTS _ZN6TColorC1Ev _ZN6TColorC1ERKS_ _ZN6TPaintC1ERK6TColor _ZN6TPaintD1Ev _ZN11TVectorLion4initEijPKfi _ZN11TVectorLion5poly0Ev _ZN11TVectorLion5poly1Ev _ZN11TVectorLion5poly2Ev _ZN11TVectorLion5poly3Ev _ZN11TVectorLion5poly4Ev _ZN11TVectorLion5poly5Ev _ZN11TVectorLion5poly6Ev _ZN11TVectorLion5poly7Ev _ZN11TVectorLion5poly8Ev _ZN11TVectorLion5poly9Ev _ZN11TVectorLion6poly10Ev _ZN11TVectorLion6poly11Ev _ZN11TVectorLion6poly12Ev _ZN11TVectorLion6poly13Ev _ZN11TVectorLion6poly14Ev _ZN11TVectorLion6poly15Ev _ZN11TVectorLion6poly16Ev _ZN11TVectorLion6poly17Ev _ZN11TVectorLion6poly18Ev _ZN11TVectorLion6poly19Ev _ZN11TVectorLion6poly20Ev _ZN11TVectorLion6poly21Ev _ZN11TVectorLion6poly22Ev _ZN11TVectorLion6poly23Ev _ZN11TVectorLion6poly24Ev _ZN11TVectorLion6poly25Ev _ZN11TVectorLion6poly26Ev _ZN11TVectorLion6poly27Ev _ZN11TVectorLion6poly28Ev _ZN11TVectorLion6poly29Ev _ZN11TVectorLion6poly30Ev _ZN11TVectorLion6poly31Ev _ZN11TVectorLion6poly32Ev _ZN11TVectorLion6poly33Ev _ZN11TVectorLion6poly34Ev _ZN11TVectorLion6poly35Ev _ZN11TVectorLion6poly36Ev _ZN11TVectorLion6poly37Ev _ZN11TVectorLion6poly38Ev _ZN11TVectorLion6poly39Ev _ZN11TVectorLion6poly40Ev _ZN11TVectorLion6poly41Ev _ZN11TVectorLion6poly42Ev _ZN11TVectorLion6poly43Ev _ZN11TVectorLion6poly44Ev _ZN11TVectorLion6poly45Ev _ZN11TVectorLion6poly46Ev _ZN11TVectorLion6poly47Ev _ZN11TVectorLion6poly48Ev _ZN11TVectorLion6poly49Ev _ZN11TVectorLion6poly50Ev _ZN11TVectorLion6poly51Ev _ZN11TVectorLion6poly52Ev _ZN11TVectorLion6poly53Ev _ZN11TVectorLion6poly54Ev _ZN11TVectorLion6poly55Ev _ZN11TVectorLion6poly56Ev _ZN11TVectorLion6poly57Ev _ZN11TVectorLion6poly58Ev _ZN11TVectorLion6poly59Ev _ZN11TVectorLion6poly60Ev _ZN11TVectorLion6poly61Ev _ZN11TVectorLion6poly62Ev _ZN11TVectorLion6poly63Ev _ZN11TVectorLion6poly64Ev _ZN11TVectorLion6poly65Ev _ZN11TVectorLion6poly66Ev _ZN11TVectorLion6poly67Ev _ZN11TVectorLion6poly68Ev _ZN11TVectorLion6poly69Ev _ZN11TVectorLion6poly70Ev _ZN11TVectorLion6poly71Ev _ZN11TVectorLion6poly72Ev _ZN11TVectorLion6poly73Ev _ZN11TVectorLion6poly74Ev _ZN11TVectorLion6poly75Ev _ZN11TVectorLion6poly76Ev _ZN11TVectorLion6poly77Ev _ZN11TVectorLion6poly78Ev _ZN11TVectorLion6poly79Ev _ZN11TVectorLion6poly80Ev _ZN11TVectorLion6poly81Ev _ZN11TVectorLion6poly82Ev _ZN11TVectorLion6poly83Ev _ZN11TVectorLion6poly84Ev _ZN11TVectorLion6poly85Ev _ZN11TVectorLion6poly86Ev _ZN11TVectorLion6poly87Ev _ZN11TVectorLion6poly88Ev _ZN11TVectorLion6poly89Ev _ZN11TVectorLion6poly90Ev _ZN11TVectorLion6poly91Ev _ZN11TVectorLion6poly92Ev _ZN11TVectorLion6poly93Ev _ZN11TVectorLion6poly94Ev _ZN11TVectorLion6poly95Ev _ZN11TVectorLion6poly96Ev _ZN11TVectorLion6poly97Ev _ZN11TVectorLion6poly98Ev _ZN11TVectorLion6poly99Ev _ZN11TVectorLion7poly100Ev _ZN11TVectorLion7poly101Ev _ZN11TVectorLion7poly102Ev _ZN11TVectorLion7poly103Ev _ZN11TVectorLion7poly104Ev _ZN11TVectorLion7poly105Ev _ZN11TVectorLion7poly106Ev _ZN11TVectorLion7poly107Ev _ZN11TVectorLion7poly108Ev _ZN11TVectorLion7poly109Ev _ZN11TVectorLion7poly110Ev _ZN11TVectorLion7poly111Ev _ZN11TVectorLion7poly112Ev _ZN11TVectorLion7poly113Ev _ZN11TVectorLion7poly114Ev _ZN11TVectorLion7poly115Ev _ZN11TVectorLion7poly116Ev _ZN11TVectorLion7poly117Ev _ZN11TVectorLion7poly118Ev _ZN11TVectorLion7poly119Ev _ZN11TVectorLion7poly120Ev _ZN11TVectorLion7poly121Ev _ZN11TVectorLion7poly122Ev _ZN11TVectorLion7poly123Ev _ZN11TVectorLion7poly124Ev _ZN11TVectorLion7poly125Ev _ZN11TVectorLion7poly126Ev _ZN11TVectorLion7poly127Ev _ZN11TVectorLion7poly128Ev _ZN11TVectorLion7poly129Ev _ZN11TVectorLion7poly130Ev _ZN11TVectorLion7poly131Ev _ZN6_TRectIfEC1ERKS0_ _ZNK6_TRectIfE7CombineERKS0_ _ZN11TVectorLionC1Ev _ZN11TVectorLionC2Ev _ZN11TVectorLionD1Ev _ZN11TVectorLionD2Ev _ZN11TVectorLion4DrawER8TPainter
	IMPORTS _ZTVSt9exception _ZTVSt13bad_exception _ZTVSt9bad_alloc _ZTV10TException _ZTV17TChildrenDelegate _ZTV6TImage _ZTV10TilconDemo _ZTV6TArrayIP5TNodeE _ZTV6TArrayI9ColorStopE _ZTI10TException _ZTI17TChildrenDelegate _ZTI6TArrayIP5TNodeE _ZTI6TImage _ZTI6TArrayI9ColorStopE _ZTI10TilconDemo _ZTISt9exception _ZTISt13bad_exception _ZTISt9bad_alloc _ZTS10TException _ZTS17TChildrenDelegate _ZTS6TArrayIP5TNodeE _ZTS6TImage _ZTS6TArrayI9ColorStopE _ZTS10TilconDemo _ZTSSt9exception _ZTSSt13bad_exception _ZTSSt9bad_alloc __frameinfo_used _ZN9TGradientC1Ev _ZN12TPixelBufferC1Ev _ZN9TGradientD1Ev __diab_Unwind_Resume __diab_personality_v0 _ZN12TPixelBufferD1Ev memset _ZN5TPathC1EjPKhPKf _ZN5TPathaSERKS_ _ZN5TPathD1Ev __cxa_vec_ctor _ZN5TPathC1Ev _ZN6_TRectIfE8nullRectE _ZNK5TPath12GetBoundRectEv _ZN5TPath9TranslateEff __cxa_vec_dtor _ZN14TVectorPainter12SetFillPaintERK6TPaint _ZN14TVectorPainter8FillPathERK5TPath
	DECLARES 
	USES 
}
Module tilconVectorLion.o {
	OBJECT += libtilconDemo.a::tilconVectorLion.o
}
ObjectFile libtilconDemo.a::tilconOscilloscope.o {
	NAME Object file tilconOscilloscope.o from archive libtilconDemo.a
	EXPORTS _ZTV10TException _ZTV13TOscilloscope _ZTVN7_TEventI10EventParamE15THandlerAdaptorE _ZTVN7_TEventI10EventParamE17MemberFuncHandlerI13TOscilloscopeEE _ZTI10TException _ZTIN7_TEventI10EventParamE15THandlerAdaptorE _ZTIN7_TEventI10EventParamE17MemberFuncHandlerI13TOscilloscopeEE _ZTI13TOscilloscope _ZTS10TException _ZTSN7_TEventI10EventParamE15THandlerAdaptorE _ZTSN7_TEventI10EventParamE17MemberFuncHandlerI13TOscilloscopeEE _ZTS13TOscilloscope _ZN6TColorC1Ehhh _ZN8TWStringC1EPKw _ZN10TExceptionD1Ev _ZN8GridCellC1Eii _ZN7_TEventI10EventParamED1Ev _ZN7_TEventI10EventParamE10SetHandlerI13TOscilloscopeEEvPT_NS1_17MemberFuncHandlerIS4_E8FuncTypeE _ZN6TColorC1ERKS_ _ZN4TPenC1ERK6TColoriNS_9LineStyleE _ZN6TTimerC1Ev _ZN8_TMarginIiEC1Eiiii _ZNK8_TMarginIiEneERKS0_ _ZN8TControl9SetMarginERK8_TMarginIiE _ZN8TControl12SetFrameTypeE9FrameType _ZN7TWindow15AddControlAtTopEP8TControl _ZN7TWindow12SetFrameTypeE9FrameType _ZN7TWindow9SetMarginERK8_TMarginIiE _ZN8TWStringaSERKS_ _ZNK8TWStringneERKS_ _ZN11TPushButton7SetTextERK8TWString _ZN13TToggleButton10SetOutTextERK8TWString _ZN13TToggleButton9SetInTextERK8TWString _ZNK6TArrayIN11TGridLayout10LayoutInfoEEixEi _ZN11TGridLayout10SetRowSizeEiNS_12LayoutMethodEi _ZN11TGridLayout15SetFixedRowSizeEii _ZN11TGridLayout13SetColumnSizeEiNS_12LayoutMethodEi _ZN11TGridLayout18SetFixedColumnSizeEii _ZN11TGridLayout10SetSpacingERK8_TMarginIiE _ZN10TLineChart19SetSamplesPerScreenEj _ZNK6TArrayIN10TLineChart11ChannelInfoEEixEi _ZN10TLineChart10ScrollData10InsertDataEf _ZN10TLineChart9SweepData10InsertDataEf _ZN10TLineChart10InsertDataEif _ZN9TGroupBox15AddControlAtTopEP8TControl _ZN13TOscilloscopeC1Eiiii tilconOscilloscopeTaskEntry tilconOscilloscope _ZN10TExceptionD0Ev _ZN7_TEventI10EventParamE15THandlerAdaptorD1Ev _ZN7_TEventI10EventParamE15THandlerAdaptorD0Ev _ZN7_TEventI10EventParamE17MemberFuncHandlerI13TOscilloscopeED1Ev _ZN7_TEventI10EventParamE17MemberFuncHandlerI13TOscilloscopeED0Ev _ZNK7_TEventI10EventParamE17MemberFuncHandlerI13TOscilloscopeE6InvokeERS0_ _ZN7_TEventI10EventParamE17MemberFuncHandlerI13TOscilloscopeE3dupEv _ZN13TOscilloscopeC2Eiiii _ZN13TOscilloscopeD1Ev _ZN13TOscilloscopeD0Ev _ZN13TOscilloscopeD2Ev _ZN13TOscilloscope18GenerateSampleDataEij _ZN13TOscilloscope12TimerHandlerER10EventParam _ZN13TOscilloscope16ScaleSpinHandlerER10EventParam _ZN13TOscilloscope16SpeedSpinHandlerER10EventParam _ZN13TOscilloscope16CurveSpinHandlerER10EventParam _ZN13TOscilloscope17ShowToggleHandlerER10EventParam _ZN13TOscilloscope11ExitHandlerER10EventParam
	IMPORTS _ZTVSt9exception _ZTVSt13bad_exception _ZTVSt9bad_alloc _ZTV17TChildrenDelegate _ZTV6TImage _ZTV6TArrayIP5TNodeE _ZTV6TArrayI9ColorStopE _ZTI17TChildrenDelegate _ZTI6TArrayIP5TNodeE _ZTI6TImage _ZTI6TArrayI9ColorStopE _ZTISt9exception _ZTISt13bad_exception _ZTISt9bad_alloc _ZTS17TChildrenDelegate _ZTS6TArrayIP5TNodeE _ZTS6TImage _ZTS6TArrayI9ColorStopE _ZTSSt9exception _ZTSSt13bad_exception _ZTSSt9bad_alloc __frameinfo_used __cxa_allocate_exception __cxa_throw _Znaj memcpy _Znwj __diab_Unwind_Resume __diab_personality_v0 _ZN5TNode18OnChildBoundChangeEP8TControl _ZN5TNode8OnResizeEv _ZN5TNode6UpdateEv _ZN6TGroup10AddControlEP8TControli _ZdaPv __urem32 _ZN7TWindowC2EiiiiPS_NS_12WindowSizingENS_10WindowTypeE _ZN10TGridPanelC1Eiiiiii _ZN9TGroupBoxC1EiiiiRK8TWString _ZN6TLabelC1EiiiiRK8TWString _ZN12TTextSpinBoxC1Eiiii _ZN12TRadioButtonC1Eiiii _ZN8TSpinBoxC1Eiiii _ZN13TToggleButtonC1Eiiii _ZN11TPushButtonC1Eiiii _ZN10TLineChartC1Eiiiijj _ZN8TControl18SetAlignmentPolicyE19HorizontalAlignment17VerticalAlignment _ZN10TGridPanel15AddControlAtTopEP8TControlRK8GridCell _ZN12TTextSpinBox7AddItemERK8TWString _ZN12TTextSpinBox15ChangeSelectionEi _ZN12TRadioButton14SetItemsPerRowEi _ZN12TRadioButton7AddItemERK8TWString _ZN8TSpinBox11SetMinValueEi _ZN8TSpinBox11SetMaxValueEi _ZN8TSpinBox12SetIncrementEi _ZN8TSpinBox8SetValueEi _ZN10TLineChart13SetChannelPenEiRK4TPen _ZN10TLineChart16SetChannelOffsetEif _ZN6TTimer5StartEv _ZN10TLineChartD1Ev _ZN11TPushButtonD1Ev _ZN10TGridPanelD1Ev _ZN13TToggleButtonD1Ev _ZN8TSpinBoxD1Ev _ZN6TLabelD1Ev _ZN12TRadioButtonD1Ev _ZN9TGroupBoxD1Ev _ZN12TTextSpinBoxD1Ev _ZN7TWindowD2Ev _ZN12TApplicationC1ERK9TAppParam _ZN7TWindow4ShowEi _ZN12TApplication3RunEv _ZN7TWindow7DestroyEv _ZN12TApplicationD1Ev _ZdlPv _ZN9TAppParamC1EPKc _ZN9TAppParam3AddEPKc _ZN9TAppParamD1Ev taskSpawn _ZNK12TRadioButton12GetSelectionEv sin _ZNK12TTextSpinBox12GetSelectionEv _ZN10TChartBody15GenerateYLabelsERK8_TLinearIfERKNS_8BodyInfoER6TArrayI8TWStringE _ZN10TChartBody15GenerateXLabelsERK8_TLinearIfERKNS_8BodyInfoER6TArrayI8TWStringE _ZN10TLineChart19SetChannelAmplifierEif _ZN10TLineChart17SetChannelVisibleEii _ZN12TApplication8InstanceEv _ZN12TApplication4StopEi __cxa_pure_virtual _ZTVN10__cxxabiv117__class_type_infoE _ZTVN10__cxxabiv120__si_class_type_infoE _ZTI7TWindow
	DECLARES 
	USES 
}
Module tilconOscilloscope.o {
	OBJECT += libtilconDemo.a::tilconOscilloscope.o
}
ObjectFile libtilconDemo.a::tilconMineField.o {
	NAME Object file tilconMineField.o from archive libtilconDemo.a
	EXPORTS _ZTV10TException _ZTV10TMineField _ZTVN7_TEventI10EventParamE15THandlerAdaptorE _ZTV6TArrayIN10TMineField4TileEE _ZTVN7_TEventI10EventParamE17MemberFuncHandlerI10TMineFieldEE _ZTV6TArrayIiE _ZTV6TArrayI7_TPointIiEE _ZTI10TException _ZTIN7_TEventI10EventParamE15THandlerAdaptorE _ZTIN7_TEventI10EventParamE17MemberFuncHandlerI10TMineFieldEE _ZTI6TArrayIN10TMineField4TileEE _ZTI10TMineField _ZTI6TArrayIiE _ZTI6TArrayI7_TPointIiEE _ZTS10TException _ZTSN7_TEventI10EventParamE15THandlerAdaptorE _ZTSN7_TEventI10EventParamE17MemberFuncHandlerI10TMineFieldEE _ZTS6TArrayIN10TMineField4TileEE _ZTS10TMineField _ZTS6TArrayIiE _ZTS6TArrayI7_TPointIiEE _ZN10TExceptionD1Ev _ZN10TExceptionD0Ev _ZN6TColorC1Ej _ZN6TColorC1ERKS_ _ZN8TWStringC1EPKw _ZN7_TPointIiEC1Ev _ZN6_TRectIiEC1Ev _ZN6_TRectIiEC1ERKS0_ _ZNK6_TRectIiE6AdjustERK8_TMarginIiE _ZNK6_TRectIiE7CombineERKS0_ _ZNK6_TRectIiEmiERK7_TPointIiE _ZN7_TEventI10EventParamE10SetHandlerI10TMineFieldEEvPT_NS1_17MemberFuncHandlerIS4_E8FuncTypeE _ZN7_TEventI10EventParamE15THandlerAdaptorD1Ev _ZN7_TEventI10EventParamE15THandlerAdaptorD0Ev _ZN7_TEventI10EventParamE17MemberFuncHandlerI10TMineFieldED1Ev _ZN7_TEventI10EventParamE17MemberFuncHandlerI10TMineFieldED0Ev _ZNK7_TEventI10EventParamE17MemberFuncHandlerI10TMineFieldE6InvokeERS0_ _ZN7_TEventI10EventParamE17MemberFuncHandlerI10TMineFieldE3dupEv _ZN7_TPointIfEC1Ev _ZN7_TPointIfED1Ev _ZN6TPaintC1ERK6TColor _ZN6TPaintD1Ev _ZNK8_TMarginIiEneERKS0_ _ZN6TArrayIN10TMineField4TileEE13RoundCapacityEi _ZN6TArrayIN10TMineField4TileEE8ExpandAtEii _ZN6TArrayIN10TMineField4TileEEC1Ei _ZN6TArrayIN10TMineField4TileEED1Ev _ZN6TArrayIN10TMineField4TileEED0Ev _ZNK6TArrayIN10TMineField4TileEEixEi _ZN10TMineField10ClearFieldEv _ZN10TMineFieldC1Eii _ZN10TMineFieldC2Eii _ZN10TMineFieldD1Ev _ZN10TMineFieldD0Ev _ZN10TMineFieldD2Ev _ZN10TMineField13CheckProgressEv _ZN10TMineField9StartGameEi _ZN10TMineField13ResizeHandlerER10EventParam _ZNK10TMineField12IsValidPointERK7_TPointIiE _ZNK10TMineField12PointToIndexERK7_TPointIiE _ZN10TMineField2UpERK7_TPointIiERS1_ _ZN10TMineField4DownERK7_TPointIiERS1_ _ZN10TMineField4LeftERK7_TPointIiERS1_ _ZN10TMineField5RightERK7_TPointIiERS1_ _ZN10TMineField6UpLeftERK7_TPointIiERS1_ _ZN10TMineField7UpRightERK7_TPointIiERS1_ _ZN10TMineField8DownLeftERK7_TPointIiERS1_ _ZN10TMineField9DownRightERK7_TPointIiERS1_ _ZN6TArrayIiE13RoundCapacityEi _ZN6TArrayIiE8ExpandAtEii _ZN6TArrayIiEC1Ei _ZN6TArrayIiE8ShrinkAtEii _ZN6TArrayIiE8RemoveAtEi _ZNK6TArrayIiEixEi _ZN10TMineField13PopulateFieldERK7_TPointIiEi _ZN10TMineField8MarkCellERK7_TPointIiE _ZNK10TMineField8ExpandedERK7_TPointIiE _ZN6TArrayI7_TPointIiEED1Ev _ZN6TArrayI7_TPointIiEE13RoundCapacityEi _ZN6TArrayI7_TPointIiEE8ExpandAtEii _ZN6TArrayI7_TPointIiEE8InsertAtEiRKS1_ _ZN6TArrayI7_TPointIiEE8ShrinkAtEii _ZN6TArrayI7_TPointIiEE8RemoveAtEi _ZNK6TArrayI7_TPointIiEEixEi _ZN10TMineField11ExpandSpaceERK7_TPointIiE _ZN10TMineField8OpenCellERK7_TPointIiE _ZN10TMineField14OpenCellAroundERK7_TPointIiE _ZN10TMineField12MouseHandlerER10EventParam _ZN10TMineField12PaintHandlerER10EventParam _ZN6TArrayIiED1Ev _ZN6TArrayIiED0Ev _ZN6TArrayI7_TPointIiEED0Ev
	IMPORTS _ZTVSt9exception _ZTVSt13bad_exception _ZTVSt9bad_alloc _ZTV17TChildrenDelegate _ZTV6TImage _ZTV6TArrayIP5TNodeE _ZTV6TArrayI9ColorStopE _ZTI17TChildrenDelegate _ZTI6TArrayIP5TNodeE _ZTI6TImage _ZTI6TArrayI9ColorStopE _ZTISt9exception _ZTISt13bad_exception _ZTISt9bad_alloc _ZTS17TChildrenDelegate _ZTS6TArrayIP5TNodeE _ZTS6TImage _ZTS6TArrayI9ColorStopE _ZTI14TEventDelegate _ZTS14TEventDelegate _ZTSSt9exception _ZTSSt13bad_exception _ZTSSt9bad_alloc _ZdlPv __frameinfo_used __cxa_allocate_exception __cxa_throw _Znaj memcpy _ZN6_TRectIiE8nullRectE _Znwj __diab_Unwind_Resume __diab_personality_v0 _ZN9TGradientC1Ev _ZN12TPixelBufferC1Ev _ZN9TGradientD1Ev _ZN12TPixelBufferD1Ev _ZdaPv _ZN14TCustomControlC2Eiiii __cxa_vec_ctor _ZN5TNode6UpdateEv _ZN5TNode18OnChildBoundChangeEP8TControl _ZN5TNode8OnResizeEv __cxa_vec_dtor _ZN14TCustomControlD2Ev __div32 _ZN7TVisualC1E9FrameType _ZN8TPainterC1Ev _ZN12TPixelBufferC1Eii _ZN12TPixelBufferaSERKS_ _ZN8TPainter10BeginPaintER12TPixelBuffer memset _ZNK7TVisual4DrawER8TPainterRK11VisualStateRK6_TRectIiE _ZN8TPainter8EndPaintEv sin cos _ZN14TVectorPainter11ScaleMatrixEff _ZN14TVectorPainter12SetFillPaintERK6TPaint _ZN14TVectorPainter8FillPathEPK7_TPointIfEj _ZN5TPathC1Ev _ZN5TPath6MoveToEff _ZN5TPath6LineToEff _ZN14TVectorPainter12SetPathWidthEf _ZN14TVectorPainter14SetStrokePaintERK6TPaint _ZN14TVectorPainter10StrokePathERK5TPath _ZN5TPath5ClearEv _ZN5TPath5CloseEv _ZN14TVectorPainter8FillPathERK5TPath _ZN5TFontC1EPKcj _ZN5TPath7AddTextERK5TFontRK8TWString _ZN5TFontD1Ev _ZNK5TPath12GetBoundRectEv _ZN5TPath9TranslateEff _ZN5TPath5ScaleEff _ZN14TVectorPainter15TranslateMatrixEff _ZN5TPathD1Ev _ZN8TPainterD1Ev _ZN7TVisualD1Ev srand rand __cxa_vec_delete __cxa_vec_new2 _ZN8TPainter15DrawPixelBufferERK12TPixelBufferii _ZN8TPainter12SetTextColorERK6TColor _ZN8TPainter7SetFontERK5TFont _ZN8TPainter11DrawUCSTextERK8TWStringRK6_TRectIiE23TextHorizontalAlignment21TextVerticalAlignment _ZN14TCustomControl7OnEventER10EventParam _ZThn144_N14TCustomControl7OnEventER10EventParam __cxa_pure_virtual _ZTVN10__cxxabiv117__class_type_infoE _ZTVN10__cxxabiv120__si_class_type_infoE _ZTI14TCustomControl
	DECLARES 
	USES 
}
Module tilconMineField.o {
	OBJECT += libtilconDemo.a::tilconMineField.o
}
ObjectFile libtilconDemo.a::tilconMineSweeper.o {
	NAME Object file tilconMineSweeper.o from archive libtilconDemo.a
	EXPORTS _ZTV10TException _ZTV8TSweeper _ZTVN7_TEventI10EventParamE15THandlerAdaptorE _ZTVN7_TEventI10EventParamE17MemberFuncHandlerI8TSweeperEE _ZTI10TException _ZTIN7_TEventI10EventParamE15THandlerAdaptorE _ZTIN7_TEventI10EventParamE17MemberFuncHandlerI8TSweeperEE _ZTI8TSweeper _ZTS10TException _ZTSN7_TEventI10EventParamE15THandlerAdaptorE _ZTSN7_TEventI10EventParamE17MemberFuncHandlerI8TSweeperEE _ZTS8TSweeper _ZN6TColorC1Ej _ZNK6TColorneERKS_ _ZN8TWStringC1EPKw _ZN10TExceptionD1Ev _ZN8TWStringaSERKS_ _ZNK8TWStringneERKS_ _ZN7_TEventI10EventParamE10SetHandlerI8TSweeperEEvPT_NS1_17MemberFuncHandlerIS4_E8FuncTypeE _ZNK6TArrayIN11TGridLayout10LayoutInfoEEixEi _ZN11TGridLayout13SetColumnSizeEiNS_12LayoutMethodEi _ZN8TSweeperC1Eiiii tilconMineSweeperTaskEntry tilconMineSweeper _ZN10TExceptionD0Ev _ZN8TWStringC1ERK7TString _ZN7_TEventI10EventParamE15THandlerAdaptorD1Ev _ZN7_TEventI10EventParamE15THandlerAdaptorD0Ev _ZN7_TEventI10EventParamE17MemberFuncHandlerI8TSweeperED1Ev _ZN7_TEventI10EventParamE17MemberFuncHandlerI8TSweeperED0Ev _ZNK7_TEventI10EventParamE17MemberFuncHandlerI8TSweeperE6InvokeERS0_ _ZN7_TEventI10EventParamE17MemberFuncHandlerI8TSweeperE3dupEv _ZN8TSweeperC2Eiiii _ZN8TSweeperD1Ev _ZN8TSweeperD0Ev _ZN8TSweeperD2Ev _ZN8TSweeper18ButtonClickHandlerER10EventParam _ZN8TSweeper11UpdateStateEv _ZN8TSweeper15ProgressHandlerER10EventParam
	IMPORTS _ZTVSt9exception _ZTVSt13bad_exception _ZTVSt9bad_alloc _ZTV17TChildrenDelegate _ZTV6TImage _ZTV6TArrayIP5TNodeE _ZTV6TArrayI9ColorStopE _ZTI17TChildrenDelegate _ZTI6TArrayIP5TNodeE _ZTI6TImage _ZTI6TArrayI9ColorStopE _ZTISt9exception _ZTISt13bad_exception _ZTISt9bad_alloc _ZTS17TChildrenDelegate _ZTS6TArrayIP5TNodeE _ZTS6TImage _ZTS6TArrayI9ColorStopE _ZTSSt9exception _ZTSSt13bad_exception _ZTSSt9bad_alloc __frameinfo_used __cxa_allocate_exception __cxa_throw _Znaj memcpy _ZdaPv _Znwj __diab_Unwind_Resume __diab_personality_v0 _ZN7TWindowC2EiiiiPS_NS_12WindowSizingENS_10WindowTypeE _ZN10TGridPanelC1Eiiiiii _ZN11TPushButtonC1Eiiii _ZN6TLabelC1EiiiiRK8TWString _ZN12TProgressBarC1Eiiii15OrientationTypeiii _ZN10TMineFieldC1Eii _ZN5TNode8OnResizeEv _ZN5TNode6UpdateEv _ZN5TFontC1EPKcj _ZNK5TFontneERKS_ _ZN5TFontaSERKS_ _ZN5TNode18OnChildBoundChangeEP8TControl _ZN5TFontD1Ev _ZN8TControl18SetAlignmentPolicyE19HorizontalAlignment17VerticalAlignment _ZN10TGridPanel15AddControlAtTopEP8TControlRK8GridCell _ZN6TGroup10AddControlEP8TControli _ZN10TMineFieldD1Ev _ZN12TProgressBarD1Ev _ZN6TLabelD1Ev _ZN11TPushButtonD1Ev _ZN10TGridPanelD1Ev _ZN7TWindowD2Ev _ZN12TApplicationC1ERK9TAppParam _ZN7TWindow4ShowEi _ZN12TApplication3RunEv _ZN7TWindow7DestroyEv _ZN12TApplicationD1Ev _ZdlPv _ZN9TAppParamC1EPKc _ZN9TAppParam3AddEPKc _ZN9TAppParamD1Ev taskSpawn _ZN10TMineField9StartGameEi _ZN7TStringC1Ev _ZN7TString6FormatEiPKcz _ZN12TProgressBar8SetRangeEii _ZN12TProgressBar11SetProgressEi free __cxa_pure_virtual _ZTVN10__cxxabiv117__class_type_infoE _ZTVN10__cxxabiv120__si_class_type_infoE _ZTI7TWindow
	DECLARES 
	USES 
}
Module tilconMineSweeper.o {
	OBJECT += libtilconDemo.a::tilconMineSweeper.o
}
ObjectFile libtilconDemo.a::tilconTwd.o {
	NAME Object file tilconTwd.o from archive libtilconDemo.a
	EXPORTS _ZTV10TException _ZTVN7_TEventI10EventParamE15THandlerAdaptorE _ZTVN7_TEventI10EventParamE17MemberFuncHandlerI17TOscilloscopeDemoEE _ZTI10TException _ZTIN7_TEventI10EventParamE15THandlerAdaptorE _ZTIN7_TEventI10EventParamE17MemberFuncHandlerI17TOscilloscopeDemoEE _ZTS10TException _ZTSN7_TEventI10EventParamE15THandlerAdaptorE _ZTSN7_TEventI10EventParamE17MemberFuncHandlerI17TOscilloscopeDemoEE _ZN6TTimerC1Ev _ZN17TOscilloscopeDemoC1Ev _ZN17TOscilloscopeDemoD1Ev _ZN6TColorC1Ej _ZN6TColorC1ERKS_ _ZN7_TEventI10EventParamE10SetHandlerI17TOscilloscopeDemoEEvPT_NS1_17MemberFuncHandlerIS4_E8FuncTypeE _ZN13TCustomVisualC1ERK11TCustomFill _ZN13TCustomVisualD1Ev _ZN13TCustomVisualaSERKS_ _ZNK8_TMarginIiEneERKS0_ _ZN10TChartBody8BodyInfoC1Ev _ZN10TChartBody8BodyInfoD1Ev _ZN12TextPropertyaSERKS_ _ZN6TScale9ScaleInfoaSERKS0_ _ZN10TChartBody8BodyInfoaSERKS0_ _ZNK6TArrayIN10TLineChart11ChannelInfoEEixEi _ZN10TExceptionD1Ev _ZN10TLineChart10ScrollData10InsertDataEf _ZN10TLineChart9SweepData10InsertDataEf _ZN10TLineChart10InsertDataEif _ZN17TOscilloscopeDemo4InitEPKc tilconTwdTaskEntry tilconTwd _ZN10TExceptionD0Ev _ZN7_TEventI10EventParamE15THandlerAdaptorD1Ev _ZN7_TEventI10EventParamE15THandlerAdaptorD0Ev _ZN7_TEventI10EventParamE17MemberFuncHandlerI17TOscilloscopeDemoED1Ev _ZN7_TEventI10EventParamE17MemberFuncHandlerI17TOscilloscopeDemoED0Ev _ZNK7_TEventI10EventParamE17MemberFuncHandlerI17TOscilloscopeDemoE6InvokeERS0_ _ZN7_TEventI10EventParamE17MemberFuncHandlerI17TOscilloscopeDemoE3dupEv _ZN10TLineChart10ScrollData5ResetEv _ZN10TLineChart9SweepData5ResetEv _ZN10TLineChart9ResetDataEi _ZN17TOscilloscopeDemoC2Ev _ZN17TOscilloscopeDemoD2Ev _ZN17TOscilloscopeDemo18GenerateSampleDataEj _ZN17TOscilloscopeDemo12TimerHandlerER10EventParam _ZN17TOscilloscopeDemo23CurveShapeButtonHandlerER10EventParam _ZN17TOscilloscopeDemo22CurveModeButtonHanlderER10EventParam _ZN17TOscilloscopeDemo18ScaleButtonHandlerER10EventParam _ZN17TOscilloscopeDemo17OffsetSpinHandlerER10EventParam _ZN17TOscilloscopeDemo17ExitButtonHandlerER10EventParam
	IMPORTS _ZTVSt9exception _ZTVSt13bad_exception _ZTVSt9bad_alloc _ZTV17TChildrenDelegate _ZTV6TImage _ZTV6TArrayIP5TNodeE _ZTV6TArrayI9ColorStopE _ZTI17TChildrenDelegate _ZTI6TArrayIP5TNodeE _ZTI6TImage _ZTI6TArrayI9ColorStopE _ZTISt9exception _ZTISt13bad_exception _ZTISt9bad_alloc _ZTS17TChildrenDelegate _ZTS6TArrayIP5TNodeE _ZTS6TImage _ZTS6TArrayI9ColorStopE _ZTSSt9exception _ZTSSt13bad_exception _ZTSSt9bad_alloc __frameinfo_used _ZN7TWDFileC1Ev _ZN7TWDFileD1Ev __diab_Unwind_Resume __diab_personality_v0 _Znwj _ZN11TCustomFillC1ERKS_ _ZN11TCustomFillD1Ev _ZN11TCustomFillaSERKS_ _ZN6TScale9ScaleInfoC1Ev _ZN5TFontD1Ev _ZN5TFontaSERKS_ __cxa_allocate_exception __cxa_throw __urem32 _ZN5TNode6UpdateEv _ZN7TStringC1EPKc _ZN7TWDFile4LoadERK7TString free printf _ZNK7TWDFile16GetControlByNameERK7TString _ZN8TSpinBox11SetMinValueEi _ZN8TSpinBox11SetMaxValueEi _ZN10TSolidFillC1ERK6TColor _ZN11TCustomFillC1ERK10TSolidFill _ZN10TSolidFillD1Ev _ZN5TNode18OnChildBoundChangeEP8TControl _ZN5TNode8OnResizeEv _ZN10TLineChart11SetDataSizeEj _ZN10TChartBody15GenerateYLabelsERK8_TLinearIfERKNS_8BodyInfoER6TArrayI8TWStringE _ZN10TLineChart13SetChannelPenEiRK4TPen _ZN12TPixelBufferC1Ev _ZN10TLineChart15SetChannelBrushEiRK6TBrush _ZN12TPixelBufferD1Ev _ZN6TTimer5StartEv _ZN11TPushButton5ClickEv _ZN12TRadioButton15ChangeSelectionEi _ZN17TMultiStateButton11ChangeStateEi _ZN8TSpinBox11ChangeValueEi _ZN7TWindow4ShowEi _ZN12TApplication6CreateERK9TAppParam _ZN12TApplication3RunEv _ZdlPv _ZN12TApplication7DestroyEPS_ _ZN9TAppParamC1EPKc _ZN9TAppParam3AddEPKc _ZN9TAppParamD1Ev taskSpawn _ZNK12TRadioButton12GetSelectionEv sin rand __rem32 _ZN10TLineChart19SetChannelAmplifierEif _ZN10TLineChart16SetChannelOffsetEif _ZN12TApplication8InstanceEv _ZN12TApplication4StopEi __cxa_pure_virtual _ZTVN10__cxxabiv117__class_type_infoE _ZTVN10__cxxabiv120__si_class_type_infoE
	DECLARES 
	USES 
}
Module tilconTwd.o {
	OBJECT += libtilconDemo.a::tilconTwd.o
}
ObjectFile libtilconDemo.a::tilconRadar.o {
	NAME Object file tilconRadar.o from archive libtilconDemo.a
	EXPORTS _ZTVSt9exception _ZTV10TException _ZTVSt11logic_error _ZTVSt12length_error _ZTVN7_TEventI10EventParamE15THandlerAdaptorE _ZZNSt4listIPN9TRadarApp5PLANEESaIS2_EE8_IncsizeEjEs _ZTVN7_TEventI10EventParamE17MemberFuncHandlerI9TRadarAppEE _ZTI10TException _ZTIN7_TEventI10EventParamE15THandlerAdaptorE _ZTIN7_TEventI10EventParamE17MemberFuncHandlerI9TRadarAppEE _ZTISt9exception _ZTISt11logic_error _ZTISt12length_error _ZTS10TException _ZTSN7_TEventI10EventParamE15THandlerAdaptorE _ZTSN7_TEventI10EventParamE17MemberFuncHandlerI9TRadarAppEE _ZTSSt9exception _ZTSSt11logic_error _ZTSSt12length_error _ZN6TColorC1Ej _ZNK6TColorneERKS_ _ZN8TWStringC1EPKw _ZN10TExceptionD1Ev _ZN8TWStringaSERKS_ _ZNK8TWStringneERKS_ _ZN6_TRectIiEC1Ev _ZN6_TRectIiEC1ERKS0_ _ZN7_TEventI10EventParamE10SetHandlerI9TRadarAppEEvPT_NS1_17MemberFuncHandlerIS4_E8FuncTypeE _ZN6TTimerC1Ev _ZNK8_TMarginIiEneERKS0_ _ZNSt4listIPN9TRadarApp5PLANEESaIS2_EE8_BuynodeEv _ZNSt4listIPN9TRadarApp5PLANEESaIS2_EE5clearEv _ZNSt4listIPN9TRadarApp5PLANEESaIS2_EE5_TidyEv _ZN9TRadarAppC1ERK9TAppParam _ZN6TColorC1ERKS_ _ZN6TPaintC1ERK6TColor _ZN6TPaintD1Ev _ZN8TWStringC1ERK7TString _ZNSt4listIPN9TRadarApp5PLANEESaIS2_EE8_BuynodeEPNSt9_List_nodIS2_S3_E5_NodeES8_RKS2_ _ZNSs5eraseEjj _ZNSs5_TidyEbj _ZNSs5_CopyEjj _ZNSs5_GrowEjb _ZNSs6assignERKSsjj _ZNSs7_InsideEPKc _ZNSs6assignEPKcj _ZNSt11logic_errorC1ERKSs _ZNSt4listIPN9TRadarApp5PLANEESaIS2_EE8_IncsizeEj _ZNSt12length_errorD1Ev _ZNSt4listIPN9TRadarApp5PLANEESaIS2_EE7_InsertENS4_8iteratorERKS2_ _ZN9TRadarApp8AddPlaneEv _ZN9TRadarApp3RunEv _ZN9TRadarAppD1Ev tilconRadarTaskEntry tilconRadar _ZN10TExceptionD0Ev _ZN6_TRectIiEC1ERK7_TPointIiERK6_TSizeIiE _ZNK6_TRectIiEmiERK7_TPointIiE _ZN7_TEventI10EventParamE15THandlerAdaptorD1Ev _ZN7_TEventI10EventParamE15THandlerAdaptorD0Ev _ZN7_TEventI10EventParamE17MemberFuncHandlerI9TRadarAppED1Ev _ZN7_TEventI10EventParamE17MemberFuncHandlerI9TRadarAppED0Ev _ZNK7_TEventI10EventParamE17MemberFuncHandlerI9TRadarAppE6InvokeERS0_ _ZN7_TEventI10EventParamE17MemberFuncHandlerI9TRadarAppE3dupEv _ZN9TRadarAppC2ERK9TAppParam _ZN9TRadarApp9DrawRadarEv _ZNSt4listIPN9TRadarApp5PLANEESaIS2_EE5eraseENS4_8iteratorE _ZN9TRadarApp11RemovePlaneEv _ZN9TRadarApp10UpatePlaneEv _ZN9TRadarApp12TimerHandlerER10EventParam _ZN9TRadarApp11AnimHandlerER10EventParam _ZN9TRadarApp13WindowHandlerER10EventParam _ZN9TRadarApp16AddButtonHandlerER10EventParam _ZN9TRadarApp19RemoveButtonHandlerER10EventParam _ZNSt9exceptionD1Ev _ZNSt9exceptionD0Ev _ZNKSt9exception4whatEv _ZNSt11logic_errorD1Ev _ZNSt11logic_errorD0Ev _ZNKSt11logic_error4whatEv _ZNSt12length_errorD0Ev
	IMPORTS _ZTVSt13bad_exception _ZTVSt9bad_alloc _ZTV17TChildrenDelegate _ZTV6TImage _ZTVSt12domain_error _ZTVSt16invalid_argument _ZTVSt12out_of_range _ZTVSt13runtime_error _ZTVSt14overflow_error _ZTVSt15underflow_error _ZTVSt11range_error _ZTV6TArrayIP5TNodeE _ZTV6TArrayI9ColorStopE _ZTI17TChildrenDelegate _ZTI6TArrayIP5TNodeE _ZTI6TImage _ZTI6TArrayI9ColorStopE _ZTISt13bad_exception _ZTISt9bad_alloc _ZTISt12domain_error _ZTISt16invalid_argument _ZTISt12out_of_range _ZTISt13runtime_error _ZTISt14overflow_error _ZTISt15underflow_error _ZTISt11range_error _ZTS17TChildrenDelegate _ZTS6TArrayIP5TNodeE _ZTS6TImage _ZTS6TArrayI9ColorStopE _ZTSSt13bad_exception _ZTSSt9bad_alloc _ZTSSt12domain_error _ZTSSt16invalid_argument _ZTSSt12out_of_range _ZTSSt13runtime_error _ZTSSt14overflow_error _ZTSSt15underflow_error _ZTSSt11range_error __frameinfo_used __cxa_allocate_exception __cxa_throw _Znaj memcpy _ZdaPv _ZN6_TRectIiE8nullRectE _Znwj __diab_Unwind_Resume __diab_personality_v0 _ZdlPv _ZN12TApplicationC2ERK9TAppParam _ZN7TWindowC1EiiiiPS_NS_12WindowSizingENS_10WindowTypeE _ZN12TProgressBarC1Eiiii15OrientationTypeiii _ZN11TPushButtonC1Eiiii _ZN6TLabelC1EiiiiRK8TWString _ZN10TGridPanelC1Eiiiiii _ZN5TPathC1Ev _ZN5TNode8OnResizeEv _ZN5TNode6UpdateEv _ZN8TControl18SetAlignmentPolicyE19HorizontalAlignment17VerticalAlignment _ZN6TGroup10AddControlEP8TControli _ZN5TNode18OnChildBoundChangeEP8TControl _ZN10TGridPanel15AddControlAtTopEP8TControlRK8GridCell __div32 _ZN5TFontC1EPKcj _ZNK5TFontneERKS_ _ZN5TFontaSERKS_ _ZN5TFontD1Ev _ZN5TPath6MoveToEff _ZN5TPath6LineToEff _ZN5TPath5CloseEv _ZN5TPath5ScaleEff _ZN5TPath6RotateEf _ZN5TPathD1Ev _ZN10TGridPanelD1Ev _ZN6TLabelD1Ev _ZN11TPushButtonD1Ev _ZN12TProgressBarD1Ev _ZN7TWindowD1Ev _ZN12TApplicationD2Ev _ZN9TGradientC1Ev _ZN12TPixelBufferC1Ev _ZN9TGradientD1Ev _ZN12TPixelBufferD1Ev _ZNKSt12_String_base5_XranEv memmove __udiv32 __cxa_end_catch __cxa_begin_catch __cxa_rethrow _ZNKSt12_String_base5_XlenEv strlen __cxa_free_exception _ZN7TStringC1Ev rand __rem32 _ZN7TString6FormatEiPKcz free _ZN8TPainterC1Ev _ZN5TPathC1ERK5TFontRK8TWString _ZNK5TPath12GetBoundRectEv _ZN12TPixelBufferC1Eii _ZN8TPainter10BeginPaintER12TPixelBuffer _ZN8TPainter8SetBrushERK6TBrush _ZN8TPainter8FillRectEiiii _ZN14TVectorPainter15TranslateMatrixEff _ZN14TVectorPainter12SetFillPaintERK6TPaint _ZN14TVectorPainter8FillPathERK5TPath _ZN8TPainter8EndPaintEv _ZN12TApplication8InstanceEv _ZN7TWindow4rootE _ZN8TPainter10BeginPaintER7TWindow _ZN12TPixelBufferC1ERKS_ _ZN7TWindow14InvalidateRectERK6_TRectIiE _ZN6_TRectIiE7maxRectE _ZN7TWindow6CreateEv _ZN6TTimer5StartEv _ZN12TApplication3RunEv _ZN6TTimer4StopEv _ZN7TWindow7DestroyEv _ZN8TPainterD1Ev _ZN9TAppParamC1EPKc _ZN9TAppParam3AddEPKc _ZN9TAppParamD1Ev taskSpawn _ZNK7TWindow13GetWindowRectEv _ZN10TSolidFillC1ERK6TColor _ZNK10TSolidFill8FillRectER8TPainterRK6_TRectIiE _ZN8TPainter6SetPenERK4TPen _ZN8TPainter10DrawCircleERK6_TRectIiE _ZN14TVectorPainter14SetStrokePaintERK6TPaint _ZN14TVectorPainter10StrokePathERK5TPath _ZN14TVectorPainter12RotateMatrixEf _ZN8TPainter11DrawUCSTextEPKwiii _ZN14TVectorPainter11ResetMatrixEv _ZN8TPainter12SetTextColorERK6TColor _ZN8TPainter7SetFontERK5TFont _ZN8TPainter11DrawUCSTextERK8TWStringii _ZN10TSolidFillD1Ev cos sin _ZN7TWindow13SetWindowRectERK6_TRectIiE _ZN7TWindow4ShowEi _ZN12TProgressBar11SetProgressEi _ZN7TWindow4HideEv __cxa_call_unexpected __cxa_pure_virtual _ZTVN10__cxxabiv117__class_type_infoE _ZTVN10__cxxabiv120__si_class_type_infoE
	DECLARES 
	USES 
}
Module tilconRadar.o {
	OBJECT += libtilconDemo.a::tilconRadar.o
}
Library libtilconDemo.a {
	MODULES libtilconDemo.a::tilconDemoRandomCurve.o libtilconDemo.a::tilconDemoFont.o libtilconDemo.a::tilconBasic.o libtilconDemo.a::tilconDemoPrimitive.o libtilconDemo.a::tilconDemoWidget.o libtilconDemo.a::tilconDemoAnimation.o libtilconDemo.a::tilconVectorFont.o libtilconDemo.a::tilconDemoUpdateGUI.o libtilconDemo.a::tilconVectorSouthPark.o libtilconDemo.a::tilconDemoVectorGraphics.o libtilconDemo.a::tilconDemoPainter.o libtilconDemo.a::tilconVectorLion.o libtilconDemo.a::tilconOscilloscope.o libtilconDemo.a::tilconMineField.o libtilconDemo.a::tilconMineSweeper.o libtilconDemo.a::tilconTwd.o libtilconDemo.a::tilconRadar.o
}
