
libtilcon.a:

ufhbr24.o:
00000000 d page0Data
00001cb4 d pageArray
         U _ZTVSt9exception
         U _ZTVSt13bad_exception
         U _ZTVSt9bad_alloc
         U _ZTV10TException
         U _ZTI10TException
         U _ZTISt9exception
         U _ZTISt13bad_exception
         U _ZTISt9bad_alloc
         U _ZTS10TException
         U _ZTSSt9exception
         U _ZTSSt13bad_exception
         U _ZTSSt9bad_alloc
00001cbc D uglBMFFont_Helvetica_Bold_24

ufcni14.o:
00000000 d page0Data
00000d40 d pageArray
         U _ZTVSt9exception
         U _ZTVSt13bad_exception
         U _ZTVSt9bad_alloc
         U _ZTV10TException
         U _ZTI10TException
         U _ZTISt9exception
         U _ZTISt13bad_exception
         U _ZTISt9bad_alloc
         U _ZTS10TException
         U _ZTSSt9exception
         U _ZTSSt13bad_exception
         U _ZTSSt9bad_alloc
00000d48 D uglBMFFont_Courier_Oblique_14

uflbi08.o:
00000000 d page0Data
00000830 d pageArray
         U _ZTVSt9exception
         U _ZTVSt13bad_exception
         U _ZTVSt9bad_alloc
         U _ZTV10TException
         U _ZTI10TException
         U _ZTISt9exception
         U _ZTISt13bad_exception
         U _ZTISt9bad_alloc
         U _ZTS10TException
         U _ZTSSt9exception
         U _ZTSSt13bad_exception
         U _ZTSSt9bad_alloc
00000838 D uglBMFFont_Lucida_Sans_Bold_Italic_8

uftbi08.o:
00000000 d page0Data
00000804 d pageArray
         U _ZTVSt9exception
         U _ZTVSt13bad_exception
         U _ZTVSt9bad_alloc
         U _ZTV10TException
         U _ZTI10TException
         U _ZTISt9exception
         U _ZTISt13bad_exception
         U _ZTISt9bad_alloc
         U _ZTS10TException
         U _ZTSSt9exception
         U _ZTSSt13bad_exception
         U _ZTSSt9bad_alloc
0000080c D uglBMFFont_Times_Bold_Italic_8

ufhbr14.o:
00000000 d page0Data
00000d68 d pageArray
         U _ZTVSt9exception
         U _ZTVSt13bad_exception
         U _ZTVSt9bad_alloc
         U _ZTV10TException
         U _ZTI10TException
         U _ZTISt9exception
         U _ZTISt13bad_exception
         U _ZTISt9bad_alloc
         U _ZTS10TException
         U _ZTSSt9exception
         U _ZTSSt13bad_exception
         U _ZTSSt9bad_alloc
00000d70 D uglBMFFont_Helvetica_Bold_14

uftnr18.o:
00000000 d page0Data
00001098 d pageArray
         U _ZTVSt9exception
         U _ZTVSt13bad_exception
         U _ZTVSt9bad_alloc
         U _ZTV10TException
         U _ZTI10TException
         U _ZTISt9exception
         U _ZTISt13bad_exception
         U _ZTISt9bad_alloc
         U _ZTS10TException
         U _ZTSSt9exception
         U _ZTSSt13bad_exception
         U _ZTSSt9bad_alloc
000010a0 D uglBMFFont_Times_Roman_18

uftbi10.o:
00000000 d page0Data
000009a4 d pageArray
         U _ZTVSt9exception
         U _ZTVSt13bad_exception
         U _ZTVSt9bad_alloc
         U _ZTV10TException
         U _ZTI10TException
         U _ZTISt9exception
         U _ZTISt13bad_exception
         U _ZTISt9bad_alloc
         U _ZTS10TException
         U _ZTSSt9exception
         U _ZTSSt13bad_exception
         U _ZTSSt9bad_alloc
000009ac D uglBMFFont_Times_Bold_Italic_10

uflbr24.o:
00000000 d page0Data
00001cd4 d pageArray
         U _ZTVSt9exception
         U _ZTVSt13bad_exception
         U _ZTVSt9bad_alloc
         U _ZTV10TException
         U _ZTI10TException
         U _ZTISt9exception
         U _ZTISt13bad_exception
         U _ZTISt9bad_alloc
         U _ZTS10TException
         U _ZTSSt9exception
         U _ZTSSt13bad_exception
         U _ZTSSt9bad_alloc
00001cdc D uglBMFFont_Lucida_Sans_Bold_24

ufhbi14.o:
00000000 d page0Data
00000de4 d pageArray
         U _ZTVSt9exception
         U _ZTVSt13bad_exception
         U _ZTVSt9bad_alloc
         U _ZTV10TException
         U _ZTI10TException
         U _ZTISt9exception
         U _ZTISt13bad_exception
         U _ZTISt9bad_alloc
         U _ZTS10TException
         U _ZTSSt9exception
         U _ZTSSt13bad_exception
         U _ZTSSt9bad_alloc
00000dec D uglBMFFont_Helvetica_Bold_Oblique_14

uflbi12.o:
00000000 d page0Data
00000be8 d pageArray
         U _ZTVSt9exception
         U _ZTVSt13bad_exception
         U _ZTVSt9bad_alloc
         U _ZTV10TException
         U _ZTI10TException
         U _ZTISt9exception
         U _ZTISt13bad_exception
         U _ZTISt9bad_alloc
         U _ZTS10TException
         U _ZTSSt9exception
         U _ZTSSt13bad_exception
         U _ZTSSt9bad_alloc
00000bf0 D uglBMFFont_Lucida_Sans_Bold_Italic_12

uftni24.o:
00000000 d page0Data
00001954 d pageArray
         U _ZTVSt9exception
         U _ZTVSt13bad_exception
         U _ZTVSt9bad_alloc
         U _ZTV10TException
         U _ZTI10TException
         U _ZTISt9exception
         U _ZTISt13bad_exception
         U _ZTISt9bad_alloc
         U _ZTS10TException
         U _ZTSSt9exception
         U _ZTSSt13bad_exception
         U _ZTSSt9bad_alloc
0000195c D uglBMFFont_Times_Italic_24

ufcbi08.o:
00000000 d page0Data
0000083c d pageArray
         U _ZTVSt9exception
         U _ZTVSt13bad_exception
         U _ZTVSt9bad_alloc
         U _ZTV10TException
         U _ZTI10TException
         U _ZTISt9exception
         U _ZTISt13bad_exception
         U _ZTISt9bad_alloc
         U _ZTS10TException
         U _ZTSSt9exception
         U _ZTSSt13bad_exception
         U _ZTSSt9bad_alloc
00000844 D uglBMFFont_Courier_Bold_Oblique_8

ufcbr18.o:
00000000 d page0Data
00001140 d pageArray
         U _ZTVSt9exception
         U _ZTVSt13bad_exception
         U _ZTVSt9bad_alloc
         U _ZTV10TException
         U _ZTI10TException
         U _ZTISt9exception
         U _ZTISt13bad_exception
         U _ZTISt9bad_alloc
         U _ZTS10TException
         U _ZTSSt9exception
         U _ZTSSt13bad_exception
         U _ZTSSt9bad_alloc
00001148 D uglBMFFont_Courier_Bold_18

ufhnr08.o:
00000000 d page0Data
00000844 d pageArray
         U _ZTVSt9exception
         U _ZTVSt13bad_exception
         U _ZTVSt9bad_alloc
         U _ZTV10TException
         U _ZTI10TException
         U _ZTISt9exception
         U _ZTISt13bad_exception
         U _ZTISt9bad_alloc
         U _ZTS10TException
         U _ZTSSt9exception
         U _ZTSSt13bad_exception
         U _ZTSSt9bad_alloc
0000084c D uglBMFFont_Helvetica_8

uflbr14.o:
00000000 d page0Data
00000dc8 d pageArray
         U _ZTVSt9exception
         U _ZTVSt13bad_exception
         U _ZTVSt9bad_alloc
         U _ZTV10TException
         U _ZTI10TException
         U _ZTISt9exception
         U _ZTISt13bad_exception
         U _ZTISt9bad_alloc
         U _ZTS10TException
         U _ZTSSt9exception
         U _ZTSSt13bad_exception
         U _ZTSSt9bad_alloc
00000dd0 D uglBMFFont_Lucida_Sans_Bold_14

uflbr19.o:
00000000 d page0Data
00001464 d pageArray
         U _ZTVSt9exception
         U _ZTVSt13bad_exception
         U _ZTVSt9bad_alloc
         U _ZTV10TException
         U _ZTI10TException
         U _ZTISt9exception
         U _ZTISt13bad_exception
         U _ZTISt9bad_alloc
         U _ZTS10TException
         U _ZTSSt9exception
         U _ZTSSt13bad_exception
         U _ZTSSt9bad_alloc
0000146c D uglBMFFont_Lucida_Sans_Bold_19

uflbbr08.o:
00000000 d page0Data
0000080c d pageArray
         U _ZTVSt9exception
         U _ZTVSt13bad_exception
         U _ZTVSt9bad_alloc
         U _ZTV10TException
         U _ZTI10TException
         U _ZTISt9exception
         U _ZTISt13bad_exception
         U _ZTISt9bad_alloc
         U _ZTS10TException
         U _ZTSSt9exception
         U _ZTSSt13bad_exception
         U _ZTSSt9bad_alloc
00000814 D uglBMFFont_Lucida_Bright_Demibold_8

ufcni10.o:
00000000 d page0Data
00000934 d pageArray
         U _ZTVSt9exception
         U _ZTVSt13bad_exception
         U _ZTVSt9bad_alloc
         U _ZTV10TException
         U _ZTI10TException
         U _ZTISt9exception
         U _ZTISt13bad_exception
         U _ZTISt9bad_alloc
         U _ZTS10TException
         U _ZTSSt9exception
         U _ZTSSt13bad_exception
         U _ZTSSt9bad_alloc
0000093c D uglBMFFont_Courier_Oblique_10

ufhbi12.o:
00000000 d page0Data
00000bd4 d pageArray
         U _ZTVSt9exception
         U _ZTVSt13bad_exception
         U _ZTVSt9bad_alloc
         U _ZTV10TException
         U _ZTI10TException
         U _ZTISt9exception
         U _ZTISt13bad_exception
         U _ZTISt9bad_alloc
         U _ZTS10TException
         U _ZTSSt9exception
         U _ZTSSt13bad_exception
         U _ZTSSt9bad_alloc
00000bdc D uglBMFFont_Helvetica_Bold_Oblique_12

ufcbr14.o:
00000000 d page0Data
00000d38 d pageArray
         U _ZTVSt9exception
         U _ZTVSt13bad_exception
         U _ZTVSt9bad_alloc
         U _ZTV10TException
         U _ZTI10TException
         U _ZTISt9exception
         U _ZTISt13bad_exception
         U _ZTISt9bad_alloc
         U _ZTS10TException
         U _ZTSSt9exception
         U _ZTSSt13bad_exception
         U _ZTSSt9bad_alloc
00000d40 D uglBMFFont_Courier_Bold_14

ufhni10.o:
00000000 d page0Data
000009c0 d pageArray
         U _ZTVSt9exception
         U _ZTVSt13bad_exception
         U _ZTVSt9bad_alloc
         U _ZTV10TException
         U _ZTI10TException
         U _ZTISt9exception
         U _ZTISt13bad_exception
         U _ZTISt9bad_alloc
         U _ZTS10TException
         U _ZTSSt9exception
         U _ZTSSt13bad_exception
         U _ZTSSt9bad_alloc
000009c8 D uglBMFFont_Helvetica_Oblique_10

ufhbr10.o:
00000000 d page0Data
000009cc d pageArray
         U _ZTVSt9exception
         U _ZTVSt13bad_exception
         U _ZTVSt9bad_alloc
         U _ZTV10TException
         U _ZTI10TException
         U _ZTISt9exception
         U _ZTISt13bad_exception
         U _ZTISt9bad_alloc
         U _ZTS10TException
         U _ZTSSt9exception
         U _ZTSSt13bad_exception
         U _ZTSSt9bad_alloc
000009d4 D uglBMFFont_Helvetica_Bold_10

uftni14.o:
00000000 d page0Data
00000c7c d pageArray
         U _ZTVSt9exception
         U _ZTVSt13bad_exception
         U _ZTVSt9bad_alloc
         U _ZTV10TException
         U _ZTI10TException
         U _ZTISt9exception
         U _ZTISt13bad_exception
         U _ZTISt9bad_alloc
         U _ZTS10TException
         U _ZTSSt9exception
         U _ZTSSt13bad_exception
         U _ZTSSt9bad_alloc
00000c84 D uglBMFFont_Times_Italic_14

ufhni18.o:
00000000 d page0Data
00001210 d pageArray
         U _ZTVSt9exception
         U _ZTVSt13bad_exception
         U _ZTVSt9bad_alloc
         U _ZTV10TException
         U _ZTI10TException
         U _ZTISt9exception
         U _ZTISt13bad_exception
         U _ZTISt9bad_alloc
         U _ZTS10TException
         U _ZTSSt9exception
         U _ZTSSt13bad_exception
         U _ZTSSt9bad_alloc
00001218 D uglBMFFont_Helvetica_Oblique_18

uflbni12.o:
00000000 d page0Data
00000b14 d pageArray
         U _ZTVSt9exception
         U _ZTVSt13bad_exception
         U _ZTVSt9bad_alloc
         U _ZTV10TException
         U _ZTI10TException
         U _ZTISt9exception
         U _ZTISt13bad_exception
         U _ZTISt9bad_alloc
         U _ZTS10TException
         U _ZTSSt9exception
         U _ZTSSt13bad_exception
         U _ZTSSt9bad_alloc
00000b1c D uglBMFFont_Lucida_Bright_Italic_12

ufcbr24.o:
00000000 d page0Data
000019f0 d pageArray
         U _ZTVSt9exception
         U _ZTVSt13bad_exception
         U _ZTVSt9bad_alloc
         U _ZTV10TException
         U _ZTI10TException
         U _ZTISt9exception
         U _ZTISt13bad_exception
         U _ZTISt9bad_alloc
         U _ZTS10TException
         U _ZTSSt9exception
         U _ZTSSt13bad_exception
         U _ZTSSt9bad_alloc
000019f8 D uglBMFFont_Courier_Bold_24

uflbnr19.o:
00000000 d page0Data
00001304 d pageArray
         U _ZTVSt9exception
         U _ZTVSt13bad_exception
         U _ZTVSt9bad_alloc
         U _ZTV10TException
         U _ZTI10TException
         U _ZTISt9exception
         U _ZTISt13bad_exception
         U _ZTISt9bad_alloc
         U _ZTS10TException
         U _ZTSSt9exception
         U _ZTSSt13bad_exception
         U _ZTSSt9bad_alloc
0000130c D uglBMFFont_Lucida_Bright_19

uflbr10.o:
00000000 d page0Data
000009fc d pageArray
         U _ZTVSt9exception
         U _ZTVSt13bad_exception
         U _ZTVSt9bad_alloc
         U _ZTV10TException
         U _ZTI10TException
         U _ZTISt9exception
         U _ZTISt13bad_exception
         U _ZTISt9bad_alloc
         U _ZTS10TException
         U _ZTSSt9exception
         U _ZTSSt13bad_exception
         U _ZTSSt9bad_alloc
00000a04 D uglBMFFont_Lucida_Sans_Bold_10

uftnr10.o:
00000000 d page0Data
0000090c d pageArray
         U _ZTVSt9exception
         U _ZTVSt13bad_exception
         U _ZTVSt9bad_alloc
         U _ZTV10TException
         U _ZTI10TException
         U _ZTISt9exception
         U _ZTISt13bad_exception
         U _ZTISt9bad_alloc
         U _ZTS10TException
         U _ZTSSt9exception
         U _ZTSSt13bad_exception
         U _ZTSSt9bad_alloc
00000914 D uglBMFFont_Times_Roman_10

uftbr10.o:
00000000 d page0Data
00000954 d pageArray
         U _ZTVSt9exception
         U _ZTVSt13bad_exception
         U _ZTVSt9bad_alloc
         U _ZTV10TException
         U _ZTI10TException
         U _ZTISt9exception
         U _ZTISt13bad_exception
         U _ZTISt9bad_alloc
         U _ZTS10TException
         U _ZTSSt9exception
         U _ZTSSt13bad_exception
         U _ZTSSt9bad_alloc
0000095c D uglBMFFont_Times_Bold_10

uflbnr24.o:
00000000 d page0Data
00001a1c d pageArray
         U _ZTVSt9exception
         U _ZTVSt13bad_exception
         U _ZTVSt9bad_alloc
         U _ZTV10TException
         U _ZTI10TException
         U _ZTISt9exception
         U _ZTISt13bad_exception
         U _ZTISt9bad_alloc
         U _ZTS10TException
         U _ZTSSt9exception
         U _ZTSSt13bad_exception
         U _ZTSSt9bad_alloc
00001a24 D uglBMFFont_Lucida_Bright_24

ufcbi12.o:
00000000 d page0Data
00000afc d pageArray
         U _ZTVSt9exception
         U _ZTVSt13bad_exception
         U _ZTVSt9bad_alloc
         U _ZTV10TException
         U _ZTI10TException
         U _ZTISt9exception
         U _ZTISt13bad_exception
         U _ZTISt9bad_alloc
         U _ZTS10TException
         U _ZTSSt9exception
         U _ZTSSt13bad_exception
         U _ZTSSt9bad_alloc
00000b04 D uglBMFFont_Courier_Bold_Oblique_12

uflbni19.o:
00000000 d page0Data
00001384 d pageArray
         U _ZTVSt9exception
         U _ZTVSt13bad_exception
         U _ZTVSt9bad_alloc
         U _ZTV10TException
         U _ZTI10TException
         U _ZTISt9exception
         U _ZTISt13bad_exception
         U _ZTISt9bad_alloc
         U _ZTS10TException
         U _ZTSSt9exception
         U _ZTSSt13bad_exception
         U _ZTSSt9bad_alloc
0000138c D uglBMFFont_Lucida_Bright_Italic_19

uftbr24.o:
00000000 d page0Data
00001a08 d pageArray
         U _ZTVSt9exception
         U _ZTVSt13bad_exception
         U _ZTVSt9bad_alloc
         U _ZTV10TException
         U _ZTI10TException
         U _ZTISt9exception
         U _ZTISt13bad_exception
         U _ZTISt9bad_alloc
         U _ZTS10TException
         U _ZTSSt9exception
         U _ZTSSt13bad_exception
         U _ZTSSt9bad_alloc
00001a10 D uglBMFFont_Times_Bold_24

ufcnr08.o:
00000000 d page0Data
00000838 d pageArray
         U _ZTVSt9exception
         U _ZTVSt13bad_exception
         U _ZTVSt9bad_alloc
         U _ZTV10TException
         U _ZTI10TException
         U _ZTISt9exception
         U _ZTISt13bad_exception
         U _ZTISt9bad_alloc
         U _ZTS10TException
         U _ZTSSt9exception
         U _ZTSSt13bad_exception
         U _ZTSSt9bad_alloc
00000840 D uglBMFFont_Courier_8

uflbnr14.o:
00000000 d page0Data
00000c7c d pageArray
         U _ZTVSt9exception
         U _ZTVSt13bad_exception
         U _ZTVSt9bad_alloc
         U _ZTV10TException
         U _ZTI10TException
         U _ZTISt9exception
         U _ZTISt13bad_exception
         U _ZTISt9bad_alloc
         U _ZTS10TException
         U _ZTSSt9exception
         U _ZTSSt13bad_exception
         U _ZTSSt9bad_alloc
00000c84 D uglBMFFont_Lucida_Bright_14

uflbbi18.o:
00000000 d page0Data
00001238 d pageArray
         U _ZTVSt9exception
         U _ZTVSt13bad_exception
         U _ZTVSt9bad_alloc
         U _ZTV10TException
         U _ZTI10TException
         U _ZTISt9exception
         U _ZTISt13bad_exception
         U _ZTISt9bad_alloc
         U _ZTS10TException
         U _ZTSSt9exception
         U _ZTSSt13bad_exception
         U _ZTSSt9bad_alloc
00001240 D uglBMFFont_Lucida_Bright_Demibold_Italic_18

uflnr12.o:
00000000 d page0Data
00000b34 d pageArray
         U _ZTVSt9exception
         U _ZTVSt13bad_exception
         U _ZTVSt9bad_alloc
         U _ZTV10TException
         U _ZTI10TException
         U _ZTISt9exception
         U _ZTISt13bad_exception
         U _ZTISt9bad_alloc
         U _ZTS10TException
         U _ZTSSt9exception
         U _ZTSSt13bad_exception
         U _ZTSSt9bad_alloc
00000b3c D uglBMFFont_Lucida_Sans_12

uftni10.o:
00000000 d page0Data
0000095c d pageArray
         U _ZTVSt9exception
         U _ZTVSt13bad_exception
         U _ZTVSt9bad_alloc
         U _ZTV10TException
         U _ZTI10TException
         U _ZTISt9exception
         U _ZTISt13bad_exception
         U _ZTISt9bad_alloc
         U _ZTS10TException
         U _ZTSSt9exception
         U _ZTSSt13bad_exception
         U _ZTSSt9bad_alloc
00000964 D uglBMFFont_Times_Italic_10

ufhbi24.o:
00000000 d page0Data
00001d2c d pageArray
         U _ZTVSt9exception
         U _ZTVSt13bad_exception
         U _ZTVSt9bad_alloc
         U _ZTV10TException
         U _ZTI10TException
         U _ZTISt9exception
         U _ZTISt13bad_exception
         U _ZTISt9bad_alloc
         U _ZTS10TException
         U _ZTSSt9exception
         U _ZTSSt13bad_exception
         U _ZTSSt9bad_alloc
00001d34 D uglBMFFont_Helvetica_Bold_Oblique_24

uftni18.o:
00000000 d page0Data
00001090 d pageArray
         U _ZTVSt9exception
         U _ZTVSt13bad_exception
         U _ZTVSt9bad_alloc
         U _ZTV10TException
         U _ZTI10TException
         U _ZTISt9exception
         U _ZTISt13bad_exception
         U _ZTISt9bad_alloc
         U _ZTS10TException
         U _ZTSSt9exception
         U _ZTSSt13bad_exception
         U _ZTSSt9bad_alloc
00001098 D uglBMFFont_Times_Italic_18

uflbbr12.o:
00000000 d page0Data
00000b2c d pageArray
         U _ZTVSt9exception
         U _ZTVSt13bad_exception
         U _ZTVSt9bad_alloc
         U _ZTV10TException
         U _ZTI10TException
         U _ZTISt9exception
         U _ZTISt13bad_exception
         U _ZTISt9bad_alloc
         U _ZTS10TException
         U _ZTSSt9exception
         U _ZTSSt13bad_exception
         U _ZTSSt9bad_alloc
00000b34 D uglBMFFont_Lucida_Bright_Demibold_12

uflni08.o:
00000000 d page0Data
000007ec d pageArray
         U _ZTVSt9exception
         U _ZTVSt13bad_exception
         U _ZTVSt9bad_alloc
         U _ZTV10TException
         U _ZTI10TException
         U _ZTISt9exception
         U _ZTISt13bad_exception
         U _ZTISt9bad_alloc
         U _ZTS10TException
         U _ZTSSt9exception
         U _ZTSSt13bad_exception
         U _ZTSSt9bad_alloc
000007f4 D uglBMFFont_Lucida_Sans_Italic_8

uftbi14.o:
00000000 d page0Data
00000d04 d pageArray
         U _ZTVSt9exception
         U _ZTVSt13bad_exception
         U _ZTVSt9bad_alloc
         U _ZTV10TException
         U _ZTI10TException
         U _ZTISt9exception
         U _ZTISt13bad_exception
         U _ZTISt9bad_alloc
         U _ZTS10TException
         U _ZTSSt9exception
         U _ZTSSt13bad_exception
         U _ZTSSt9bad_alloc
00000d0c D uglBMFFont_Times_Bold_Italic_14

ufhbi18.o:
00000000 d page0Data
000012d8 d pageArray
         U _ZTVSt9exception
         U _ZTVSt13bad_exception
         U _ZTVSt9bad_alloc
         U _ZTV10TException
         U _ZTI10TException
         U _ZTISt9exception
         U _ZTISt13bad_exception
         U _ZTISt9bad_alloc
         U _ZTS10TException
         U _ZTSSt9exception
         U _ZTSSt13bad_exception
         U _ZTSSt9bad_alloc
000012e0 D uglBMFFont_Helvetica_Bold_Oblique_18

uflbnr12.o:
00000000 d page0Data
00000abc d pageArray
         U _ZTVSt9exception
         U _ZTVSt13bad_exception
         U _ZTVSt9bad_alloc
         U _ZTV10TException
         U _ZTI10TException
         U _ZTISt9exception
         U _ZTISt13bad_exception
         U _ZTISt9bad_alloc
         U _ZTS10TException
         U _ZTSSt9exception
         U _ZTSSt13bad_exception
         U _ZTSSt9bad_alloc
00000ac4 D uglBMFFont_Lucida_Bright_12

uflbni24.o:
00000000 d page0Data
00001b00 d pageArray
         U _ZTVSt9exception
         U _ZTVSt13bad_exception
         U _ZTVSt9bad_alloc
         U _ZTV10TException
         U _ZTI10TException
         U _ZTISt9exception
         U _ZTISt13bad_exception
         U _ZTISt9bad_alloc
         U _ZTS10TException
         U _ZTSSt9exception
         U _ZTSSt13bad_exception
         U _ZTSSt9bad_alloc
00001b08 D uglBMFFont_Lucida_Bright_Italic_24

uflni19.o:
00000000 d page0Data
0000131c d pageArray
         U _ZTVSt9exception
         U _ZTVSt13bad_exception
         U _ZTVSt9bad_alloc
         U _ZTV10TException
         U _ZTI10TException
         U _ZTISt9exception
         U _ZTISt13bad_exception
         U _ZTISt9bad_alloc
         U _ZTS10TException
         U _ZTSSt9exception
         U _ZTSSt13bad_exception
         U _ZTSSt9bad_alloc
00001324 D uglBMFFont_Lucida_Sans_Italic_19

uftbr08.o:
00000000 d page0Data
000007fc d pageArray
         U _ZTVSt9exception
         U _ZTVSt13bad_exception
         U _ZTVSt9bad_alloc
         U _ZTV10TException
         U _ZTI10TException
         U _ZTISt9exception
         U _ZTISt13bad_exception
         U _ZTISt9bad_alloc
         U _ZTS10TException
         U _ZTSSt9exception
         U _ZTSSt13bad_exception
         U _ZTSSt9bad_alloc
00000804 D uglBMFFont_Times_Bold_8

ufhbr12.o:
00000000 d page0Data
00000b50 d pageArray
         U _ZTVSt9exception
         U _ZTVSt13bad_exception
         U _ZTVSt9bad_alloc
         U _ZTV10TException
         U _ZTI10TException
         U _ZTISt9exception
         U _ZTISt13bad_exception
         U _ZTISt9bad_alloc
         U _ZTS10TException
         U _ZTSSt9exception
         U _ZTSSt13bad_exception
         U _ZTSSt9bad_alloc
00000b58 D uglBMFFont_Helvetica_Bold_12

uflbbi14.o:
00000000 d page0Data
00000d58 d pageArray
         U _ZTVSt9exception
         U _ZTVSt13bad_exception
         U _ZTVSt9bad_alloc
         U _ZTV10TException
         U _ZTI10TException
         U _ZTISt9exception
         U _ZTISt13bad_exception
         U _ZTISt9bad_alloc
         U _ZTS10TException
         U _ZTSSt9exception
         U _ZTSSt13bad_exception
         U _ZTSSt9bad_alloc
00000d60 D uglBMFFont_Lucida_Bright_Demibold_Italic_14

uflbnr10.o:
00000000 d page0Data
0000092c d pageArray
         U _ZTVSt9exception
         U _ZTVSt13bad_exception
         U _ZTVSt9bad_alloc
         U _ZTV10TException
         U _ZTI10TException
         U _ZTISt9exception
         U _ZTISt13bad_exception
         U _ZTISt9bad_alloc
         U _ZTS10TException
         U _ZTSSt9exception
         U _ZTSSt13bad_exception
         U _ZTSSt9bad_alloc
00000934 D uglBMFFont_Lucida_Bright_10

uflbi10.o:
00000000 d page0Data
00000a10 d pageArray
         U _ZTVSt9exception
         U _ZTVSt13bad_exception
         U _ZTVSt9bad_alloc
         U _ZTV10TException
         U _ZTI10TException
         U _ZTISt9exception
         U _ZTISt13bad_exception
         U _ZTISt9bad_alloc
         U _ZTS10TException
         U _ZTSSt9exception
         U _ZTSSt13bad_exception
         U _ZTSSt9bad_alloc
00000a18 D uglBMFFont_Lucida_Sans_Bold_Italic_10

ufcbi24.o:
00000000 d page0Data
00001a14 d pageArray
         U _ZTVSt9exception
         U _ZTVSt13bad_exception
         U _ZTVSt9bad_alloc
         U _ZTV10TException
         U _ZTI10TException
         U _ZTISt9exception
         U _ZTISt13bad_exception
         U _ZTISt9bad_alloc
         U _ZTS10TException
         U _ZTSSt9exception
         U _ZTSSt13bad_exception
         U _ZTSSt9bad_alloc
00001a1c D uglBMFFont_Courier_Bold_Oblique_24

uflbi18.o:
00000000 d page0Data
0000136c d pageArray
         U _ZTVSt9exception
         U _ZTVSt13bad_exception
         U _ZTVSt9bad_alloc
         U _ZTV10TException
         U _ZTI10TException
         U _ZTISt9exception
         U _ZTISt13bad_exception
         U _ZTISt9bad_alloc
         U _ZTS10TException
         U _ZTSSt9exception
         U _ZTSSt13bad_exception
         U _ZTSSt9bad_alloc
00001374 D uglBMFFont_Lucida_Sans_Bold_Italic_18

uftnr08.o:
00000000 d page0Data
000007c0 d pageArray
         U _ZTVSt9exception
         U _ZTVSt13bad_exception
         U _ZTVSt9bad_alloc
         U _ZTV10TException
         U _ZTI10TException
         U _ZTISt9exception
         U _ZTISt13bad_exception
         U _ZTISt9bad_alloc
         U _ZTS10TException
         U _ZTSSt9exception
         U _ZTSSt13bad_exception
         U _ZTSSt9bad_alloc
000007c8 D uglBMFFont_Times_Roman_8

ufcbi18.o:
00000000 d page0Data
00001174 d pageArray
         U _ZTVSt9exception
         U _ZTVSt13bad_exception
         U _ZTVSt9bad_alloc
         U _ZTV10TException
         U _ZTI10TException
         U _ZTISt9exception
         U _ZTISt13bad_exception
         U _ZTISt9bad_alloc
         U _ZTS10TException
         U _ZTSSt9exception
         U _ZTSSt13bad_exception
         U _ZTSSt9bad_alloc
0000117c D uglBMFFont_Courier_Bold_Oblique_18

ufcnr12.o:
00000000 d page0Data
00000aa0 d pageArray
         U _ZTVSt9exception
         U _ZTVSt13bad_exception
         U _ZTVSt9bad_alloc
         U _ZTV10TException
         U _ZTI10TException
         U _ZTISt9exception
         U _ZTISt13bad_exception
         U _ZTISt9bad_alloc
         U _ZTS10TException
         U _ZTSSt9exception
         U _ZTSSt13bad_exception
         U _ZTSSt9bad_alloc
00000aa8 D uglBMFFont_Courier_12

uflbi14.o:
00000000 d page0Data
00000dd4 d pageArray
         U _ZTVSt9exception
         U _ZTVSt13bad_exception
         U _ZTVSt9bad_alloc
         U _ZTV10TException
         U _ZTI10TException
         U _ZTISt9exception
         U _ZTISt13bad_exception
         U _ZTISt9bad_alloc
         U _ZTS10TException
         U _ZTSSt9exception
         U _ZTSSt13bad_exception
         U _ZTSSt9bad_alloc
00000ddc D uglBMFFont_Lucida_Sans_Bold_Italic_14

uflnr24.o:
00000000 d page0Data
00001a0c d pageArray
         U _ZTVSt9exception
         U _ZTVSt13bad_exception
         U _ZTVSt9bad_alloc
         U _ZTV10TException
         U _ZTI10TException
         U _ZTISt9exception
         U _ZTISt13bad_exception
         U _ZTISt9bad_alloc
         U _ZTS10TException
         U _ZTSSt9exception
         U _ZTSSt13bad_exception
         U _ZTSSt9bad_alloc
00001a14 D uglBMFFont_Lucida_Sans_24

ufhni12.o:
00000000 d page0Data
00000b60 d pageArray
         U _ZTVSt9exception
         U _ZTVSt13bad_exception
         U _ZTVSt9bad_alloc
         U _ZTV10TException
         U _ZTI10TException
         U _ZTISt9exception
         U _ZTISt13bad_exception
         U _ZTISt9bad_alloc
         U _ZTS10TException
         U _ZTSSt9exception
         U _ZTSSt13bad_exception
         U _ZTSSt9bad_alloc
00000b68 D uglBMFFont_Helvetica_Oblique_12

ufcni08.o:
00000000 d page0Data
00000830 d pageArray
         U _ZTVSt9exception
         U _ZTVSt13bad_exception
         U _ZTVSt9bad_alloc
         U _ZTV10TException
         U _ZTI10TException
         U _ZTISt9exception
         U _ZTISt13bad_exception
         U _ZTISt9bad_alloc
         U _ZTS10TException
         U _ZTSSt9exception
         U _ZTSSt13bad_exception
         U _ZTSSt9bad_alloc
00000838 D uglBMFFont_Courier_Oblique_8

ufhbr08.o:
00000000 d page0Data
00000868 d pageArray
         U _ZTVSt9exception
         U _ZTVSt13bad_exception
         U _ZTVSt9bad_alloc
         U _ZTV10TException
         U _ZTI10TException
         U _ZTISt9exception
         U _ZTISt13bad_exception
         U _ZTISt9bad_alloc
         U _ZTS10TException
         U _ZTSSt9exception
         U _ZTSSt13bad_exception
         U _ZTSSt9bad_alloc
00000870 D uglBMFFont_Helvetica_Bold_8

ufcni12.o:
00000000 d page0Data
00000ad8 d pageArray
         U _ZTVSt9exception
         U _ZTVSt13bad_exception
         U _ZTVSt9bad_alloc
         U _ZTV10TException
         U _ZTI10TException
         U _ZTISt9exception
         U _ZTISt13bad_exception
         U _ZTISt9bad_alloc
         U _ZTS10TException
         U _ZTSSt9exception
         U _ZTSSt13bad_exception
         U _ZTSSt9bad_alloc
00000ae0 D uglBMFFont_Courier_Oblique_12

uflnr19.o:
00000000 d page0Data
000012b8 d pageArray
         U _ZTVSt9exception
         U _ZTVSt13bad_exception
         U _ZTVSt9bad_alloc
         U _ZTV10TException
         U _ZTI10TException
         U _ZTISt9exception
         U _ZTISt13bad_exception
         U _ZTISt9bad_alloc
         U _ZTS10TException
         U _ZTSSt9exception
         U _ZTSSt13bad_exception
         U _ZTSSt9bad_alloc
000012c0 D uglBMFFont_Lucida_Sans_19

uflbnr18.o:
00000000 d page0Data
00001154 d pageArray
         U _ZTVSt9exception
         U _ZTVSt13bad_exception
         U _ZTVSt9bad_alloc
         U _ZTV10TException
         U _ZTI10TException
         U _ZTISt9exception
         U _ZTISt13bad_exception
         U _ZTISt9bad_alloc
         U _ZTS10TException
         U _ZTSSt9exception
         U _ZTSSt13bad_exception
         U _ZTSSt9bad_alloc
0000115c D uglBMFFont_Lucida_Bright_18

ufcbi14.o:
00000000 d page0Data
00000d78 d pageArray
         U _ZTVSt9exception
         U _ZTVSt13bad_exception
         U _ZTVSt9bad_alloc
         U _ZTV10TException
         U _ZTI10TException
         U _ZTISt9exception
         U _ZTISt13bad_exception
         U _ZTISt9bad_alloc
         U _ZTS10TException
         U _ZTSSt9exception
         U _ZTSSt13bad_exception
         U _ZTSSt9bad_alloc
00000d80 D uglBMFFont_Courier_Bold_Oblique_14

uftbi24.o:
00000000 d page0Data
000019f4 d pageArray
         U _ZTVSt9exception
         U _ZTVSt13bad_exception
         U _ZTVSt9bad_alloc
         U _ZTV10TException
         U _ZTI10TException
         U _ZTISt9exception
         U _ZTISt13bad_exception
         U _ZTISt9bad_alloc
         U _ZTS10TException
         U _ZTSSt9exception
         U _ZTSSt13bad_exception
         U _ZTSSt9bad_alloc
000019fc D uglBMFFont_Times_Bold_Italic_24

ufhnr24.o:
00000000 d page0Data
00001b6c d pageArray
         U _ZTVSt9exception
         U _ZTVSt13bad_exception
         U _ZTVSt9bad_alloc
         U _ZTV10TException
         U _ZTI10TException
         U _ZTISt9exception
         U _ZTISt13bad_exception
         U _ZTISt9bad_alloc
         U _ZTS10TException
         U _ZTSSt9exception
         U _ZTSSt13bad_exception
         U _ZTSSt9bad_alloc
00001b74 D uglBMFFont_Helvetica_24

uflbbi08.o:
00000000 d page0Data
00000818 d pageArray
         U _ZTVSt9exception
         U _ZTVSt13bad_exception
         U _ZTVSt9bad_alloc
         U _ZTV10TException
         U _ZTI10TException
         U _ZTISt9exception
         U _ZTISt13bad_exception
         U _ZTISt9bad_alloc
         U _ZTS10TException
         U _ZTSSt9exception
         U _ZTSSt13bad_exception
         U _ZTSSt9bad_alloc
00000820 D uglBMFFont_Lucida_Bright_Demibold_Italic_8

ufhbi10.o:
00000000 d page0Data
00000a10 d pageArray
         U _ZTVSt9exception
         U _ZTVSt13bad_exception
         U _ZTVSt9bad_alloc
         U _ZTV10TException
         U _ZTI10TException
         U _ZTISt9exception
         U _ZTISt13bad_exception
         U _ZTISt9bad_alloc
         U _ZTS10TException
         U _ZTSSt9exception
         U _ZTSSt13bad_exception
         U _ZTSSt9bad_alloc
00000a18 D uglBMFFont_Helvetica_Bold_Oblique_10

uflbbr18.o:
00000000 d page0Data
000011cc d pageArray
         U _ZTVSt9exception
         U _ZTVSt13bad_exception
         U _ZTVSt9bad_alloc
         U _ZTV10TException
         U _ZTI10TException
         U _ZTISt9exception
         U _ZTISt13bad_exception
         U _ZTISt9bad_alloc
         U _ZTS10TException
         U _ZTSSt9exception
         U _ZTSSt13bad_exception
         U _ZTSSt9bad_alloc
000011d4 D uglBMFFont_Lucida_Bright_Demibold_18

ufcbr10.o:
00000000 d page0Data
00000954 d pageArray
         U _ZTVSt9exception
         U _ZTVSt13bad_exception
         U _ZTVSt9bad_alloc
         U _ZTV10TException
         U _ZTI10TException
         U _ZTISt9exception
         U _ZTISt13bad_exception
         U _ZTISt9bad_alloc
         U _ZTS10TException
         U _ZTSSt9exception
         U _ZTSSt13bad_exception
         U _ZTSSt9bad_alloc
0000095c D uglBMFFont_Courier_Bold_10

uflbbr24.o:
00000000 d page0Data
00001bb4 d pageArray
         U _ZTVSt9exception
         U _ZTVSt13bad_exception
         U _ZTVSt9bad_alloc
         U _ZTV10TException
         U _ZTI10TException
         U _ZTISt9exception
         U _ZTISt13bad_exception
         U _ZTISt9bad_alloc
         U _ZTS10TException
         U _ZTSSt9exception
         U _ZTSSt13bad_exception
         U _ZTSSt9bad_alloc
00001bbc D uglBMFFont_Lucida_Bright_Demibold_24

uflbr08.o:
00000000 d page0Data
0000082c d pageArray
         U _ZTVSt9exception
         U _ZTVSt13bad_exception
         U _ZTVSt9bad_alloc
         U _ZTV10TException
         U _ZTI10TException
         U _ZTISt9exception
         U _ZTISt13bad_exception
         U _ZTISt9bad_alloc
         U _ZTS10TException
         U _ZTSSt9exception
         U _ZTSSt13bad_exception
         U _ZTSSt9bad_alloc
00000834 D uglBMFFont_Lucida_Sans_Bold_8

uflnr14.o:
00000000 d page0Data
00000ce4 d pageArray
         U _ZTVSt9exception
         U _ZTVSt13bad_exception
         U _ZTVSt9bad_alloc
         U _ZTV10TException
         U _ZTI10TException
         U _ZTISt9exception
         U _ZTISt13bad_exception
         U _ZTISt9bad_alloc
         U _ZTS10TException
         U _ZTSSt9exception
         U _ZTSSt13bad_exception
         U _ZTSSt9bad_alloc
00000cec D uglBMFFont_Lucida_Sans_14

ufhnr14.o:
00000000 d page0Data
00000cf8 d pageArray
         U _ZTVSt9exception
         U _ZTVSt13bad_exception
         U _ZTVSt9bad_alloc
         U _ZTV10TException
         U _ZTI10TException
         U _ZTISt9exception
         U _ZTISt13bad_exception
         U _ZTISt9bad_alloc
         U _ZTS10TException
         U _ZTSSt9exception
         U _ZTSSt13bad_exception
         U _ZTSSt9bad_alloc
00000d00 D uglBMFFont_Helvetica_14

uflbni10.o:
00000000 d page0Data
00000954 d pageArray
         U _ZTVSt9exception
         U _ZTVSt13bad_exception
         U _ZTVSt9bad_alloc
         U _ZTV10TException
         U _ZTI10TException
         U _ZTISt9exception
         U _ZTISt13bad_exception
         U _ZTISt9bad_alloc
         U _ZTS10TException
         U _ZTSSt9exception
         U _ZTSSt13bad_exception
         U _ZTSSt9bad_alloc
0000095c D uglBMFFont_Lucida_Bright_Italic_10

uflbbr14.o:
00000000 d page0Data
00000d10 d pageArray
         U _ZTVSt9exception
         U _ZTVSt13bad_exception
         U _ZTVSt9bad_alloc
         U _ZTV10TException
         U _ZTI10TException
         U _ZTISt9exception
         U _ZTISt13bad_exception
         U _ZTISt9bad_alloc
         U _ZTS10TException
         U _ZTSSt9exception
         U _ZTSSt13bad_exception
         U _ZTSSt9bad_alloc
00000d18 D uglBMFFont_Lucida_Bright_Demibold_14

ufcbr08.o:
00000000 d page0Data
00000834 d pageArray
         U _ZTVSt9exception
         U _ZTVSt13bad_exception
         U _ZTVSt9bad_alloc
         U _ZTV10TException
         U _ZTI10TException
         U _ZTISt9exception
         U _ZTISt13bad_exception
         U _ZTISt9bad_alloc
         U _ZTS10TException
         U _ZTSSt9exception
         U _ZTSSt13bad_exception
         U _ZTSSt9bad_alloc
0000083c D uglBMFFont_Courier_Bold_8

uflni24.o:
00000000 d page0Data
00001a68 d pageArray
         U _ZTVSt9exception
         U _ZTVSt13bad_exception
         U _ZTVSt9bad_alloc
         U _ZTV10TException
         U _ZTI10TException
         U _ZTISt9exception
         U _ZTISt13bad_exception
         U _ZTISt9bad_alloc
         U _ZTS10TException
         U _ZTSSt9exception
         U _ZTSSt13bad_exception
         U _ZTSSt9bad_alloc
00001a70 D uglBMFFont_Lucida_Sans_Italic_24

uflbr18.o:
00000000 d page0Data
00001354 d pageArray
         U _ZTVSt9exception
         U _ZTVSt13bad_exception
         U _ZTVSt9bad_alloc
         U _ZTV10TException
         U _ZTI10TException
         U _ZTISt9exception
         U _ZTISt13bad_exception
         U _ZTISt9bad_alloc
         U _ZTS10TException
         U _ZTSSt9exception
         U _ZTSSt13bad_exception
         U _ZTSSt9bad_alloc
0000135c D uglBMFFont_Lucida_Sans_Bold_18

ufcbi10.o:
00000000 d page0Data
00000968 d pageArray
         U _ZTVSt9exception
         U _ZTVSt13bad_exception
         U _ZTVSt9bad_alloc
         U _ZTV10TException
         U _ZTI10TException
         U _ZTISt9exception
         U _ZTISt13bad_exception
         U _ZTISt9bad_alloc
         U _ZTS10TException
         U _ZTSSt9exception
         U _ZTSSt13bad_exception
         U _ZTSSt9bad_alloc
00000970 D uglBMFFont_Courier_Bold_Oblique_10

uftnr12.o:
00000000 d page0Data
00000ab0 d pageArray
         U _ZTVSt9exception
         U _ZTVSt13bad_exception
         U _ZTVSt9bad_alloc
         U _ZTV10TException
         U _ZTI10TException
         U _ZTISt9exception
         U _ZTISt13bad_exception
         U _ZTISt9bad_alloc
         U _ZTS10TException
         U _ZTSSt9exception
         U _ZTSSt13bad_exception
         U _ZTSSt9bad_alloc
00000ab8 D uglBMFFont_Times_Roman_12

ufhnr18.o:
00000000 d page0Data
000011e0 d pageArray
         U _ZTVSt9exception
         U _ZTVSt13bad_exception
         U _ZTVSt9bad_alloc
         U _ZTV10TException
         U _ZTI10TException
         U _ZTISt9exception
         U _ZTISt13bad_exception
         U _ZTISt9bad_alloc
         U _ZTS10TException
         U _ZTSSt9exception
         U _ZTSSt13bad_exception
         U _ZTSSt9bad_alloc
000011e8 D uglBMFFont_Helvetica_18

ufhni24.o:
00000000 d page0Data
00001be0 d pageArray
         U _ZTVSt9exception
         U _ZTVSt13bad_exception
         U _ZTVSt9bad_alloc
         U _ZTV10TException
         U _ZTI10TException
         U _ZTISt9exception
         U _ZTISt13bad_exception
         U _ZTISt9bad_alloc
         U _ZTS10TException
         U _ZTSSt9exception
         U _ZTSSt13bad_exception
         U _ZTSSt9bad_alloc
00001be8 D uglBMFFont_Helvetica_Oblique_24

ufcni18.o:
00000000 d page0Data
000010b4 d pageArray
         U _ZTVSt9exception
         U _ZTVSt13bad_exception
         U _ZTVSt9bad_alloc
         U _ZTV10TException
         U _ZTI10TException
         U _ZTISt9exception
         U _ZTISt13bad_exception
         U _ZTISt9bad_alloc
         U _ZTS10TException
         U _ZTSSt9exception
         U _ZTSSt13bad_exception
         U _ZTSSt9bad_alloc
000010bc D uglBMFFont_Courier_Oblique_18

uftbi12.o:
00000000 d page0Data
00000b5c d pageArray
         U _ZTVSt9exception
         U _ZTVSt13bad_exception
         U _ZTVSt9bad_alloc
         U _ZTV10TException
         U _ZTI10TException
         U _ZTISt9exception
         U _ZTISt13bad_exception
         U _ZTISt9bad_alloc
         U _ZTS10TException
         U _ZTSSt9exception
         U _ZTSSt13bad_exception
         U _ZTSSt9bad_alloc
00000b64 D uglBMFFont_Times_Bold_Italic_12

uftni08.o:
00000000 d page0Data
000007d8 d pageArray
         U _ZTVSt9exception
         U _ZTVSt13bad_exception
         U _ZTVSt9bad_alloc
         U _ZTV10TException
         U _ZTI10TException
         U _ZTISt9exception
         U _ZTISt13bad_exception
         U _ZTISt9bad_alloc
         U _ZTS10TException
         U _ZTSSt9exception
         U _ZTSSt13bad_exception
         U _ZTSSt9bad_alloc
000007e0 D uglBMFFont_Times_Italic_8

ufcnr18.o:
00000000 d page0Data
000010bc d pageArray
         U _ZTVSt9exception
         U _ZTVSt13bad_exception
         U _ZTVSt9bad_alloc
         U _ZTV10TException
         U _ZTI10TException
         U _ZTISt9exception
         U _ZTISt13bad_exception
         U _ZTISt9bad_alloc
         U _ZTS10TException
         U _ZTSSt9exception
         U _ZTSSt13bad_exception
         U _ZTSSt9bad_alloc
000010c4 D uglBMFFont_Courier_18

uflnr10.o:
00000000 d page0Data
00000958 d pageArray
         U _ZTVSt9exception
         U _ZTVSt13bad_exception
         U _ZTVSt9bad_alloc
         U _ZTV10TException
         U _ZTI10TException
         U _ZTISt9exception
         U _ZTISt13bad_exception
         U _ZTISt9bad_alloc
         U _ZTS10TException
         U _ZTSSt9exception
         U _ZTSSt13bad_exception
         U _ZTSSt9bad_alloc
00000960 D uglBMFFont_Lucida_Sans_10

uflbbi12.o:
00000000 d page0Data
00000b60 d pageArray
         U _ZTVSt9exception
         U _ZTVSt13bad_exception
         U _ZTVSt9bad_alloc
         U _ZTV10TException
         U _ZTI10TException
         U _ZTISt9exception
         U _ZTISt13bad_exception
         U _ZTISt9bad_alloc
         U _ZTS10TException
         U _ZTSSt9exception
         U _ZTSSt13bad_exception
         U _ZTSSt9bad_alloc
00000b68 D uglBMFFont_Lucida_Bright_Demibold_Italic_12

ufcnr24.o:
00000000 d page0Data
0000190c d pageArray
         U _ZTVSt9exception
         U _ZTVSt13bad_exception
         U _ZTVSt9bad_alloc
         U _ZTV10TException
         U _ZTI10TException
         U _ZTISt9exception
         U _ZTISt13bad_exception
         U _ZTISt9bad_alloc
         U _ZTS10TException
         U _ZTSSt9exception
         U _ZTSSt13bad_exception
         U _ZTSSt9bad_alloc
00001914 D uglBMFFont_Courier_24

ufhnr12.o:
00000000 d page0Data
00000b1c d pageArray
         U _ZTVSt9exception
         U _ZTVSt13bad_exception
         U _ZTVSt9bad_alloc
         U _ZTV10TException
         U _ZTI10TException
         U _ZTISt9exception
         U _ZTISt13bad_exception
         U _ZTISt9bad_alloc
         U _ZTS10TException
         U _ZTSSt9exception
         U _ZTSSt13bad_exception
         U _ZTSSt9bad_alloc
00000b24 D uglBMFFont_Helvetica_12

uflbni14.o:
00000000 d page0Data
00000cf0 d pageArray
         U _ZTVSt9exception
         U _ZTVSt13bad_exception
         U _ZTVSt9bad_alloc
         U _ZTV10TException
         U _ZTI10TException
         U _ZTISt9exception
         U _ZTISt13bad_exception
         U _ZTISt9bad_alloc
         U _ZTS10TException
         U _ZTSSt9exception
         U _ZTSSt13bad_exception
         U _ZTSSt9bad_alloc
00000cf8 D uglBMFFont_Lucida_Bright_Italic_14

uflbbr10.o:
00000000 d page0Data
00000968 d pageArray
         U _ZTVSt9exception
         U _ZTVSt13bad_exception
         U _ZTVSt9bad_alloc
         U _ZTV10TException
         U _ZTI10TException
         U _ZTISt9exception
         U _ZTISt13bad_exception
         U _ZTISt9bad_alloc
         U _ZTS10TException
         U _ZTSSt9exception
         U _ZTSSt13bad_exception
         U _ZTSSt9bad_alloc
00000970 D uglBMFFont_Lucida_Bright_Demibold_10

uflbbr19.o:
00000000 d page0Data
00001390 d pageArray
         U _ZTVSt9exception
         U _ZTVSt13bad_exception
         U _ZTVSt9bad_alloc
         U _ZTV10TException
         U _ZTI10TException
         U _ZTISt9exception
         U _ZTISt13bad_exception
         U _ZTISt9bad_alloc
         U _ZTS10TException
         U _ZTSSt9exception
         U _ZTSSt13bad_exception
         U _ZTSSt9bad_alloc
00001398 D uglBMFFont_Lucida_Bright_Demibold_19

uflnr08.o:
00000000 d page0Data
000007e0 d pageArray
         U _ZTVSt9exception
         U _ZTVSt13bad_exception
         U _ZTVSt9bad_alloc
         U _ZTV10TException
         U _ZTI10TException
         U _ZTISt9exception
         U _ZTISt13bad_exception
         U _ZTISt9bad_alloc
         U _ZTS10TException
         U _ZTSSt9exception
         U _ZTSSt13bad_exception
         U _ZTSSt9bad_alloc
000007e8 D uglBMFFont_Lucida_Sans_8

uflbnr08.o:
00000000 d page0Data
000007e8 d pageArray
         U _ZTVSt9exception
         U _ZTVSt13bad_exception
         U _ZTVSt9bad_alloc
         U _ZTV10TException
         U _ZTI10TException
         U _ZTISt9exception
         U _ZTISt13bad_exception
         U _ZTISt9bad_alloc
         U _ZTS10TException
         U _ZTSSt9exception
         U _ZTSSt13bad_exception
         U _ZTSSt9bad_alloc
000007f0 D uglBMFFont_Lucida_Bright_8

uflni12.o:
00000000 d page0Data
00000b2c d pageArray
         U _ZTVSt9exception
         U _ZTVSt13bad_exception
         U _ZTVSt9bad_alloc
         U _ZTV10TException
         U _ZTI10TException
         U _ZTISt9exception
         U _ZTISt13bad_exception
         U _ZTISt9bad_alloc
         U _ZTS10TException
         U _ZTSSt9exception
         U _ZTSSt13bad_exception
         U _ZTSSt9bad_alloc
00000b34 D uglBMFFont_Lucida_Sans_Italic_12

ufcnr14.o:
00000000 d page0Data
00000d2c d pageArray
         U _ZTVSt9exception
         U _ZTVSt13bad_exception
         U _ZTVSt9bad_alloc
         U _ZTV10TException
         U _ZTI10TException
         U _ZTISt9exception
         U _ZTISt13bad_exception
         U _ZTISt9bad_alloc
         U _ZTS10TException
         U _ZTSSt9exception
         U _ZTSSt13bad_exception
         U _ZTSSt9bad_alloc
00000d34 D uglBMFFont_Courier_14

uflnr18.o:
00000000 d page0Data
00001180 d pageArray
         U _ZTVSt9exception
         U _ZTVSt13bad_exception
         U _ZTVSt9bad_alloc
         U _ZTV10TException
         U _ZTI10TException
         U _ZTISt9exception
         U _ZTISt13bad_exception
         U _ZTISt9bad_alloc
         U _ZTS10TException
         U _ZTSSt9exception
         U _ZTSSt13bad_exception
         U _ZTSSt9bad_alloc
00001188 D uglBMFFont_Lucida_Sans_18

uftbr18.o:
00000000 d page0Data
00001160 d pageArray
         U _ZTVSt9exception
         U _ZTVSt13bad_exception
         U _ZTVSt9bad_alloc
         U _ZTV10TException
         U _ZTI10TException
         U _ZTISt9exception
         U _ZTISt13bad_exception
         U _ZTISt9bad_alloc
         U _ZTS10TException
         U _ZTSSt9exception
         U _ZTSSt13bad_exception
         U _ZTSSt9bad_alloc
00001168 D uglBMFFont_Times_Bold_18

uflbr12.o:
00000000 d page0Data
00000be4 d pageArray
         U _ZTVSt9exception
         U _ZTVSt13bad_exception
         U _ZTVSt9bad_alloc
         U _ZTV10TException
         U _ZTI10TException
         U _ZTISt9exception
         U _ZTISt13bad_exception
         U _ZTISt9bad_alloc
         U _ZTS10TException
         U _ZTSSt9exception
         U _ZTSSt13bad_exception
         U _ZTSSt9bad_alloc
00000bec D uglBMFFont_Lucida_Sans_Bold_12

uflbbi10.o:
00000000 d page0Data
00000988 d pageArray
         U _ZTVSt9exception
         U _ZTVSt13bad_exception
         U _ZTVSt9bad_alloc
         U _ZTV10TException
         U _ZTI10TException
         U _ZTISt9exception
         U _ZTISt13bad_exception
         U _ZTISt9bad_alloc
         U _ZTS10TException
         U _ZTSSt9exception
         U _ZTSSt13bad_exception
         U _ZTSSt9bad_alloc
00000990 D uglBMFFont_Lucida_Bright_Demibold_Italic_10

uflni14.o:
00000000 d page0Data
00000cfc d pageArray
         U _ZTVSt9exception
         U _ZTVSt13bad_exception
         U _ZTVSt9bad_alloc
         U _ZTV10TException
         U _ZTI10TException
         U _ZTISt9exception
         U _ZTISt13bad_exception
         U _ZTISt9bad_alloc
         U _ZTS10TException
         U _ZTSSt9exception
         U _ZTSSt13bad_exception
         U _ZTSSt9bad_alloc
00000d04 D uglBMFFont_Lucida_Sans_Italic_14

uflbni18.o:
00000000 d page0Data
00001198 d pageArray
         U _ZTVSt9exception
         U _ZTVSt13bad_exception
         U _ZTVSt9bad_alloc
         U _ZTV10TException
         U _ZTI10TException
         U _ZTISt9exception
         U _ZTISt13bad_exception
         U _ZTISt9bad_alloc
         U _ZTS10TException
         U _ZTSSt9exception
         U _ZTSSt13bad_exception
         U _ZTSSt9bad_alloc
000011a0 D uglBMFFont_Lucida_Bright_Italic_18

uftbr14.o:
00000000 d page0Data
00000cb0 d pageArray
         U _ZTVSt9exception
         U _ZTVSt13bad_exception
         U _ZTVSt9bad_alloc
         U _ZTV10TException
         U _ZTI10TException
         U _ZTISt9exception
         U _ZTISt13bad_exception
         U _ZTISt9bad_alloc
         U _ZTS10TException
         U _ZTSSt9exception
         U _ZTSSt13bad_exception
         U _ZTSSt9bad_alloc
00000cb8 D uglBMFFont_Times_Bold_14

ufcbr12.o:
00000000 d page0Data
00000ac4 d pageArray
         U _ZTVSt9exception
         U _ZTVSt13bad_exception
         U _ZTVSt9bad_alloc
         U _ZTV10TException
         U _ZTI10TException
         U _ZTISt9exception
         U _ZTISt13bad_exception
         U _ZTISt9bad_alloc
         U _ZTS10TException
         U _ZTSSt9exception
         U _ZTSSt13bad_exception
         U _ZTSSt9bad_alloc
00000acc D uglBMFFont_Courier_Bold_12

ufhnr10.o:
00000000 d page0Data
0000098c d pageArray
         U _ZTVSt9exception
         U _ZTVSt13bad_exception
         U _ZTVSt9bad_alloc
         U _ZTV10TException
         U _ZTI10TException
         U _ZTISt9exception
         U _ZTISt13bad_exception
         U _ZTISt9bad_alloc
         U _ZTS10TException
         U _ZTSSt9exception
         U _ZTSSt13bad_exception
         U _ZTSSt9bad_alloc
00000994 D uglBMFFont_Helvetica_10

uftni12.o:
00000000 d page0Data
00000ac8 d pageArray
         U _ZTVSt9exception
         U _ZTVSt13bad_exception
         U _ZTVSt9bad_alloc
         U _ZTV10TException
         U _ZTI10TException
         U _ZTISt9exception
         U _ZTISt13bad_exception
         U _ZTISt9bad_alloc
         U _ZTS10TException
         U _ZTSSt9exception
         U _ZTSSt13bad_exception
         U _ZTSSt9bad_alloc
00000ad0 D uglBMFFont_Times_Italic_12

uflbi19.o:
00000000 d page0Data
0000141c d pageArray
         U _ZTVSt9exception
         U _ZTVSt13bad_exception
         U _ZTVSt9bad_alloc
         U _ZTV10TException
         U _ZTI10TException
         U _ZTISt9exception
         U _ZTISt13bad_exception
         U _ZTISt9bad_alloc
         U _ZTS10TException
         U _ZTSSt9exception
         U _ZTSSt13bad_exception
         U _ZTSSt9bad_alloc
00001424 D uglBMFFont_Lucida_Sans_Bold_Italic_19

ufhni14.o:
00000000 d page0Data
00000d54 d pageArray
         U _ZTVSt9exception
         U _ZTVSt13bad_exception
         U _ZTVSt9bad_alloc
         U _ZTV10TException
         U _ZTI10TException
         U _ZTISt9exception
         U _ZTISt13bad_exception
         U _ZTISt9bad_alloc
         U _ZTS10TException
         U _ZTSSt9exception
         U _ZTSSt13bad_exception
         U _ZTSSt9bad_alloc
00000d5c D uglBMFFont_Helvetica_Oblique_14

ufcni24.o:
00000000 d page0Data
00001910 d pageArray
         U _ZTVSt9exception
         U _ZTVSt13bad_exception
         U _ZTVSt9bad_alloc
         U _ZTV10TException
         U _ZTI10TException
         U _ZTISt9exception
         U _ZTISt13bad_exception
         U _ZTISt9bad_alloc
         U _ZTS10TException
         U _ZTSSt9exception
         U _ZTSSt13bad_exception
         U _ZTSSt9bad_alloc
00001918 D uglBMFFont_Courier_Oblique_24

uflbbi24.o:
00000000 d page0Data
00001c10 d pageArray
         U _ZTVSt9exception
         U _ZTVSt13bad_exception
         U _ZTVSt9bad_alloc
         U _ZTV10TException
         U _ZTI10TException
         U _ZTISt9exception
         U _ZTISt13bad_exception
         U _ZTISt9bad_alloc
         U _ZTS10TException
         U _ZTSSt9exception
         U _ZTSSt13bad_exception
         U _ZTSSt9bad_alloc
00001c18 D uglBMFFont_Lucida_Bright_Demibold_Italic_24

ufcnr10.o:
00000000 d page0Data
0000092c d pageArray
         U _ZTVSt9exception
         U _ZTVSt13bad_exception
         U _ZTVSt9bad_alloc
         U _ZTV10TException
         U _ZTI10TException
         U _ZTISt9exception
         U _ZTISt13bad_exception
         U _ZTISt9bad_alloc
         U _ZTS10TException
         U _ZTSSt9exception
         U _ZTSSt13bad_exception
         U _ZTSSt9bad_alloc
00000934 D uglBMFFont_Courier_10

uflbi24.o:
00000000 d page0Data
00001d1c d pageArray
         U _ZTVSt9exception
         U _ZTVSt13bad_exception
         U _ZTVSt9bad_alloc
         U _ZTV10TException
         U _ZTI10TException
         U _ZTISt9exception
         U _ZTISt13bad_exception
         U _ZTISt9bad_alloc
         U _ZTS10TException
         U _ZTSSt9exception
         U _ZTSSt13bad_exception
         U _ZTSSt9bad_alloc
00001d24 D uglBMFFont_Lucida_Sans_Bold_Italic_24

uftnr24.o:
00000000 d page0Data
00001894 d pageArray
         U _ZTVSt9exception
         U _ZTVSt13bad_exception
         U _ZTVSt9bad_alloc
         U _ZTV10TException
         U _ZTI10TException
         U _ZTISt9exception
         U _ZTISt13bad_exception
         U _ZTISt9bad_alloc
         U _ZTS10TException
         U _ZTSSt9exception
         U _ZTSSt13bad_exception
         U _ZTSSt9bad_alloc
0000189c D uglBMFFont_Times_Roman_24

uftbi18.o:
00000000 d page0Data
00001128 d pageArray
         U _ZTVSt9exception
         U _ZTVSt13bad_exception
         U _ZTVSt9bad_alloc
         U _ZTV10TException
         U _ZTI10TException
         U _ZTISt9exception
         U _ZTISt13bad_exception
         U _ZTISt9bad_alloc
         U _ZTS10TException
         U _ZTSSt9exception
         U _ZTSSt13bad_exception
         U _ZTSSt9bad_alloc
00001130 D uglBMFFont_Times_Bold_Italic_18

uflni10.o:
00000000 d page0Data
0000097c d pageArray
         U _ZTVSt9exception
         U _ZTVSt13bad_exception
         U _ZTVSt9bad_alloc
         U _ZTV10TException
         U _ZTI10TException
         U _ZTISt9exception
         U _ZTISt13bad_exception
         U _ZTISt9bad_alloc
         U _ZTS10TException
         U _ZTSSt9exception
         U _ZTSSt13bad_exception
         U _ZTSSt9bad_alloc
00000984 D uglBMFFont_Lucida_Sans_Italic_10

uflbni08.o:
00000000 d page0Data
00000800 d pageArray
         U _ZTVSt9exception
         U _ZTVSt13bad_exception
         U _ZTVSt9bad_alloc
         U _ZTV10TException
         U _ZTI10TException
         U _ZTISt9exception
         U _ZTISt13bad_exception
         U _ZTISt9bad_alloc
         U _ZTS10TException
         U _ZTSSt9exception
         U _ZTSSt13bad_exception
         U _ZTSSt9bad_alloc
00000808 D uglBMFFont_Lucida_Bright_Italic_8

uflni18.o:
00000000 d page0Data
00001194 d pageArray
         U _ZTVSt9exception
         U _ZTVSt13bad_exception
         U _ZTVSt9bad_alloc
         U _ZTV10TException
         U _ZTI10TException
         U _ZTISt9exception
         U _ZTISt13bad_exception
         U _ZTISt9bad_alloc
         U _ZTS10TException
         U _ZTSSt9exception
         U _ZTSSt13bad_exception
         U _ZTSSt9bad_alloc
0000119c D uglBMFFont_Lucida_Sans_Italic_18

uftbr12.o:
00000000 d page0Data
00000b18 d pageArray
         U _ZTVSt9exception
         U _ZTVSt13bad_exception
         U _ZTVSt9bad_alloc
         U _ZTV10TException
         U _ZTI10TException
         U _ZTISt9exception
         U _ZTISt13bad_exception
         U _ZTISt9bad_alloc
         U _ZTS10TException
         U _ZTSSt9exception
         U _ZTSSt13bad_exception
         U _ZTSSt9bad_alloc
00000b20 D uglBMFFont_Times_Bold_12

ufhni08.o:
00000000 d page0Data
0000085c d pageArray
         U _ZTVSt9exception
         U _ZTVSt13bad_exception
         U _ZTVSt9bad_alloc
         U _ZTV10TException
         U _ZTI10TException
         U _ZTISt9exception
         U _ZTISt13bad_exception
         U _ZTISt9bad_alloc
         U _ZTS10TException
         U _ZTSSt9exception
         U _ZTSSt13bad_exception
         U _ZTSSt9bad_alloc
00000864 D uglBMFFont_Helvetica_Oblique_8

uftnr14.o:
00000000 d page0Data
00000c60 d pageArray
         U _ZTVSt9exception
         U _ZTVSt13bad_exception
         U _ZTVSt9bad_alloc
         U _ZTV10TException
         U _ZTI10TException
         U _ZTISt9exception
         U _ZTISt13bad_exception
         U _ZTISt9bad_alloc
         U _ZTS10TException
         U _ZTSSt9exception
         U _ZTSSt13bad_exception
         U _ZTSSt9bad_alloc
00000c68 D uglBMFFont_Times_Roman_14

ufhbi08.o:
00000000 d page0Data
00000884 d pageArray
         U _ZTVSt9exception
         U _ZTVSt13bad_exception
         U _ZTVSt9bad_alloc
         U _ZTV10TException
         U _ZTI10TException
         U _ZTISt9exception
         U _ZTISt13bad_exception
         U _ZTISt9bad_alloc
         U _ZTS10TException
         U _ZTSSt9exception
         U _ZTSSt13bad_exception
         U _ZTSSt9bad_alloc
0000088c D uglBMFFont_Helvetica_Bold_Oblique_8

uflbbi19.o:
00000000 d page0Data
00001418 d pageArray
         U _ZTVSt9exception
         U _ZTVSt13bad_exception
         U _ZTVSt9bad_alloc
         U _ZTV10TException
         U _ZTI10TException
         U _ZTISt9exception
         U _ZTISt13bad_exception
         U _ZTISt9bad_alloc
         U _ZTS10TException
         U _ZTSSt9exception
         U _ZTSSt13bad_exception
         U _ZTSSt9bad_alloc
00001420 D uglBMFFont_Lucida_Bright_Demibold_Italic_19

ufhbr18.o:
00000000 d page0Data
00001270 d pageArray
         U _ZTVSt9exception
         U _ZTVSt13bad_exception
         U _ZTVSt9bad_alloc
         U _ZTV10TException
         U _ZTI10TException
         U _ZTISt9exception
         U _ZTISt13bad_exception
         U _ZTISt9bad_alloc
         U _ZTS10TException
         U _ZTSSt9exception
         U _ZTSSt13bad_exception
         U _ZTSSt9bad_alloc
00001278 D uglBMFFont_Helvetica_Bold_18

BuiltInTtfFont.o:
00000000 T startLuxirr
00015a9c T endLuxirr
00015a9c T startLuxisr
00026278 T endLuxisr
00026278 T startLuximr
00037ae0 T endLuximr

vxfbPlatformSupport.o:
0000002c t _Z15InitInputDevicePKc
00000000 b _ZZN20TVXFBPlatformSupport13VXFBInputTaskEvE11lastMousePt
         U _ZTVSt9exception
         U _ZTVSt13bad_exception
         U _ZTVSt9bad_alloc
00000000 V _ZTV10TException
         U _ZTV17TChildrenDelegate
         U _ZTV6TImage
         U _ZTV9TPlatform
00000000 V _ZTV20TVXFBPlatformSupport
         U _ZTV6TArrayIP5TNodeE
         U _ZTV6TArrayI9ColorStopE
00000000 V _ZTI10TException
         U _ZTI17TChildrenDelegate
         U _ZTI6TArrayIP5TNodeE
         U _ZTI6TImage
         U _ZTI6TArrayI9ColorStopE
00000000 V _ZTI9TPlatform
00000000 V _ZTI20TVXFBPlatformSupport
         U _ZTISt9exception
         U _ZTISt13bad_exception
         U _ZTISt9bad_alloc
00000000 V _ZTS10TException
00000000 V _ZTIN10TException4TypeE
00000000 V _ZTSN10TException4TypeE
         U _ZTS17TChildrenDelegate
         U _ZTS6TArrayIP5TNodeE
         U _ZTS6TImage
         U _ZTS6TArrayI9ColorStopE
00000000 V _ZTS9TPlatform
00000000 V _ZTS20TVXFBPlatformSupport
         U _ZTSSt9exception
         U _ZTSSt13bad_exception
         U _ZTSSt9bad_alloc
00000000 T _Z26DestroyVXFBPlatformSupportP9TPlatform
         U __frameinfo_used
00000000 T _ZN6_TRectIiEC1Ev
         U _ZN6_TRectIiE8nullRectE
         U open
         U printf
         U ioctl
         U close
         U read
000000fc T _ZN20TVXFBPlatformSupport8InstanceEv
00000000 D _ZN20TVXFBPlatformSupport19vxfbPlatformSupportE
         U __cxa_allocate_exception
         U __cxa_throw
00000000 T _ZN10TExceptionD1Ev
0000015c T _ZN20TVXFBPlatformSupport12VXFBTimerSetEv
         U clock_gettime
         U __div32
00000bc0 T _ZN20TVXFBPlatformSupport23VXFBTimerSignalCallbackEiP7siginfoPv
         U sigemptyset
         U sigaction
         U memset
         U timer_create
         U timer_settime
000002cc T _ZN20TVXFBPlatformSupport4InitEv
         U msgQCreate
         U _ZN7TStringC1EPKc
         U _ZNK7TStringeqERKS_
         U free
         U memcpy
00000c48 T _ZN20TVXFBPlatformSupport13VXFBInputTaskEv
         U taskSpawn
         U __diab_Unwind_Resume
         U __diab_personality_v0
000005f4 T _ZN20TVXFBPlatformSupport6DeinitEv
         U taskWait
         U timer_delete
         U msgQDelete
00000674 T _ZN20TVXFBPlatformSupportC1ERK9TAppParam
         U _ZN7TStringC1Ev
         U _ZN7TStringaSERKS_
         U _Z17InitDisplaySystemPhiii
         U __cxa_end_catch
         U __cxa_begin_catch
         U _Z19DeinitDisplaySystemP8TDisplay
         U __cxa_rethrow
00000870 T _Z25CreateVXFBPlatformSupportRK9TAppParam
         U _Znwj
         U _ZdlPv
00000000 T _ZN10TExceptionD0Ev
00000000 T _ZN7_TPointIiED1Ev
000008fc T _ZN20TVXFBPlatformSupportC2ERK9TAppParam
0000091c T _ZN20TVXFBPlatformSupportD1Ev
000009e8 T _ZN20TVXFBPlatformSupportD2Ev
00000a08 T _ZN20TVXFBPlatformSupportD0Ev
00000a34 T _ZN20TVXFBPlatformSupport13GetScreenInfoER11TScreenInfo
00000a78 T _ZN20TVXFBPlatformSupport11SaveSurfaceEPvRK7_TPointIiES4_RK6_TSizeIiE
00000ac4 T _ZN20TVXFBPlatformSupport11BlitSurfaceEPvRK7_TPointIiES4_RK6_TSizeIiE
00000b10 T _ZN20TVXFBPlatformSupport10PostScreenEiPKi
00000b14 T _ZN20TVXFBPlatformSupport10SwapScreenEv
00000b18 T _ZN20TVXFBPlatformSupport11WaitMessageER8_app_msgi
         U msgQReceive
00000b64 T _ZN20TVXFBPlatformSupport11SendMessageERK8_app_msgi
         U msgQSend
00000bb8 T _ZN20TVXFBPlatformSupport10GetDisplayEv
         U __cxa_guard_acquire
         U __cxa_atexit
         U __dso_handle
         U __cxa_guard_release
         U sigaddset
         U sigprocmask
         U errnoGet
         U __cxa_guard_abort
         U _ZTVN10__cxxabiv117__class_type_infoE
         U _ZTVN10__cxxabiv120__si_class_type_infoE
         U _ZTVN10__cxxabiv116__enum_type_infoE

tilconConfig.o:
         U _ZTVSt9exception
         U _ZTVSt13bad_exception
         U _ZTVSt9bad_alloc
         U _ZTV10TException
         U _ZTV17TChildrenDelegate
         U _ZTV6TImage
         U _ZTV6TArrayIP5TNodeE
         U _ZTV6TArrayI9ColorStopE
         U _ZTI10TException
         U _ZTI17TChildrenDelegate
         U _ZTI6TArrayIP5TNodeE
         U _ZTI6TImage
         U _ZTI6TArrayI9ColorStopE
         U _ZTISt9exception
         U _ZTISt13bad_exception
         U _ZTISt9bad_alloc
         U _ZTS10TException
         U _ZTS17TChildrenDelegate
         U _ZTS6TArrayIP5TNodeE
         U _ZTS6TImage
         U _ZTS6TArrayI9ColorStopE
         U _ZTSSt9exception
         U _ZTSSt13bad_exception
         U _ZTSSt9bad_alloc
00000000 T _Z22DestroyPlatformSupportP9TPlatform
         U __frameinfo_used
         U _Z26DestroyVXFBPlatformSupportP9TPlatform
00000020 T _Z21CreatePlatformSupportRK9TAppParam
         U _Z25CreateVXFBPlatformSupportRK9TAppParam
00000040 T _STI___16_tilconConfig_cpp_d31d4a20
         U endLuxirr
         U startLuxirr
00000000 D luxirrFontDesc
         U endLuxisr
         U startLuxisr
0000000c D luxisrFontDesc
         U endLuximr
00000018 D luximrFontDesc
         U startLuximr
00000024 D bmfFontDescs
         U uglBMFFont_Courier_10
         U uglBMFFont_Courier_12
         U uglBMFFont_Courier_14
         U uglBMFFont_Courier_18
         U uglBMFFont_Courier_24
         U uglBMFFont_Courier_8
         U uglBMFFont_Courier_Bold_10
         U uglBMFFont_Courier_Bold_12
         U uglBMFFont_Courier_Bold_14
         U uglBMFFont_Courier_Bold_18
         U uglBMFFont_Courier_Bold_24
         U uglBMFFont_Courier_Bold_8
         U uglBMFFont_Courier_Bold_Oblique_10
         U uglBMFFont_Courier_Bold_Oblique_12
         U uglBMFFont_Courier_Bold_Oblique_14
         U uglBMFFont_Courier_Bold_Oblique_18
         U uglBMFFont_Courier_Bold_Oblique_24
         U uglBMFFont_Courier_Bold_Oblique_8
         U uglBMFFont_Courier_Oblique_10
         U uglBMFFont_Courier_Oblique_12
         U uglBMFFont_Courier_Oblique_14
         U uglBMFFont_Courier_Oblique_18
         U uglBMFFont_Courier_Oblique_24
         U uglBMFFont_Courier_Oblique_8
         U uglBMFFont_Helvetica_10
         U uglBMFFont_Helvetica_12
         U uglBMFFont_Helvetica_14
         U uglBMFFont_Helvetica_18
         U uglBMFFont_Helvetica_24
         U uglBMFFont_Helvetica_8
         U uglBMFFont_Helvetica_Bold_10
         U uglBMFFont_Helvetica_Bold_12
         U uglBMFFont_Helvetica_Bold_14
         U uglBMFFont_Helvetica_Bold_18
         U uglBMFFont_Helvetica_Bold_24
         U uglBMFFont_Helvetica_Bold_8
         U uglBMFFont_Helvetica_Bold_Oblique_10
         U uglBMFFont_Helvetica_Bold_Oblique_12
         U uglBMFFont_Helvetica_Bold_Oblique_14
         U uglBMFFont_Helvetica_Bold_Oblique_18
         U uglBMFFont_Helvetica_Bold_Oblique_24
         U uglBMFFont_Helvetica_Bold_Oblique_8
         U uglBMFFont_Helvetica_Oblique_10
         U uglBMFFont_Helvetica_Oblique_12
         U uglBMFFont_Helvetica_Oblique_14
         U uglBMFFont_Helvetica_Oblique_18
         U uglBMFFont_Helvetica_Oblique_24
         U uglBMFFont_Helvetica_Oblique_8
         U uglBMFFont_Lucida_Bright_10
         U uglBMFFont_Lucida_Bright_12
         U uglBMFFont_Lucida_Bright_14
         U uglBMFFont_Lucida_Bright_18
         U uglBMFFont_Lucida_Bright_19
         U uglBMFFont_Lucida_Bright_24
         U uglBMFFont_Lucida_Bright_8
         U uglBMFFont_Lucida_Bright_Demibold_10
         U uglBMFFont_Lucida_Bright_Demibold_12
         U uglBMFFont_Lucida_Bright_Demibold_14
         U uglBMFFont_Lucida_Bright_Demibold_18
         U uglBMFFont_Lucida_Bright_Demibold_19
         U uglBMFFont_Lucida_Bright_Demibold_24
         U uglBMFFont_Lucida_Bright_Demibold_8
         U uglBMFFont_Lucida_Bright_Demibold_Italic_10
         U uglBMFFont_Lucida_Bright_Demibold_Italic_12
         U uglBMFFont_Lucida_Bright_Demibold_Italic_14
         U uglBMFFont_Lucida_Bright_Demibold_Italic_18
         U uglBMFFont_Lucida_Bright_Demibold_Italic_19
         U uglBMFFont_Lucida_Bright_Demibold_Italic_24
         U uglBMFFont_Lucida_Bright_Demibold_Italic_8
         U uglBMFFont_Lucida_Bright_Italic_10
         U uglBMFFont_Lucida_Bright_Italic_12
         U uglBMFFont_Lucida_Bright_Italic_14
         U uglBMFFont_Lucida_Bright_Italic_18
         U uglBMFFont_Lucida_Bright_Italic_19
         U uglBMFFont_Lucida_Bright_Italic_24
         U uglBMFFont_Lucida_Bright_Italic_8
         U uglBMFFont_Lucida_Sans_10
         U uglBMFFont_Lucida_Sans_12
         U uglBMFFont_Lucida_Sans_14
         U uglBMFFont_Lucida_Sans_18
         U uglBMFFont_Lucida_Sans_19
         U uglBMFFont_Lucida_Sans_24
         U uglBMFFont_Lucida_Sans_8
         U uglBMFFont_Lucida_Sans_Bold_10
         U uglBMFFont_Lucida_Sans_Bold_12
         U uglBMFFont_Lucida_Sans_Bold_14
         U uglBMFFont_Lucida_Sans_Bold_18
         U uglBMFFont_Lucida_Sans_Bold_19
         U uglBMFFont_Lucida_Sans_Bold_24
         U uglBMFFont_Lucida_Sans_Bold_8
         U uglBMFFont_Lucida_Sans_Bold_Italic_10
         U uglBMFFont_Lucida_Sans_Bold_Italic_12
         U uglBMFFont_Lucida_Sans_Bold_Italic_14
         U uglBMFFont_Lucida_Sans_Bold_Italic_18
         U uglBMFFont_Lucida_Sans_Bold_Italic_19
         U uglBMFFont_Lucida_Sans_Bold_Italic_24
         U uglBMFFont_Lucida_Sans_Bold_Italic_8
         U uglBMFFont_Lucida_Sans_Italic_10
         U uglBMFFont_Lucida_Sans_Italic_12
         U uglBMFFont_Lucida_Sans_Italic_14
         U uglBMFFont_Lucida_Sans_Italic_18
         U uglBMFFont_Lucida_Sans_Italic_19
         U uglBMFFont_Lucida_Sans_Italic_24
         U uglBMFFont_Lucida_Sans_Italic_8
         U uglBMFFont_Times_Bold_10
         U uglBMFFont_Times_Bold_12
         U uglBMFFont_Times_Bold_14
         U uglBMFFont_Times_Bold_18
         U uglBMFFont_Times_Bold_24
         U uglBMFFont_Times_Bold_8
         U uglBMFFont_Times_Bold_Italic_10
         U uglBMFFont_Times_Bold_Italic_12
         U uglBMFFont_Times_Bold_Italic_14
         U uglBMFFont_Times_Bold_Italic_18
         U uglBMFFont_Times_Bold_Italic_24
         U uglBMFFont_Times_Bold_Italic_8
         U uglBMFFont_Times_Italic_10
         U uglBMFFont_Times_Italic_12
         U uglBMFFont_Times_Italic_14
         U uglBMFFont_Times_Italic_18
         U uglBMFFont_Times_Italic_24
         U uglBMFFont_Times_Italic_8
         U uglBMFFont_Times_Roman_10
         U uglBMFFont_Times_Roman_12
         U uglBMFFont_Times_Roman_14
         U uglBMFFont_Times_Roman_18
         U uglBMFFont_Times_Roman_24
         U uglBMFFont_Times_Roman_8
00000228 D ttfFontDescs

trPainter.o:
00000000 d FLOAT_TEMP.2606
00000004 d FLOAT_TEMP.2607
00000008 d FLOAT_TEMP.2668
0000000c d FLOAT_TEMP.2675
00000010 d FLOAT_TEMP.2713
00000014 d FLOAT_TEMP.2722
00000018 d FLOAT_TEMP.3293
0000001c d FLOAT_TEMP.3299
00000020 d FLOAT_TEMP.3321
00000028 d FLOAT_TEMP.3322
0000002c d FLOAT_TEMP.3323
         U _ZTVSt9exception
         U _ZTVSt13bad_exception
         U _ZTVSt9bad_alloc
00000000 V _ZTV10TException
         U _ZTV6TImage
         U _ZTV6TArrayIN3tds4Path7SegmentEE
         U _ZTV6TArrayI9ColorStopE
00000000 V _ZTI10TException
         U _ZTI6TImage
         U _ZTI6TArrayIN3tds4Path7SegmentEE
         U _ZTI6TArrayI9ColorStopE
         U _ZTISt9exception
         U _ZTISt13bad_exception
         U _ZTISt9bad_alloc
00000000 V _ZTS10TException
         U _ZTS6TImage
         U _ZTS6TArrayIN3tds4Path7SegmentEE
         U _ZTS6TArrayI9ColorStopE
         U _ZTSSt9exception
         U _ZTSSt13bad_exception
         U _ZTSSt9bad_alloc
00000000 T _ZN10TExceptionD1Ev
00000000 T _ZN10TExceptionD0Ev
         U _ZdlPv
00000000 T _ZN10TMatrix3x3C1Ev
00000000 T _ZN10TMatrix3x3C1ERKS_
00000000 T _ZN10TMatrix3x3C1Efffffffff
00000000 T _ZN10TMatrix3x3aSERKS_
00000000 T _ZNK10TMatrix3x3mlERK8TVector2
00000000 T _ZNK10TMatrix3x3mlERKS_
00000000 T _ZN10TMatrix3x39TranslateEff
00000000 T _ZN10TMatrix3x35ScaleEff
00000000 T _ZN6TColorC1ERKS_
00000000 T _ZN6_TRectIiEC1Ev
         U _ZN6_TRectIiE8nullRectE
00000000 T _ZN6_TRectIiEC1ERKS0_
00000000 T _ZN6_TRectIiEC1ERK7_TPointIiERK6_TSizeIiE
00000000 T _ZN6_TRectIiEC1ERK7_TPointIiES4_
00000000 T _ZNK6_TRectIiEplERK7_TPointIiE
00000000 T _ZNK6_TRectIiEmiERK7_TPointIiE
00000000 T _ZNK6_TRectIiE9IntersectERKS0_
00000000 T _ZN6_TRectIiEpLERK7_TPointIiE
00000000 T _ZNK6TArrayIN3tds4Path7SegmentEEixEi
         U __frameinfo_used
         U __cxa_allocate_exception
         U __cxa_throw
00000000 T _ZNK6TArrayI9ColorStopEixEi
00000000 T _ZN7_TPointIiEC1Ev
00000000 T _ZN7_TPointIiED1Ev
00000000 T _ZN3tds7Context13ClearClipRectEv
         U _ZN6_TRectIiE7maxRectE
0000006c T _ZN3tds7Context13SetRenderAreaERK7_TPointIiERK6_TRectIiE
00000148 T _ZN3tds7Context15ResetRenderAreaEv
00000178 T _ZN3tds7Context11SetClipRectERK6_TRectIiE
000001e8 T _ZN3tds7PainterC1Eii
         U _Znwj
         U _ZN3tds10RasterizerC1Eii
         U __diab_Unwind_Resume
         U __diab_personality_v0
00000288 T _ZN3tds7PainterC2Eii
000002a8 T _ZN3tds7PainterD1Ev
         U _ZN3tds10RasterizerD1Ev
000002e0 T _ZN3tds7PainterD2Ev
00000300 T _ZN3tds7Painter10BeginPaintERNS_7ContextERNS_11ColorBufferE
00000360 T _ZN3tds7Painter8EndPaintERNS_7ContextE
0000037c T _ZN3tds7Painter13RasterSegmentERK8TVector2S3_
         U _ZN3tds10Rasterizer11TessSegmentEiiii
0000040c T _ZN3tds7Painter8TessLineERK8TVector2S3_
00000498 T _ZN3tds7Painter18TessStrokeInternalENS0_11TessCommandERK8TVector2RNS0_13StrokePainterE
         U _ZN8TVector29NormalizeEv
00000000 T _ZN3tds7Painter13StrokePainterC1Ev
0000097c T _ZN3tds7Painter14TessStrokePathEPK7_TPointIfEji
         U _ZN3tds10Rasterizer5BeginEPNS_7ContextE
         U _ZN3tds10Rasterizer8ScanlineEv
00000aa0 T _ZN3tds7Painter10StrokePathERNS_7ContextEPK7_TPointIfEji
00000af8 T _ZN3tds7Painter12TessFillPathEPK7_TPointIfEj
00000bf4 T _ZN3tds7Painter8FillPathERNS_7ContextEPK7_TPointIfEj
00000c3c T _ZN3tds7Painter10SplitCurveEPi
00000cf8 T _ZN3tds7Painter21TessStrokeCubicBezierERK8TVector2S3_S3_S3_RNS0_13StrokePainterE
         U labs
00000edc T _ZN3tds7Painter14TessStrokePathERKNS_4PathE
000011b4 T _ZN3tds7Painter10StrokePathERNS_7ContextERKNS_4PathE
0000121c T _ZN3tds7Painter15TessCubicBezierERK8TVector2S3_S3_S3_
         U abs
000014b0 T _ZN3tds7Painter12TessFillPathERKNS_4PathE
0000177c T _ZN3tds7Painter8FillPathERNS_7ContextERKNS_4PathE
000017c8 T _ZN3tds7Painter13FillSolidRectERNS_7ContextERK6_TRectIiERK6TColor
         U _ZN3tds11ColorBuffer8SetColorERK6TColorii
         U _ZN3tds11ColorBuffer10BlendColorERK6TColorii
0000190c T _ZN3tds7Painter9DrawVLineERNS_7ContextEiii
00002834 T _ZN3tds7Painter12DrawDashLineERNS_7ContextERK7_TPointIiES6_
         U __div32
00001b08 T _ZN3tds7Painter28BresenhanLineBoundaryDataGetER7_TPointIiES3_PPS2_iPj
00001c80 T _ZN3tds7Painter16DrawScanLineDataERNS_7ContextEPPiii
00001e24 T _ZN3tds7Painter11DrawPolygonERNS_7ContextEPK7_TPointIiEi
         U malloc
         U memmove
         U free
000024e4 T _ZN3tds7Painter11DrawLineExeERNS_7ContextERK7_TPointIiES6_
         U __cxa_vec_ctor
         U __cxa_vec_dtor
00002668 T _ZN3tds7Painter20BresenhanLineDataGetERK7_TPointIiES4_PPS2_iPj
00002b48 T _ZN3tds7Painter9DrawHLineERNS_7ContextEiii
00002d40 T _ZN3tds7Painter17DrawBresenhanLineERNS_7ContextERK7_TPointIiES6_
000031e0 T _ZN3tds7Painter8DrawLineERNS_7ContextERK7_TPointIiES6_
0000359c T _ZN3tds7Painter8DrawRectERNS_7ContextERK6_TRectIiEi
00003950 T _ZN3tds7Painter9DrawImageERNS_7ContextERK6TImageii
         U _ZNK6TImage9GetHeightEv
         U _ZNK6TImage8GetWidthEv
         U _ZNK6TImage9GetBufferEii
         U _ZNK6TImage9GetStrideEv
         U _ZNK6TImage9GetFormatEv
         U _ZN3tds11ColorBuffer9BlendFromEPKh11ColorFormatiRK7_TPointIiERK6_TSizeIiE
00003b50 T _ZN3tds7Painter15DrawPixelBufferERNS_7ContextERKNS_11ColorBufferEii
         U _ZN3tds11ColorBuffer9BlendFromERKS0_iiiiii
00003cd0 T _ZN3tds7Painter10DrawCircleERNS_7ContextERK6_TRectIiE
         U _ZN3tds8TEllipseC1ERNS_7ContextERK6_TRectIiERK7_TPointIiESA_b
         U _ZN3tds8TEllipse11EllipseDrawEv
         U _ZN3tds8TEllipseD1Ev
00003ef8 T _ZN3tds7Painter11DrawEllipseERNS_7ContextERK6_TRectIiE
00003fbc T _ZN3tds7Painter7DrawArcERNS_7ContextERK6_TRectIiERK7_TPointIiESA_
00004058 T _ZN3tds7Painter7DrawPieERNS_7ContextERK6_TRectIiERK7_TPointIiESA_
000040f4 T _ZN3tds7Painter14DrawVectorTextERNS_7ContextERKNS_10VectorFontEfffPKwi
         U _ZNK3tds10VectorFont8GetGlyphEj
00004200 T _ZN3tds7Painter11DrawBmfTextERNS_7ContextERKNS_7BmfFontEffPKwi
         U _ZNK8TBmfFont10GetMetricsER11FontMetrics
         U _ZNK8TBmfFont8GetGlyphEw
000043d8 T _ZN3tds7Painter11DrawUCSTextERNS_7ContextEffPKwi
         U _ZNK5TFont7GetTypeEv
         U _ZNK5TFont12GetPointSizeEv
000044dc T _ZN3tds7Painter14MeasureUCSTextERNS_7ContextEPKwi
         U _ZNK8TTtfFont9GetHeightEv
         U _ZNK3tds10VectorFont16MeasureTextWidthEPKwi
0000461c T _ZN3tds7Painter6CopyToERNS_7ContextERNS_11ColorBufferEiiiiii
         U _ZNK3tds11ColorBuffer6CopyToERS0_iiiiii
00004670 T _ZN3tds7Painter8CopyFromERNS_7ContextERKNS_11ColorBufferEiiiiii
         U _ZN3tds11ColorBuffer8CopyFromERKS0_iiiiii
000046c4 T _ZN3tds7Painter17TessPathByCommandEiPKNS_4Path7SegmentE
00004928 T _ZN3tds16GetGradientColorERK9TGradientff10TMatrix3x3
         U _ZNK9TGradient12GetColorStopEv
         U _ZNK9TGradient13GetLinearDataEv
         U _ZNK9TGradient13GetRadialDataEv
         U sqrt
         U floor
         U _ZN6TColor11InterpolateEfRKS_
         U _ZTVN10__cxxabiv117__class_type_infoE

trEllipse.o:
         U _ZTVSt9exception
         U _ZTVSt13bad_exception
         U _ZTVSt9bad_alloc
         U _ZTV10TException
         U _ZTV6TImage
         U _ZTV6TArrayIN3tds4Path7SegmentEE
         U _ZTV6TArrayI9ColorStopE
         U _ZTI10TException
         U _ZTI6TImage
         U _ZTI6TArrayIN3tds4Path7SegmentEE
         U _ZTI6TArrayI9ColorStopE
         U _ZTISt9exception
         U _ZTISt13bad_exception
         U _ZTISt9bad_alloc
         U _ZTS10TException
         U _ZTS6TImage
         U _ZTS6TArrayIN3tds4Path7SegmentEE
         U _ZTS6TArrayI9ColorStopE
         U _ZTSSt9exception
         U _ZTSSt13bad_exception
         U _ZTSSt9bad_alloc
00000000 T _ZN10TMatrix3x3C1ERKS_
00000000 T _ZN10TMatrix3x3C1Efffffffff
00000000 T _ZNK10TMatrix3x3mlERKS_
00000000 T _ZN6TColorC1ERKS_
00000000 T _ZN6_TRectIiEC1Ev
         U _ZN6_TRectIiE8nullRectE
00000000 T _ZN6_TRectIiEC1ERKS0_
00000000 T _ZNK6_TRectIiEplERK7_TPointIiE
00000000 T _ZN6_TRectIiEpLERK7_TPointIiE
00000000 T _ZN3tds8TEllipseC1ERNS_7ContextERK6_TRectIiERK7_TPointIiESA_b
0000006c T _ZN3tds8TEllipseC2ERNS_7ContextERK6_TRectIiERK7_TPointIiESA_b
00000094 T _ZN3tds8TEllipseD1Ev
00000098 T _ZN3tds8TEllipseD2Ev
000000b8 T _ZN3tds8TEllipse15GeneralScanLineEiiii
         U __frameinfo_used
         U _ZN10TMatrix3x36InvertEv
         U _ZNK3tds11ColorBuffer15GetPatternColorEff10TMatrix3x3
         U _ZN3tds11ColorBuffer8SetColorERK6TColorii
         U _ZN3tds11ColorBuffer10BlendColorERK6TColorii
00000474 T _ZN3tds8TEllipse11GenericFillEPPiiii
         U __div32
00000590 T _ZN3tds8TEllipse19LineDataGetBoundaryEP7_TPointIiES3_PS3_iPi
         U abs
00000704 T _ZN3tds8TEllipse11GenericLineER7_TPointIiES3_R6TColor
00000a08 T _ZN3tds8TEllipse12GenericPointER7_TPointIiER6TColor
00000ac0 T _ZN3tds8TEllipse16EllipseDataGetSCEPiii
         U __mul64
00000f8c T _ZN3tds8TEllipse17AngleReferenceGetEiiii
00000ff8 T _ZN3tds8TEllipse16EllipseDataAllocEv
         U malloc
         U memset
         U free
0000122c T _ZN3tds8TEllipse15EllipseDataFreeEv
000012e4 T _ZN3tds8TEllipse18SpecialEllipseDrawEv
         U __rem32
         U memmove
         U __diab_Unwind_Resume
         U __diab_personality_v0
000022c0 T _ZN3tds8TEllipse14intersectStartEiiii
00002394 T _ZN3tds8TEllipse12intersectEndEiiii
00002470 T _ZN3tds8TEllipse14EllipseDataGetEi
00002b18 T _ZN3tds8TEllipse7fixFlatEv
00002c10 T _ZN3tds8TEllipse12EllipseFGGetEv
00002cfc T _ZN3tds8TEllipse8goAroundEv
00002db0 T _ZN3tds8TEllipse16intersectTogglesEi
00003138 T _ZN3tds8TEllipse16EllipseBGGetPartEi
0000343c T _ZN3tds8TEllipse16EllipseFGGetPartEv
0000391c T _ZN3tds8TEllipse8fixLinesEv
000039cc T _ZN3tds8TEllipse11EllipseDrawEv
00003dcc T _ZN3tds8TEllipse18EllipseFGDrawPart2Ev

trRasterizer.o:
         U _ZTVSt9exception
         U _ZTVSt13bad_exception
         U _ZTVSt9bad_alloc
         U _ZTV10TException
         U _ZTV6TImage
         U _ZTV6TArrayIN3tds4Path7SegmentEE
         U _ZTV6TArrayI9ColorStopE
         U _ZTI10TException
         U _ZTI6TImage
         U _ZTI6TArrayIN3tds4Path7SegmentEE
         U _ZTI6TArrayI9ColorStopE
         U _ZTISt9exception
         U _ZTISt13bad_exception
         U _ZTISt9bad_alloc
         U _ZTS10TException
         U _ZTS6TImage
         U _ZTS6TArrayIN3tds4Path7SegmentEE
         U _ZTS6TArrayI9ColorStopE
         U _ZTSSt9exception
         U _ZTSSt13bad_exception
         U _ZTSSt9bad_alloc
00000000 T _ZN10TMatrix3x3C1ERKS_
00000000 T _ZN10TMatrix3x3C1Efffffffff
00000000 T _ZNK10TMatrix3x3mlERKS_
00000000 T _ZN6_TRectIiEC1ERKS0_
00000000 T _ZN3tds10RasterizerC1Eii
         U __frameinfo_used
         U _Znaj
         U _ZdaPv
         U memset
0000015c T _ZN3tds10RasterizerC2Eii
0000017c T _ZN3tds10RasterizerD1Ev
000001cc T _ZN3tds10RasterizerD2Ev
000001ec T _ZN3tds10Rasterizer5BeginEPNS_7ContextE
000002ec T _ZN3tds10Rasterizer5tessHEiiiiRKNS0_7segmentE
         U abs
0000062c T _ZN3tds10Rasterizer5tessVEiiiii
000009dc T _ZN3tds10Rasterizer11TessSegmentEiiii
         U __mul64
         U __div64
000012b8 T _ZN3tds10Rasterizer13SolidScanlineERK6TColor
         U __div32
         U _ZN6TColor7Fade256EiRKS_
         U _ZN3tds11ColorBuffer8SetColorERK6TColorii
         U _ZN3tds11ColorBuffer10BlendColorERK6TColorii
00001538 T _ZN3tds10Rasterizer15GeneralScanlineEv
         U _ZN10TMatrix3x36InvertEv
         U _ZN3tds16GetGradientColorERK9TGradientff10TMatrix3x3
         U _ZNK3tds11ColorBuffer15GetPatternColorEff10TMatrix3x3
00001a4c T _ZN3tds10Rasterizer8ScanlineEv

trPath.o:
00000000 d FLOAT_TEMP.776
         U _ZTVSt9exception
         U _ZTVSt13bad_exception
         U _ZTVSt9bad_alloc
00000000 V _ZTV10TException
00000000 V _ZTV6TArrayIN3tds4Path7SegmentEE
00000000 V _ZTI10TException
00000000 V _ZTI6TArrayIN3tds4Path7SegmentEE
         U _ZTISt9exception
         U _ZTISt13bad_exception
         U _ZTISt9bad_alloc
00000000 V _ZTS10TException
00000000 V _ZTS6TArrayIN3tds4Path7SegmentEE
         U _ZTSSt9exception
         U _ZTSSt13bad_exception
         U _ZTSSt9bad_alloc
00000000 T _ZN10TExceptionD1Ev
00000000 T _ZN10TExceptionD0Ev
         U _ZdlPv
00000000 T _ZNK10TMatrix3x3mlERK8TVector2
00000000 T _ZN6TArrayIN3tds4Path7SegmentEED1Ev
         U _ZdaPv
00000000 T _ZN6TArrayIN3tds4Path7SegmentEED0Ev
00000000 T _ZN6TArrayIN3tds4Path7SegmentEE13RoundCapacityEi
00000000 T _ZN6TArrayIN3tds4Path7SegmentEE8ExpandAtEii
         U __frameinfo_used
         U _Znaj
         U __cxa_vec_new2
00000000 T _ZN3tds4Path7SegmentC1Ev
         U __cxa_allocate_exception
         U __cxa_throw
00000000 T _ZN6TArrayIN3tds4Path7SegmentEE8InsertAtEiRKS2_
00000000 T _ZNK6TArrayIN3tds4Path7SegmentEEixEi
00000000 T _ZN6TArrayIN3tds4Path7SegmentEE8InsertAtEiRKS3_
00000000 T _ZN6TArrayIN3tds4Path7SegmentEE5ClearEv
00000000 T _ZN6_TRectIfEC1Ev
         U _ZN6_TRectIfE8nullRectE
00000000 T _ZN6_TRectIfEC1ERK7_TPointIfES4_
00000000 T _ZNK6_TRectIfE7CombineERKS0_
00000000 T _ZN3tds4PathC1Ev
00000024 T _ZN3tds4PathC2Ev
00000048 T _ZN3tds4PathD1Ev
00000088 T _ZN3tds4PathD2Ev
000000c8 T _ZN3tds4Path5ClearEv
000000ec T _ZN3tds4Path10AppendDataEjPKhPKf
         U __diab_Unwind_Resume
         U __diab_personality_v0
000005e8 T _ZN3tds4Path10AppendPathERKS0_
00000614 T _ZN3tds4Path9TransformERK10TMatrix3x3
000006b8 T _ZNK3tds4Path12GetBoundRectEv
         U _ZTVN10__cxxabiv117__class_type_infoE

trVectorFont.o:
00000000 d FLOAT_TEMP.1498
         U _ZTVSt9exception
         U _ZTVSt13bad_exception
         U _ZTVSt9bad_alloc
00000000 V _ZTV10TException
         U _ZTV6TImage
00000000 V _ZTVN3tds10VectorFontE
         U _ZTV17TChildrenDelegate
00000000 V _ZTV6TArrayIN3tds4Path7SegmentEE
         U _ZTV6TArrayIP5TNodeE
         U _ZTV6TArrayI9ColorStopE
00000000 V _ZTV6TArrayIhE
00000000 V _ZTV6TArrayIfE
00000000 V _ZTI10TException
         U _ZTI6TImage
00000000 V _ZTI6TArrayIN3tds4Path7SegmentEE
         U _ZTI17TChildrenDelegate
         U _ZTI6TArrayIP5TNodeE
         U _ZTI6TArrayI9ColorStopE
00000000 V _ZTI6TArrayIhE
00000000 V _ZTI6TArrayIfE
         U _ZTISt9exception
         U _ZTISt13bad_exception
         U _ZTISt9bad_alloc
00000000 V _ZTIN3tds10VectorFontE
00000000 V _ZTS10TException
00000000 V _ZTIN10TException4TypeE
00000000 V _ZTSN10TException4TypeE
         U _ZTS6TImage
00000000 V _ZTS6TArrayIN3tds4Path7SegmentEE
         U _ZTS17TChildrenDelegate
         U _ZTS6TArrayIP5TNodeE
         U _ZTS6TArrayI9ColorStopE
00000000 V _ZTS6TArrayIhE
00000000 V _ZTS6TArrayIfE
         U _ZTSSt9exception
         U _ZTSSt13bad_exception
         U _ZTSSt9bad_alloc
00000000 V _ZTSN3tds10VectorFontE
00000000 T _ZN10TExceptionD1Ev
00000000 T _ZN10TExceptionD0Ev
         U _ZdlPv
00000000 T _ZNK6TArrayIN3tds4Path7SegmentEEixEi
         U __frameinfo_used
         U __cxa_allocate_exception
         U __cxa_throw
00000000 T _ZN6TArrayIN3tds4Path7SegmentEE8CopyFromERKS3_
         U _Znaj
         U _ZdaPv
         U __cxa_vec_new2
00000000 T _ZN3tds4Path7SegmentC1Ev
00000000 T _ZN6TArrayIN3tds4Path7SegmentEEC1ERKS3_
00000000 T _ZN6TArrayIN3tds4Path7SegmentEED1Ev
00000000 T _ZN6TArrayIN3tds4Path7SegmentEED0Ev
00000000 T _ZN6TArrayIhED1Ev
00000000 T _ZN6TArrayIhED0Ev
00000000 T _ZNK6TArrayIhEixEi
00000000 T _ZN6TArrayIfED1Ev
00000000 T _ZN6TArrayIfED0Ev
00000000 T _ZNK6TArrayIfEixEi
00000000 T _ZN3tds4PathaSERKS0_
         U __diab_Unwind_Resume
         U __diab_personality_v0
00000000 T _ZN3tds10VectorFont5GlyphC1Ev
         U _ZN3tds4PathC1Ev
00000000 T _ZN3tds10VectorFont5GlyphC1ERK7_TPointIfERKNS_4PathE
00000000 T _ZN3tds10VectorFont5GlyphD1Ev
         U _ZN3tds4PathD1Ev
00000000 T _ZN3tds10VectorFontC1ERK8TTtfFont
         U _ZNK8TTtfFont6IsNullEv
         U memset
         U _ZNK8TTtfFont12GetGlyphPathEwR6TArrayIhERS0_IfER7_TPointIfE
         U _Znwj
         U __cxa_vec_ctor
         U _ZN3tds4Path10AppendDataEjPKhPKf
         U _ZN8TTtfFontD1Ev
000003ec T _ZN3tds10VectorFontC2ERK8TTtfFont
0000040c T _ZN3tds10VectorFontD1Ev
         U __cxa_vec_dtor
000004e0 T _ZN3tds10VectorFontD0Ev
0000050c T _ZN3tds10VectorFontD2Ev
0000052c T _ZNK3tds10VectorFont8GetGlyphEj
00000570 T _ZNK3tds10VectorFont16MeasureTextWidthEPKwi
         U _ZTVN10__cxxabiv117__class_type_infoE
         U _ZTVN10__cxxabiv116__enum_type_infoE

trColorBuffer.o:
00000000 d FLOAT_TEMP.1303
00000410 t _ZN3tds10BlendColorERjRKj
         U _ZTVSt9exception
         U _ZTVSt13bad_exception
         U _ZTVSt9bad_alloc
         U _ZTV10TException
         U _ZTV6TImage
         U _ZTV6TArrayI9ColorStopE
         U _ZTI10TException
         U _ZTI6TImage
         U _ZTI6TArrayI9ColorStopE
         U _ZTISt9exception
         U _ZTISt13bad_exception
         U _ZTISt9bad_alloc
         U _ZTS10TException
         U _ZTS6TImage
         U _ZTS6TArrayI9ColorStopE
         U _ZTSSt9exception
         U _ZTSSt13bad_exception
         U _ZTSSt9bad_alloc
00000000 T _ZNK10TMatrix3x3mlERK8TVector2
00000000 T _ZN6TColorC1Ej
00000000 T _ZN6_TRectIiEC1Ev
         U _ZN6_TRectIiE8nullRectE
00000000 T _ZN6_TRectIiEC1ERKS0_
00000000 T _ZN6_TRectIiEC1ERK7_TPointIiERK6_TSizeIiE
00000000 T _ZNK6_TRectIiEmiERK7_TPointIiE
00000000 T _ZNK6_TRectIiE9IntersectERKS0_
00000000 T _ZN3tds11ColorBufferC1Eii
         U __frameinfo_used
         U _Znaj
00000028 T _ZN3tds11ColorBufferC2Eii
00000048 T _ZN3tds11ColorBufferD1Ev
         U _ZdaPv
00000078 T _ZN3tds11ColorBufferD2Ev
00000098 T _ZNK3tds11ColorBuffer15GetPatternColorEff
         U __div32
00000198 T _ZNK3tds11ColorBuffer15GetPatternColorEff10TMatrix3x3
000002cc T _ZNK3tds11ColorBuffer17GetTransformColorEff10TMatrix3x3
0000038c T _ZNK3tds11ColorBuffer8GetColorEii
000003f4 T _ZN3tds11ColorBuffer8SetColorERK6TColorii
         U __udiv32
000004dc T _ZN3tds11ColorBuffer10BlendColorERK6TColorii
0000050c T _ZN3tds11ColorBuffer16GetBlockCopyRectERK6_TSizeIiERK7_TPointIiES4_S8_S4_
00000670 T _ZNK3tds11ColorBuffer6CopyToERS0_iiiiii
00000790 T _ZN3tds11ColorBuffer8CopyFromERKS0_iiiiii
000008b0 T _ZN3tds11ColorBuffer9BlendFromERKS0_iiiiii
000009e0 T _ZNK3tds11ColorBuffer6CopyToEPh11ColorFormatiRK7_TPointIiERK6_TSizeIiE
00000b14 T _ZN3tds11ColorBuffer8CopyFromEPKh11ColorFormatiRK7_TPointIiERK6_TSizeIiE
00000c48 T _ZN3tds11ColorBuffer9BlendFromEPKh11ColorFormatiRK7_TPointIiERK6_TSizeIiE
00000d80 T _ZN3tds11ColorBuffer9CopyColorERK6TColorRK6_TRectIiE
00000e34 T _ZN3tds11ColorBuffer16GetBlockCopyRectERK6_TRectIiEiiiiS4_ii

trBmfFont.o:
         U _ZTVSt9exception
         U _ZTVSt13bad_exception
         U _ZTVSt9bad_alloc
         U _ZTV10TException
00000000 V _ZTVN3tds7BmfFontE
         U _ZTI10TException
         U _ZTISt9exception
         U _ZTISt13bad_exception
         U _ZTISt9bad_alloc
00000000 V _ZTIN3tds7BmfFontE
         U _ZTS10TException
         U _ZTSSt9exception
         U _ZTSSt13bad_exception
         U _ZTSSt9bad_alloc
00000000 V _ZTSN3tds7BmfFontE
00000000 T _ZN3tds7BmfFontC1ERK8TBmfFont
00000018 T _ZN3tds7BmfFontC2ERK8TBmfFont
00000038 T _ZN3tds7BmfFontD1Ev
         U __frameinfo_used
         U _ZN8TBmfFontD1Ev
00000068 T _ZN3tds7BmfFontD0Ev
         U _ZdlPv
00000094 T _ZN3tds7BmfFontD2Ev
         U _ZTVN10__cxxabiv117__class_type_infoE

trDisplaySystem.o:
00000000 d FLOAT_TEMP.3014
00000004 d FLOAT_TEMP.3015
00000008 d FLOAT_TEMP.3510
         U _ZTVSt9exception
         U _ZTVSt13bad_exception
         U _ZTVSt9bad_alloc
00000000 V _ZTV10TException
         U _ZTV17TChildrenDelegate
         U _ZTV6TImage
         U _ZTVSt11logic_error
         U _ZTVSt12domain_error
         U _ZTVSt16invalid_argument
         U _ZTVSt12length_error
         U _ZTVSt12out_of_range
         U _ZTVSt13runtime_error
         U _ZTVSt14overflow_error
         U _ZTVSt15underflow_error
         U _ZTVSt11range_error
         U _ZTV8TDisplay
00000000 V _ZTVN3tds13DisplaySystemE
         U _ZTV6TArrayIP5TNodeE
00000000 V _ZTV6TArrayI9ColorStopE
         U _ZTV6TArrayIN3tds4Path7SegmentEE
00000000 V _ZTV6TArrayIPN3tds10VectorFontEE
00000000 V _ZTV6TArrayIPN3tds7BmfFontEE
00000000 V _ZTV6TArrayI10TSharedPtrIN3tds11ColorBufferEEE
00000000 V _ZTV6TArrayI10TSharedPtrIN3tds7ContextEEE
00000000 V _ZTI10TException
         U _ZTI17TChildrenDelegate
         U _ZTI6TArrayIP5TNodeE
         U _ZTI6TImage
00000000 V _ZTI6TArrayI9ColorStopE
00000000 V _ZTI8TDisplay
         U _ZTI6TArrayIN3tds4Path7SegmentEE
00000000 V _ZTI6TArrayIPN3tds10VectorFontEE
00000000 V _ZTI6TArrayIPN3tds7BmfFontEE
00000000 V _ZTI6TArrayI10TSharedPtrIN3tds11ColorBufferEEE
00000000 V _ZTI6TArrayI10TSharedPtrIN3tds7ContextEEE
         U _ZTISt9exception
         U _ZTISt13bad_exception
         U _ZTISt9bad_alloc
         U _ZTISt11logic_error
         U _ZTISt12domain_error
         U _ZTISt16invalid_argument
         U _ZTISt12length_error
         U _ZTISt12out_of_range
         U _ZTISt13runtime_error
         U _ZTISt14overflow_error
         U _ZTISt15underflow_error
         U _ZTISt11range_error
00000000 V _ZTIN3tds13DisplaySystemE
00000000 V _ZTS10TException
         U _ZTS17TChildrenDelegate
         U _ZTS6TArrayIP5TNodeE
         U _ZTS6TImage
00000000 V _ZTS6TArrayI9ColorStopE
00000000 V _ZTS8TDisplay
         U _ZTS6TArrayIN3tds4Path7SegmentEE
00000000 V _ZTS6TArrayIPN3tds10VectorFontEE
00000000 V _ZTS6TArrayIPN3tds7BmfFontEE
00000000 V _ZTS6TArrayI10TSharedPtrIN3tds11ColorBufferEEE
00000000 V _ZTS6TArrayI10TSharedPtrIN3tds7ContextEEE
         U _ZTSSt9exception
         U _ZTSSt13bad_exception
         U _ZTSSt9bad_alloc
         U _ZTSSt11logic_error
         U _ZTSSt12domain_error
         U _ZTSSt16invalid_argument
         U _ZTSSt12length_error
         U _ZTSSt12out_of_range
         U _ZTSSt13runtime_error
         U _ZTSSt14overflow_error
         U _ZTSSt15underflow_error
         U _ZTSSt11range_error
00000000 V _ZTSN3tds13DisplaySystemE
00000000 T _ZN6TArrayI10TSharedPtrIN3tds11ColorBufferEEED1Ev
         U __frameinfo_used
         U __cxa_vec_delete
00000000 T _ZN10TSharedPtrIN3tds11ColorBufferEED1Ev
00000000 T _ZN6TArrayI10TSharedPtrIN3tds7ContextEEED1Ev
00000000 T _ZN10TSharedPtrIN3tds7ContextEED1Ev
00000000 T _ZN3tds13DisplaySystemC1EPhiii
         U _Znwj
         U _ZN3tds7PainterC1Eii
         U _ZdlPv
         U _ZdaPv
         U __diab_Unwind_Resume
         U __diab_personality_v0
00000170 T _Z17InitDisplaySystemPhiii
00000214 T _Z19DeinitDisplaySystemP8TDisplay
00000000 T _ZN10TExceptionD1Ev
00000000 T _ZN10TExceptionD0Ev
00000000 T _ZN10TMatrix3x3C1Ev
00000000 T _ZN10TMatrix3x3aSERKS_
00000000 T _ZN6TColorC1Ej
00000000 T _ZN6_TRectIiEC1Ev
         U _ZN6_TRectIiE8nullRectE
00000000 T _ZN10TSharedPtrI18LinearGradientDataEaSERKS1_
00000000 T _ZN10TSharedPtrI18RadialGradientDataEaSERKS1_
00000000 T _ZN6TArrayI9ColorStopED1Ev
00000000 T _ZNK10TSharedPtrI13ColorStopDataE5DerefEv
00000000 T _ZN10TSharedPtrI13ColorStopDataEaSERKS1_
00000000 T _ZN9TGradientaSERKS_
00000000 T _ZN6TArrayI9ColorStopED0Ev
00000000 T _ZN6TPaintC1Ev
         U _ZN9TGradientC1Ev
         U _ZN12TPixelBufferC1Ev
         U _ZN9TGradientD1Ev
00000000 T _ZN6TPaintD1Ev
         U _ZN12TPixelBufferD1Ev
00000000 T _ZN6TPaintaSERKS_
         U _ZN12TPixelBufferaSERKS_
00000000 T _ZN6TArrayIPN3tds10VectorFontEED1Ev
00000000 T _ZN6TArrayIPN3tds10VectorFontEED0Ev
00000000 T _ZN6TArrayIPN3tds10VectorFontEE13RoundCapacityEi
00000000 T _ZN6TArrayIPN3tds10VectorFontEE8ExpandAtEii
         U _Znaj
         U __cxa_allocate_exception
         U __cxa_throw
00000000 T _ZN6TArrayIPN3tds10VectorFontEE8InsertAtEiRKS2_
00000000 T _ZNK6TArrayIPN3tds10VectorFontEEixEi
00000000 T _ZN6TArrayIPN3tds7BmfFontEED1Ev
00000000 T _ZN6TArrayIPN3tds7BmfFontEED0Ev
00000000 T _ZN6TArrayIPN3tds7BmfFontEE13RoundCapacityEi
00000000 T _ZN6TArrayIPN3tds7BmfFontEE8ExpandAtEii
00000000 T _ZN6TArrayIPN3tds7BmfFontEE8InsertAtEiRKS2_
00000000 T _ZNK6TArrayIPN3tds7BmfFontEEixEi
00000000 T _ZN6TArrayI10TSharedPtrIN3tds11ColorBufferEEED0Ev
00000000 T _ZN6TArrayI10TSharedPtrIN3tds11ColorBufferEEE13RoundCapacityEi
00000000 T _ZNK10TSharedPtrIN3tds11ColorBufferEE5DerefEv
         U _ZN3tds11ColorBufferD1Ev
00000000 T _ZN10TSharedPtrIN3tds11ColorBufferEEaSERKS2_
00000000 T _ZN6TArrayI10TSharedPtrIN3tds11ColorBufferEEE8ExpandAtEii
         U __cxa_vec_new2
00000000 T _ZN10TSharedPtrIN3tds11ColorBufferEEC1Ev
00000000 T _ZN6TArrayI10TSharedPtrIN3tds11ColorBufferEEE8InsertAtEiRKS3_
00000000 T _ZN6TArrayI10TSharedPtrIN3tds11ColorBufferEEE8ShrinkAtEii
00000000 T _ZN6TArrayI10TSharedPtrIN3tds11ColorBufferEEE8RemoveAtEi
00000000 T _ZNK6TArrayI10TSharedPtrIN3tds11ColorBufferEEE7IndexOfERKS3_
00000000 T _ZN6TArrayI10TSharedPtrIN3tds11ColorBufferEEE6RemoveERKS3_
00000000 T _ZNK6TArrayI10TSharedPtrIN3tds11ColorBufferEEEixEi
00000000 T _ZN6TArrayI10TSharedPtrIN3tds7ContextEEED0Ev
00000000 T _ZN6TArrayI10TSharedPtrIN3tds7ContextEEE13RoundCapacityEi
00000000 T _ZN3tds7ContextD1Ev
         U _ZN5TFontD1Ev
00000000 T _ZNK10TSharedPtrIN3tds7ContextEE5DerefEv
00000000 T _ZN10TSharedPtrIN3tds7ContextEEaSERKS2_
00000000 T _ZN6TArrayI10TSharedPtrIN3tds7ContextEEE8ExpandAtEii
00000000 T _ZN10TSharedPtrIN3tds7ContextEEC1Ev
00000000 T _ZN6TArrayI10TSharedPtrIN3tds7ContextEEE8InsertAtEiRKS3_
00000000 T _ZN6TArrayI10TSharedPtrIN3tds7ContextEEE8ShrinkAtEii
00000000 T _ZN6TArrayI10TSharedPtrIN3tds7ContextEEE8RemoveAtEi
00000000 T _ZNK6TArrayI10TSharedPtrIN3tds7ContextEEE7IndexOfERKS3_
00000000 T _ZN6TArrayI10TSharedPtrIN3tds7ContextEEE6RemoveERKS3_
00000000 T _ZNK6TArrayI10TSharedPtrIN3tds7ContextEEEixEi
00000000 T _ZN10TSharedPtrIN3tds11ColorBufferEEC1EPS1_
00000000 T _ZN10TSharedPtrIN3tds7ContextEEC1EPS1_
00000000 T _ZN3tds7ContextC1Ev
         U _ZN5TFontC1Ev
00000240 T _ZN3tds13DisplaySystem15ValidateContextEPv
000002dc T _ZN3tds13DisplaySystem19ValidateColorBufferEPv
00000378 T _ZN3tds13DisplaySystemC2EPhiii
000003a0 T _ZN3tds13DisplaySystemD1Ev
         U _ZN3tds7PainterD1Ev
000005b8 T _ZN3tds13DisplaySystemD2Ev
000005d8 T _ZN3tds13DisplaySystemD0Ev
00000604 T _ZN3tds13DisplaySystem17CreatePixelBufferEii
         U _ZN3tds11ColorBufferC1Eii
00000718 T _ZN3tds13DisplaySystem18DestroyPixelBufferEPv
000007ec T _ZN3tds13DisplaySystem18GetPixelBufferSizeEPv
0000085c T _ZN3tds13DisplaySystem15CopyPixelBufferEPvRK7_TPointIiES1_S5_RK6_TSizeIiE
         U _ZN3tds11ColorBuffer8CopyFromERKS0_iiiiii
0000099c T _ZN3tds13DisplaySystem15ReadPixelBufferEPvRK7_TPointIiERK6_TSizeIiEPh11ColorFormati
         U _ZNK3tds11ColorBuffer6CopyToEPh11ColorFormatiRK7_TPointIiERK6_TSizeIiE
00000a68 T _ZN3tds13DisplaySystem16WritePixelBufferEPvRK7_TPointIiERK6_TSizeIiEPKh11ColorFormati
         U _ZN3tds11ColorBuffer8CopyFromEPKh11ColorFormatiRK7_TPointIiERK6_TSizeIiE
00000b34 T _ZN3tds13DisplaySystem10CreatePathEv
         U _ZN3tds4PathC1Ev
00000bbc T _ZN3tds13DisplaySystem11DestroyPathEPv
         U _ZN3tds4PathD1Ev
00000c00 T _ZN3tds13DisplaySystem9ClearPathEPv
         U _ZN3tds4Path5ClearEv
00000c24 T _ZN3tds13DisplaySystem16AppendDataToPathEPvjPKhPKf
         U _ZN3tds4Path10AppendDataEjPKhPKf
00000c4c T _ZN3tds13DisplaySystem16AppendPathToPathEPvS1_
         U _ZN3tds4Path10AppendPathERKS0_
00000c74 T _ZN3tds13DisplaySystem13TransformPathEPvRK10TMatrix3x3
         U _ZN3tds4Path9TransformERK10TMatrix3x3
00000c9c T _ZN3tds13DisplaySystem16GetPathBoundRectEPv
         U _ZNK3tds4Path12GetBoundRectEv
00000cc0 T _ZN3tds13DisplaySystem15RegisterTtfFontERK8TTtfFont
         U _ZN3tds10VectorFontC1ERK8TTtfFont
         U __cxa_end_catch
         U __cxa_begin_catch
00000dc4 T _ZN3tds13DisplaySystem13CreateTtfFontERK8TTtfFont
         U _ZNK8TTtfFonteqERKS_
00000e50 T _ZN3tds13DisplaySystem14DestroyTtfFontEPv
00000e54 T _ZN3tds13DisplaySystem13GetTtfMetricsEPvRK5TFontR11FontMetrics
         U _ZNK5TFont12GetPointSizeEv
         U _ZNK8TTtfFont10GetMetricsER11FontMetrics
         U __div32
00000f3c T _ZN3tds13DisplaySystem15MeasureTtfWidthEPvRK5TFontPKwi
         U _ZNK3tds10VectorFont16MeasureTextWidthEPKwi
00000fe0 T _ZN3tds13DisplaySystem15RegisterBmfFontERK8TBmfFont
         U _ZN3tds7BmfFontC1ERK8TBmfFont
000010ec T _ZN3tds13DisplaySystem13CreateBmfFontERK8TBmfFont
         U _ZNK8TBmfFonteqERKS_
00001178 T _ZN3tds13DisplaySystem14DestroyBmfFontEPv
0000117c T _ZN3tds13DisplaySystem13GetBmfMetricsEPvRK5TFontR11FontMetrics
         U _ZNK8TBmfFont10GetMetricsER11FontMetrics
0000120c T _ZN3tds13DisplaySystem15MeasureBmfWidthEPvRK5TFontPKwi
         U _ZNK8TBmfFont15GetGlyphAdvanceEwR7_TPointIiE
000012ec T _ZN3tds13DisplaySystem18CreatePaintContextEv
000013f0 T _ZN3tds13DisplaySystem19DestroyPaintContextEPv
000014c4 T _ZN3tds13DisplaySystem10BeginPaintEPvS1_
         U _ZN3tds7Painter10BeginPaintERNS_7ContextERNS_11ColorBufferE
0000163c T _ZN3tds13DisplaySystem8EndPaintEPv
         U _ZN3tds7Painter8EndPaintERNS_7ContextE
000016ec T _ZN3tds13DisplaySystem11SetViewportEPvRK7_TPointIiERK6_TRectIiE
         U _ZN3tds7Context13SetRenderAreaERK7_TPointIiERK6_TRectIiE
00001730 T _ZN3tds13DisplaySystem11SetClipRectEPvRK6_TRectIiE
         U _ZN3tds7Context11SetClipRectERK6_TRectIiE
00001770 T _ZN3tds13DisplaySystem13ClearClipRectEPv
         U _ZN3tds7Context13ClearClipRectEv
000017ac T _ZN3tds13DisplaySystem6SetPenEPvRK4TPen
000017dc T _ZN3tds13DisplaySystem8SetBrushEPvRK6TBrush
00001858 T _ZN3tds13DisplaySystem12SetTextColorEPvRK6TColor
00001890 T _ZN3tds13DisplaySystem7SetFontEPvRK5TFont
         U _ZNK5TFont7GetTypeEv
         U _ZN5TFontaSERKS_
00001938 T _ZN3tds13DisplaySystem13SetRasterModeEPv10RasterMode
00001954 T _ZN3tds13DisplaySystem12SetPathWidthEPvf
00001978 T _ZN3tds13DisplaySystem11SetFillRuleEPv8FillRule
00001994 T _ZN3tds13DisplaySystem12SetBlendModeEPv9BlendMode
000019b0 T _ZN3tds13DisplaySystem12SetDashStyleEPv9DashStyle
000019cc T _ZN3tds13DisplaySystem13SetJointStyleEPv10JointStyle
000019e8 T _ZN3tds13DisplaySystem11SetCapStyleEPv8CapStyle
00001a10 T _ZN3tds13DisplaySystem12SetFillPaintEPvRK6TPaint
00001a5c T _ZN3tds13DisplaySystem14SetStrokePaintEPvRK6TPaint
00001aa8 T _ZN3tds13DisplaySystem9SetMatrixEPvRK10TMatrix3x3
00001ae8 T _ZN3tds13DisplaySystem14SetPaintMatrixEPvRK10TMatrix3x3
00001b48 T _ZN3tds13DisplaySystem8DrawLineEPvRK7_TPointIiES5_
         U _ZN3tds7Painter9DrawHLineERNS_7ContextEiii
         U _ZN3tds7Painter9DrawVLineERNS_7ContextEiii
         U _ZN3tds7Painter8DrawLineERNS_7ContextERK7_TPointIiES6_
00001be8 T _ZN3tds13DisplaySystem8DrawRectEPvRK6_TRectIiEi
         U _ZN3tds7Painter8DrawRectERNS_7ContextERK6_TRectIiEi
00001c20 T _ZN3tds13DisplaySystem11DrawUCSTextEPvPKwiii
         U _ZN3tds7Painter11DrawUCSTextERNS_7ContextEffPKwi
00001c78 T _ZN3tds13DisplaySystem14MeasureUCSTextEPvPKwi
         U _ZN3tds7Painter14MeasureUCSTextERNS_7ContextEPKwi
00001ce8 T _ZN3tds13DisplaySystem9DrawImageEPvRK6TImageii
         U _ZNK6TImage6IsNullEv
         U _ZN3tds7Painter9DrawImageERNS_7ContextERK6TImageii
00001d5c T _ZN3tds13DisplaySystem15DrawPixelBufferEPvS1_ii
         U _ZN3tds7Painter15DrawPixelBufferERNS_7ContextERKNS_11ColorBufferEii
00001da4 T _ZN3tds13DisplaySystem10DrawCircleEPvRK6_TRectIiE
         U _ZN3tds7Painter10DrawCircleERNS_7ContextERK6_TRectIiE
00001de8 T _ZN3tds13DisplaySystem11DrawEllipseEPvRK6_TRectIiE
         U _ZN3tds7Painter11DrawEllipseERNS_7ContextERK6_TRectIiE
00001e20 T _ZN3tds13DisplaySystem7DrawArcEPvRK6_TRectIiERK7_TPointIiES9_
         U _ZN3tds7Painter7DrawArcERNS_7ContextERK6_TRectIiERK7_TPointIiESA_
00001e60 T _ZN3tds13DisplaySystem7DrawPieEPvRK6_TRectIiERK7_TPointIiES9_
         U _ZN3tds7Painter7DrawPieERNS_7ContextERK6_TRectIiERK7_TPointIiESA_
00001ea0 T _ZN3tds13DisplaySystem10StrokePathEPvS1_
         U _ZN3tds7Painter10StrokePathERNS_7ContextERKNS_4PathE
00001ee0 T _ZN3tds13DisplaySystem10StrokePathEPvPK7_TPointIfEji
         U _ZN3tds7Painter10StrokePathERNS_7ContextEPK7_TPointIfEji
00001f34 T _ZN3tds13DisplaySystem8FillPathEPvS1_
         U _ZN3tds7Painter8FillPathERNS_7ContextERKNS_4PathE
00001f74 T _ZN3tds13DisplaySystem8FillPathEPvPK7_TPointIfEj
         U _ZN3tds7Painter8FillPathERNS_7ContextEPK7_TPointIfEj
00001fac T _ZN3tds13DisplaySystem17CopyToPixelBufferEPvS1_iiiiii
         U _ZN3tds7Painter6CopyToERNS_7ContextERNS_11ColorBufferEiiiiii
00002014 T _ZN3tds13DisplaySystem19CopyFromPixelBufferEPvS1_iiiiii
         U _ZN3tds7Painter8CopyFromERNS_7ContextERKNS_11ColorBufferEiiiiii
         U _ZTVN10__cxxabiv117__class_type_infoE
         U _ZTVN10__cxxabiv120__si_class_type_infoE

tgsClassicVisual.o:
00000000 d FLOAT_TEMP.1998
00000004 d FLOAT_TEMP.1999
         U _ZTVSt9exception
         U _ZTVSt13bad_exception
         U _ZTVSt9bad_alloc
         U _ZTV10TException
         U _ZTV17TChildrenDelegate
         U _ZTV6TImage
00000000 V _ZTV20TClassicVisualEngine
         U _ZTV6TArrayIP5TNodeE
00000000 V _ZTV6TArrayI9ColorStopE
         U _ZTI10TException
         U _ZTI17TChildrenDelegate
         U _ZTI6TArrayIP5TNodeE
         U _ZTI6TImage
00000000 V _ZTI6TArrayI9ColorStopE
00000000 V _ZTI20TClassicVisualEngine
         U _ZTISt9exception
         U _ZTISt13bad_exception
         U _ZTISt9bad_alloc
         U _ZTS10TException
         U _ZTS17TChildrenDelegate
         U _ZTS6TArrayIP5TNodeE
         U _ZTS6TImage
00000000 V _ZTS6TArrayI9ColorStopE
         U _ZTI13TVisualEngine
         U _ZTS13TVisualEngine
00000000 V _ZTS20TClassicVisualEngine
         U _ZTSSt9exception
         U _ZTSSt13bad_exception
         U _ZTSSt9bad_alloc
00000000 T _ZN6TColorC1Ev
00000000 T _ZN6TColorC1Ej
00000000 T _ZN6TColorC1ERKS_
00000000 T _ZN7_TPointIiEC1Ev
00000000 T _ZN7_TPointIiED1Ev
00000000 T _ZN10TSharedPtrI18LinearGradientDataEaSERKS1_
         U _ZdlPv
00000000 T _ZN10TSharedPtrI18RadialGradientDataEaSERKS1_
00000000 T _ZN6TArrayI9ColorStopED1Ev
         U __frameinfo_used
         U __cxa_vec_delete
00000000 T _ZNK10TSharedPtrI13ColorStopDataE5DerefEv
00000000 T _ZN10TSharedPtrI13ColorStopDataEaSERKS1_
00000000 T _ZN9TGradientC1ERKS_
00000000 T _ZN9TGradientaSERKS_
00000000 T _ZN6TArrayI9ColorStopED0Ev
00000000 T _ZN6TPaintC1Ev
         U _ZN9TGradientC1Ev
         U _ZN12TPixelBufferC1Ev
         U _ZN9TGradientD1Ev
         U __diab_Unwind_Resume
         U __diab_personality_v0
00000000 T _ZN6TPaintC1ERK6TColor
00000000 T _ZN6TPaintC1ERK9TGradient
00000000 T _ZN6TPaintD1Ev
         U _ZN12TPixelBufferD1Ev
00000000 T _ZN6TPaintaSERKS_
         U _ZN12TPixelBufferaSERKS_
00000000 T _ZN20TClassicVisualEngineC1Ev
         U _ZN20TDefaultVisualEngineC2Ev
         U __cxa_vec_ctor
         U _ZN9TGradientC1EffffjPK6TColorPKf
         U _ZN20TDefaultVisualEngineD2Ev
00000e0c T _ZN20TClassicVisualEngineC2Ev
00000e2c T _ZN20TClassicVisualEngineD1Ev
000010d4 T _ZN20TClassicVisualEngineD0Ev
00001100 T _ZN20TClassicVisualEngineD2Ev
00001120 T _ZN20TClassicVisualEngine11DrawHorRectER8TPainterRK11VisualStateRK6_TRectIiE
         U _ZN14TVectorPainter15TranslateMatrixEff
         U _ZN14TVectorPainter11ScaleMatrixEff
         U _ZN14TVectorPainter12SetFillPaintERK6TPaint
         U _ZN5TPathC1ERK6_TRectIiE
         U _ZN14TVectorPainter8FillPathERK5TPath
         U _ZN5TPathD1Ev
         U _ZN14TVectorPainter16ResetPaintMatrixEv
000012d4 T _ZN20TClassicVisualEngine16DrawToggleButtonER8TPainterRK11VisualStateRK6_TRectIiEi
         U _ZNK20TDefaultVisualEngine12Draw3DBorderER8TPainterRK6_TRectIiEii
000013a8 T _ZN20TClassicVisualEngine15DrawProgressBarER8TPainterRK11VisualStateRK6_TRectIiE15OrientationType
000014cc T _ZN20TClassicVisualEngine11DrawVerRectER8TPainterRK11VisualStateRK6_TRectIiE
00001648 T _ZN20TClassicVisualEngine9DrawFrameE9FrameTypeR8TPainterRK11VisualStateRK6_TRectIiE
         U _ZN20TDefaultVisualEngine9DrawFrameE9FrameTypeR8TPainterRK11VisualStateRK6_TRectIiE
         U _ZNK20TDefaultVisualEngine13DrawDownArrowER8TPainterRK6_TRectIiERK6TColor
         U _ZNK20TDefaultVisualEngine11DrawUpArrowER8TPainterRK6_TRectIiERK6TColor
         U _ZNK20TDefaultVisualEngine13DrawLeftArrowER8TPainterRK6_TRectIiERK6TColor
         U _ZNK20TDefaultVisualEngine14DrawRightArrowER8TPainterRK6_TRectIiERK6TColor
         U _ZN20TDefaultVisualEngine15DrawScrollTrackER8TPainterRK11VisualStateRK6_TRectIiE15OrientationType
         U _ZN20TDefaultVisualEngine15DrawSliderTrackER8TPainterRK11VisualStateRK6_TRectIiE15OrientationType
         U _ZNK20TDefaultVisualEngine13DrawSolidRectER8TPainterRK6_TRectIiERK6TColor
000021c0 T _ZNK20TClassicVisualEngine15DrawRoundBorderER8TPainterRK11VisualStateRK6_TRectIiE
         U _ZN8TPainter6SetPenERK4TPen
         U _ZN8TPainter8DrawLineERK7_TPointIiES3_
         U __cxa_vec_dtor
         U _ZTVN10__cxxabiv117__class_type_infoE
         U _ZTVN10__cxxabiv120__si_class_type_infoE
         U _ZTI20TDefaultVisualEngine

tgsDefaultVisual.o:
         U _ZTVSt9exception
         U _ZTVSt13bad_exception
         U _ZTVSt9bad_alloc
         U _ZTV10TException
00000000 V _ZTV6TImage
         U _ZTV17TChildrenDelegate
         U _ZTV13TVisualEngine
00000000 V _ZTV20TDefaultVisualEngine
         U _ZTV6TArrayI9ColorStopE
         U _ZTV6TArrayIP5TNodeE
         U _ZTI10TException
00000000 V _ZTI6TImage
         U _ZTI6TArrayI9ColorStopE
         U _ZTI17TChildrenDelegate
         U _ZTI6TArrayIP5TNodeE
00000000 V _ZTI13TVisualEngine
00000000 V _ZTI20TDefaultVisualEngine
         U _ZTISt9exception
         U _ZTISt13bad_exception
         U _ZTISt9bad_alloc
         U _ZTS10TException
00000000 V _ZTS6TImage
         U _ZTS6TArrayI9ColorStopE
         U _ZTS17TChildrenDelegate
         U _ZTS6TArrayIP5TNodeE
00000000 V _ZTS13TVisualEngine
00000000 V _ZTS20TDefaultVisualEngine
         U _ZTSSt9exception
         U _ZTSSt13bad_exception
         U _ZTSSt9bad_alloc
00000000 T _ZN6TColorC1Ej
00000000 T _ZN6TColorC1ERKS_
00000000 T _ZN6_TRectIiEC1Ev
         U _ZN6_TRectIiE8nullRectE
00000000 T _ZNK10TSharedPtrI9ImageDataE5DerefEv
         U __frameinfo_used
         U _ZN9ImageDataD1Ev
         U _ZdlPv
00000000 T _ZN6TImageD1Ev
00000000 T _ZN6TImageD0Ev
00000000 T _ZN8TPainter8DrawLineEiiii
         U _ZN8TPainter8DrawLineERK7_TPointIiES3_
         U __diab_Unwind_Resume
         U __diab_personality_v0
00000000 T _ZN7_TPointIiEC1Ev
00000000 T _ZN7_TPointIiED1Ev
00000000 T _ZN20TDefaultVisualEngineC1Ev
         U _ZN6TImageC1EPhiii11ColorFormatS1_
00000000 D _ZN20TDefaultVisualEngine13bufferCheck_dE
         U _ZN12TPixelBufferC1ERK6TImage
000002a4 D _ZN20TDefaultVisualEngine13bufferCheck_hE
00000548 D _ZN20TDefaultVisualEngine13bufferCheck_pE
000007ec D _ZN20TDefaultVisualEngine14bufferCheck_cnE
00000a90 D _ZN20TDefaultVisualEngine14bufferCheck_cdE
00000d34 D _ZN20TDefaultVisualEngine14bufferCheck_chE
00000fd8 D _ZN20TDefaultVisualEngine14bufferCheck_cpE
0000127c D _ZN20TDefaultVisualEngine13bufferRadio_nE
00001600 D _ZN20TDefaultVisualEngine13bufferRadio_dE
00001984 D _ZN20TDefaultVisualEngine13bufferRadio_hE
00001d08 D _ZN20TDefaultVisualEngine13bufferRadio_pE
0000208c D _ZN20TDefaultVisualEngine14bufferRadio_cnE
00002410 D _ZN20TDefaultVisualEngine14bufferRadio_cdE
00002794 D _ZN20TDefaultVisualEngine14bufferRadio_chE
00002b18 D _ZN20TDefaultVisualEngine14bufferRadio_cpE
         U _ZN12TPixelBufferD1Ev
00001024 T _ZN20TDefaultVisualEngineC2Ev
00001044 T _ZN20TDefaultVisualEngineD1Ev
000012e0 T _ZN20TDefaultVisualEngineD0Ev
0000130c T _ZN20TDefaultVisualEngineD2Ev
0000132c T _ZNK20TDefaultVisualEngine12Draw3DBorderER8TPainterRK6_TRectIiEii
         U _ZN8TPainter6SetPenERK4TPen
         U __div32
000018c0 T _ZNK20TDefaultVisualEngine13DrawSolidRectER8TPainterRK6_TRectIiERK6TColor
         U _ZN12TPixelBufferC1Ev
         U _ZN8TPainter8SetBrushERK6TBrush
         U _ZN8TPainter8FillRectERK6_TRectIiE
00001964 T _ZN20TDefaultVisualEngine14DrawPushButtonER8TPainterRK11VisualStateRK6_TRectIiE
00001b40 T _ZN20TDefaultVisualEngine16DrawToggleButtonER8TPainterRK11VisualStateRK6_TRectIiEi
00001cf0 T _ZN20TDefaultVisualEngine18DrawCheckIndicatorER8TPainterRK11VisualStateRK6_TRectIiEi
         U _ZN8TPainter15DrawPixelBufferERK12TPixelBufferii
00001ff8 T _ZN20TDefaultVisualEngine18DrawRadioIndicatorER8TPainterRK11VisualStateRK6_TRectIiEi
00002154 T _ZN20TDefaultVisualEngine15DrawScrollTrackER8TPainterRK11VisualStateRK6_TRectIiE15OrientationType
0000217c T _ZN20TDefaultVisualEngine15DrawScrollThumbER8TPainterRK11VisualStateRK6_TRectIiE15OrientationType
00002268 T _ZN20TDefaultVisualEngine15DrawSliderTrackER8TPainterRK11VisualStateRK6_TRectIiE15OrientationType
000022f8 T _ZN20TDefaultVisualEngine15DrawSliderThumbER8TPainterRK11VisualStateRK6_TRectIiE15OrientationType
000023dc T _ZNK20TDefaultVisualEngine14DrawFlatBorderER8TPainterRK6_TRectIiEiRK6TColor
000024fc T _ZNK20TDefaultVisualEngine13DrawLeftArrowER8TPainterRK6_TRectIiERK6TColor
         U __cxa_vec_ctor
         U __cxa_vec_dtor
000026ac T _ZNK20TDefaultVisualEngine14DrawRightArrowER8TPainterRK6_TRectIiERK6TColor
00002854 T _ZNK20TDefaultVisualEngine11DrawUpArrowER8TPainterRK6_TRectIiERK6TColor
000029d8 T _ZNK20TDefaultVisualEngine13DrawDownArrowER8TPainterRK6_TRectIiERK6TColor
00002b50 T _ZN20TDefaultVisualEngine9DrawFrameE9FrameTypeR8TPainterRK11VisualStateRK6_TRectIiE
000032a8 T _ZN20TDefaultVisualEngine15DrawHeaderPanelER8TPainterRK11VisualStateRK6_TRectIiE
00003338 T _ZN20TDefaultVisualEngine18DrawComboboxButtonER8TPainterRK11VisualStateRK6_TRectIiE
000034ec T _ZNK20TDefaultVisualEngine14DrawEtchBorderER8TPainterRK6_TRectIiEii
00003a40 T _ZNK20TDefaultVisualEngine12Draw3DCircleER8TPainterRK6_TRectIiEii
00003a44 T _ZNK20TDefaultVisualEngine15DrawSolidCircleER8TPainterRK6_TRectIiERK6TColor
         U _ZTVN10__cxxabiv117__class_type_infoE
         U _ZTVN10__cxxabiv120__si_class_type_infoE

tgsContainer.o:
         U _ZTVSt9exception
         U _ZTVSt13bad_exception
         U _ZTVSt9bad_alloc
00000000 V _ZTV10TException
         U _ZTV17TChildrenDelegate
         U _ZTV6TImage
00000000 V _ZTV6TGroup
00000000 V _ZTVN6TGroup21GroupChildrenDelegateE
         U _ZTV14TEventDelegate
00000000 V _ZTV6TPanel
         U _ZTV6TArrayIP5TNodeE
00000000 V _ZTVN7_TEventI10EventParamE15THandlerAdaptorE
         U _ZTV6TArrayI9ColorStopE
00000000 V _ZTV6TArrayIP8TControlE
00000000 V _ZTVN7_TEventI10EventParamE17MemberFuncHandlerI6TGroupEE
00000000 V _ZTI10TException
         U _ZTI14TEventDelegate
00000000 V _ZTI17TChildrenDelegate
         U _ZTI6TArrayIP5TNodeE
00000000 V _ZTIN7_TEventI10EventParamE15THandlerAdaptorE
00000000 V _ZTIN7_TEventI10EventParamE17MemberFuncHandlerI6TGroupEE
         U _ZTI6TImage
         U _ZTI6TArrayI9ColorStopE
00000000 V _ZTI6TArrayIP8TControlE
00000000 V _ZTI6TGroup
00000000 V _ZTIN6TGroup21GroupChildrenDelegateE
00000000 V _ZTI6TPanel
         U _ZTISt9exception
         U _ZTISt13bad_exception
         U _ZTISt9bad_alloc
00000000 V _ZTS10TException
         U _ZTS14TEventDelegate
00000000 V _ZTS17TChildrenDelegate
         U _ZTS6TArrayIP5TNodeE
00000000 V _ZTSN7_TEventI10EventParamE15THandlerAdaptorE
00000000 V _ZTSN7_TEventI10EventParamE17MemberFuncHandlerI6TGroupEE
         U _ZTS6TImage
         U _ZTS6TArrayI9ColorStopE
00000000 V _ZTS6TArrayIP8TControlE
00000000 V _ZTS6TGroup
00000000 V _ZTSN6TGroup21GroupChildrenDelegateE
00000000 V _ZTS6TPanel
         U _ZTSSt9exception
         U _ZTSSt13bad_exception
         U _ZTSSt9bad_alloc
00000000 T _ZN10TExceptionD1Ev
00000000 T _ZN10TExceptionD0Ev
         U _ZdlPv
00000000 T _ZN6_TRectIiEC1Ev
         U _ZN6_TRectIiE8nullRectE
00000000 T _ZN6_TRectIiEC1ERK7_TPointIiERK6_TSizeIiE
00000000 T _ZNK6_TRectIiE6AdjustERK8_TMarginIiE
00000000 T _ZNK6_TRectIiEmiERK7_TPointIiE
00000000 T _ZN7_TEventI10EventParamE10SetHandlerI6TGroupEEvPT_NS1_17MemberFuncHandlerIS4_E8FuncTypeE
         U __frameinfo_used
         U _Znwj
         U __diab_Unwind_Resume
         U __diab_personality_v0
00000000 T _ZN7_TEventI10EventParamE15THandlerAdaptorD1Ev
00000000 T _ZN7_TEventI10EventParamE15THandlerAdaptorD0Ev
00000000 T _ZN7_TEventI10EventParamE17MemberFuncHandlerI6TGroupED1Ev
00000000 T _ZN7_TEventI10EventParamE17MemberFuncHandlerI6TGroupED0Ev
00000000 T _ZNK7_TEventI10EventParamE17MemberFuncHandlerI6TGroupE6InvokeERS0_
00000000 T _ZN7_TEventI10EventParamE17MemberFuncHandlerI6TGroupE3dupEv
00000000 T _ZN6TArrayIP8TControlED1Ev
         U _ZdaPv
00000000 T _ZN6TArrayIP8TControlED0Ev
00000000 T _ZN6TArrayIP8TControlE13RoundCapacityEi
00000000 T _ZN6TArrayIP8TControlE8ExpandAtEii
         U _Znaj
         U __cxa_allocate_exception
         U __cxa_throw
00000000 T _ZN6TArrayIP8TControlE8InsertAtEiRKS1_
00000000 T _ZN6TArrayIP8TControlE8ShrinkAtEii
00000000 T _ZN6TArrayIP8TControlE8RemoveAtEi
00000000 T _ZN6TArrayIP8TControlE5ClearEv
00000000 T _ZNK6TArrayIP8TControlEixEi
00000000 T _ZN13TControlArray10AddControlEP8TControli
00000070 T _ZN13TControlArray15AddControlAtTopEP8TControl
00000094 T _ZN13TControlArray18AddControlAtBottomEP8TControl
000000b8 T _ZN13TControlArray13RemoveControlEP8TControl
00000118 T _ZN13TControlArray17RemoveAllControlsEv
00000138 T _ZNK13TControlArrayixEi
0000015c T _ZNK13TControlArray7IndexOfEPK8TControl
000001bc T _ZN6TGroupC1Eiiii
         U _ZN8TControlC2EiiiiR5TNode
         U _ZTV18TNodeEventDelegate
         U _ZN5TNodeC1EiiiiP14TEventDelegateP17TChildrenDelegate
         U _ZN5TNodeD1Ev
         U _ZN8TControlD2Ev
00000308 T _ZN6TGroupC2Eiiii
00000330 T _ZN6TGroupD1Ev
00000428 T _ZN6TGroupD0Ev
00000454 T _ZN6TGroupD2Ev
00000474 T _ZN6TGroup18CalculateBoundRectERK6_TRectIiES3_RK15AlignmentPolicy
0000061c T _ZN6TGroup18OnChildBoundChangeEP8TControl
         U _ZN8TControl13GetHintedSizeEv
         U _ZN5TNode12SetBoundRectERK6_TRectIiE
000006f4 T _ZN6TGroup10AddControlEP8TControli
         U _ZN5TNode11AddToParentEPS_
00000768 T _ZN6TGroup13RemoveControlEP8TControl
         U _ZN5TNode16RemoveFromParentEv
000007b0 T _ZN6TGroup17RemoveAllControlsEv
00000824 T _ZN6TGroup8OnResizeEv
00000930 T _ZN6TGroup11NodeHandlerER10EventParam
         U _ZNK7TVisual4DrawER8TPainterRK11VisualStateRK6_TRectIiE
000009e0 T _ZNK6TGroup21GroupChildrenDelegate8GetCountEv
000009ec T _ZN6TGroup21GroupChildrenDelegate7GetNodeEi
00000a18 T _ZN6TPanelC1Eiiii
         U _ZN5TNode6UpdateEv
00000a90 T _ZN6TPanelC2Eiiii
00000ab8 T _ZN6TPanelD1Ev
00000ae4 T _ZN6TPanelD0Ev
00000b10 T _ZN6TPanelD2Ev
         U __cxa_pure_virtual
         U _ZTVN10__cxxabiv117__class_type_infoE
         U _ZTVN10__cxxabiv120__si_class_type_infoE
         U _ZTI8TControl

tgsVectorPainter.o:
00000000 d FLOAT_TEMP.1672
00000004 d FLOAT_TEMP.1673
00000008 d FLOAT_TEMP.1972
         U _ZTVSt9exception
         U _ZTVSt13bad_exception
         U _ZTVSt9bad_alloc
00000000 V _ZTV10TException
         U _ZTV17TChildrenDelegate
         U _ZTV6TImage
         U _ZTV6TArrayIP5TNodeE
00000000 V _ZTV6TArrayI9ColorStopE
00000000 V _ZTI10TException
         U _ZTI17TChildrenDelegate
         U _ZTI6TArrayIP5TNodeE
         U _ZTI6TImage
00000000 V _ZTI6TArrayI9ColorStopE
         U _ZTISt9exception
         U _ZTISt13bad_exception
         U _ZTISt9bad_alloc
00000000 V _ZTS10TException
         U _ZTS17TChildrenDelegate
         U _ZTS6TArrayIP5TNodeE
         U _ZTS6TImage
00000000 V _ZTS6TArrayI9ColorStopE
         U _ZTSSt9exception
         U _ZTSSt13bad_exception
         U _ZTSSt9bad_alloc
00000000 T _ZN10TExceptionD1Ev
00000000 T _ZN10TExceptionD0Ev
         U _ZdlPv
00000000 T _ZN10TMatrix3x3C1Ev
00000000 T _ZN10TMatrix3x3C1Efffffffff
00000000 T _ZN10TMatrix3x3aSERKS_
00000000 T _ZNK10TMatrix3x3mlERKS_
00000000 T _ZN10TMatrix3x39TranslateEff
00000000 T _ZN10TMatrix3x35ScaleEff
00000000 T _ZN9ColorStopC1Ev
00000000 T _ZN10TSharedPtrI18LinearGradientDataEC1EPS0_
         U __frameinfo_used
         U _Znwj
         U __diab_Unwind_Resume
         U __diab_personality_v0
00000000 T _ZN10TSharedPtrI18LinearGradientDataED1Ev
00000000 T _ZN10TSharedPtrI18LinearGradientDataEaSEPS0_
00000000 T _ZN10TSharedPtrI18RadialGradientDataEC1EPS0_
00000000 T _ZN10TSharedPtrI18RadialGradientDataED1Ev
00000000 T _ZN10TSharedPtrI18RadialGradientDataEaSEPS0_
00000000 T _ZN10TSharedPtrI13ColorStopDataEC1EPS0_
00000000 T _ZN6TArrayI9ColorStopED1Ev
         U __cxa_vec_delete
00000000 T _ZNK10TSharedPtrI13ColorStopDataE5DerefEv
00000000 T _ZN10TSharedPtrI13ColorStopDataED1Ev
00000000 T _ZN10TSharedPtrI13ColorStopDataEaSEPS0_
00000000 T _ZN10TSharedPtrI13ColorStopDataEaSERKS1_
00000000 T _ZN9TGradientC1Ev
00000004 C _ZN9TGradient25defaultLinearGradientDataE
00000004 C _ZN9TGradient25defaultRadialGradientDataE
00000004 C _ZN9TGradient20defaultColorStopDataE
0000007c T _ZN9TGradientC2Ev
0000009c T _ZN9TGradientC1ENS_12GradientTypeE
00000114 T _ZN9TGradientC2ENS_12GradientTypeE
00000134 T _ZN18LinearGradientDataC1Effff
00000000 T _ZN6TArrayI9ColorStopE13RoundCapacityEi
00000000 T _ZN6TArrayI9ColorStopE8ExpandAtEii
         U _Znaj
         U _ZdaPv
         U __cxa_vec_new2
         U __cxa_allocate_exception
         U __cxa_throw
00000000 T _ZN6TArrayI9ColorStopEC1Ei
00000000 T _ZNK6TArrayI9ColorStopEixEi
000001a8 T _ZN13ColorStopDataC1EjPK6TColorPKf
00000278 T _ZN9TGradientC1EffffjPK6TColorPKf
0000046c T _ZN9TGradientC2EffffjPK6TColorPKf
000004ac T _ZN18RadialGradientDataC1Efffff
000004e8 T _ZN9TGradientC1EfffffjPK6TColorPKf
000006e0 T _ZN9TGradientC2EfffffjPK6TColorPKf
00000728 T _ZN9TGradientD1Ev
00000850 T _ZN9TGradientD2Ev
00000870 T _ZN9TGradient13SetLinearDataEffff
00000930 T _ZNK9TGradient13GetLinearDataEv
00000938 T _ZN9TGradient13SetRadialDataEfffff
00000a00 T _ZNK9TGradient13GetRadialDataEv
00000a08 T _ZN9TGradient15ClearColorStopsEv
00000000 T _ZN6TArrayI9ColorStopE8CopyFromERKS1_
00000000 T _ZN6TArrayI9ColorStopEC1ERKS1_
00000a30 T _ZN9TGradient12SetColorStopERK13ColorStopData
00000acc T _ZNK9TGradient12GetColorStopEv
00000ad4 T _ZN18LinearGradientDataC1Ev
00000b0c T _ZN18LinearGradientDataC2Ev
00000b2c T _ZN18LinearGradientDataC2Effff
00000b54 T _ZN18RadialGradientDataC1Ev
00000b7c T _ZN18RadialGradientDataC2Ev
00000b9c T _ZN18RadialGradientDataC2Efffff
00000000 T _ZN6TArrayI9ColorStopED0Ev
00000000 T _ZN13ColorStopDataC1Ev
00000bcc T _ZN13ColorStopDataC2EjPK6TColorPKf
00000bec T _ZN14TVectorPainter12SetDashStyleE9DashStyle
00000c20 T _ZN14TVectorPainter13SetJointStyleE10JointStyle
00000c54 T _ZN14TVectorPainter11SetCapStyleE8CapStyle
00000c88 T _ZN14TVectorPainter12SetFillPaintERK6TPaint
00000cbc T _ZN14TVectorPainter14SetStrokePaintERK6TPaint
00000cf0 T _ZN14TVectorPainter12SetPathWidthEf
00000d28 T _ZN14TVectorPainter15TranslateMatrixEff
00000d68 T _ZN14TVectorPainter11ScaleMatrixEff
00000da8 T _ZN14TVectorPainter12RotateMatrixEf
         U _ZN10TMatrix3x36RotateEf
00000de8 T _ZN14TVectorPainter9SetMatrixERK10TMatrix3x3
00000e28 T _ZN14TVectorPainter11ResetMatrixEv
00000e80 T _ZN14TVectorPainter20TranslatePaintMatrixEff
00000ec0 T _ZN14TVectorPainter16ScalePaintMatrixEff
00000f00 T _ZN14TVectorPainter17RotatePaintMatrixEf
00000f40 T _ZN14TVectorPainter14SetPaintMatrixERK10TMatrix3x3
00000f94 T _ZN14TVectorPainter16ResetPaintMatrixEv
00000fec T _ZN14TVectorPainter11SetFillRuleE8FillRule
00001020 T _ZN14TVectorPainter12SetBlendModeE9BlendMode
00001054 T _ZN14TVectorPainter8FillPathERK5TPath
0000109c T _ZN14TVectorPainter8FillPathEPK7_TPointIfEj
000010d4 T _ZN14TVectorPainter10StrokePathERK5TPath
00001104 T _ZN14TVectorPainter10StrokePathEPK7_TPointIfEji
00001144 T _STI___20_tgsVectorPainter_cpp_0407dd98
         U __dso_handle
         U __cxa_atexit
         U _ZTVN10__cxxabiv117__class_type_infoE

tgsAnsiString.o:
         U _ZTVSt9exception
         U _ZTVSt13bad_exception
         U _ZTVSt9bad_alloc
00000000 V _ZTV10TException
00000000 V _ZTI10TException
         U _ZTISt9exception
         U _ZTISt13bad_exception
         U _ZTISt9bad_alloc
00000000 V _ZTS10TException
         U _ZTSSt9exception
         U _ZTSSt13bad_exception
         U _ZTSSt9bad_alloc
00000000 T _ZN10TExceptionD1Ev
00000000 T _ZN10TExceptionD0Ev
         U _ZdlPv
00000000 T _ZN7TStringC1Ev
         U __frameinfo_used
         U calloc
         U __cxa_allocate_exception
         U __cxa_throw
00000074 T _ZN7TStringC2Ev
00000094 T _ZN7TStringC1EPKc
         U strlen
         U strncpy
00000170 T _ZN7TStringC2EPKc
00000190 T _ZN7TStringC1EPKci
00000284 T _ZN7TStringC2EPKci
000002a4 T _ZN7TStringC1ERKS_
00000338 T _ZN7TStringC2ERKS_
00000358 T _ZN7TStringC1ERK8TWString
000003fc T _ZN7TStringC2ERK8TWString
0000041c T _ZN7TStringaSERKS_
         U free
000004c4 T _ZN7TString7SetTextEPKc
000005ac T _ZN7TString7ReplaceEiiRKS_
000006bc T _ZN7TString4LeftEi
000006f4 T _ZN7TString6RemoveEii
000007fc T _ZN7TString3AddERKS_
000008c0 T _ZNK7TStringneERKS_
0000091c T _ZNK7TStringeqERKS_
00000978 T _ZNK7TString4FindEic
000009bc T _ZN7TString6FormatEiPKcz
         U _Znaj
         U vsnprintf
         U _ZdaPv
         U _ZTVN10__cxxabiv117__class_type_infoE

tgsBasic.o:
00000000 d FLOAT_TEMP.483
00000008 d FLOAT_TEMP.484
00000010 d FLOAT_TEMP.487
00000014 d FLOAT_TEMP.488
00000018 d FLOAT_TEMP.492
0000001c d FLOAT_TEMP.501
00000020 d FLOAT_TEMP.502
         U _ZTVSt9exception
         U _ZTVSt13bad_exception
         U _ZTVSt9bad_alloc
         U _ZTV10TException
         U _ZTI10TException
         U _ZTISt9exception
         U _ZTISt13bad_exception
         U _ZTISt9bad_alloc
         U _ZTS10TException
         U _ZTSSt9exception
         U _ZTSSt13bad_exception
         U _ZTSSt9bad_alloc
00000000 V _ZN6_TRectIiE8nullRectE
00000000 V _ZN6_TRectIiE7maxRectE
00000000 V _ZN6_TRectIfE8nullRectE
00000000 V _ZN6_TRectIfE7maxRectE
00000000 T _Z11trt_stricmpPKcS0_
         U __frameinfo_used
         U tolower
00000090 T _Z9round_intf
000000bc T _Z6endianv
000000dc T _Z7get_u32Phi
00000114 T _Z7get_u16Phi
00000134 T _ZN8TVector29NormalizeEv
         U sqrt
00000000 T _ZN10TMatrix3x3C1Ev
00000000 T _ZN10TMatrix3x3C1Efffffffff
00000000 T _ZN10TMatrix3x3aSERKS_
00000000 T _ZNK10TMatrix3x3mlERKS_
00000198 T _ZN10TMatrix3x36InvertEv
0000036c T _ZN10TMatrix3x36RotateEf
         U cos
         U sin
00000000 T _ZN6_TRectIiEC1Eiiii
00000000 T _ZN6_TRectIfEC1Effff
00000484 T _STI___12_tgsBasic_cpp_02d26153
00000000 D _ZGVN6_TRectIiE8nullRectE
00000004 D _ZGVN6_TRectIiE7maxRectE
00000008 D _ZGVN6_TRectIfE8nullRectE
0000000c D _ZGVN6_TRectIfE7maxRectE

tgsPath.o:
00000008 d FLOAT_TEMP.1675
0000000c d FLOAT_TEMP.1676
00000010 d FLOAT_TEMP.1713
00000014 d FLOAT_TEMP.1797
         U _ZTVSt9exception
         U _ZTVSt13bad_exception
         U _ZTVSt9bad_alloc
00000000 V _ZTV10TException
         U _ZTV17TChildrenDelegate
         U _ZTV6TImage
         U _ZTV6TArrayIP5TNodeE
         U _ZTV6TArrayI9ColorStopE
00000000 V _ZTV6TArrayIhE
00000000 V _ZTV6TArrayIfE
00000000 V _ZTI10TException
         U _ZTI17TChildrenDelegate
         U _ZTI6TArrayIP5TNodeE
         U _ZTI6TImage
         U _ZTI6TArrayI9ColorStopE
00000000 V _ZTI6TArrayIhE
00000000 V _ZTI6TArrayIfE
         U _ZTISt9exception
         U _ZTISt13bad_exception
         U _ZTISt9bad_alloc
00000000 V _ZTS10TException
         U _ZTS17TChildrenDelegate
         U _ZTS6TArrayIP5TNodeE
         U _ZTS6TImage
         U _ZTS6TArrayI9ColorStopE
00000000 V _ZTS6TArrayIhE
00000000 V _ZTS6TArrayIfE
         U _ZTSSt9exception
         U _ZTSSt13bad_exception
         U _ZTSSt9bad_alloc
00000000 T _ZN10TExceptionD1Ev
00000000 T _ZN10TExceptionD0Ev
         U _ZdlPv
00000000 T _ZN10TMatrix3x3C1Efffffffff
00000000 T _ZN5TPath4DataD1Ev
         U __frameinfo_used
         U _ZN12TApplication8InstanceEv
00000000 T _ZNK10TSharedPtrIN5TPath4DataEE5DerefEv
00000000 T _ZN10TSharedPtrIN5TPath4DataEEaSEPS1_
         U _Znwj
         U __diab_Unwind_Resume
         U __diab_personality_v0
00000044 T _ZN5TPathC1Ev
0000013c T _ZN5TPathC2Ev
0000015c T _ZN5TPathC1ERKS_
00000284 T _ZN5TPathC2ERKS_
000002a4 T _ZN5TPathC1EjPK7_TPointIfE
         U _Znaj
         U _ZdaPv
00000478 T _ZN5TPathC2EjPK7_TPointIfE
00000498 T _ZN5TPathC1EjPKhPKf
000005cc T _ZN5TPathC2EjPKhPKf
000005ec T _ZN5TPathC1ERK6_TRectIiE
00000790 T _ZN5TPathC2ERK6_TRectIiE
000007b0 T _ZN5TPath6AppendERKS_
0000080c T _ZN5TPath10AppendDataEjPKhPKf
00000874 T _ZN5TPath9TranslateEff
0000092c T _ZN5TPath5ScaleEff
00000000 T _ZNK6TArrayIhEixEi
         U __cxa_allocate_exception
         U __cxa_throw
00000000 T _ZNK6TArrayIfEixEi
000009d0 T _ZN5TPathC1ERK5TFontRK8TWString
         U _ZNK5TFont11GetFaceNameEv
         U _ZN8TTtfFontC1ERK7TString
         U _ZNK8TTtfFont6IsNullEv
         U _ZNK8TTtfFont12GetGlyphPathEwR6TArrayIhERS0_IfER7_TPointIfE
         U _ZNK5TFont12GetPointSizeEv
         U _ZN8TTtfFontD1Ev
00000dc8 T _ZN5TPathC2ERK5TFontRK8TWString
00000de8 T _ZN5TPathD1Ev
00000e14 T _ZN5TPathD2Ev
00000e40 T _ZN5TPathaSERKS_
00000eb8 T _ZN5TPath6MoveToEff
00000efc T _ZN5TPath6LineToEff
00000f40 T _ZN5TPath6QuadToEffff
00000f94 T _ZN5TPath7CubicToEffffff
0000100c T _ZN5TPath7AddTextERK5TFontRK8TWString
000010a0 T _ZN5TPath5CloseEv
000010e0 T _ZN5TPath5ClearEv
00001128 T _ZN5TPath6RotateEf
         U cos
         U sin
0000125c T _ZN5TPath9TransformERK10TMatrix3x3
000012b8 T _ZNK5TPath12GetBoundRectEv
00001314 T _ZN5TPath4DataC1EPv
0000131c T _ZN5TPath4DataC2EPv
00001324 T _ZN5TPath4DataD2Ev
00000000 T _ZN6TArrayIhED1Ev
00000000 T _ZN6TArrayIhED0Ev
00000000 T _ZN6TArrayIfED1Ev
00000000 T _ZN6TArrayIfED0Ev
         U _ZTVN10__cxxabiv117__class_type_infoE

tgsBmfFontEngine.o:
         U _ZTVSt9exception
         U _ZTVSt13bad_exception
         U _ZTVSt9bad_alloc
00000000 V _ZTV10TException
         U _ZTV17TChildrenDelegate
         U _ZTV6TImage
00000000 V _ZTV6TArrayIPN14TBmfFontEngine4FontEE
         U _ZTV6TArrayIP5TNodeE
         U _ZTV6TArrayI9ColorStopE
00000000 V _ZTI10TException
00000000 V _ZTI6TArrayIPN14TBmfFontEngine4FontEE
         U _ZTI17TChildrenDelegate
         U _ZTI6TArrayIP5TNodeE
         U _ZTI6TImage
         U _ZTI6TArrayI9ColorStopE
         U _ZTISt9exception
         U _ZTISt13bad_exception
         U _ZTISt9bad_alloc
00000000 V _ZTS10TException
00000000 V _ZTS6TArrayIPN14TBmfFontEngine4FontEE
         U _ZTS17TChildrenDelegate
         U _ZTS6TArrayIP5TNodeE
         U _ZTS6TImage
         U _ZTS6TArrayI9ColorStopE
         U _ZTSSt9exception
         U _ZTSSt13bad_exception
         U _ZTSSt9bad_alloc
00000000 T _ZN10TExceptionD1Ev
00000000 T _ZN10TExceptionD0Ev
         U _ZdlPv
00000000 T _ZNK6TArrayIPN14TBmfFontEngine4FontEEixEi
         U __frameinfo_used
         U __cxa_allocate_exception
         U __cxa_throw
00000000 T _ZN14TBmfFontEngine11AcquireFontERK7TStringi
         U _ZNK7TStringeqERKS_
         U abs
00000098 T _ZN8TBmfFontC1ERK7TStringi
         U _ZN12TApplication8InstanceEv
000000d8 T _ZN8TBmfFontC2ERK7TStringi
000000f8 T _ZN8TBmfFontD1Ev
00000118 T _ZN8TBmfFontD2Ev
00000138 T _ZNK8TBmfFonteqERKS_
00000150 T _ZNK8TBmfFont6IsNullEv
00000164 T _ZNK14TBmfFontEngine10GetMetricsEPvR11FontMetrics
00000198 T _ZNK8TBmfFont10GetMetricsER11FontMetrics
000001d8 T _ZNK14TBmfFontEngine8GetGlyphEPvw
0000020c T _ZNK8TBmfFont8GetGlyphEw
0000024c T _ZNK14TBmfFontEngine15GetGlyphAdvanceEPvwR7_TPointIiE
000002a4 T _ZNK8TBmfFont15GetGlyphAdvanceEwR7_TPointIiE
00000000 T _ZN6TArrayIPN14TBmfFontEngine4FontEED1Ev
         U _ZdaPv
00000000 T _ZN6TArrayIPN14TBmfFontEngine4FontEED0Ev
00000000 T _ZN6TArrayIPN14TBmfFontEngine4FontEE13RoundCapacityEi
00000000 T _ZN6TArrayIPN14TBmfFontEngine4FontEE8ExpandAtEii
         U _Znaj
00000000 T _ZN6TArrayIPN14TBmfFontEngine4FontEE8InsertAtEiRKS2_
000002e4 T _ZN14TBmfFontEngineC1Ev
00000300 T _ZN14TBmfFontEngineC2Ev
0000031c T _ZN14TBmfFontEngine4FontD1Ev
         U free
0000036c T _ZN14TBmfFontEngineD1Ev
         U __diab_Unwind_Resume
         U __diab_personality_v0
00000450 T _ZN14TBmfFontEngineD2Ev
00000470 T _ZN14TBmfFontEngine4FontC1ERK17UGL_BMF_FONT_DESC
         U _ZN7TStringC1EPKc
         U memset
         U _Znwj
00000590 T _ZN14TBmfFontEngine15RegisterBmfFontERK17UGL_BMF_FONT_DESC
00000648 T _ZN14TBmfFontEngine11ReleaseFontEPv
0000064c T _ZN14TBmfFontEngine4FontC2ERK17UGL_BMF_FONT_DESC
0000066c T _ZN14TBmfFontEngine4FontD2Ev
         U _ZTVN10__cxxabiv117__class_type_infoE

tgsApplication.o:
00000000 d FLOAT_TEMP.3239
00000004 d FLOAT_TEMP.3794
00000008 d FLOAT_TEMP.3795
0000000c d FLOAT_TEMP.3796
00000010 d FLOAT_TEMP.3797
00000014 d FLOAT_TEMP.3798
         U _ZTVSt9exception
         U _ZTVSt13bad_exception
         U _ZTVSt9bad_alloc
00000000 V _ZTV10TException
         U _ZTV17TChildrenDelegate
         U _ZTV6TImage
         U _ZTV14TEventDelegate
         U _ZTV7TWSRoot
         U _ZTVSt11logic_error
         U _ZTVSt12domain_error
         U _ZTVSt16invalid_argument
         U _ZTVSt12length_error
         U _ZTVSt12out_of_range
         U _ZTVSt13runtime_error
         U _ZTVSt14overflow_error
         U _ZTVSt15underflow_error
         U _ZTVSt11range_error
         U _ZTV6TArrayIP5TNodeE
         U _ZTV6TArrayI9ColorStopE
00000000 V _ZTV6TArrayIPK15ControlPropertyE
00000000 V _ZTV6TArrayIP6TTimerE
00000000 V _ZTV6TArrayIP7TWindowE
00000000 V _ZTV6TArrayIPcE
00000000 V _ZTI10TException
         U _ZTI14TEventDelegate
         U _ZTI17TChildrenDelegate
         U _ZTI6TArrayIP5TNodeE
         U _ZTI6TImage
         U _ZTI6TArrayI9ColorStopE
00000000 V _ZTI6TArrayIPK15ControlPropertyE
00000000 V _ZTI6TArrayIP6TTimerE
00000000 V _ZTI6TArrayIP7TWindowE
         U _ZTI7TWSRoot
00000000 V _ZTI6TArrayIPcE
         U _ZTISt9exception
         U _ZTISt13bad_exception
         U _ZTISt9bad_alloc
         U _ZTISt11logic_error
         U _ZTISt12domain_error
         U _ZTISt16invalid_argument
         U _ZTISt12length_error
         U _ZTISt12out_of_range
         U _ZTISt13runtime_error
         U _ZTISt14overflow_error
         U _ZTISt15underflow_error
         U _ZTISt11range_error
00000000 V _ZTS10TException
         U _ZTS14TEventDelegate
         U _ZTS17TChildrenDelegate
         U _ZTS6TArrayIP5TNodeE
         U _ZTS6TImage
         U _ZTS6TArrayI9ColorStopE
00000000 V _ZTS6TArrayIPK15ControlPropertyE
00000000 V _ZTS6TArrayIP6TTimerE
00000000 V _ZTS6TArrayIP7TWindowE
         U _ZTS7TWSRoot
00000000 V _ZTS6TArrayIPcE
         U _ZTSSt9exception
         U _ZTSSt13bad_exception
         U _ZTSSt9bad_alloc
         U _ZTSSt11logic_error
         U _ZTSSt12domain_error
         U _ZTSSt16invalid_argument
         U _ZTSSt12length_error
         U _ZTSSt12out_of_range
         U _ZTSSt13runtime_error
         U _ZTSSt14overflow_error
         U _ZTSSt15underflow_error
         U _ZTSSt11range_error
00000000 T _ZN10TExceptionD1Ev
00000000 T _ZN10TExceptionD0Ev
         U _ZdlPv
00000000 T _ZN6TColorC1Ej
00000000 T _ZN6TColorC1ERKS_
00000000 T _ZN6_TRectIiEC1Ev
         U _ZN6_TRectIiE8nullRectE
00000000 T _ZN6_TRectIiEC1ERKS0_
00000000 T _ZN6_TRectIiEC1ERK7_TPointIiERK6_TSizeIiE
00000000 T _ZNK6_TRectIiE7CombineERKS0_
00000000 T _ZNK6_TRectIiEplERK7_TPointIiE
00000000 T _ZNK6_TRectIiE9IntersectERKS0_
00000000 T _ZN7_TPointIfEC1Ev
00000000 T _ZN7_TPointIfED1Ev
00000000 T _ZN6TPaintC1ERK6TColor
         U __frameinfo_used
         U _ZN9TGradientC1Ev
         U _ZN12TPixelBufferC1Ev
         U _ZN9TGradientD1Ev
         U __diab_Unwind_Resume
         U __diab_personality_v0
00000000 T _ZN6TPaintD1Ev
         U _ZN12TPixelBufferD1Ev
00000000 T _ZN9TAppParamC1Ev
         U _ZN7TStringC1EPKc
         U free
000000ac T _ZN9TAppParamC2Ev
00000000 T _ZN6TArrayIPcE13RoundCapacityEi
00000000 T _ZN6TArrayIPcE8ExpandAtEii
         U _Znaj
         U __cxa_allocate_exception
         U __cxa_throw
         U _ZdaPv
00000000 T _ZN6TArrayIPcE8InsertAtEiRKS0_
00000000 T _ZNK6TArrayIPcEixEi
000000cc T _ZN9TAppParam3AddEPKc
         U strlen
         U memcpy
         U strtok
         U strcmp
         U _ZN7TStringaSERKS_
         U atoi
0000051c T _ZN9TAppParamC1EPKc
000005f8 T _ZN9TAppParamC2EPKc
00000618 T _ZN9TAppParam3AddEiPPc
00000868 T _ZN9TAppParamC1EiPPc
00000954 T _ZN9TAppParamC2EiPPc
00000974 T _ZN9TAppParamD1Ev
00000a24 T _ZN9TAppParamD2Ev
00000000 T _ZN9TAppParamC1ERKS_
         U _ZN7TStringC1ERKS_
00000000 T _ZN6TArrayIPK15ControlPropertyED1Ev
00000000 T _ZN6TArrayIPK15ControlPropertyED0Ev
00000000 T _ZN6TArrayIPK15ControlPropertyE13RoundCapacityEi
00000000 T _ZN6TArrayIPK15ControlPropertyE8ExpandAtEii
00000000 T _ZN6TArrayIPK15ControlPropertyE8InsertAtEiRKS2_
00000000 T _ZN6TArrayIPK15ControlPropertyE8ShrinkAtEii
00000000 T _ZN6TArrayIPK15ControlPropertyE8RemoveAtEi
00000000 T _ZNK6TArrayIPK15ControlPropertyEixEi
00000000 T _ZNK6TArrayIP6TTimerEixEi
00000000 T _ZN6TArrayIP6TTimerE8CopyFromERKS2_
00000000 T _ZN6TArrayIP6TTimerEC1ERKS2_
00000000 T _ZN6TArrayIP6TTimerED1Ev
00000000 T _ZN6TArrayIP6TTimerED0Ev
00000000 T _ZN6TArrayIP6TTimerE13RoundCapacityEi
00000000 T _ZN6TArrayIP6TTimerE8ExpandAtEii
00000000 T _ZN6TArrayIP6TTimerE8InsertAtEiRKS1_
00000000 T _ZN6TArrayIP6TTimerE8ShrinkAtEii
00000000 T _ZN6TArrayIP6TTimerE8RemoveAtEi
00000000 T _ZNK6TArrayIP6TTimerE7IndexOfERKS1_
00000000 T _ZN6TArrayIP7TWindowED1Ev
00000000 T _ZN6TArrayIP7TWindowED0Ev
00000000 T _ZN6TArrayIP7TWindowE13RoundCapacityEi
00000000 T _ZN6TArrayIP7TWindowE8ExpandAtEii
00000000 T _ZN6TArrayIP7TWindowE8InsertAtEiRKS1_
00000000 T _ZN6TArrayIP7TWindowE8ShrinkAtEii
00000000 T _ZN6TArrayIP7TWindowE8RemoveAtEi
00000000 T _ZNK6TArrayIP7TWindowE7IndexOfERKS1_
00000000 T _ZNK6TArrayIP7TWindowEixEi
00000a44 T _ZN12TApplication8InstanceEv
00000000 D _ZN12TApplication11applicationE
00000a94 T _ZN12TApplication15RegisterTtfFontEPK13TTF_FONT_DESC
         U _ZN14TTtfFontEngine15RegisterTtfFontERK13TTF_FONT_DESC
         U _ZN8TTtfFontC1ERK7TString
         U _ZN8TTtfFontD1Ev
00000bb0 T _ZN12TApplication15RegisterBmfFontEPK17UGL_BMF_FONT_DESC
         U _ZN14TBmfFontEngine15RegisterBmfFontERK17UGL_BMF_FONT_DESC
         U _ZN8TBmfFontC1ERK7TStringi
         U _ZN8TBmfFontD1Ev
00000cd0 T _ZN12TApplication14DestroyPrivateEv
         U _ZN7TWindow7DestroyEv
         U _ZN7TWindow4rootE
         U _ZN8TSurface4rootE
         U _ZN8TSurfaceD1Ev
         U _ZN7TWSHost6DeinitEv
         U _ZN14TTtfFontEngineD1Ev
         U _ZN14TBmfFontEngineD1Ev
         U _Z22DestroyPlatformSupportP9TPlatform
         U printf
00000eb4 T _ZN12TApplication13CreatePrivateEv
         U _Z21CreatePlatformSupportRK9TAppParam
         U _Znwj
         U _ZN20TDefaultVisualEngineC1Ev
         U _ZN14TTtfFontEngineC1Ev
         U ttfFontDescs
         U _ZN14TBmfFontEngineC1Ev
         U bmfFontDescs
         U __div32
         U _ZN12TPixelBufferC1Eii
         U _ZN8TSurfaceC1ERK6_TRectIiE
         U _ZN8TSurface10SetVisibleEi
         U _ZN7TWSHost4InitEii
         U _ZN7TWindowC1EiiiiPS_NS_12WindowSizingENS_10WindowTypeE
         U _ZN7TWindow4ShowEi
         U _ZN8TPainterC1Ev
         U _ZN8TPainter10BeginPaintER7TWindow
         U _ZN8TPainter8SetBrushERK6TBrush
         U _ZN8TPainter8FillRectERK6_TRectIiE
         U _ZN8TPainter8EndPaintEv
         U __cxa_vec_ctor
         U _ZN8TPainter10BeginPaintER12TPixelBuffer
         U _ZN14TVectorPainter12SetBlendModeE9BlendMode
         U _ZN14TVectorPainter12SetFillPaintERK6TPaint
         U _ZN5TPathC1ERK6_TRectIiE
         U _ZN14TVectorPainter8FillPathERK5TPath
         U _ZN5TPathD1Ev
         U _ZN14TVectorPainter15TranslateMatrixEff
         U _ZN14TVectorPainter12RotateMatrixEf
         U _ZN14TVectorPainter8FillPathEPK7_TPointIfEj
         U _ZN14TVectorPainter11ResetMatrixEv
         U _ZN14TVectorPainter14SetStrokePaintERK6TPaint
         U _ZN14TVectorPainter10StrokePathEPK7_TPointIfEji
         U __cxa_vec_dtor
         U _ZN8TPainterD1Ev
         U __cxa_end_catch
         U __cxa_begin_catch
         U __cxa_rethrow
00001984 T _ZN12TApplicationC1ERK9TAppParam
00001b28 T _ZN12TApplication6CreateERK9TAppParam
00001bd4 T _ZN12TApplicationD1Ev
00001d64 T _ZN12TApplication7DestroyEPS_
00001dc8 T _ZN12TApplicationC1ERK7TStringjj
00001f78 T _ZN12TApplicationC2ERK7TStringjj
00001f98 T _ZN12TApplicationC2ERK9TAppParam
00001fd0 T _ZN12TApplicationD2Ev
00000000 T _ZNK10TSharedPtrI8TSurfaceE5DerefEv
00001ff0 T _ZN12TApplication13UpdateWindowsEv
         U _ZN7TWSHost13UpdateWindowsEv
         U _ZN8TSurface16ResolveDirtyAreaEv
         U _ZN8TSurface15ValidateSurfaceEPv
         U _ZN8TPainter5ResetEv
         U _ZN8TPainter15DrawPixelBufferERK12TPixelBufferii
000027bc T _ZN12TApplication11WaitMessageER8_app_msgi
000027e4 T _ZN12TApplication14ProcessMessageER8_app_msg
         U _ZN7TWSHost14ProcessMessageERK8_app_msg
00002868 T _ZN12TApplication3RunEv
000028f8 T _ZN12TApplication4StopEi
00002908 T _ZN12TApplication11SendMessageERK8_app_msgi
00002930 T _ZN12TApplication19RegisterMessageHookEPFiPvR8_app_msgES0_
0000293c T _ZN12TApplication16RegisterPropertyE11ControlTypePK15ControlProperty
000029e0 T _ZN12TApplication18UnregisterPropertyE11ControlType
00002a58 T _ZNK12TApplication11GetPropertyE11ControlType
00002ab4 T _ZN12TApplication10ShowCursorEi
00002abc T _ZN12TApplication10StepTimersEi
         U _ZN6TTimer4StepEi
00002ba4 T _ZN12TApplication12GuiHeartBeatEi
00002bc4 T _ZN12TApplication8AddTimerEP6TTimer
00002c20 T _ZN12TApplication11RemoveTimerEP6TTimer
00002c8c T _ZN12TApplication7AddHostEP7TWindow
00002ce8 T _ZN12TApplication10RemoveHostEP7TWindow
00002d40 T _ZN12TApplication15GetVisualEngineEv
00000000 T _ZN6TArrayIPcED1Ev
00000000 T _ZN6TArrayIPcED0Ev
         U _ZTVN10__cxxabiv117__class_type_infoE

tgsLoaderBmp.o:
         U _ZTVSt9exception
         U _ZTVSt13bad_exception
         U _ZTVSt9bad_alloc
         U _ZTV10TException
         U _ZTI10TException
         U _ZTISt9exception
         U _ZTISt13bad_exception
         U _ZTISt9bad_alloc
         U _ZTS10TException
         U _ZTSSt9exception
         U _ZTSSt13bad_exception
         U _ZTSSt9bad_alloc
00000000 T _Z25trt_bmp_parse_file_headerP16BMPFileHeaderRawR13BMPFileHeader
         U __frameinfo_used
         U _Z7get_u32Phi
00000070 T _Z25trt_bmp_parse_info_headerP16BMPInfoHeaderRawR13BMPInfoHeader
         U _Z7get_u16Phi
000000ec T trt_bmp_load
         U fopen
         U fread
         U _Znaj
         U fseek
         U _ZdaPv
         U fclose
         U memcpy
00000330 T trt_bmp_free

tgsImage.o:
00000000 V _ZTVSt9exception
         U _ZTVSt13bad_exception
00000000 V _ZTVSt9bad_alloc
         U _ZTV10TException
00000000 V _ZTV6TImage
         U _ZTI10TException
00000000 V _ZTI6TImage
00000000 V _ZTISt9exception
         U _ZTISt13bad_exception
00000000 V _ZTISt9bad_alloc
         U _ZTS10TException
00000000 V _ZTS6TImage
00000000 V _ZTSSt9exception
         U _ZTSSt13bad_exception
00000000 V _ZTSSt9bad_alloc
00000000 T _ZN9ImageDataC1Ev
00000020 T _ZN9ImageDataC2Ev
00000040 T _ZN9ImageDataC1EPhiii11ColorFormat
00000060 T _ZN9ImageDataC2EPhiii11ColorFormat
00000088 T _ZN9ImageDataD1Ev
         U _ZdaPv
000000ac T _ZN9ImageDataD2Ev
00000000 T _ZN10TSharedPtrI9ImageDataEC1EPS0_
         U __frameinfo_used
         U _Znwj
         U __diab_Unwind_Resume
         U __diab_personality_v0
00000000 T _ZNK10TSharedPtrI9ImageDataE5DerefEv
         U _ZdlPv
00000000 T _ZN10TSharedPtrI9ImageDataED1Ev
00000000 T _ZN10TSharedPtrI9ImageDataEaSEPS0_
00000000 T _ZN10TSharedPtrI9ImageDataEaSERKS1_
000000d0 T _ZN6TImage14LoadFromBufferEPKhiii10ColorOrder11ColorFormat
00000004 C _ZN6TImage16defaultImageDataE
         U _Znaj
         U _ZNK6TColor6Pack32E11ColorFormat
         U __cxa_begin_catch
         U __cxa_end_catch
00000580 T _ZN6TImageC1EPhiii10ColorOrder11ColorFormat
         U __cxa_allocate_exception
         U __cxa_throw
00000000 T _ZNSt9bad_allocD1Ev
00000638 T _ZN6TImageC2EPhiii10ColorOrder11ColorFormat
00000670 T _ZN6TImage14LoadFromBufferEPKhiii11ColorFormatS2_
         U _ZN6TColor8Unpack32Ej11ColorFormat
0000085c T _ZN6TImageC1EPhiii11ColorFormatS1_
00000914 T _ZN6TImageC2EPhiii11ColorFormatS1_
0000094c T _ZN6TImageC1ERK12TPixelBuffer
         U _ZNK12TPixelBuffer8GetWidthEv
         U _ZNK12TPixelBuffer9GetHeightEv
         U _ZNK12TPixelBuffer4ReadERK7_TPointIiERK6_TSizeIiEPh11ColorFormati
00000ab8 T _ZN6TImageC2ERK12TPixelBuffer
00000000 T _ZN6TImageD1Ev
00000000 T _ZN6TImageD0Ev
00000ad8 T _ZN6TImage12LoadBMPImageEPKc11ColorFormat
         U trt_bmp_load
         U trt_bmp_free
00000b80 T _ZN6TImage12LoadPNGImageEPKc11ColorFormat
         U trt_png_load
         U trt_png_free
00000c28 T _ZN6TImage13LoadJPEGImageEPKc11ColorFormat
         U trt_jpeg_load
         U trt_jpeg_free
00000cd0 T _ZN6TImage12LoadFromFileENS_9ImageTypeEPKc11ColorFormat
00000d7c T _ZN6TImage6UnloadEv
00000da4 T _ZNK6TImage8GetWidthEv
00000db0 T _ZNK6TImage9GetHeightEv
00000dbc T _ZNK6TImage9GetStrideEv
00000dc8 T _ZNK6TImage9GetBufferEv
00000dd4 T _ZNK6TImage9GetBufferEii
00000dec T _ZNK6TImage9GetFormatEv
00000df8 T _ZNK6TImage8GetColorEii
00000ea0 T _ZNK6TImage6IsNullEv
00000eb8 T _ZN6TImage7ConvertEPhi11ColorFormatPKhiS1_ii
00000fc4 T _ZNK6TImage4DumpEv
         U printf
00000000 T _ZNSt9exceptionD1Ev
00000000 T _ZNSt9exceptionD0Ev
00000000 T _ZNKSt9exception4whatEv
00000000 T _ZNSt9bad_allocD0Ev
000010a4 T _STI___12_tgsImage_cpp_18acb989
         U __cxa_atexit
         U __dso_handle
         U _ZTVN10__cxxabiv117__class_type_infoE
         U _ZTVN10__cxxabiv120__si_class_type_infoE

tgsControl.o:
         U _ZTVSt9exception
         U _ZTVSt13bad_exception
         U _ZTVSt9bad_alloc
         U _ZTV10TException
         U _ZTV17TChildrenDelegate
         U _ZTV6TImage
00000000 V _ZTV8TControl
         U _ZTV6TArrayIP5TNodeE
         U _ZTV6TArrayI9ColorStopE
         U _ZTI10TException
         U _ZTI17TChildrenDelegate
         U _ZTI6TArrayIP5TNodeE
         U _ZTI6TImage
         U _ZTI6TArrayI9ColorStopE
00000000 V _ZTI8TControl
         U _ZTISt9exception
         U _ZTISt13bad_exception
         U _ZTISt9bad_alloc
         U _ZTS10TException
         U _ZTS17TChildrenDelegate
         U _ZTS6TArrayIP5TNodeE
         U _ZTS6TImage
         U _ZTS6TArrayI9ColorStopE
00000000 V _ZTS8TControl
         U _ZTSSt9exception
         U _ZTSSt13bad_exception
         U _ZTSSt9bad_alloc
00000000 T _ZN6TColorC1Ej
00000000 T _ZN15ControlPropertyC1E11ControlType
00000008 T _ZN15ControlPropertyC2E11ControlType
00000010 T _ZN15ControlPropertyD1Ev
00000014 T _ZN15ControlPropertyD2Ev
00000000 T _ZN6_TRectIiEC1ERK7_TPointIiERK6_TSizeIiE
00000000 T _ZNK6_TRectIiEneERKS0_
00000018 T _ZN8TControlC1EiiiiR5TNode
         U __frameinfo_used
         U _ZN5TFontC1Ev
         U _ZN7TVisualC1E9FrameType
         U _ZN5TFontD1Ev
         U __diab_Unwind_Resume
         U __diab_personality_v0
000000ec T _ZN8TControlC2EiiiiR5TNode
00000114 T _ZN8TControlD1Ev
         U _ZN7TVisualD1Ev
00000188 T _ZN8TControlD0Ev
         U _ZdlPv
000001b4 T _ZN8TControlD2Ev
000001d4 T _ZN8TControl11SetPositionERK7_TPointIiE
         U _ZN5TNode18OnChildBoundChangeEP8TControl
         U _ZN5TNode8OnResizeEv
         U _ZN5TNode6UpdateEv
0000026c T _ZN8TControl7SetSizeERK6_TSizeIiE
00000304 T _ZN8TControl7SetRectERK6_TRectIiE
000003ec T _ZN8TControl18SetAlignmentPolicyE19HorizontalAlignment17VerticalAlignment
00000478 T _ZN8TControl13SetSizeSourceE10SizeSource
000004f4 T _ZN8TControl13GetHintedSizeEv
         U _ZTVN10__cxxabiv117__class_type_infoE

tgsLoaderJpeg.o:
00000000 T _Z13my_error_exitP18jpeg_common_struct
         U __frameinfo_used
         U longjmp
00000030 T trt_jpeg_load
         U fopen
         U jpeg_std_error
         U setjmp
         U jpeg_destroy_decompress
         U fclose
         U jpeg_CreateDecompress
         U jpeg_stdio_src
         U jpeg_read_header
         U jpeg_start_decompress
         U _Znaj
         U jpeg_read_scanlines
         U jpeg_finish_decompress
00000238 T trt_jpeg_free
         U _ZdaPv

tgsVisual.o:
         U _ZTVSt9exception
         U _ZTVSt13bad_exception
         U _ZTVSt9bad_alloc
         U _ZTV10TException
         U _ZTV17TChildrenDelegate
         U _ZTV6TImage
00000000 V _ZTV7TVisual
         U _ZTV6TArrayIP5TNodeE
         U _ZTV6TArrayI9ColorStopE
         U _ZTI10TException
         U _ZTI17TChildrenDelegate
         U _ZTI6TArrayIP5TNodeE
         U _ZTI6TImage
         U _ZTI6TArrayI9ColorStopE
00000000 V _ZTI7TVisual
         U _ZTISt9exception
         U _ZTISt13bad_exception
         U _ZTISt9bad_alloc
         U _ZTS10TException
         U _ZTS17TChildrenDelegate
         U _ZTS6TArrayIP5TNodeE
         U _ZTS6TImage
         U _ZTS6TArrayI9ColorStopE
00000000 V _ZTS7TVisual
         U _ZTSSt9exception
         U _ZTSSt13bad_exception
         U _ZTSSt9bad_alloc
00000000 T _ZN13TCustomVisualC1Ev
         U __frameinfo_used
         U _ZN11TCustomFillC1Ev
         U _ZN11TCustomFillD1Ev
         U __diab_Unwind_Resume
         U __diab_personality_v0
00000000 T _ZN13TCustomVisualD1Ev
00000000 T _ZN7TVisualC1E9FrameType
00000034 T _ZN7TVisualC2E9FrameType
00000054 T _ZN7TVisualD1Ev
00000084 T _ZN7TVisualD0Ev
         U _ZdlPv
000000b0 T _ZN7TVisualD2Ev
000000d0 T _ZNK7TVisual10DrawCustomER8TPainterRK11VisualStateRK6_TRectIiE
         U _ZNK11TCustomFill15IsDefualtVisualEv
         U _ZNK11TCustomFill8FillRectER8TPainterRK6_TRectIiE
000001d0 T _ZNK7TVisual4DrawER8TPainterRK11VisualStateRK6_TRectIiE
         U _ZN12TApplication8InstanceEv
         U _ZN12TApplication15GetVisualEngineEv
         U _ZTVN10__cxxabiv117__class_type_infoE

tgsColor.o:
00000000 d FLOAT_TEMP.472
00000004 d FLOAT_TEMP.473
         U _ZTVSt9exception
         U _ZTVSt13bad_exception
         U _ZTVSt9bad_alloc
         U _ZTV10TException
         U _ZTI10TException
         U _ZTISt9exception
         U _ZTISt13bad_exception
         U _ZTISt9bad_alloc
         U _ZTS10TException
         U _ZTSSt9exception
         U _ZTSSt13bad_exception
         U _ZTSSt9bad_alloc
00000000 T _ZN6TColorC1Ej
00000000 T _ZN6TColorC1ERKS_
00000000 T _ZN6TColor11InterpolateEfRKS_
000000c8 T _ZN6TColor5BlendERKS_
         U __div32
00000184 T _ZN6TColor5BlendEiRKS_
00000228 T _ZN6TColor8Blend256EiRKS_
000002c8 T _ZNK6TColor6Pack32E11ColorFormat
00000324 T _ZN6TColor8Unpack32Ej11ColorFormat
00000360 T _ZN6TColor7Fade256EiRKS_

tgsTtfFontEngine.o:
00000018 d FLOAT_TEMP.1572
0000001c d FLOAT_TEMP.1583
00000020 d FLOAT_TEMP.1720
         U _ZTVSt9exception
         U _ZTVSt13bad_exception
         U _ZTVSt9bad_alloc
00000000 V _ZTV10TException
         U _ZTV6TImage
         U _ZTV17TChildrenDelegate
00000000 V _ZTV6TArrayIPN14TTtfFontEngine4FONTEE
         U _ZTV6TArrayIP5TNodeE
         U _ZTV6TArrayI9ColorStopE
00000000 V _ZTI10TException
         U _ZTI6TImage
00000000 V _ZTI6TArrayIPN14TTtfFontEngine4FONTEE
         U _ZTI17TChildrenDelegate
         U _ZTI6TArrayIP5TNodeE
         U _ZTI6TArrayI9ColorStopE
         U _ZTISt9exception
         U _ZTISt13bad_exception
         U _ZTISt9bad_alloc
00000000 V _ZTS10TException
         U _ZTS6TImage
00000000 V _ZTS6TArrayIPN14TTtfFontEngine4FONTEE
         U _ZTS17TChildrenDelegate
         U _ZTS6TArrayIP5TNodeE
         U _ZTS6TArrayI9ColorStopE
         U _ZTSSt9exception
         U _ZTSSt13bad_exception
         U _ZTSSt9bad_alloc
00000000 T _ZN10TExceptionD1Ev
00000000 T _ZN10TExceptionD0Ev
         U _ZdlPv
00000000 T _ZNK6TArrayIPN14TTtfFontEngine4FONTEEixEi
         U __frameinfo_used
         U __cxa_allocate_exception
         U __cxa_throw
00000000 T _ZN14TTtfFontEngine11AcquireFontERK7TString
         U _ZNK7TStringeqERKS_
00000088 T _ZN8TTtfFontC1ERK7TString
         U _ZN12TApplication8InstanceEv
000000c8 T _ZN8TTtfFontC2ERK7TString
000000e8 T _ZN8TTtfFontD1Ev
00000108 T _ZN8TTtfFontD2Ev
00000128 T _ZNK8TTtfFonteqERKS_
00000140 T _ZNK8TTtfFont6IsNullEv
00000154 T _ZNK14TTtfFontEngine9GetHeightEPv
0000017c T _ZNK8TTtfFont9GetHeightEv
000001ac T _ZNK14TTtfFontEngine10GetMetricsEPvR11FontMetrics
000001cc T _ZNK8TTtfFont10GetMetricsER11FontMetrics
0000020c T _ZNK8TTtfFont13GetGlyphImageEwR6TImage
00000230 T _ZNK8TTtfFont15GetGlyphAdvanceEwR7_TPointIfE
00000254 T _ZNK14TTtfFontEngine12GetGlyphPathEPvwR6TArrayIhERS1_IfER7_TPointIfE
         U FT_Get_Char_Index
         U FT_Load_Glyph
         U printf
         U FT_Outline_Check
         U FT_Outline_Decompose
00000000 D _ZN14TTtfFontEngine12outlineFuncsE
00000390 T _ZNK8TTtfFont12GetGlyphPathEwR6TArrayIhERS0_IfER7_TPointIfE
00000000 T _ZN6TArrayIPN14TTtfFontEngine4FONTEED1Ev
         U _ZdaPv
00000000 T _ZN6TArrayIPN14TTtfFontEngine4FONTEED0Ev
00000000 T _ZN6TArrayIPN14TTtfFontEngine4FONTEE13RoundCapacityEi
00000000 T _ZN6TArrayIPN14TTtfFontEngine4FONTEE8ExpandAtEii
         U _Znaj
00000000 T _ZN6TArrayIPN14TTtfFontEngine4FONTEE8InsertAtEiRKS2_
000003e8 T _ZN14TTtfFontEngineC1Ev
         U FT_Init_FreeType
         U __diab_Unwind_Resume
         U __diab_personality_v0
00000488 T _ZN14TTtfFontEngineC2Ev
000004a8 T _ZN14TTtfFontEngineD1Ev
         U free
         U FT_Done_FreeType
000005a4 T _ZN14TTtfFontEngineD2Ev
000005c4 T _ZN14TTtfFontEngine13CreateTtfFontERK13TTF_FONT_DESC
         U _Znwj
         U _ZN7TStringC1EPKc
         U _ZN7TStringC1ERKS_
         U FT_New_Memory_Face
         U FT_Select_Charmap
         U FT_Set_Char_Size
         U FT_Done_Face
         U FT_Set_Transform
00000864 T _ZN14TTtfFontEngine15RegisterTtfFontERK13TTF_FONT_DESC
000008b4 T _ZN14TTtfFontEngine11ReleaseFontEPv
000008b8 T _ZNK14TTtfFontEngine13GetGlyphImageEPvwR6TImage
000008c0 T _ZNK14TTtfFontEngine15GetGlyphAdvanceEPvwR7_TPointIfE
000008c8 T _ZN14TTtfFontEngine10AddCubicToEPK10FT_Vector_S2_S2_PNS_9FuncParamE
00000000 T _ZN6TArrayIhE13RoundCapacityEi
00000000 T _ZN6TArrayIhE8ExpandAtEii
00000000 T _ZN6TArrayIhE8InsertAtEiRKh
00000000 T _ZN6TArrayIfE13RoundCapacityEi
00000000 T _ZN6TArrayIfE8ExpandAtEii
00000000 T _ZN6TArrayIfE8InsertAtEiRKf
000008d0 T _ZN14TTtfFontEngine9AddLineToEPK10FT_Vector_PNS_9FuncParamE
00000970 T _ZN14TTtfFontEngine9AddMoveToEPK10FT_Vector_PNS_9FuncParamE
00000a10 T _ZN14TTtfFontEngine9AddQuadToEPK10FT_Vector_S2_PNS_9FuncParamE
00000b04 T _ZN14TTtfFontEngine14DestroyTtfFontEPNS_4FONTE
         U _ZTVN10__cxxabiv117__class_type_infoE

tgsWindow.o:
         U _ZTVSt9exception
         U _ZTVSt13bad_exception
         U _ZTVSt9bad_alloc
00000000 V _ZTV10TException
         U _ZTV17TChildrenDelegate
         U _ZTV6TImage
00000000 V _ZTV11TWindowHost
00000000 V _ZTV7TWindow
         U _ZTV14TEventDelegate
         U _ZTV7TWSRoot
         U _ZTVSt11logic_error
         U _ZTVSt12domain_error
         U _ZTVSt16invalid_argument
         U _ZTVSt12length_error
         U _ZTVSt12out_of_range
         U _ZTVSt13runtime_error
         U _ZTVSt14overflow_error
         U _ZTVSt15underflow_error
         U _ZTVSt11range_error
00000000 V _ZTV6TArrayIP5TNodeE
00000000 V _ZTVN7_TEventI10EventParamE15THandlerAdaptorE
         U _ZTV6TArrayI9ColorStopE
00000000 V _ZTVN7_TEventI10EventParamE17MemberFuncHandlerI7TWindowEE
00000000 V _ZTI10TException
         U _ZTI14TEventDelegate
         U _ZTI17TChildrenDelegate
00000000 V _ZTI6TArrayIP5TNodeE
00000000 V _ZTIN7_TEventI10EventParamE15THandlerAdaptorE
00000000 V _ZTIN7_TEventI10EventParamE17MemberFuncHandlerI7TWindowEE
         U _ZTI6TImage
         U _ZTI6TArrayI9ColorStopE
00000000 V _ZTI11TWindowHost
00000000 V _ZTI7TWindow
         U _ZTI7TWSRoot
         U _ZTISt9exception
         U _ZTISt13bad_exception
         U _ZTISt9bad_alloc
         U _ZTISt11logic_error
         U _ZTISt12domain_error
         U _ZTISt16invalid_argument
         U _ZTISt12length_error
         U _ZTISt12out_of_range
         U _ZTISt13runtime_error
         U _ZTISt14overflow_error
         U _ZTISt15underflow_error
         U _ZTISt11range_error
00000000 V _ZTS10TException
         U _ZTS14TEventDelegate
         U _ZTS17TChildrenDelegate
00000000 V _ZTS6TArrayIP5TNodeE
00000000 V _ZTSN7_TEventI10EventParamE15THandlerAdaptorE
00000000 V _ZTSN7_TEventI10EventParamE17MemberFuncHandlerI7TWindowEE
         U _ZTS6TImage
         U _ZTS6TArrayI9ColorStopE
00000000 V _ZTS11TWindowHost
00000000 V _ZTS7TWindow
         U _ZTS7TWSRoot
         U _ZTSSt9exception
         U _ZTSSt13bad_exception
         U _ZTSSt9bad_alloc
         U _ZTSSt11logic_error
         U _ZTSSt12domain_error
         U _ZTSSt16invalid_argument
         U _ZTSSt12length_error
         U _ZTSSt12out_of_range
         U _ZTSSt13runtime_error
         U _ZTSSt14overflow_error
         U _ZTSSt15underflow_error
         U _ZTSSt11range_error
00000000 T _ZN10TExceptionD1Ev
00000000 T _ZN10TExceptionD0Ev
         U _ZdlPv
00000000 T _ZN6_TRectIiEC1Ev
         U _ZN6_TRectIiE8nullRectE
00000000 T _ZN6_TRectIiEC1ERKS0_
00000000 T _ZN6_TRectIiEC1ERK7_TPointIiERK6_TSizeIiE
00000000 T _ZNK6_TRectIiE7CombineERKS0_
00000000 T _ZNK6_TRectIiEmiERK7_TPointIiE
00000000 T _ZNK6_TRectIiE9IntersectERKS0_
00000000 T _ZNK6_TRectIiEeqERKS0_
00000000 T _ZNK6TArrayIP5TNodeEixEi
         U __frameinfo_used
         U __cxa_allocate_exception
         U __cxa_throw
00000000 T _ZN6TArrayIP5TNodeE8CopyFromERKS2_
         U _Znaj
         U _ZdaPv
00000000 T _ZN6TArrayIP5TNodeEC1ERKS2_
00000000 T _ZN6TArrayIP5TNodeED1Ev
00000000 T _ZN6TArrayIP5TNodeED0Ev
00000000 T _ZN6TArrayIP5TNodeE13RoundCapacityEi
00000000 T _ZN6TArrayIP5TNodeE8ExpandAtEii
00000000 T _ZN6TArrayIP5TNodeE8InsertAtEiRKS1_
00000000 T _ZN6TArrayIP5TNodeE5ClearEv
00000000 T _ZN7_TEventI10EventParamE10SetHandlerI7TWindowEEvPT_NS1_17MemberFuncHandlerIS4_E8FuncTypeE
         U _Znwj
         U __diab_Unwind_Resume
         U __diab_personality_v0
00000000 T _ZN7_TEventI10EventParamE15THandlerAdaptorD1Ev
00000000 T _ZN7_TEventI10EventParamE15THandlerAdaptorD0Ev
00000000 T _ZN7_TEventI10EventParamE17MemberFuncHandlerI7TWindowED1Ev
00000000 T _ZN7_TEventI10EventParamE17MemberFuncHandlerI7TWindowED0Ev
00000000 T _ZNK7_TEventI10EventParamE17MemberFuncHandlerI7TWindowE6InvokeERS0_
00000000 T _ZN7_TEventI10EventParamE17MemberFuncHandlerI7TWindowE3dupEv
00000000 T _ZN11TWindowHostC1Eii
0000005c T _ZN11TWindowHostC2Eii
0000007c T _ZN11TWindowHostD1Ev
0000018c T _ZN11TWindowHostD0Ev
000001b8 T _ZN11TWindowHostD2Ev
000001d8 T _ZN11TWindowHost14InvalidateRectERK6_TRectIiE
00000258 T _ZN11TWindowHost12HostToScreenERK7_TPointIiE
000002d0 T _ZN11TWindowHost13ActivateChildEP5TNode
         U _ZN5TNode11OnLoseFocusEv
         U _ZN5TNode11OnGainFocusEv
00000328 T _ZN11TWindowHost15DeactivateChildEP5TNode
00000360 T _ZN11TWindowHost17ProcessMouseTrackEP5TNode
         U _ZN5TNode12OnMouseLeaveEv
         U _ZN5TNode12OnMouseEnterEv
000005e4 T _ZN11TWindowHost25FindMouseResponsiveNodeAtERK7_TPointIiE
         U _ZN5TNode25FindMouseResponsiveNodeAtERK7_TPointIiE
00000608 T _ZN11TWindowHost16UpdateMouseTrackEv
0000063c T _ZN11TWindowHost15RouteMouseEventEP5TNodeRNS0_15MouseEventParamE
         U _ZNK5TNode12OffsetToNodeEPS_RK7_TPointIiE
         U _ZN5TNode7OnMouseERNS_15MouseEventParamE
000006e8 T _ZN11TWindowHost23RouteMouseActivateEventEP5TNode
0000073c T _ZN11TWindowHost15ClearMouseTrackEv
000007a8 T _ZN11TWindowHost7OnPaintER8TPainterRK6_TRectIiE
         U _ZN5TNode15RoutePaintEventERNS_15PaintEventParamE
00000808 T _ZN11TWindowHost7OnMouseER10EventParam
00000948 T _ZN11TWindowHost10OnKeyboardER10EventParam
         U _ZN5TNode10OnKeyboardERNS_18KeyboardEventParamE
00000974 T _ZN11TWindowHost8OnResizeER10EventParam
         U _ZN5TNode12SetBoundRectERK6_TRectIiE
         U _ZN5TNode6UpdateEv
00000a1c T _ZN11TWindowHost10OnActivateER10EventParam
00000a48 T _ZN11TWindowHost12OnDeactivateER10EventParam
00000a74 T _ZN11TWindowHost18WindowEventHandlerER10EventParam
00000bb8 T _ZN11TWindowHost12OnMouseLeaveER10EventParam
00000bd8 T _ZN11TWindowHost6OnShowER10EventParam
00000bdc T _ZN11TWindowHost6OnHideER10EventParam
00000bfc T _ZN11TWindowHost6AttachEv
         U _ZN5TNode16RouteAttachEventEP11TWindowHost
00000c3c T _ZN11TWindowHost6DetachEv
         U _ZN5TNode16RouteDetachEventEv
00000c90 T _ZN7TWindowC1EiiiiPS_NS_12WindowSizingENS_10WindowTypeE
         U _ZN6TPanelC1Eiiii
         U _ZN12TApplication8InstanceEv
         U _ZN8TControl7SetRectERK6_TRectIiE
         U _ZN7TWSHost12CreateWindowERK6_TRectIiEN7TWindow10WindowTypeEP9TWSWindow
         U _ZN8TSurface13CreateSurfaceERK6_TRectIiEPv
         U _ZN6TPanelD1Ev
00000fac T _ZN7TWindowC2EiiiiPS_NS_12WindowSizingENS_10WindowTypeE
00000fec T _ZN7TWindow7DestroyEv
         U _ZN12TApplication10RemoveHostEP7TWindow
00001028 T _ZN7TWindowD1Ev
         U _ZN8TSurface14DestroySurfaceEPv
         U _ZN7TWSHost13DestroyWindowEP9TWSWindow
00001164 T _ZN7TWindowD0Ev
00001190 T _ZN7TWindowD2Ev
000011b0 T _ZN7TWindow6CreateEv
         U _ZN12TApplication7AddHostEP7TWindow
000011f0 T _ZN7TWindow14InvalidateRectERK6_TRectIiE
000012a8 T _ZN7TWindow4ShowEi
         U _ZN7TWSHost13SetWindowZPosEP9TWSWindowi
         U _ZN7TWSHost10ShowWindowEP9TWSWindowi
         U _ZN8TSurface16MoveSurfaceFrontEPv
         U _ZN8TSurface17SetSurfaceVisibleEPvi
00001364 T _ZN7TWindow4HideEv
000013bc T _ZN7TWindow13SetWindowRectERK6_TRectIiE
         U _ZN7TWSHost13SetWindowRectEP9TWSWindowRK6_TRectIiE
         U _ZN8TSurface14SetSurfaceRectEPvRK6_TRectIiE
         U _ZN8TSurface17InvalidateSurfaceEPvRK6_TRectIiE
         U _ZN6_TRectIiE7maxRectE
00001528 T _ZNK7TWindow13GetWindowRectEv
0000154c T _ZN7TWindow18WindowEventHandlerER10EventParam
         U _ZN8TPainterC1Ev
         U _ZN8TPainter10BeginPaintER7TWindow
         U _ZN8TPainter8EndPaintEv
         U _ZN8TPainterD1Ev
0000177c T _ZN7TWindow17InvalidateHandlerER10EventParam
000017a0 T _ZN7TWindow15ToScreenHandlerER10EventParam
         U _ZN7TWSHost14OffsetToScreenEP9TWSWindowRK7_TPointIiE
         U __cxa_pure_virtual
         U _ZTVN10__cxxabiv117__class_type_infoE
         U _ZTVN10__cxxabiv120__si_class_type_infoE
00000000 D _ZN7TWindow4rootE

tgsTimer.o:
         U _ZTVSt9exception
         U _ZTVSt13bad_exception
         U _ZTVSt9bad_alloc
         U _ZTV10TException
         U _ZTV17TChildrenDelegate
         U _ZTV6TImage
         U _ZTV6TArrayIP5TNodeE
         U _ZTV6TArrayI9ColorStopE
         U _ZTI10TException
         U _ZTI17TChildrenDelegate
         U _ZTI6TArrayIP5TNodeE
         U _ZTI6TImage
         U _ZTI6TArrayI9ColorStopE
         U _ZTISt9exception
         U _ZTISt13bad_exception
         U _ZTISt9bad_alloc
         U _ZTS10TException
         U _ZTS17TChildrenDelegate
         U _ZTS6TArrayIP5TNodeE
         U _ZTS6TImage
         U _ZTS6TArrayI9ColorStopE
         U _ZTSSt9exception
         U _ZTSSt13bad_exception
         U _ZTSSt9bad_alloc
00000000 T _ZN6TTimer5StartEv
         U __frameinfo_used
         U _ZN12TApplication8InstanceEv
         U _ZN12TApplication8AddTimerEP6TTimer
00000058 T _ZN6TTimer4StopEv
         U _ZN12TApplication11RemoveTimerEP6TTimer
000000a0 T _ZN6TTimer5PauseEv
000000bc T _ZN6TTimer6ResumeEv
000000d8 T _ZN6TTimer4StepEi

tgsTextUtility.o:
         U _ZTVSt9exception
         U _ZTVSt13bad_exception
         U _ZTVSt9bad_alloc
00000000 V _ZTV10TException
         U _ZTV6TImage
         U _ZTV6TArrayI9ColorStopE
00000000 V _ZTI10TException
         U _ZTI6TImage
         U _ZTI6TArrayI9ColorStopE
         U _ZTISt9exception
         U _ZTISt13bad_exception
         U _ZTISt9bad_alloc
00000000 V _ZTS10TException
         U _ZTS6TImage
         U _ZTS6TArrayI9ColorStopE
         U _ZTSSt9exception
         U _ZTSSt13bad_exception
         U _ZTSSt9bad_alloc
00000000 T _ZNK8TWString4FindEiw
00000000 T _Z16FindParagraphEndRK8TWStringi
00000000 T _ZNK6TArrayI8LineInfoEixEi
         U __frameinfo_used
         U __cxa_allocate_exception
         U __cxa_throw
00000000 T _ZN10TExceptionD1Ev
00000060 T _Z11IndexToLineRK6TArrayI8LineInfoEi
000000f0 T _Z15GetLineEndIndexRK5TFontRK8TWStringiii
         U _ZNK5TFont12GetTextWidthEPKwj
00000000 T _ZN6TArrayI8LineInfoE13RoundCapacityEi
00000000 T _ZN6TArrayI8LineInfoE8ExpandAtEii
         U _Znaj
         U _ZdaPv
         U __cxa_vec_new2
00000000 T _ZN8LineInfoC1Ev
00000000 T _ZN6TArrayI8LineInfoE8InsertAtEiRKS0_
00000000 T _ZN6TArrayI8LineInfoE5ClearEv
000001e8 T _Z18ParseTextIntoLinesRK5TFontRK8TWStringiiiiR6TArrayI8LineInfoE
000002b4 T _Z16TextWidthToIndexRK5TFontPKwiiRi
         U __div32
00000428 T _Z10AnsiToWidePwPKci
00000000 T _ZN10TExceptionD0Ev
         U _ZdlPv
         U _ZTVN10__cxxabiv117__class_type_infoE

tgsFont.o:
         U _ZTVSt9exception
         U _ZTVSt13bad_exception
         U _ZTVSt9bad_alloc
         U _ZTV10TException
         U _ZTV17TChildrenDelegate
00000000 V _ZTV5TFont
         U _ZTV6TImage
         U _ZTV6TArrayIP5TNodeE
         U _ZTV6TArrayI9ColorStopE
         U _ZTI10TException
         U _ZTI17TChildrenDelegate
         U _ZTI6TArrayIP5TNodeE
00000000 V _ZTI5TFont
         U _ZTI6TImage
         U _ZTI6TArrayI9ColorStopE
         U _ZTISt9exception
         U _ZTISt13bad_exception
         U _ZTISt9bad_alloc
         U _ZTS10TException
         U _ZTS17TChildrenDelegate
         U _ZTS6TArrayIP5TNodeE
00000000 V _ZTS5TFont
         U _ZTS6TImage
         U _ZTS6TArrayI9ColorStopE
         U _ZTSSt9exception
         U _ZTSSt13bad_exception
         U _ZTSSt9bad_alloc
00000000 T _ZN6_TRectIiEC1Ev
         U _ZN6_TRectIiE8nullRectE
00000000 T _ZN6_TRectIiEC1ERKS0_
00000000 T _ZNK10TSharedPtrIKN5TFont8FontDataEE5DerefEv
         U __frameinfo_used
         U free
         U _ZdlPv
00000000 T _ZN10TSharedPtrIKN5TFont8FontDataEEaSEPS2_
         U _Znwj
         U __diab_Unwind_Resume
         U __diab_personality_v0
00000000 T _ZN10TSharedPtrIKN5TFont8FontDataEEaSERKS3_
00000000 T _ZN5TFontC1Ev
         U _ZN7TStringC1EPKc
         U _ZN8TTtfFontC1ERK7TString
         U _ZN12TApplication8InstanceEv
         U _ZN7TStringC1ERKS_
         U _ZN8TTtfFontD1Ev
00000214 T _ZN5TFontC2Ev
00000234 T _ZN5TFontC1EPKcj
         U _ZN8TBmfFontC1ERK7TStringi
         U _ZN8TBmfFontD1Ev
0000061c T _ZN5TFontC2EPKcj
0000063c T _ZN5TFontD1Ev
0000067c T _ZN5TFontD0Ev
000006a8 T _ZN5TFontD2Ev
000006c8 T _ZN5TFontaSERKS_
000006f0 T _ZNK5TFonteqERKS_
         U _ZNK7TStringeqERKS_
0000075c T _ZNK5TFontneERKS_
         U _ZNK7TStringneERKS_
000007c8 T _ZNK5TFont7GetTypeEv
000007d4 T _ZNK5TFont12GetPointSizeEv
000007e0 T _ZNK5TFont11GetFaceNameEv
000007e8 T _ZNK5TFont10GetMetricsER11FontMetrics
0000087c T _ZNK5TFont12GetTextWidthEPKwj
00000930 T _ZN5TFont18CalculateTextBoundERK6_TRectIiERK6_TSizeIiE23TextHorizontalAlignment21TextVerticalAlignment
00000a48 T _ZNK5TFont12GetTextBoundERK6_TRectIiE23TextHorizontalAlignment21TextVerticalAlignmentPKwj
00000af8 T _ZNK5TFont12WidthToIndexEiRiPKwi
         U __div32
         U _ZTVN10__cxxabiv117__class_type_infoE

tgsNode.o:
         U _ZTVSt9exception
         U _ZTVSt13bad_exception
         U _ZTVSt9bad_alloc
00000000 V _ZTV10TException
00000000 V _ZTV5TNode
         U _ZTV17TChildrenDelegate
00000000 V _ZTV14TNodeContainer
00000000 V _ZTV10TNodeArray
         U _ZTV6TImage
00000000 V _ZTV18TNodeEventDelegate
00000000 V _ZTV6TArrayIP5TNodeE
         U _ZTV6TArrayI9ColorStopE
00000000 V _ZTI10TException
00000000 V _ZTI5TNode
00000000 V _ZTI17TChildrenDelegate
00000000 V _ZTI6TArrayIP5TNodeE
00000000 V _ZTI14TNodeContainer
00000000 V _ZTI10TNodeArray
00000000 V _ZTI18TNodeEventDelegate
         U _ZTI6TImage
         U _ZTI6TArrayI9ColorStopE
         U _ZTISt9exception
         U _ZTISt13bad_exception
         U _ZTISt9bad_alloc
00000000 V _ZTS10TException
00000000 V _ZTS5TNode
00000000 V _ZTS17TChildrenDelegate
00000000 V _ZTS6TArrayIP5TNodeE
00000000 V _ZTS14TNodeContainer
00000000 V _ZTS10TNodeArray
00000000 V _ZTI14TEventDelegate
00000000 V _ZTS14TEventDelegate
00000000 V _ZTS18TNodeEventDelegate
         U _ZTS6TImage
         U _ZTS6TArrayI9ColorStopE
         U _ZTSSt9exception
         U _ZTSSt13bad_exception
         U _ZTSSt9bad_alloc
00000000 T _ZN10TExceptionD1Ev
00000000 T _ZN10TExceptionD0Ev
         U _ZdlPv
00000000 T _ZN6_TRectIiEC1Ev
         U _ZN6_TRectIiE8nullRectE
00000000 T _ZN6_TRectIiEC1ERKS0_
00000000 T _ZN6_TRectIiEC1ERK7_TPointIiERK6_TSizeIiE
00000000 T _ZNK6_TRectIiEplERK7_TPointIiE
00000000 T _ZNK6_TRectIiEmiERK7_TPointIiE
00000000 T _ZNK6_TRectIiE9IntersectERKS0_
00000000 T _ZNK6_TRectIiE8ContainsERK7_TPointIiE
00000000 T _ZNK6_TRectIiEneERKS0_
00000000 T _ZN6_TRectIiEpLERK7_TPointIiE
00000000 T _ZN5TNodeC1EiiiiP14TEventDelegateP17TChildrenDelegate
0000007c T _ZN5TNodeC2EiiiiP14TEventDelegateP17TChildrenDelegate
000000b4 T _ZN5TNodeD1Ev
000000c4 T _ZN5TNodeD0Ev
000000f0 T _ZN5TNodeD2Ev
00000110 T _ZNK5TNode12OffsetToNodeEPS_RK7_TPointIiE
00000174 T _ZNK5TNode14OffsetToWindowERK7_TPointIiE
000001b8 T _ZNK5TNode14OffsetToScreenERK7_TPointIiE
         U __frameinfo_used
         U _ZN11TWindowHost12HostToScreenERK7_TPointIiE
         U __diab_Unwind_Resume
         U __diab_personality_v0
0000022c T _ZNK5TNode16GetParentVisibleEv
00000258 T _ZNK5TNode12UpliftToNodeEPS_RK6_TRectIiE
00000320 T _ZN5TNode6UpdateERK6_TRectIiE
         U _ZN11TWindowHost14InvalidateRectERK6_TRectIiE
00000418 T _ZN5TNode6UpdateEv
00000478 T _ZNK5TNode16GetParentEnabledEv
000004a4 T _ZN5TNode8ActivateEv
         U _ZN11TWindowHost13ActivateChildEP5TNode
000004d8 T _ZN5TNode10DeactivateEv
         U _ZN11TWindowHost15DeactivateChildEP5TNode
0000050c T _ZN5TNode18SetVisualStateMaskEiiii
00000554 T _ZN5TNode10SetFocusedEi
000005a4 T _ZN5TNode14SetHighlightedEi
000005f8 T _ZN5TNode9SetDimmedEi
0000064c T _ZN5TNode9SetActiveEi
000006a0 T _ZN5TNode8OnResizeEv
00000728 T _ZN5TNode12SetBoundRectERK6_TRectIiE
000007b4 T _ZN5TNode16SetBoundPositionERK7_TPointIiE
00000844 T _ZN5TNode12SetBoundSizeERK6_TSizeIiE
000008b8 T _ZN5TNode14OnAttachToHostEv
000008f8 T _ZN5TNode16OnDimStateChangeEv
0000094c T _ZN5TNode16RouteAttachEventEP11TWindowHost
000009ec T _ZN5TNode11AddToParentEPS_
         U _ZN11TWindowHost16UpdateMouseTrackEv
00000a38 T _ZN5TNode16OnDetachFromHostEv
00000a78 T _ZN5TNode16RouteDetachEventEv
00000b00 T _ZN5TNode16RemoveFromParentEv
00000b70 T _ZN5TNode14AddToMouseHookEv
00000b80 T _ZN5TNode19RemoveFromMouseHookEv
00000b98 T _ZN5TNode17RouteGenericEventEPFvRS_PvES1_
00000c24 T _ZN5TNode7OnPaintERNS_15PaintEventParamE
         U _ZN8TPainter5ResetEv
         U _ZN8TPainter11SetViewportERK7_TPointIiERK6_TRectIiE
00000c98 T _ZN5TNode15RoutePaintEventERNS_15PaintEventParamE
00000e1c T _ZN5TNode24RouteDimStateChangeEventEv
00000e98 T _ZN5TNode6ToNodeER8TControl
00000ea0 T _ZN5TNode25FindMouseResponsiveNodeAtERK7_TPointIiE
00001034 T _ZN5TNode11OnGainFocusEv
00001088 T _ZN5TNode11OnLoseFocusEv
000010dc T _ZN5TNode10OnKeyboardERNS_18KeyboardEventParamE
00001134 T _ZN5TNode7OnMouseERNS_15MouseEventParamE
00001174 T _ZN5TNode12OnMouseEnterEv
000011d4 T _ZN5TNode12OnMouseLeaveEv
0000124c T _ZN5TNode18OnChildBoundChangeEP8TControl
00000000 T _ZN6TArrayIP5TNodeED1Ev
         U _ZdaPv
00000000 T _ZN6TArrayIP5TNodeED0Ev
00000000 T _ZN6TArrayIP5TNodeE13RoundCapacityEi
00000000 T _ZN6TArrayIP5TNodeE8ExpandAtEii
         U _Znaj
         U __cxa_allocate_exception
         U __cxa_throw
00000000 T _ZN6TArrayIP5TNodeE8InsertAtEiRKS1_
00000000 T _ZN6TArrayIP5TNodeE8ShrinkAtEii
00000000 T _ZN6TArrayIP5TNodeE8RemoveAtEi
00000000 T _ZNK6TArrayIP5TNodeE7IndexOfERKS1_
00000000 T _ZN6TArrayIP5TNodeE6RemoveERKS1_
00000000 T _ZNK6TArrayIP5TNodeE8ContainsERKS1_
00000000 T _ZNK6TArrayIP5TNodeEixEi
00000000 T _ZN14TNodeContainerD1Ev
00000000 T _ZN14TNodeContainerD0Ev
00001290 T _ZN14TNodeContainer8AddChildEP5TNodei
000012e0 T _ZN14TNodeContainer11RemoveChildEP5TNode
00001328 T _ZN14TNodeContainer12SetChildZPosEP5TNodei
000013a8 T _ZNK14TNodeContainerixEi
000013d0 T _ZNK14TNodeContainer7IndexOfEPK5TNode
00001430 T _ZNK14TNodeContainer8GetCountEv
00001444 T _ZThn40_NK14TNodeContainer8GetCountEv
0000144c T _ZN14TNodeContainer7GetNodeEi
0000146c T _ZThn40_N14TNodeContainer7GetNodeEi
00000000 T _ZN10TNodeArrayD1Ev
00000000 T _ZN10TNodeArrayD0Ev
00001490 T _ZNK10TNodeArray8GetCountEv
00001498 T _ZThn40_NK10TNodeArray8GetCountEv
000014a0 T _ZN10TNodeArray7GetNodeEi
000014ac T _ZThn40_N10TNodeArray7GetNodeEi
000014b8 T _ZN18TNodeEventDelegate7OnEventER10EventParam
         U _ZTVN10__cxxabiv117__class_type_infoE
         U _ZTVN10__cxxabiv121__vmi_class_type_infoE
         U _ZTVN10__cxxabiv120__si_class_type_infoE

tgsGridLayout.o:
         U _ZTVSt9exception
         U _ZTVSt13bad_exception
         U _ZTVSt9bad_alloc
00000000 V _ZTV10TException
00000000 V _ZTV11TGridLayout
00000000 V _ZTV6TArrayIN11TGridLayout10LayoutInfoEE
00000000 V _ZTI10TException
00000000 V _ZTI6TArrayIN11TGridLayout10LayoutInfoEE
00000000 V _ZTI11TGridLayout
         U _ZTISt9exception
         U _ZTISt13bad_exception
         U _ZTISt9bad_alloc
00000000 V _ZTS10TException
00000000 V _ZTS6TArrayIN11TGridLayout10LayoutInfoEE
00000000 V _ZTS11TGridLayout
         U _ZTSSt9exception
         U _ZTSSt13bad_exception
         U _ZTSSt9bad_alloc
00000000 T _ZN10TExceptionD1Ev
00000000 T _ZN10TExceptionD0Ev
         U _ZdlPv
00000000 T _ZN6TArrayIN11TGridLayout10LayoutInfoEE13RoundCapacityEi
00000000 T _ZN6TArrayIN11TGridLayout10LayoutInfoEE8ExpandAtEii
         U __frameinfo_used
         U _Znaj
         U _ZdaPv
         U __cxa_vec_new2
00000000 T _ZN11TGridLayout10LayoutInfoC1Ev
         U __cxa_allocate_exception
         U __cxa_throw
00000000 T _ZN6TArrayIN11TGridLayout10LayoutInfoEEC1Ei
00000000 T _ZN6TArrayIN11TGridLayout10LayoutInfoEED1Ev
00000000 T _ZN6TArrayIN11TGridLayout10LayoutInfoEED0Ev
00000000 T _ZNK6TArrayIN11TGridLayout10LayoutInfoEEixEi
00000000 T _ZN11TGridLayoutC1Eii
         U __diab_Unwind_Resume
         U __diab_personality_v0
0000009c T _ZN11TGridLayoutC2Eii
000000bc T _ZN11TGridLayoutD1Ev
00000134 T _ZN11TGridLayoutD0Ev
00000160 T _ZN11TGridLayoutD2Ev
00000180 T _ZN11TGridLayout8DoLayoutERK6_TRectIiE
00000000 T _ZN6_TRectIiEC1Ev
         U _ZN6_TRectIiE8nullRectE
00000000 T _ZN6_TRectIiEC1ERKS0_
00000000 T _ZNK6_TRectIiE6AdjustERK8_TMarginIiE
000004b0 T _ZNK11TGridLayout11GetCellRectERK8GridCell
         U _ZTVN10__cxxabiv117__class_type_infoE

tgsPixelBuffer.o:
         U _ZTVSt9exception
         U _ZTVSt13bad_exception
         U _ZTVSt9bad_alloc
         U _ZTV10TException
         U _ZTV17TChildrenDelegate
         U _ZTV6TImage
         U _ZTV6TArrayIP5TNodeE
         U _ZTV6TArrayI9ColorStopE
         U _ZTI10TException
         U _ZTI17TChildrenDelegate
         U _ZTI6TArrayIP5TNodeE
         U _ZTI6TImage
         U _ZTI6TArrayI9ColorStopE
         U _ZTISt9exception
         U _ZTISt13bad_exception
         U _ZTISt9bad_alloc
         U _ZTS10TException
         U _ZTS17TChildrenDelegate
         U _ZTS6TArrayIP5TNodeE
         U _ZTS6TImage
         U _ZTS6TArrayI9ColorStopE
         U _ZTSSt9exception
         U _ZTSSt13bad_exception
         U _ZTSSt9bad_alloc
00000000 T _ZN12TPixelBuffer4DataD1Ev
         U __frameinfo_used
         U _ZN12TApplication8InstanceEv
00000000 T _ZNK10TSharedPtrIN12TPixelBuffer4DataEE5DerefEv
         U _ZdlPv
00000000 T _ZN10TSharedPtrIN12TPixelBuffer4DataEEaSEPS1_
         U _Znwj
         U __diab_Unwind_Resume
         U __diab_personality_v0
00000000 T _ZN10TSharedPtrIN12TPixelBuffer4DataEEaSERKS2_
00000044 T _ZN12TPixelBufferC1Ev
00000140 T _ZN12TPixelBufferC2Ev
00000160 T _ZN12TPixelBufferC1Eii
00000268 T _ZN12TPixelBufferC2Eii
00000288 T _ZN12TPixelBufferC1ERKS_
000002ac T _ZN12TPixelBufferC2ERKS_
000002d0 T _ZN12TPixelBufferC1ERK6TImage
         U _ZNK6TImage9GetHeightEv
         U _ZNK6TImage8GetWidthEv
         U _ZNK6TImage9GetStrideEv
         U _ZNK6TImage9GetFormatEv
         U _ZNK6TImage9GetBufferEv
00000484 T _ZN12TPixelBufferC2ERK6TImage
000004a4 T _ZN12TPixelBufferD1Ev
000004d0 T _ZN12TPixelBufferD2Ev
000004fc T _ZN12TPixelBufferaSERKS_
0000051c T _ZNK12TPixelBuffer8GetWidthEv
00000574 T _ZNK12TPixelBuffer9GetHeightEv
000005cc T _ZN12TPixelBuffer9DuplicateERKS_
00000730 T _ZN12TPixelBuffer4BlitERK7_TPointIiES3_RK6_TSizeIiE
00000788 T _ZNK12TPixelBuffer4ReadERK7_TPointIiERK6_TSizeIiEPh11ColorFormati
00000800 T _ZN12TPixelBuffer5WriteERK7_TPointIiERK6_TSizeIiEPKh11ColorFormati
00000878 T _ZN12TPixelBuffer4DataC1EPv
00000880 T _ZN12TPixelBuffer4DataC2EPv
00000888 T _ZN12TPixelBuffer4DataD2Ev

tgsWindowSystem.o:
00000008 d lastMouseMsg.1383
00000018 d lastDelta.1424
         U _ZTVSt9exception
         U _ZTVSt13bad_exception
         U _ZTVSt9bad_alloc
         U _ZTV10TException
         U _ZTV6TImage
00000000 V _ZTV17TChildrenDelegate
         U _ZTV14TEventDelegate
00000000 V _ZTV9TWSWindow
00000000 V _ZTV7TWSRoot
         U _ZTV6TArrayI9ColorStopE
00000000 V _ZTV6TArrayIP5TNodeE
         U _ZTI10TException
         U _ZTI6TImage
         U _ZTI6TArrayI9ColorStopE
         U _ZTI14TEventDelegate
00000000 V _ZTI17TChildrenDelegate
00000000 V _ZTI6TArrayIP5TNodeE
00000000 V _ZTI9TWSWindow
00000000 V _ZTI7TWSRoot
         U _ZTISt9exception
         U _ZTISt13bad_exception
         U _ZTISt9bad_alloc
         U _ZTS10TException
         U _ZTS6TImage
         U _ZTS6TArrayI9ColorStopE
         U _ZTS14TEventDelegate
00000000 V _ZTS17TChildrenDelegate
00000000 V _ZTS6TArrayIP5TNodeE
00000000 V _ZTS9TWSWindow
00000000 V _ZTS7TWSRoot
         U _ZTSSt9exception
         U _ZTSSt13bad_exception
         U _ZTSSt9bad_alloc
00000000 T _ZN6_TRectIiEC1Ev
         U _ZN6_TRectIiE8nullRectE
00000000 T _ZN6_TRectIiEC1ERKS0_
00000000 T _ZNK6_TRectIiEplERK7_TPointIiE
00000000 T _ZNK6_TRectIiEmiERK7_TPointIiE
00000000 T _ZNK6_TRectIiE9IntersectERKS0_
00000000 T _ZNK6_TRectIiEeqERKS0_
00000000 T _ZN5TNode10SetVisibleEi
         U __frameinfo_used
         U _ZN5TNode6UpdateEv
00000000 T _ZN5TNode15MouseEventParamC1Ev
00000000 T _ZN6TArrayIP5TNodeED1Ev
         U _ZdaPv
00000000 T _ZN6TArrayIP5TNodeED0Ev
         U _ZdlPv
00000000 T _ZN14TNodeContainerC1EiiiiP14TEventDelegate
         U _ZN5TNodeC2EiiiiP14TEventDelegateP17TChildrenDelegate
         U _ZTV14TNodeContainer
00000000 T _ZN9TWSWindowC1ERK6_TRectIiEN7TWindow10WindowTypeE
         U _ZTV18TNodeEventDelegate
0000008c T _ZN9TWSWindowC2ERK6_TRectIiEN7TWindow10WindowTypeE
000000ac T _ZN9TWSWindowD1Ev
         U _ZN5TNodeD2Ev
         U __diab_Unwind_Resume
         U __diab_personality_v0
000001bc T _ZN9TWSWindowD0Ev
000001e8 T _ZN9TWSWindowD2Ev
00000208 T _ZN9TWSWindow12RedrawWindowER8TPainterRK6_TRectIiE
         U _ZNK5TNode16GetParentVisibleEv
         U _ZNK5TNode14OffsetToScreenERK7_TPointIiE
         U _ZN5TNode7OnPaintERNS_15PaintEventParamE
00000000 T _ZN7TWSRootC1ERK6_TRectIiE
00000000 T _ZN7TWSRootD1Ev
00000000 T _ZN7TWSRootD0Ev
0000033c T _ZN7TWSHost4InitEii
00000004 C _ZN7TWSHost10screenRectE
         U _Znwj
         U _ZN11TWindowHostC1Eii
00000000 D _ZN7TWSHost10windowHostE
00000004 D _ZN7TWSHost10rootWindowE
         U _ZN5TNode12SetBoundRectERK6_TRectIiE
         U _ZN11TWindowHost6AttachEv
000004c4 T _ZN7TWSHost6DeinitEv
         U _ZN11TWindowHost6DetachEv
00000528 T _ZN7TWSHost12CreateWindowERK6_TRectIiEN7TWindow10WindowTypeEP9TWSWindow
         U _ZN14TNodeContainer8AddChildEP5TNodei
00000620 T _ZN7TWSHost10ShowWindowEP9TWSWindowi
         U _ZN5TNode8ActivateEv
         U _ZN5TNode10DeactivateEv
000006b8 T _ZN7TWSHost13DestroyWindowEP9TWSWindow
         U _ZN14TNodeContainer11RemoveChildEP5TNode
00000714 T _ZN7TWSHost14ActivateWindowEP9TWSWindow
00000740 T _ZN7TWSHost16DeactivateWindowEP9TWSWindow
0000076c T _ZN7TWSHost15SetWindowParentEP9TWSWindowS1_
000007cc T _ZN7TWSHost13SetWindowZPosEP9TWSWindowi
         U _ZN14TNodeContainer12SetChildZPosEP5TNodei
00000804 T _ZN7TWSHost13SetWindowRectEP9TWSWindowRK6_TRectIiE
0000084c T _ZN7TWSHost13GetWindowRectEP9TWSWindow
00000870 T _ZN7TWSHost14OffsetToScreenEP9TWSWindowRK7_TPointIiE
         U _ZNK5TNode14OffsetToWindowERK7_TPointIiE
00000890 T _ZN7TWSHost17ProcessMouseEventERK8_app_msg
         U _ZN11TWindowHost7OnMouseER10EventParam
00000a9c T _ZN7TWSHost20ProcessKeyboardEventERK8_app_msg
         U memcpy
         U _ZN11TWindowHost10OnKeyboardER10EventParam
00000adc T _ZN7TWSHost17ProcessTimerEventERK8_app_msg
         U _ZN12TApplication8InstanceEv
         U _ZN12TApplication12GuiHeartBeatEi
00000b30 T _ZN7TWSHost16ProcessQuitEventERK8_app_msg
         U _ZN12TApplication4StopEi
00000b5c T _ZN7TWSHost14ProcessMessageERK8_app_msg
00000c00 T _ZN7TWSHost14RedrawCallbackER5TNodePv
00000c3c T _ZN7TWSHost13UpdateWindowsEv
         U _ZN5TNode17RouteGenericEventEPFvRS_PvES1_
00000c6c T _STI___19_tgsWindowSystem_cpp_d2b310e3
         U __cxa_pure_virtual
         U _ZNK14TNodeContainer8GetCountEv
         U _ZN14TNodeContainer7GetNodeEi
         U _ZThn40_NK14TNodeContainer8GetCountEv
         U _ZThn40_N14TNodeContainer7GetNodeEi
         U _ZTVN10__cxxabiv117__class_type_infoE
         U _ZTVN10__cxxabiv120__si_class_type_infoE
         U _ZTI14TNodeContainer

tgsSurface.o:
00000000 V _ZTVSt9exception
         U _ZTVSt13bad_exception
         U _ZTVSt9bad_alloc
00000000 V _ZTV10TException
00000000 V _ZTVSt11logic_error
         U _ZTVSt12domain_error
         U _ZTVSt16invalid_argument
00000000 V _ZTVSt12length_error
         U _ZTVSt12out_of_range
         U _ZTVSt13runtime_error
         U _ZTVSt14overflow_error
         U _ZTVSt15underflow_error
         U _ZTVSt11range_error
         U _ZTV17TChildrenDelegate
         U _ZTV6TImage
00000000 V _ZZNSt4listI6_TRectIiESaIS1_EE8_IncsizeEjEs
00000000 V _ZZNSt4listIP8TSurfaceSaIS1_EE8_IncsizeEjEs
         U _ZTV6TArrayIP5TNodeE
         U _ZTV6TArrayI9ColorStopE
00000000 V _ZTV6TArrayI10TSharedPtrI8TSurfaceEE
00000000 V _ZTI10TException
         U _ZTI17TChildrenDelegate
         U _ZTI6TArrayIP5TNodeE
         U _ZTI6TImage
         U _ZTI6TArrayI9ColorStopE
00000000 V _ZTI6TArrayI10TSharedPtrI8TSurfaceEE
00000000 V _ZTISt9exception
         U _ZTISt13bad_exception
         U _ZTISt9bad_alloc
00000000 V _ZTISt11logic_error
         U _ZTISt12domain_error
         U _ZTISt16invalid_argument
00000000 V _ZTISt12length_error
         U _ZTISt12out_of_range
         U _ZTISt13runtime_error
         U _ZTISt14overflow_error
         U _ZTISt15underflow_error
         U _ZTISt11range_error
00000000 V _ZTS10TException
         U _ZTS17TChildrenDelegate
         U _ZTS6TArrayIP5TNodeE
         U _ZTS6TImage
         U _ZTS6TArrayI9ColorStopE
00000000 V _ZTS6TArrayI10TSharedPtrI8TSurfaceEE
00000000 V _ZTSSt9exception
         U _ZTSSt13bad_exception
         U _ZTSSt9bad_alloc
00000000 V _ZTSSt11logic_error
         U _ZTSSt12domain_error
         U _ZTSSt16invalid_argument
00000000 V _ZTSSt12length_error
         U _ZTSSt12out_of_range
         U _ZTSSt13runtime_error
         U _ZTSSt14overflow_error
         U _ZTSSt15underflow_error
         U _ZTSSt11range_error
00000000 T _ZN10TExceptionD1Ev
00000000 T _ZN10TExceptionD0Ev
         U _ZdlPv
00000000 T _ZN6_TRectIiEC1Ev
         U _ZN6_TRectIiE8nullRectE
00000000 T _ZN6_TRectIiEC1ERKS0_
00000000 T _ZNK6_TRectIiE7CombineERKS0_
00000000 T _ZNK6_TRectIiEplERK7_TPointIiE
00000000 T _ZNK6_TRectIiE9IntersectERKS0_
00000000 T _ZNK6_TRectIiEeqERKS0_
00000000 T _ZNSt4listI6_TRectIiESaIS1_EE8_BuynodeEv
         U __frameinfo_used
         U _Znwj
00000000 T _ZNSt4listI6_TRectIiESaIS1_EE5clearEv
00000000 T _ZNSt4listI6_TRectIiESaIS1_EE5_TidyEv
00000000 T _ZNSt4listIP8TSurfaceSaIS1_EE8_BuynodeEv
00000000 T _ZN8TSurfaceC1ERK6_TRectIiE
         U __diab_Unwind_Resume
         U __diab_personality_v0
000000e0 T _ZN8TSurfaceC2ERK6_TRectIiE
00000000 T _ZNSt4listIP8TSurfaceSaIS1_EE5clearEv
00000000 T _ZNSt4listIP8TSurfaceSaIS1_EE5_TidyEv
00000100 T _ZN8TSurfaceD1Ev
00000130 T _ZN8TSurfaceD2Ev
00000150 T _ZN8TSurface12AddDirtyRectERK6_TRectIiE
00000004 D _ZN8TSurface5dirtyE
000001a8 T _ZN8TSurface12ForEachChildEPS_PFPvS0_S1_ES1_S3_S1_
0000027c T _ZN8TSurface10SetVisibleEi
00001104 T _ZN8TSurface22UpdatePositionCallbackEPS_Pv
00000310 T _ZN8TSurface7SetRectERK6_TRectIiE
00000000 T _ZNSt4listIP8TSurfaceSaIS1_EE8_BuynodeEPNSt9_List_nodIS1_S2_E5_NodeES7_RKS1_
00000000 T _ZNSs5eraseEjj
         U _ZNKSt12_String_base5_XranEv
         U memmove
00000000 T _ZNSs5_TidyEbj
         U memcpy
00000000 T _ZNSs5_CopyEjj
         U __udiv32
         U __cxa_end_catch
         U __cxa_begin_catch
         U __cxa_rethrow
00000000 T _ZNSs5_GrowEjb
         U _ZNKSt12_String_base5_XlenEv
00000000 T _ZNSs6assignERKSsjj
00000000 T _ZNSs7_InsideEPKc
00000000 T _ZNSs6assignEPKcj
00000000 T _ZNSt11logic_errorC1ERKSs
00000000 T _ZNSt4listIP8TSurfaceSaIS1_EE8_IncsizeEj
         U __cxa_allocate_exception
         U strlen
         U __cxa_throw
00000000 T _ZNSt12length_errorD1Ev
         U __cxa_free_exception
00000000 T _ZNSt4listIP8TSurfaceSaIS1_EE7_InsertENS3_8iteratorERKS1_
00000000 T _ZNSt4listIP8TSurfaceSaIS1_EE5eraseENS3_8iteratorE
00000000 T _ZNSt4listIP8TSurfaceSaIS1_EE6removeERKS1_
000003d0 T _ZN8TSurface9SetParentEPS_
000004a0 T _ZN8TSurface14RemoveChildrenEv
0000054c T _ZN8TSurface9MoveFrontEv
00000000 T _ZNK6TArrayI10TSharedPtrI8TSurfaceEEixEi
000005d4 T _ZN8TSurface15ValidateSurfaceEPv
00000004 C _ZN8TSurface12surfaceArrayE
00000000 T _ZN6TArrayI10TSharedPtrI8TSurfaceEE13RoundCapacityEi
00000000 T _ZNK10TSharedPtrI8TSurfaceE5DerefEv
00000000 T _ZN10TSharedPtrI8TSurfaceEaSERKS1_
00000000 T _ZN6TArrayI10TSharedPtrI8TSurfaceEE8ExpandAtEii
         U _Znaj
         U _ZdaPv
00000000 T _ZN10TSharedPtrI8TSurfaceED1Ev
         U __cxa_vec_new2
00000000 T _ZN10TSharedPtrI8TSurfaceEC1Ev
         U __cxa_vec_delete
00000000 T _ZN6TArrayI10TSharedPtrI8TSurfaceEE8InsertAtEiRKS2_
00000000 T _ZN10TSharedPtrI8TSurfaceEC1EPS0_
00000668 T _ZN8TSurface13CreateSurfaceERK6_TRectIiEPv
00000000 D _ZN8TSurface4rootE
00000000 T _ZN6TArrayI10TSharedPtrI8TSurfaceEE8ShrinkAtEii
00000000 T _ZN6TArrayI10TSharedPtrI8TSurfaceEE8RemoveAtEi
00000000 T _ZNK6TArrayI10TSharedPtrI8TSurfaceEE7IndexOfERKS2_
00000000 T _ZN6TArrayI10TSharedPtrI8TSurfaceEE6RemoveERKS2_
00000804 T _ZN8TSurface14DestroySurfaceEPv
000008c8 T _ZN8TSurface17SetSurfaceVisibleEPvi
0000096c T _ZN8TSurface14SetSurfaceRectEPvRK6_TRectIiE
00000a10 T _ZN8TSurface16MoveSurfaceFrontEPv
00000aa8 T _ZN8TSurface17InvalidateSurfaceEPvRK6_TRectIiE
00000b24 T _ZN8TSurface20UpdateWindowPositionEv
00000000 T _ZSt10_ConstructI6_TRectIiES1_EvPT_RKT0_
00000000 T _ZNSt4listI6_TRectIiESaIS1_EE8_BuynodeEPNSt9_List_nodIS1_S2_E5_NodeES7_RKS1_
00000000 T _ZNSt4listI6_TRectIiESaIS1_EE8_IncsizeEj
00000000 T _ZNSt4listI6_TRectIiESaIS1_EE7_InsertENS3_8iteratorERKS1_
00000000 T _ZNSt4listI6_TRectIiESaIS1_EE5eraseENS3_8iteratorE
00000bc8 T _ZN8TSurface8ClipRectERSt4listI6_TRectIiESaIS2_EERKS2_
00000e3c T _ZN8TSurface22UpdateWindowClipRegionEv
00001010 T _ZN8TSurface16ResolveDirtyAreaEv
00001078 T _ZN8TSurface24ResolveDirtyAreaCallbackEPS_Pv
00001128 T _ZN8TSurface24UpdateClipRegionCallbackEPS_Pv
00000000 T _ZN6TArrayI10TSharedPtrI8TSurfaceEEC1Ev
00000000 T _ZN6TArrayI10TSharedPtrI8TSurfaceEED1Ev
00000000 T _ZN6TArrayI10TSharedPtrI8TSurfaceEED0Ev
00000000 T _ZNSt9exceptionD1Ev
00000000 T _ZNSt9exceptionD0Ev
00000000 T _ZNKSt9exception4whatEv
00000000 T _ZNSt11logic_errorD1Ev
         U __cxa_call_unexpected
00000000 T _ZNSt11logic_errorD0Ev
00000000 T _ZNKSt11logic_error4whatEv
00000000 T _ZNSt12length_errorD0Ev
0000114c T _STI___14_tgsSurface_cpp_813aba1e
         U __cxa_atexit
         U __dso_handle
         U _ZTVN10__cxxabiv117__class_type_infoE
         U _ZTVN10__cxxabiv120__si_class_type_infoE

tgsPainter.o:
00000000 d FLOAT_TEMP.1303
00000004 d FLOAT_TEMP.1304
         U _ZTVSt9exception
         U _ZTVSt13bad_exception
         U _ZTVSt9bad_alloc
         U _ZTV10TException
         U _ZTV6TImage
         U _ZTV17TChildrenDelegate
         U _ZTV6TArrayI9ColorStopE
         U _ZTV6TArrayIP5TNodeE
         U _ZTI10TException
         U _ZTI6TImage
         U _ZTI6TArrayI9ColorStopE
         U _ZTI17TChildrenDelegate
         U _ZTI6TArrayIP5TNodeE
         U _ZTISt9exception
         U _ZTISt13bad_exception
         U _ZTISt9bad_alloc
         U _ZTS10TException
         U _ZTS6TImage
         U _ZTS6TArrayI9ColorStopE
         U _ZTS17TChildrenDelegate
         U _ZTS6TArrayIP5TNodeE
         U _ZTSSt9exception
         U _ZTSSt13bad_exception
         U _ZTSSt9bad_alloc
00000000 T _ZN10TMatrix3x3C1Ev
00000000 T _ZN6TColorC1Ej
00000000 T _ZN6TColorC1ERKS_
00000000 T _ZN8TPainterC1Ev
         U __frameinfo_used
         U _ZN12TApplication8InstanceEv
         U _ZN12TPixelBufferC1Ev
         U _ZN5TFontC1Ev
         U _ZN12TPixelBufferD1Ev
         U __diab_Unwind_Resume
         U __diab_personality_v0
000000d4 T _ZN8TPainterC2Ev
000000f4 T _ZN8TPainter8EndPaintEv
00000120 T _ZN8TPainterD1Ev
         U _ZN5TFontD1Ev
000001c0 T _ZN8TPainterD2Ev
000001e0 T _ZN8TPainter11SetViewportERK7_TPointIiERK6_TRectIiE
00000218 T _ZN8TPainter13ClearClipRectEv
00000244 T _ZN8TPainter6SetPenERK4TPen
00000274 T _ZN8TPainter8SetBrushERK6TBrush
000002a4 T _ZN8TPainter7SetFontERK5TFont
000002d4 T _ZN8TPainter13SetRasterModeE10RasterMode
00000304 T _ZN8TPainter5ResetEv
         U _ZN6_TRectIiE7maxRectE
         U _ZN14TVectorPainter9SetMatrixERK10TMatrix3x3
         U _ZN14TVectorPainter14SetPaintMatrixERK10TMatrix3x3
         U _ZN14TVectorPainter12SetPathWidthEf
         U _ZN14TVectorPainter12SetDashStyleE9DashStyle
         U _ZN14TVectorPainter13SetJointStyleE10JointStyle
         U _ZN14TVectorPainter11SetCapStyleE8CapStyle
         U _ZN14TVectorPainter11SetFillRuleE8FillRule
         U _ZN14TVectorPainter12SetBlendModeE9BlendMode
0000049c T _ZN8TPainter10BeginPaintER12TPixelBuffer
000004e8 T _ZN8TPainter10BeginPaintER7TWindow
0000053c T _ZN8TPainter11SetClipRectERK6_TRectIiE
0000056c T _ZN8TPainter12SetTextColorERK6TColor
0000059c T _ZN8TPainter10ResetBrushEv
000005c0 T _ZN8TPainter9ResetFontEv
000005e4 T _ZN8TPainter8DrawLineERK7_TPointIiES3_
0000061c T _ZN8TPainter10DrawCircleERK6_TRectIiE
0000064c T _ZN8TPainter11DrawEllipseEiiii
0000069c T _ZN8TPainter11DrawEllipseERK6_TRectIiE
000006cc T _ZN8TPainter7DrawArcERK6_TRectIiERK7_TPointIiES7_
0000070c T _ZN8TPainter7DrawPieERK6_TRectIiERK7_TPointIiES7_
0000074c T _ZN8TPainter8DrawRectERK6_TRectIiE
00000784 T _ZN8TPainter8DrawRectEiiii
000007d8 T _ZN8TPainter8FillRectERK6_TRectIiE
00000810 T _ZN8TPainter8FillRectEiiii
00000864 T _ZN8TPainter11DrawUCSTextERK8TWStringii
000008a4 T _ZN8TPainter11DrawUCSTextEPKwiii
000008f8 T _ZN8TPainter11DrawUCSTextEPKwiRK6_TRectIiE23TextHorizontalAlignment21TextVerticalAlignment
         U _ZN5TFont18CalculateTextBoundERK6_TRectIiERK6_TSizeIiE23TextHorizontalAlignment21TextVerticalAlignment
000009b0 T _ZN8TPainter11DrawUCSTextERK8TWStringRK6_TRectIiE23TextHorizontalAlignment21TextVerticalAlignment
000009ec T _ZN8TPainter9DrawImageERK6TImageii
00000a2c T _ZN8TPainter15DrawPixelBufferERK12TPixelBufferii
00000a70 T _ZN8TPainter17CopyToPixelBufferER12TPixelBufferiiiiii
00000acc T _ZN8TPainter19CopyFromPixelBufferERK12TPixelBufferiiiiii

tgsCustomFill.o:
         U _ZTVSt9exception
         U _ZTVSt13bad_exception
         U _ZTVSt9bad_alloc
00000000 V _ZTV10TException
         U _ZTV6TImage
00000000 V _ZTV10TSolidFill
00000000 V _ZTV12TPatternFill
00000000 V _ZTV10TImageFill
00000000 V _ZTV10TEmptyFill
         U _ZTV6TArrayI9ColorStopE
00000000 V _ZTI10TException
         U _ZTI6TImage
         U _ZTI6TArrayI9ColorStopE
00000000 V _ZTI10TEmptyFill
00000000 V _ZTI10TSolidFill
00000000 V _ZTI12TPatternFill
00000000 V _ZTI10TImageFill
         U _ZTISt9exception
         U _ZTISt13bad_exception
         U _ZTISt9bad_alloc
00000000 V _ZTS10TException
         U _ZTS6TImage
         U _ZTS6TArrayI9ColorStopE
00000000 V _ZTIN11TCustomFill18TCustomFillAdaptorE
00000000 V _ZTSN11TCustomFill18TCustomFillAdaptorE
00000000 V _ZTS10TEmptyFill
00000000 V _ZTS10TSolidFill
00000000 V _ZTS12TPatternFill
00000000 V _ZTS10TImageFill
         U _ZTSSt9exception
         U _ZTSSt13bad_exception
         U _ZTSSt9bad_alloc
00000000 T _ZN10TExceptionD1Ev
00000000 T _ZN10TExceptionD0Ev
         U _ZdlPv
00000000 T _ZN6TColorC1ERKS_
00000000 T _ZN11TCustomFillC1Ev
00000010 T _ZN11TCustomFillC2Ev
00000020 T _ZN11TCustomFill13DeleteAdaptorEv
         U __frameinfo_used
000000c0 T _ZN10TSolidFillC1ERK6TColor
000000f0 T _ZNK10TSolidFill3dupEv
         U _Znwj
         U __cxa_allocate_exception
         U __cxa_throw
         U __diab_Unwind_Resume
         U __diab_personality_v0
00000000 T _ZN12TPatternFillC1ERKS_
         U _ZN12TPixelBufferC1ERKS_
         U __cxa_call_unexpected
0000017c T _ZNK12TPatternFill3dupEv
00000208 T _ZN10TImageFillC1ERKS_
0000023c T _ZNK10TImageFill3dupEv
00000300 T _ZN11TCustomFill11CopyAdaptorENS_14CustomFillTypeEPKNS_18TCustomFillAdaptorE
00000394 T _ZN11TCustomFillC1ERKS_
000003c8 T _ZN11TCustomFillC2ERKS_
000003e8 T _ZN11TCustomFillC1ERK10TEmptyFill
0000041c T _ZN11TCustomFillC2ERK10TEmptyFill
0000043c T _ZN11TCustomFillC1ERK10TSolidFill
00000470 T _ZN11TCustomFillC2ERK10TSolidFill
00000490 T _ZN11TCustomFillC1ERK12TPatternFill
000004c4 T _ZN11TCustomFillC2ERK12TPatternFill
000004e4 T _ZN11TCustomFillC1ERK10TImageFill
00000518 T _ZN11TCustomFillC2ERK10TImageFill
00000538 T _ZN11TCustomFillD1Ev
00000558 T _ZN11TCustomFillD2Ev
00000578 T _ZNK11TCustomFill15IsDefualtVisualEv
0000058c T _ZN11TCustomFillaSERKS_
000005c8 T _ZN11TCustomFillaSERK10TEmptyFill
000005f0 T _ZN11TCustomFillaSERK10TSolidFill
00000618 T _ZN11TCustomFillaSERK10TImageFill
00000640 T _ZN11TCustomFillaSERK12TPatternFill
00000668 T _ZNK10TSolidFill8FillRectER8TPainterRK6_TRectIiE
         U _ZN12TPixelBufferC1Ev
         U _ZN8TPainter8SetBrushERK6TBrush
         U _ZN12TPixelBufferD1Ev
         U _ZN8TPainter8FillRectERK6_TRectIiE
0000070c T _ZNK12TPatternFill8FillRectER8TPainterRK6_TRectIiE
000007bc T _ZNK10TImageFill8FillRectER8TPainterRK6_TRectIiE
         U _ZN8TPainter15DrawPixelBufferERK12TPixelBufferii
000007f0 T _ZNK11TCustomFill8FillRectER8TPainterRK6_TRectIiE
0000086c T _ZN10TEmptyFillC1Ev
0000087c T _ZN10TEmptyFillC2Ev
0000088c T _ZN10TEmptyFillD1Ev
0000089c T _ZN10TEmptyFillD0Ev
000008c8 T _ZN10TEmptyFillD2Ev
000008d8 T _ZN10TSolidFillC2ERK6TColor
000008f8 T _ZN10TSolidFillD1Ev
00000908 T _ZN10TSolidFillD2Ev
00000918 T _ZN10TSolidFillD0Ev
00000944 T _ZN12TPatternFillC1ERK12TPixelBuffer
00000974 T _ZN12TPatternFillC2ERK12TPixelBuffer
00000994 T _ZN12TPatternFillD1Ev
000009c4 T _ZN12TPatternFillD2Ev
000009e4 T _ZN12TPatternFillD0Ev
00000a10 T _ZN10TImageFillC1ERK12TPixelBuffer
00000a40 T _ZN10TImageFillC2ERK12TPixelBuffer
00000a60 T _ZN10TImageFillC2ERKS_
00000a80 T _ZN10TImageFillD1Ev
00000ab0 T _ZN10TImageFillD2Ev
00000ad0 T _ZN10TImageFillD0Ev
         U _ZTVN10__cxxabiv117__class_type_infoE
         U _ZTVN10__cxxabiv120__si_class_type_infoE

tgsLoaderPng.o:
00000000 T trt_png_load
         U __frameinfo_used
         U fopen
         U png_create_read_struct
         U png_create_info_struct
         U png_destroy_read_struct
         U free
         U fclose
         U png_set_longjmp_fn
         U longjmp
         U setjmp
         U png_init_io
         U png_read_info
         U png_get_IHDR
         U png_set_IHDR
         U png_set_scale_16
         U png_set_expand
         U png_set_gray_to_rgb
         U png_set_bgr
         U _Znaj
         U png_read_image
         U png_read_end
         U _ZdaPv
         U png_get_valid
000003a8 T trt_png_free

twdButton.o:
         U _ZTVSt9exception
         U _ZTVSt13bad_exception
         U _ZTVSt9bad_alloc
00000000 V _ZTV10TException
         U _ZTV17TChildrenDelegate
00000000 V _ZTV6TImage
         U _ZTV6TArrayIP5TNodeE
         U _ZTV6TArrayI9ColorStopE
00000000 V _ZTI10TException
         U _ZTI17TChildrenDelegate
         U _ZTI6TArrayIP5TNodeE
00000000 V _ZTI6TImage
         U _ZTI6TArrayI9ColorStopE
         U _ZTISt9exception
         U _ZTISt13bad_exception
         U _ZTISt9bad_alloc
00000000 V _ZTS10TException
         U _ZTS17TChildrenDelegate
         U _ZTS6TArrayIP5TNodeE
00000000 V _ZTS6TImage
         U _ZTS6TArrayI9ColorStopE
         U _ZTSSt9exception
         U _ZTSSt13bad_exception
         U _ZTSSt9bad_alloc
00000000 T _ZN10TExceptionD1Ev
00000000 T _ZN10TExceptionD0Ev
         U _ZdlPv
00000000 T _ZN7TStringD1Ev
         U __frameinfo_used
         U free
00000000 T _ZN8TWStringC1Ev
         U _Znaj
00000000 T _ZN8TWStringC1EPKw
         U __cxa_allocate_exception
         U __cxa_throw
         U memcpy
00000000 T _ZN8TWStringaSERKS_
         U _ZdaPv
00000000 T _ZNK8TWStringneERKS_
00000000 T _ZN7TWDFile12BranchButtonEiPiRNS_15ButtonAttributeE
         U _ZN7TWDFile11BranchImageEiPiRNS_14ImageAttributeE
00000710 T _ZN7TWDFile11ParseButtonEPhiRNS_15ButtonAttributeE
         U _Z10DataLengthiPi
         U _ZN7TWDFile12BranchBorderEiPiRNS_15BorderAttributeE
         U _ZN7TWDFile10BranchFontEiPiRNS_13FontAttributeE
         U _ZN7TWDFile13BranchRealObjEiPiRNS_16RealObjAttributeE
00000000 T _ZN7TWDFile14ImageAttributeD1Ev
         U __diab_Unwind_Resume
         U __diab_personality_v0
00000814 T _ZN7TWDFile15ButtonAttributeC1Ev
         U _ZN7TWDFile16RealObjAttributeC2Ev
         U _ZN7TWDFile15BorderAttributeC1Ev
         U _ZN7TWDFile13FontAttributeC1Ev
         U _ZN7TWDFile14ImageAttributeC1Ev
00000000 T _ZN7TWDFile15ButtonAttributeD1Ev
00000000 T _ZN7TWDFile11ControlInfoC1Ev
         U _ZN7TStringC1Ev
00000000 T _ZN7TWDFile11ControlInfoD1Ev
00000000 T _ZN6_TRectIiEC1Eiiii
00000000 T _ZNK6_TRectIiE5WidthEv
00000000 T _ZNK6_TRectIiE6HeightEv
00000000 T _ZN6TImageC1Ev
         U _ZN6TImage16defaultImageDataE
00000000 T _ZNK10TSharedPtrI9ImageDataE5DerefEv
         U _ZN9ImageDataD1Ev
00000000 T _ZN6TImageD1Ev
00000000 T _ZN8TControl15UpdateBoundRectEv
         U _ZN5TNode18OnChildBoundChangeEP8TControl
         U _ZN5TNode8OnResizeEv
         U _ZN5TNode6UpdateEv
00000000 T _ZN15TPushButtonNode7SetTextERK8TWString
000009d4 T _ZN7TWDFile19CreateButtonFromAttERKNS_10TwdSegmentE
         U _ZN7TStringC1EPKci
         U _ZN7TStringaSERKS_
         U _Znwj
         U _ZN9TCheckBoxC1EiiiiRK8TWString
         U strlen
         U _Z12UCS2FromUTF8PKciR8TWString
         U _ZN7TWDFile14AddControlInfoERKNS_11ControlInfoE
         U _ZN13TToggleButtonC1Eiiii
         U _ZNK13TToggleButton11GetPropertyEv
         U _ZN7TWDFile21ApplyRealObjAttributeER8TControlRKNS_16RealObjAttributeE
         U _ZN7TWDFile9LoadImageEPhiR6TImage
         U _ZN12TPixelBufferC1ERK6TImage
         U _ZN10TImageFillC1ERK12TPixelBuffer
         U _ZN11TCustomFillaSERK10TImageFill
         U _ZN10TImageFillD1Ev
         U _ZN12TPixelBufferD1Ev
         U _ZN13TToggleButton11SetPropertyERKNS_8PropertyE
         U _ZN13TToggleButton8PropertyD1Ev
         U _ZN11TPushButtonC1Eiiii
         U _ZNK11TPushButton11GetPropertyEv
         U _ZN11TPushButton11SetPropertyERKNS_8PropertyE
         U _ZN11TPushButton8PropertyD1Ev
000026b8 T _ZN7TWDFile15ButtonAttributeC2Ev
00000000 T _ZN6TImageD0Ev
         U _ZTVN10__cxxabiv117__class_type_infoE

twdTab.o:
         U _ZTVSt9exception
         U _ZTVSt13bad_exception
         U _ZTVSt9bad_alloc
         U _ZTV10TException
         U _ZTV17TChildrenDelegate
         U _ZTV6TImage
         U _ZTV6TArrayIP5TNodeE
         U _ZTV6TArrayI9ColorStopE
         U _ZTI10TException
         U _ZTI17TChildrenDelegate
         U _ZTI6TArrayIP5TNodeE
         U _ZTI6TImage
         U _ZTI6TArrayI9ColorStopE
         U _ZTISt9exception
         U _ZTISt13bad_exception
         U _ZTISt9bad_alloc
         U _ZTS10TException
         U _ZTS17TChildrenDelegate
         U _ZTS6TArrayIP5TNodeE
         U _ZTS6TImage
         U _ZTS6TArrayI9ColorStopE
         U _ZTSSt9exception
         U _ZTSSt13bad_exception
         U _ZTSSt9bad_alloc
00000000 T _ZN7TWDFile9BranchTabEiPiRNS_12TabAttributeE
         U __frameinfo_used
         U _Znaj
0000026c T _ZN7TWDFile8ParseTabEPhiRNS_12TabAttributeE
         U _Z10DataLengthiPi
         U _ZN7TWDFile10BranchFontEiPiRNS_13FontAttributeE
         U _ZN7TWDFile13BranchRealObjEiPiRNS_16RealObjAttributeE
0000034c T _ZN7TWDFile12TabAttributeC1Ev
         U _ZN7TWDFile16RealObjAttributeC2Ev
         U _ZN7TWDFile13FontAttributeC1Ev
         U free
         U __diab_Unwind_Resume
         U __diab_personality_v0
000003ec T _ZN7TWDFile12TabAttributeD1Ev
         U _ZdaPv
00000000 T _ZN7TWDFile11ControlInfoC1Ev
         U _ZN7TStringC1Ev
00000000 T _ZN7TWDFile11ControlInfoD1Ev
00000444 T _ZN7TWDFile16CreateTabFromAttERKNS_10TwdSegmentE
         U _ZN7TStringC1EPKci
         U _ZN7TStringaSERKS_
         U _Znwj
         U _ZN4TTabC1Eiiiii
         U strlen
         U _Z12UCS2FromUTF8PKciR8TWString
         U _ZN4TTab10SetTabTextEiRK8TWString
         U _ZN7TWDFile14AddControlInfoERKNS_11ControlInfoE
         U _ZN7TWDFile21ApplyRealObjAttributeER8TControlRKNS_16RealObjAttributeE
         U snprintf
         U _ZN7TStringC1EPKc
         U _ZdlPv
000008ac T _ZN7TWDFile12TabAttributeC2Ev
000008cc T _ZN7TWDFile12TabAttributeD2Ev

twdList.o:
         U _ZTVSt9exception
         U _ZTVSt13bad_exception
         U _ZTVSt9bad_alloc
00000000 V _ZTV10TException
         U _ZTV17TChildrenDelegate
         U _ZTV6TImage
00000000 V _ZTV6TArrayIN7TWDFile17ListItemAttributeEE
         U _ZTV6TArrayIP5TNodeE
         U _ZTV6TArrayI9ColorStopE
00000000 V _ZTI10TException
00000000 V _ZTI6TArrayIN7TWDFile17ListItemAttributeEE
         U _ZTI17TChildrenDelegate
         U _ZTI6TArrayIP5TNodeE
         U _ZTI6TImage
         U _ZTI6TArrayI9ColorStopE
         U _ZTISt9exception
         U _ZTISt13bad_exception
         U _ZTISt9bad_alloc
00000000 V _ZTS10TException
00000000 V _ZTS6TArrayIN7TWDFile17ListItemAttributeEE
         U _ZTS17TChildrenDelegate
         U _ZTS6TArrayIP5TNodeE
         U _ZTS6TImage
         U _ZTS6TArrayI9ColorStopE
         U _ZTSSt9exception
         U _ZTSSt13bad_exception
         U _ZTSSt9bad_alloc
00000000 T _ZN10TExceptionD1Ev
00000000 T _ZN10TExceptionD0Ev
         U _ZdlPv
00000000 T _ZN6TArrayIN7TWDFile17ListItemAttributeEED1Ev
         U _ZdaPv
00000000 T _ZN6TArrayIN7TWDFile17ListItemAttributeEED0Ev
00000000 T _ZN6TArrayIN7TWDFile17ListItemAttributeEE13RoundCapacityEi
00000000 T _ZN6TArrayIN7TWDFile17ListItemAttributeEE8ExpandAtEii
         U __frameinfo_used
         U _Znaj
         U __cxa_vec_new2
000000c4 T _ZN7TWDFile17ListItemAttributeC1Ev
         U __cxa_allocate_exception
         U __cxa_throw
00000000 T _ZN6TArrayIN7TWDFile17ListItemAttributeEE8InsertAtEiRKS1_
00000000 T _ZNK6TArrayIN7TWDFile17ListItemAttributeEEixEi
00000000 T _ZN7TWDFile14BranchListItemEiPiRNS_17ListItemAttributeE
000000e4 T _ZN7TWDFile10BranchListEiPiRNS_13ListAttributeE
         U _ZN7TWDFile10BranchFontEiPiRNS_13FontAttributeE
         U memset
         U _ZN7TWDFile19BranchScrollBarPairEiPiRNS_19ScrollAreaAttributeE
000008d0 T _ZN7TWDFile9ParseListEPhiRNS_13ListAttributeE
         U _Z10DataLengthiPi
         U _ZN7TWDFile13BranchRealObjEiPiRNS_16RealObjAttributeE
00000000 T _ZN7TWDFile14ImageAttributeD1Ev
         U free
         U __diab_Unwind_Resume
         U __diab_personality_v0
00000000 T _ZN7TWDFile15WindowAttributeD1Ev
0000098c T _ZN7TWDFile13ListAttributeC1Ev
         U _ZN7TWDFile19ScrollAreaAttributeC2Ev
         U _ZN7TWDFile13FontAttributeC1Ev
00000a54 T _ZN7TWDFile13ListAttributeD1Ev
00000000 T _ZN7TWDFile11ControlInfoC1Ev
         U _ZN7TStringC1Ev
00000000 T _ZN7TWDFile11ControlInfoD1Ev
00000ab8 T _ZN7TWDFile17CreateListFromAttERKNS_10TwdSegmentE
         U _ZN7TStringC1EPKci
         U _ZN7TStringaSERKS_
         U _Znwj
         U _ZN8TListBoxC1Eiiiii
         U _ZN7TWDFile21ApplyRealObjAttributeER8TControlRKNS_16RealObjAttributeE
         U _ZN5TNode18OnChildBoundChangeEP8TControl
         U _ZN5TNode8OnResizeEv
         U _ZN5TNode6UpdateEv
         U strlen
         U _Z12UCS2FromUTF8PKciR8TWString
         U _ZN8TListBox6AddRowERK8TWStringi
         U _ZN7TWDFile14AddControlInfoERKNS_11ControlInfoE
00000e50 T _ZN7TWDFile17ListItemAttributeC2Ev
00000e70 T _ZN7TWDFile13ListAttributeC2Ev
00000e90 T _ZN7TWDFile13ListAttributeD2Ev
         U _ZTVN10__cxxabiv117__class_type_infoE

twdFile.o:
00000000 d ic.848
         U _ZTVSt9exception
         U _ZTVSt13bad_exception
         U _ZTVSt9bad_alloc
00000000 V _ZTV10TException
00000000 V _ZTV7TWDFile
         U _ZTV17TChildrenDelegate
         U _ZTV6TImage
00000000 V _ZTV6TArrayIN7TWDFile23MultiStateItemAttributeEE
00000000 V _ZTV6TArrayIN7TWDFile11ControlInfoEE
         U _ZTV6TArrayIP5TNodeE
         U _ZTV6TArrayI9ColorStopE
00000000 V _ZTI10TException
00000000 V _ZTI6TArrayIN7TWDFile23MultiStateItemAttributeEE
00000000 V _ZTI6TArrayIN7TWDFile11ControlInfoEE
00000000 V _ZTI7TWDFile
         U _ZTI17TChildrenDelegate
         U _ZTI6TArrayIP5TNodeE
         U _ZTI6TImage
         U _ZTI6TArrayI9ColorStopE
         U _ZTISt9exception
         U _ZTISt13bad_exception
         U _ZTISt9bad_alloc
00000000 V _ZTS10TException
00000000 V _ZTS6TArrayIN7TWDFile23MultiStateItemAttributeEE
00000000 V _ZTS6TArrayIN7TWDFile11ControlInfoEE
00000000 V _ZTS7TWDFile
         U _ZTS17TChildrenDelegate
         U _ZTS6TArrayIP5TNodeE
         U _ZTS6TImage
         U _ZTS6TArrayI9ColorStopE
         U _ZTSSt9exception
         U _ZTSSt13bad_exception
         U _ZTSSt9bad_alloc
00000000 T _ZN10TExceptionD1Ev
00000000 T _ZN10TExceptionD0Ev
         U _ZdlPv
00000000 T _ZN6TColorC1Ej
00000000 T _ZN6TArrayIN7TWDFile23MultiStateItemAttributeEED1Ev
         U __frameinfo_used
         U __cxa_vec_delete
00000000 T _ZN7TWDFile23MultiStateItemAttributeD1Ev
00000000 T _ZN6TArrayIN7TWDFile23MultiStateItemAttributeEED0Ev
00000000 T _ZN6TArrayIN7TWDFile11ControlInfoEED1Ev
00000000 T _ZN7TWDFile11ControlInfoD1Ev
00000000 T _ZN6TArrayIN7TWDFile11ControlInfoEED0Ev
00000000 T _ZN6TArrayIN7TWDFile11ControlInfoEE13RoundCapacityEi
00000000 T _ZN7TWDFile11ControlInfoaSERKS0_
         U _ZN7TStringaSERKS_
00000000 T _ZN6TArrayIN7TWDFile11ControlInfoEE8ExpandAtEii
         U _Znaj
         U _ZdaPv
         U __cxa_vec_new2
00000000 T _ZN7TWDFile11ControlInfoC1Ev
         U __cxa_allocate_exception
         U __cxa_throw
00000000 T _ZN6TArrayIN7TWDFile11ControlInfoEE8InsertAtEiRKS1_
00000000 T _ZN6TArrayIN7TWDFile11ControlInfoEE5ClearEv
00000000 T _ZNK6TArrayIN7TWDFile11ControlInfoEEixEi
00000000 T _ZN7TWDFileC1Ev
         U _ZN7TStringC1Ev
0000005c T _ZN7TWDFileC2Ev
0000007c T _ZN7TWDFile6UnloadEv
00000150 T _ZN7TWDFileD1Ev
         U free
         U __diab_Unwind_Resume
         U __diab_personality_v0
000001f0 T _ZN7TWDFileD0Ev
0000021c T _ZN7TWDFileD2Ev
0000023c T _ZN7TWDFile16CheckFileVersionEPh
000002a4 T _ZN7TWDFile11ParseHeaderEPh
         U memset
         U _Z13TestByteOrderv
         U _Z16ENDIAN_CONVERT32j
00000394 T _ZN7TWDFile12ParseSegmentERNS_10TwdSegmentE
         U _Z13ConvertEndianPh
         U _ZN7TWDFile19CreateWindowFromAttERKNS_10TwdSegmentE
         U _ZN7TWDFile19CreateButtonFromAttERKNS_10TwdSegmentE
         U _ZN7TWDFile18CreateLabelFromAttERKNS_10TwdSegmentE
         U _ZN7TWDFile24CreateRadioButtonFromAttERKNS_10TwdSegmentE
         U _ZN7TWDFile21CreateComboBoxFromAttERKNS_10TwdSegmentE
         U _ZN7TWDFile22CreateNumberBoxFromAttERKNS_10TwdSegmentE
         U _ZN7TWDFile19CreateSliderFromAttERKNS_10TwdSegmentE
         U _ZN7TWDFile17CreateEditFromAttERKNS_10TwdSegmentE
         U _ZN7TWDFile17CreateListFromAttERKNS_10TwdSegmentE
         U _ZN7TWDFile18CreatePanelFromAttERKNS_10TwdSegmentE
         U _ZN7TWDFile23CreateScrollAreaFromAttERKNS_10TwdSegmentE
         U _ZN7TWDFile16CreateTabFromAttERKNS_10TwdSegmentE
         U _ZN7TWDFile20CreatePictureFromAttERKNS_10TwdSegmentE
         U _ZN7TWDFile23CreateMultiStateFromAttERKNS_10TwdSegmentE
         U _ZN7TWDFile18CreateChartFromAttERKNS_10TwdSegmentE
000006ac T _ZN7TWDFile9ParseBodyEPh
         U _ZN7TStringC1EPKci
00000844 T _ZN7TWDFile4LoadERK7TString
         U fopen
         U fread
         U fclose
000009b4 T _ZNK7TWDFile13GetTypeByNameERK7TString
         U _ZNK7TStringeqERKS_
00000a3c T _ZNK7TWDFile16GetControlByNameERK7TString
00000ac4 T _ZN7TWDFile14BranchPositionEiPiRNS_17PositionAttributeE
00000b40 T _ZN7TWDFile10BranchFontEiPiRNS_13FontAttributeE
00000d30 T _ZN7TWDFile13BranchRealObjEiPiRNS_16RealObjAttributeE
         U _ZN7TStringC1EPKc
00000000 T _ZN5TNode10SetEnabledEi
         U _ZN5TNode24RouteDimStateChangeEventEv
00000000 T _ZN5TNode10SetVisibleEi
         U _ZN5TNode6UpdateEv
0000116c T _ZN7TWDFile21ApplyRealObjAttributeER8TControlRKNS_16RealObjAttributeE
000011dc T _ZN7TWDFile11GetTWDColorEj
00001254 T _ZN7TWDFile18ApplyTextAttributeER12TextPropertyRKNS_13FontAttributeE
         U _ZN5TFontC1EPKcj
         U _ZN5TFontaSERKS_
         U _ZN5TFontD1Ev
000014e0 T _ZNK7TWDFile13GetInfoByNameERK7TString
00001564 T _ZN7TWDFile14AddControlInfoERKNS_11ControlInfoE
         U _ZN6TGroup10AddControlEP8TControli
         U _ZN4TTab10AddControlEiP8TControli
00001678 T _ZN7TWDFile13FontAttributeC1Ev
000016ac T _ZN7TWDFile13FontAttributeC2Ev
000016cc T _ZN7TWDFile17PositionAttributeC1Ev
000016e4 T _ZN7TWDFile17PositionAttributeC2Ev
00001704 T _ZN7TWDFile14ImageAttributeC1Ev
00001760 T _ZN7TWDFile14ImageAttributeC2Ev
00000000 T _ZN7TWDFile14ImageAttributeD1Ev
00001780 T _ZN7TWDFile16RealObjAttributeC1Ev
000017b8 T _ZN7TWDFile16RealObjAttributeC2Ev
000017d8 T _ZN7TWDFile15WindowAttributeC1Ev
00001878 T _ZN7TWDFile15WindowAttributeC2Ev
00001898 T _ZN7TWDFile14PanelAttributeC1Ev
000018b8 T _ZN7TWDFile14PanelAttributeC2Ev
000018d8 T _ZN7TWDFile14LabelAttributeC1Ev
0000190c T _ZN7TWDFile14LabelAttributeC2Ev
0000192c T _ZN7TWDFile13EditAttributeC1Ev
         U _ZN7TWDFile15BorderAttributeC1Ev
000019ac T _ZN7TWDFile13EditAttributeC2Ev
000019cc T _ZN7TWDFile19MultiStateAttributeC1Ev
00001a10 T _ZN7TWDFile19MultiStateAttributeC2Ev
         U _ZTVN10__cxxabiv117__class_type_infoE

twdBorder.o:
         U _ZTVSt9exception
         U _ZTVSt13bad_exception
         U _ZTVSt9bad_alloc
         U _ZTV10TException
         U _ZTI10TException
         U _ZTISt9exception
         U _ZTISt13bad_exception
         U _ZTISt9bad_alloc
         U _ZTS10TException
         U _ZTSSt9exception
         U _ZTSSt13bad_exception
         U _ZTSSt9bad_alloc
00000000 T _ZN7TWDFile12BranchBorderEiPiRNS_15BorderAttributeE
0000012c T _ZN7TWDFile15BorderAttributeC1Ev
0000017c T _ZN7TWDFile15BorderAttributeC2Ev

twdComboBox.o:
         U _ZTVSt9exception
         U _ZTVSt13bad_exception
         U _ZTVSt9bad_alloc
00000000 V _ZTV10TException
         U _ZTV17TChildrenDelegate
         U _ZTV6TImage
         U _ZTV6TArrayIP5TNodeE
         U _ZTV6TArrayI9ColorStopE
00000000 V _ZTI10TException
         U _ZTI17TChildrenDelegate
         U _ZTI6TArrayIP5TNodeE
         U _ZTI6TImage
         U _ZTI6TArrayI9ColorStopE
         U _ZTISt9exception
         U _ZTISt13bad_exception
         U _ZTISt9bad_alloc
00000000 V _ZTS10TException
         U _ZTS17TChildrenDelegate
         U _ZTS6TArrayIP5TNodeE
         U _ZTS6TImage
         U _ZTS6TArrayI9ColorStopE
         U _ZTSSt9exception
         U _ZTSSt13bad_exception
         U _ZTSSt9bad_alloc
00000000 T _ZN10TExceptionD1Ev
00000000 T _ZN10TExceptionD0Ev
         U _ZdlPv
00000000 T _ZNK6TArrayIN7TWDFile17ListItemAttributeEEixEi
         U __frameinfo_used
         U __cxa_allocate_exception
         U __cxa_throw
00000000 T _ZN7TWDFile14BranchComboBoxEiPiRNS_17ComboBoxAttributeE
         U _ZN7TWDFile10BranchListEiPiRNS_13ListAttributeE
         U _ZN7TWDFile10BranchFontEiPiRNS_13FontAttributeE
         U _ZN7TWDFile10BranchEditEiPiRNS_13EditAttributeE
00000834 T _ZN7TWDFile13ParseComboBoxEPhiRNS_17ComboBoxAttributeE
         U _Z10DataLengthiPi
         U _ZN7TWDFile13BranchRealObjEiPiRNS_16RealObjAttributeE
00000908 T _ZN7TWDFile17ComboBoxAttributeC1Ev
         U _ZN7TWDFile16RealObjAttributeC2Ev
         U _ZN7TWDFile13EditAttributeC1Ev
         U _ZN7TWDFile13ListAttributeC1Ev
         U free
         U __diab_Unwind_Resume
         U __diab_personality_v0
00000000 T _ZN7TWDFile17ComboBoxAttributeD1Ev
         U _ZN7TWDFile13ListAttributeD1Ev
00000000 T _ZN7TWDFile11ControlInfoC1Ev
         U _ZN7TStringC1Ev
00000000 T _ZN7TWDFile11ControlInfoD1Ev
000009b0 T _ZN7TWDFile21CreateComboBoxFromAttERKNS_10TwdSegmentE
         U _ZN7TStringC1EPKci
         U _ZN7TStringaSERKS_
         U _Znwj
         U _ZN9TComboBoxC1Eiiii
         U _ZN7TWDFile21ApplyRealObjAttributeER8TControlRKNS_16RealObjAttributeE
         U _Znaj
         U strlen
         U _Z12UCS2FromUTF8PKciR8TWString
         U _ZN8TListBox6AddRowERK8TWStringi
         U _ZdaPv
         U _ZN7TWDFile14AddControlInfoERKNS_11ControlInfoE
00000cd4 T _ZN7TWDFile17ComboBoxAttributeC2Ev
         U _ZTVN10__cxxabiv117__class_type_infoE

twdWindow.o:
         U _ZTVSt9exception
         U _ZTVSt13bad_exception
         U _ZTVSt9bad_alloc
         U _ZTV10TException
         U _ZTV17TChildrenDelegate
00000000 V _ZTV6TImage
         U _ZTV6TArrayIP5TNodeE
         U _ZTV6TArrayI9ColorStopE
         U _ZTI10TException
         U _ZTI17TChildrenDelegate
         U _ZTI6TArrayIP5TNodeE
00000000 V _ZTI6TImage
         U _ZTI6TArrayI9ColorStopE
         U _ZTISt9exception
         U _ZTISt13bad_exception
         U _ZTISt9bad_alloc
         U _ZTS10TException
         U _ZTS17TChildrenDelegate
         U _ZTS6TArrayIP5TNodeE
00000000 V _ZTS6TImage
         U _ZTS6TArrayI9ColorStopE
         U _ZTSSt9exception
         U _ZTSSt13bad_exception
         U _ZTSSt9bad_alloc
00000000 T _ZN7TWDFile12BranchWindowEiPiRNS_15WindowAttributeE
         U __frameinfo_used
         U _ZN7TWDFile11BranchImageEiPiRNS_14ImageAttributeE
00000644 T _ZN7TWDFile11ParseWindowEPhiRNS_15WindowAttributeE
         U _Z10DataLengthiPi
         U _ZN7TWDFile13BranchRealObjEiPiRNS_16RealObjAttributeE
00000000 T _ZN7TWDFile14ImageAttributeD1Ev
         U free
         U __diab_Unwind_Resume
         U __diab_personality_v0
00000000 T _ZN7TWDFile15WindowAttributeD1Ev
00000000 T _ZNK10TSharedPtrI9ImageDataE5DerefEv
         U _ZN9ImageDataD1Ev
         U _ZdlPv
00000000 T _ZN13TCustomVisualC1ERK11TCustomFill
         U _ZN11TCustomFillC1ERKS_
         U _ZN11TCustomFillD1Ev
00000000 T _ZN13TCustomVisualD1Ev
00000000 T _ZN13TCustomVisualaSERKS_
         U _ZN11TCustomFillaSERKS_
00000700 T _ZN7TWDFile19CreateWindowFromAttERKNS_10TwdSegmentE
         U _ZN7TWDFile15WindowAttributeC1Ev
         U _ZN7TStringC1EPKci
         U _Znwj
         U _ZN7TWindowC1EiiiiPS_NS_12WindowSizingENS_10WindowTypeE
         U _ZN7TStringaSERKS_
         U _ZN6TImage16defaultImageDataE
         U _ZN7TWDFile9LoadImageEPhiR6TImage
         U _ZN12TPixelBufferC1ERK6TImage
         U _ZN10TImageFillC1ERK12TPixelBuffer
         U _ZN11TCustomFillC1ERK10TImageFill
         U _ZN5TNode6UpdateEv
         U _ZN10TImageFillD1Ev
         U _ZN12TPixelBufferD1Ev
00000000 T _ZN6TImageD1Ev
00000000 T _ZN6TImageD0Ev
         U _ZTVN10__cxxabiv117__class_type_infoE

twdChart.o:
         U _ZTVSt9exception
         U _ZTVSt13bad_exception
         U _ZTVSt9bad_alloc
         U _ZTV10TException
         U _ZTV17TChildrenDelegate
         U _ZTV6TImage
         U _ZTV6TArrayIP5TNodeE
         U _ZTV6TArrayI9ColorStopE
         U _ZTI10TException
         U _ZTI17TChildrenDelegate
         U _ZTI6TArrayIP5TNodeE
         U _ZTI6TImage
         U _ZTI6TArrayI9ColorStopE
         U _ZTISt9exception
         U _ZTISt13bad_exception
         U _ZTISt9bad_alloc
         U _ZTS10TException
         U _ZTS17TChildrenDelegate
         U _ZTS6TArrayIP5TNodeE
         U _ZTS6TImage
         U _ZTS6TArrayI9ColorStopE
         U _ZTSSt9exception
         U _ZTSSt13bad_exception
         U _ZTSSt9bad_alloc
00000000 T _ZNK8_TMarginIiEneERKS0_
00000000 T _ZN7TWDFile10ParseChartEPhiRNS_14ChartAttributeE
         U __frameinfo_used
         U _Z10DataLengthiPi
         U _ZN7TWDFile12BranchBorderEiPiRNS_15BorderAttributeE
         U _ZN7TWDFile10BranchFontEiPiRNS_13FontAttributeE
         U _ZN7TWDFile13BranchRealObjEiPiRNS_16RealObjAttributeE
00000000 T _ZN7TWDFile14ChartAttributeC1Ev
         U _ZN7TWDFile16RealObjAttributeC2Ev
         U _ZN7TWDFile15BorderAttributeC1Ev
         U _ZN7TWDFile13FontAttributeC1Ev
         U free
         U __diab_Unwind_Resume
         U __diab_personality_v0
00000000 T _ZN7TWDFile11ControlInfoC1Ev
         U _ZN7TStringC1Ev
00000000 T _ZN7TWDFile11ControlInfoD1Ev
000000e0 T _ZN7TWDFile18CreateChartFromAttERKNS_10TwdSegmentE
         U _ZN7TStringC1EPKci
         U _ZN7TStringaSERKS_
         U _Znwj
         U _ZN10TLineChartC1Eiiiijj
         U _ZN5TNode6UpdateEv
         U _ZN7TWDFile14AddControlInfoERKNS_11ControlInfoE
         U _ZdlPv

twdSingleLineEdit.o:
         U _ZTVSt9exception
         U _ZTVSt13bad_exception
         U _ZTVSt9bad_alloc
00000000 V _ZTV10TException
         U _ZTV17TChildrenDelegate
         U _ZTV6TImage
         U _ZTV6TArrayIP5TNodeE
         U _ZTV6TArrayI9ColorStopE
00000000 V _ZTI10TException
         U _ZTI17TChildrenDelegate
         U _ZTI6TArrayIP5TNodeE
         U _ZTI6TImage
         U _ZTI6TArrayI9ColorStopE
         U _ZTISt9exception
         U _ZTISt13bad_exception
         U _ZTISt9bad_alloc
00000000 V _ZTS10TException
         U _ZTS17TChildrenDelegate
         U _ZTS6TArrayIP5TNodeE
         U _ZTS6TImage
         U _ZTS6TArrayI9ColorStopE
         U _ZTSSt9exception
         U _ZTSSt13bad_exception
         U _ZTSSt9bad_alloc
00000000 T _ZN10TExceptionD1Ev
00000000 T _ZN10TExceptionD0Ev
         U _ZdlPv
00000000 T _ZN6TColorC1Ej
00000000 T _ZNK6TColorneERKS_
00000000 T _ZN8TWStringC1EPKw
         U __frameinfo_used
         U __cxa_allocate_exception
         U __cxa_throw
         U _Znaj
         U memcpy
00000000 T _ZN7TWDFile10BranchEditEiPiRNS_13EditAttributeE
         U _ZN7TWDFile12BranchBorderEiPiRNS_15BorderAttributeE
00000350 T _ZN7TWDFile9ParseEditEPhiRNS_13EditAttributeE
         U _Z10DataLengthiPi
         U _ZN7TWDFile10BranchFontEiPiRNS_13FontAttributeE
         U _ZN7TWDFile13BranchRealObjEiPiRNS_16RealObjAttributeE
00000000 T _ZN7TWDFile11ControlInfoC1Ev
         U _ZN7TStringC1Ev
         U free
         U __diab_Unwind_Resume
         U __diab_personality_v0
00000000 T _ZN7TWDFile11ControlInfoD1Ev
00000000 T _ZN13TCustomVisualC1Ev
         U _ZN11TCustomFillC1Ev
         U _ZN11TCustomFillD1Ev
00000000 T _ZN13TCustomVisualD1Ev
00000000 T _ZN13TCustomVisualaSERKS_
         U _ZN11TCustomFillaSERKS_
00000000 T _ZNK12TextPropertyneERKS_
         U _ZNK5TFontneERKS_
00000000 T _ZN12TextPropertyaSERKS_
         U _ZN5TFontaSERKS_
00000430 T _ZN7TWDFile17CreateEditFromAttERKNS_10TwdSegmentE
         U _ZN7TWDFile13EditAttributeC1Ev
         U _ZN7TStringC1EPKci
         U _ZN7TStringaSERKS_
         U _Znwj
         U _ZN15TSingleLineEditC1EiiiiRK8TWString
         U _ZdaPv
         U _ZN7TWDFile21ApplyRealObjAttributeER8TControlRKNS_16RealObjAttributeE
         U strlen
         U _Z12UCS2FromUTF8PKciR8TWString
         U _ZN9TEditNode7SetTextERK8TWString
         U _ZN5TFontC1Ev
         U _ZN7TWDFile18ApplyTextAttributeER12TextPropertyRKNS_13FontAttributeE
         U _ZN5TNode18OnChildBoundChangeEP8TControl
         U _ZN5TNode8OnResizeEv
         U _ZN5TNode6UpdateEv
         U _ZN10TEmptyFillC1Ev
         U _ZN11TCustomFillaSERK10TEmptyFill
         U _ZN10TEmptyFillD1Ev
         U _ZN7TWDFile14AddControlInfoERKNS_11ControlInfoE
         U _ZN5TFontD1Ev
         U _ZTVN10__cxxabiv117__class_type_infoE

twdScrollArea.o:
         U _ZTVSt9exception
         U _ZTVSt13bad_exception
         U _ZTVSt9bad_alloc
         U _ZTV10TException
         U _ZTV17TChildrenDelegate
         U _ZTV6TImage
         U _ZTV6TArrayIP5TNodeE
         U _ZTV6TArrayI9ColorStopE
         U _ZTI10TException
         U _ZTI17TChildrenDelegate
         U _ZTI6TArrayIP5TNodeE
         U _ZTI6TImage
         U _ZTI6TArrayI9ColorStopE
         U _ZTISt9exception
         U _ZTISt13bad_exception
         U _ZTISt9bad_alloc
         U _ZTS10TException
         U _ZTS17TChildrenDelegate
         U _ZTS6TArrayIP5TNodeE
         U _ZTS6TImage
         U _ZTS6TArrayI9ColorStopE
         U _ZTSSt9exception
         U _ZTSSt13bad_exception
         U _ZTSSt9bad_alloc
00000000 T _ZN7TWDFile15BranchScrollBarEiPiRNS_18ScrollBarAttributeE
000000ec T _ZN7TWDFile19BranchScrollBarPairEiPiRNS_19ScrollAreaAttributeE
00000150 T _ZN7TWDFile16BranchScrollAreaEiPiRNS_19ScrollAreaAttributeE
0000050c T _ZN7TWDFile15ParseScrollAreaEPhiRNS_19ScrollAreaAttributeE
         U __frameinfo_used
         U _Z10DataLengthiPi
         U _ZN7TWDFile10BranchFontEiPiRNS_13FontAttributeE
         U _ZN7TWDFile12BranchWindowEiPiRNS_15WindowAttributeE
         U _ZN7TWDFile13BranchRealObjEiPiRNS_16RealObjAttributeE
00000000 T _ZN7TWDFile14ImageAttributeD1Ev
         U free
         U __diab_Unwind_Resume
         U __diab_personality_v0
00000000 T _ZN7TWDFile15WindowAttributeD1Ev
00000610 T _ZN7TWDFile18ScrollBarAttributeC1Ev
00000634 T _ZN7TWDFile19ScrollAreaAttributeC1Ev
         U _ZN7TWDFile15WindowAttributeC2Ev
00000000 T _ZN7TWDFile11ControlInfoC1Ev
         U _ZN7TStringC1Ev
00000000 T _ZN7TWDFile11ControlInfoD1Ev
0000067c T _ZN7TWDFile23CreateScrollAreaFromAttERKNS_10TwdSegmentE
         U _ZN7TStringC1EPKci
         U _ZN7TStringaSERKS_
         U _Znwj
         U _ZN11TScrollAreaC1Eiiiiii
         U _ZN7TWDFile21ApplyRealObjAttributeER8TControlRKNS_16RealObjAttributeE
         U _ZN11TScrollArea17SetScrollAreaSizeERK6_TSizeIiE
         U _ZN7TWDFile14AddControlInfoERKNS_11ControlInfoE
         U _ZdlPv
000008fc T _ZN7TWDFile18ScrollBarAttributeC2Ev
0000091c T _ZN7TWDFile19ScrollAreaAttributeC2Ev

twdSlider.o:
00000000 d FLOAT_TEMP.1703
00000004 d FLOAT_TEMP.1704
00000008 d FLOAT_TEMP.1705
0000000c d FLOAT_TEMP.1706
00000010 d FLOAT_TEMP.1707
         U _ZTVSt9exception
         U _ZTVSt13bad_exception
         U _ZTVSt9bad_alloc
         U _ZTV10TException
         U _ZTV17TChildrenDelegate
00000000 V _ZTV6TImage
         U _ZTV6TArrayIP5TNodeE
         U _ZTV6TArrayI9ColorStopE
         U _ZTI10TException
         U _ZTI17TChildrenDelegate
         U _ZTI6TArrayIP5TNodeE
00000000 V _ZTI6TImage
         U _ZTI6TArrayI9ColorStopE
         U _ZTISt9exception
         U _ZTISt13bad_exception
         U _ZTISt9bad_alloc
         U _ZTS10TException
         U _ZTS17TChildrenDelegate
         U _ZTS6TArrayIP5TNodeE
00000000 V _ZTS6TImage
         U _ZTS6TArrayI9ColorStopE
         U _ZTSSt9exception
         U _ZTSSt13bad_exception
         U _ZTSSt9bad_alloc
00000000 T _ZN7TWDFile12BranchSliderEiPiRNS_15SliderAttributeE
         U __frameinfo_used
         U _ZN7TWDFile12BranchBorderEiPiRNS_15BorderAttributeE
         U _ZN7TWDFile11BranchImageEiPiRNS_14ImageAttributeE
00000840 T _ZN7TWDFile11ParseSliderEPhiRNS_15SliderAttributeE
         U _Z10DataLengthiPi
         U _ZN7TWDFile13BranchRealObjEiPiRNS_16RealObjAttributeE
000008fc T _ZN7TWDFile15SliderAttributeC1Ev
         U _ZN7TWDFile16RealObjAttributeC2Ev
         U _ZN7TWDFile15BorderAttributeC1Ev
         U _ZN7TWDFile14ImageAttributeC1Ev
         U free
         U __diab_Unwind_Resume
         U __diab_personality_v0
00000000 T _ZN7TWDFile14ImageAttributeD1Ev
00000000 T _ZN7TWDFile15SliderAttributeD1Ev
00000000 T _ZN7TWDFile11ControlInfoC1Ev
         U _ZN7TStringC1Ev
00000000 T _ZN7TWDFile11ControlInfoD1Ev
00000000 T _ZNK10TSharedPtrI9ImageDataE5DerefEv
         U _ZN9ImageDataD1Ev
         U _ZdlPv
00000000 T _ZN13TCustomVisualC1Ev
         U _ZN11TCustomFillC1Ev
         U _ZN11TCustomFillD1Ev
00000000 T _ZN13TCustomVisualD1Ev
00000000 T _ZN13TCustomVisualaSERKS_
         U _ZN11TCustomFillaSERKS_
000009fc T _ZN7TWDFile19CreateSliderFromAttERKNS_10TwdSegmentE
         U _ZN7TStringC1EPKci
         U _ZN7TStringaSERKS_
         U _Znwj
         U _ZN7TSliderC1Eiiii15OrientationTypeiii
         U _ZN7TWDFile21ApplyRealObjAttributeER8TControlRKNS_16RealObjAttributeE
         U _ZN6TImage16defaultImageDataE
         U _ZN7TWDFile9LoadImageEPhiR6TImage
         U _ZN12TPixelBufferC1ERK6TImage
         U _ZN10TImageFillC1ERK12TPixelBuffer
         U _ZN11TCustomFillaSERK10TImageFill
         U _ZN10TImageFillD1Ev
         U _ZN12TPixelBufferD1Ev
         U _ZN5TNode6UpdateEv
         U _ZN10TEmptyFillC1Ev
         U _ZN11TCustomFillaSERK10TEmptyFill
         U _ZN10TEmptyFillD1Ev
         U _ZN5TNode18OnChildBoundChangeEP8TControl
         U _ZN5TNode8OnResizeEv
         U _ZN7TWDFile14AddControlInfoERKNS_11ControlInfoE
00001300 T _ZN7TWDFile15SliderAttributeC2Ev
00000000 T _ZN6TImageD1Ev
00000000 T _ZN6TImageD0Ev
         U _ZTVN10__cxxabiv117__class_type_infoE

twdFileUtility.o:
         U _ZTVSt9exception
         U _ZTVSt13bad_exception
         U _ZTVSt9bad_alloc
00000000 V _ZTV10TException
00000000 V _ZTI10TException
         U _ZTISt9exception
         U _ZTISt13bad_exception
         U _ZTISt9bad_alloc
00000000 V _ZTS10TException
         U _ZTSSt9exception
         U _ZTSSt13bad_exception
         U _ZTSSt9bad_alloc
00000000 T _Z13TestByteOrderv
00000028 T _Z16ENDIAN_CONVERT16j
0000004c T _Z16ENDIAN_CONVERT32j
00000080 T _Z17ENDIAN_CONVERT32Ff
000000bc T _Z16ENDIAN_CONVERT64d
00000118 T _Z13ConvertEndianPh
         U __frameinfo_used
         U strlen
         U __div32
00000210 T _Z10DataLengthiPi
000002a0 T _Z12UTF8FromUCS2PKwjPcj
00000328 T _Z12UCS2FromUTF8PKciPwi
00000000 T _ZN8TWStringC1EPKwi
         U __cxa_allocate_exception
         U __cxa_throw
00000000 T _ZN10TExceptionD1Ev
         U _Znaj
         U memcpy
00000000 T _ZN8TWStringaSERKS_
         U _ZdaPv
000003d0 T _Z12UCS2FromUTF8PKciR8TWString
         U __diab_Unwind_Resume
         U __diab_personality_v0
00000000 T _ZN10TExceptionD0Ev
         U _ZdlPv
         U _ZTVN10__cxxabiv117__class_type_infoE

twdImage.o:
         U _ZTVSt9exception
         U _ZTVSt13bad_exception
         U _ZTVSt9bad_alloc
         U _ZTV10TException
00000000 V _ZTV6TImage
         U _ZTV17TChildrenDelegate
         U _ZTV6TArrayIP5TNodeE
         U _ZTV6TArrayI9ColorStopE
         U _ZTI10TException
00000000 V _ZTI6TImage
         U _ZTI17TChildrenDelegate
         U _ZTI6TArrayIP5TNodeE
         U _ZTI6TArrayI9ColorStopE
         U _ZTISt9exception
         U _ZTISt13bad_exception
         U _ZTISt9bad_alloc
         U _ZTS10TException
00000000 V _ZTS6TImage
         U _ZTS17TChildrenDelegate
         U _ZTS6TArrayIP5TNodeE
         U _ZTS6TArrayI9ColorStopE
         U _ZTSSt9exception
         U _ZTSSt13bad_exception
         U _ZTSSt9bad_alloc
00000000 T _Z15LoadTilconImagePhiR6TImage
         U __frameinfo_used
         U _ZN6TImage14LoadFromBufferEPKhiii10ColorOrder11ColorFormat
00000060 T _ZN7TWDFile11BranchImageEiPiRNS_14ImageAttributeE
         U _ZN7TStringC1EPKc
         U _ZN7TStringaSERKS_
         U free
         U __diab_Unwind_Resume
         U __diab_personality_v0
000002ac T _ZN7TWDFile12ParsePictureEPhiRNS_16PictureAttributeE
         U _Z10DataLengthiPi
         U _ZN7TWDFile13BranchRealObjEiPiRNS_16RealObjAttributeE
00000368 T _ZN7TWDFile9LoadImageEPhiR6TImage
00000000 T _ZN7TWDFile16PictureAttributeC1Ev
         U _ZN7TWDFile16RealObjAttributeC2Ev
         U _ZN7TWDFile14ImageAttributeC1Ev
00000000 T _ZN7TWDFile14ImageAttributeD1Ev
00000000 T _ZN7TWDFile16PictureAttributeD1Ev
00000000 T _ZN7TWDFile11ControlInfoC1Ev
         U _ZN7TStringC1Ev
00000000 T _ZN7TWDFile11ControlInfoD1Ev
00000000 T _ZNK10TSharedPtrI9ImageDataE5DerefEv
         U _ZN9ImageDataD1Ev
         U _ZdlPv
000003f4 T _ZN7TWDFile20CreatePictureFromAttERKNS_10TwdSegmentE
         U _ZN7TStringC1EPKci
         U _Znwj
         U _ZN6TImage16defaultImageDataE
         U _ZN8TPictureC1EiiiiRK6TImage
         U _ZN8TPicture8SetImageERK6TImage
         U _ZN7TWDFile14AddControlInfoERKNS_11ControlInfoE
00000000 T _ZN6TImageD1Ev
00000000 T _ZN6TImageD0Ev
         U _ZTVN10__cxxabiv117__class_type_infoE

twdPanel.o:
         U _ZTVSt9exception
         U _ZTVSt13bad_exception
         U _ZTVSt9bad_alloc
         U _ZTV10TException
         U _ZTV17TChildrenDelegate
         U _ZTV6TImage
         U _ZTV6TArrayIP5TNodeE
         U _ZTV6TArrayI9ColorStopE
         U _ZTI10TException
         U _ZTI17TChildrenDelegate
         U _ZTI6TArrayIP5TNodeE
         U _ZTI6TImage
         U _ZTI6TArrayI9ColorStopE
         U _ZTISt9exception
         U _ZTISt13bad_exception
         U _ZTISt9bad_alloc
         U _ZTS10TException
         U _ZTS17TChildrenDelegate
         U _ZTS6TArrayIP5TNodeE
         U _ZTS6TImage
         U _ZTS6TArrayI9ColorStopE
         U _ZTSSt9exception
         U _ZTSSt13bad_exception
         U _ZTSSt9bad_alloc
00000000 T _ZN7TWDFile10ParsePanelEPhiRNS_14PanelAttributeE
         U __frameinfo_used
         U _Z10DataLengthiPi
         U _ZN7TWDFile10BranchFontEiPiRNS_13FontAttributeE
         U _ZN7TWDFile12BranchWindowEiPiRNS_15WindowAttributeE
         U _ZN7TWDFile13BranchRealObjEiPiRNS_16RealObjAttributeE
000000e0 T _ZN7TWDFile11BranchPanelEiPiRNS_14PanelAttributeE
00000000 T _ZN7TWDFile14ImageAttributeD1Ev
         U free
         U __diab_Unwind_Resume
         U __diab_personality_v0
00000000 T _ZN7TWDFile15WindowAttributeD1Ev
00000000 T _ZN7TWDFile11ControlInfoC1Ev
         U _ZN7TStringC1Ev
00000000 T _ZN7TWDFile11ControlInfoD1Ev
000000e8 T _ZN7TWDFile18CreatePanelFromAttERKNS_10TwdSegmentE
         U _ZN7TWDFile14PanelAttributeC1Ev
         U _ZN7TStringC1EPKci
         U _ZN7TStringaSERKS_
         U _Znwj
         U _ZN6TPanelC1Eiiii
         U _ZN7TWDFile21ApplyRealObjAttributeER8TControlRKNS_16RealObjAttributeE
         U _ZN7TWDFile14AddControlInfoERKNS_11ControlInfoE
         U _ZdlPv

twdRadioButton.o:
         U _ZTVSt9exception
         U _ZTVSt13bad_exception
         U _ZTVSt9bad_alloc
00000000 V _ZTV10TException
         U _ZTV17TChildrenDelegate
00000000 V _ZTV6TImage
00000000 V _ZTV6TArrayIN7TWDFile18RadioItemAttributeEE
         U _ZTV6TArrayIP5TNodeE
         U _ZTV6TArrayI9ColorStopE
00000000 V _ZTI10TException
00000000 V _ZTI6TArrayIN7TWDFile18RadioItemAttributeEE
         U _ZTI17TChildrenDelegate
         U _ZTI6TArrayIP5TNodeE
00000000 V _ZTI6TImage
         U _ZTI6TArrayI9ColorStopE
         U _ZTISt9exception
         U _ZTISt13bad_exception
         U _ZTISt9bad_alloc
00000000 V _ZTS10TException
00000000 V _ZTS6TArrayIN7TWDFile18RadioItemAttributeEE
         U _ZTS17TChildrenDelegate
         U _ZTS6TArrayIP5TNodeE
00000000 V _ZTS6TImage
         U _ZTS6TArrayI9ColorStopE
         U _ZTSSt9exception
         U _ZTSSt13bad_exception
         U _ZTSSt9bad_alloc
00000000 T _ZN10TExceptionD1Ev
00000000 T _ZN10TExceptionD0Ev
         U _ZdlPv
00000000 T _ZN8TWStringC1EPKw
         U __frameinfo_used
         U __cxa_allocate_exception
         U __cxa_throw
         U _Znaj
         U memcpy
00000000 T _ZN6TArrayIN7TWDFile18RadioItemAttributeEED1Ev
         U __cxa_vec_delete
00000000 T _ZN7TWDFile18RadioItemAttributeD1Ev
00000000 T _ZN6TArrayIN7TWDFile18RadioItemAttributeEED0Ev
00000000 T _ZN6TArrayIN7TWDFile18RadioItemAttributeEE13RoundCapacityEi
00000000 T _ZN7TWDFile14ImageAttributeaSERKS0_
         U _ZN7TStringaSERKS_
00000000 T _ZN7TWDFile18RadioItemAttributeaSERKS0_
00000000 T _ZN6TArrayIN7TWDFile18RadioItemAttributeEE8ExpandAtEii
         U _ZdaPv
         U __cxa_vec_new2
00000000 T _ZN7TWDFile18RadioItemAttributeC1Ev
00000000 T _ZN6TArrayIN7TWDFile18RadioItemAttributeEE8InsertAtEiRKS1_
00000000 T _ZNK6TArrayIN7TWDFile18RadioItemAttributeEEixEi
00000000 T _ZN7TWDFile14ImageAttributeD1Ev
         U free
         U __diab_Unwind_Resume
         U __diab_personality_v0
         U _ZN7TWDFile14ImageAttributeC1Ev
0000012c T _ZN7TWDFile17BranchRadioButtonEiPiRNS_20RadioButtonAttributeE
         U _ZN7TWDFile11BranchImageEiPiRNS_14ImageAttributeE
000007c4 T _ZN7TWDFile16ParseRadioButtonEPhiRNS_20RadioButtonAttributeE
         U _Z10DataLengthiPi
         U _ZN7TWDFile10BranchFontEiPiRNS_13FontAttributeE
         U _ZN7TWDFile13BranchRealObjEiPiRNS_16RealObjAttributeE
000008a4 T _ZN7TWDFile20RadioButtonAttributeC1Ev
         U _ZN7TWDFile16RealObjAttributeC2Ev
         U _ZN7TWDFile13FontAttributeC1Ev
00000000 T _ZN7TWDFile20RadioButtonAttributeD1Ev
00000000 T _ZN7TWDFile11ControlInfoC1Ev
         U _ZN7TStringC1Ev
00000000 T _ZN7TWDFile11ControlInfoD1Ev
00000000 T _ZNK10TSharedPtrI9ImageDataE5DerefEv
         U _ZN9ImageDataD1Ev
00000000 T _ZN13TCustomVisualC1Ev
         U _ZN11TCustomFillC1Ev
         U _ZN11TCustomFillD1Ev
00000000 T _ZN13TCustomVisualD1Ev
0000093c T _ZN7TWDFile24CreateRadioButtonFromAttERKNS_10TwdSegmentE
         U _ZN7TStringC1EPKci
         U _Znwj
         U _ZN12TRadioButtonC1Eiiii
         U strlen
         U _Z12UCS2FromUTF8PKciR8TWString
         U _ZN12TRadioButton7AddItemERK8TWString
         U _ZN6TImage16defaultImageDataE
         U _ZN7TWDFile9LoadImageEPhiR6TImage
         U _ZN12TPixelBufferC1ERK6TImage
         U _ZN10TImageFillC1ERK12TPixelBuffer
         U _ZN11TCustomFillaSERK10TImageFill
         U _ZN10TImageFillD1Ev
         U _ZN12TPixelBufferD1Ev
         U _ZN12TRadioButton23SetUncheckedFrameVisualEiRK13TCustomVisual
         U _ZN12TRadioButton21SetCheckedFrameVisualEiRK13TCustomVisual
         U _ZN10TEmptyFillC1Ev
         U _ZN11TCustomFillaSERK10TEmptyFill
         U _ZN10TEmptyFillD1Ev
         U _ZN12TRadioButton27SetUncheckedIndicatorVisualEiRK13TCustomVisual
         U _ZN12TRadioButton25SetCheckedIndicatorVisualEiRK13TCustomVisual
         U _ZN7TWDFile21ApplyRealObjAttributeER8TControlRKNS_16RealObjAttributeE
         U _ZN12TRadioButton14SetItemsPerRowEi
         U _ZN7TWDFile14AddControlInfoERKNS_11ControlInfoE
00001a1c T _ZN7TWDFile18RadioItemAttributeC2Ev
00001a3c T _ZN7TWDFile20RadioButtonAttributeC2Ev
00000000 T _ZN6TImageD1Ev
00000000 T _ZN6TImageD0Ev
         U _ZTVN10__cxxabiv117__class_type_infoE

twdMultiState.o:
         U _ZTVSt9exception
         U _ZTVSt13bad_exception
         U _ZTVSt9bad_alloc
00000000 V _ZTV10TException
         U _ZTV17TChildrenDelegate
00000000 V _ZTV6TImage
00000000 V _ZTV6TArrayIN7TWDFile23MultiStateItemAttributeEE
         U _ZTV6TArrayIP5TNodeE
         U _ZTV6TArrayI9ColorStopE
00000000 V _ZTI10TException
00000000 V _ZTI6TArrayIN7TWDFile23MultiStateItemAttributeEE
         U _ZTI17TChildrenDelegate
         U _ZTI6TArrayIP5TNodeE
00000000 V _ZTI6TImage
         U _ZTI6TArrayI9ColorStopE
         U _ZTISt9exception
         U _ZTISt13bad_exception
         U _ZTISt9bad_alloc
00000000 V _ZTS10TException
00000000 V _ZTS6TArrayIN7TWDFile23MultiStateItemAttributeEE
         U _ZTS17TChildrenDelegate
         U _ZTS6TArrayIP5TNodeE
00000000 V _ZTS6TImage
         U _ZTS6TArrayI9ColorStopE
         U _ZTSSt9exception
         U _ZTSSt13bad_exception
         U _ZTSSt9bad_alloc
00000000 T _ZN10TExceptionD1Ev
00000000 T _ZN10TExceptionD0Ev
         U _ZdlPv
00000000 T _ZN6TArrayIN7TWDFile23MultiStateItemAttributeEED1Ev
         U __frameinfo_used
         U __cxa_vec_delete
00000000 T _ZN7TWDFile23MultiStateItemAttributeD1Ev
00000000 T _ZN6TArrayIN7TWDFile23MultiStateItemAttributeEED0Ev
00000000 T _ZN6TArrayIN7TWDFile23MultiStateItemAttributeEE13RoundCapacityEi
00000000 T _ZN7TWDFile14ImageAttributeaSERKS0_
         U _ZN7TStringaSERKS_
00000000 T _ZN6TArrayIN7TWDFile23MultiStateItemAttributeEE8ExpandAtEii
         U _Znaj
         U _ZdaPv
         U __cxa_vec_new2
00000000 T _ZN7TWDFile23MultiStateItemAttributeC1Ev
         U __cxa_allocate_exception
         U __cxa_throw
00000000 T _ZN6TArrayIN7TWDFile23MultiStateItemAttributeEE8InsertAtEiRKS1_
00000000 T _ZNK6TArrayIN7TWDFile23MultiStateItemAttributeEEixEi
00000000 T _ZN7TWDFile14ImageAttributeD1Ev
         U free
         U __diab_Unwind_Resume
         U __diab_personality_v0
00000000 T _ZN7TWDFile16BranchMultiStateEiPiRNS_19MultiStateAttributeE
         U memset
         U _ZN7TWDFile14ImageAttributeC1Ev
         U _ZN7TWDFile11BranchImageEiPiRNS_14ImageAttributeE
00000650 T _ZN7TWDFile15ParseMultiStateEPhiRNS_19MultiStateAttributeE
         U _Z10DataLengthiPi
         U _ZN7TWDFile13BranchRealObjEiPiRNS_16RealObjAttributeE
00000000 T _ZN7TWDFile19MultiStateAttributeD1Ev
00000000 T _ZN7TWDFile11ControlInfoC1Ev
         U _ZN7TStringC1Ev
00000000 T _ZN7TWDFile11ControlInfoD1Ev
00000000 T _ZNK10TSharedPtrI9ImageDataE5DerefEv
         U _ZN9ImageDataD1Ev
00000000 T _ZN13TCustomVisualC1Ev
         U _ZN11TCustomFillC1Ev
         U _ZN11TCustomFillD1Ev
00000000 T _ZN13TCustomVisualD1Ev
0000070c T _ZN7TWDFile23CreateMultiStateFromAttERKNS_10TwdSegmentE
         U _ZN7TWDFile19MultiStateAttributeC1Ev
         U _ZN7TStringC1EPKci
         U _Znwj
         U _ZN17TMultiStateButtonC1Eiiiii
         U _ZN6TImage16defaultImageDataE
         U _ZN7TWDFile9LoadImageEPhiR6TImage
         U _ZN12TPixelBufferC1ERK6TImage
         U _ZN10TImageFillC1ERK12TPixelBuffer
         U _ZN11TCustomFillaSERK10TImageFill
         U _ZN10TImageFillD1Ev
         U _ZN12TPixelBufferD1Ev
         U _ZN17TMultiStateButton14SetStateVisualEiRK13TCustomVisual
         U _ZN7TWDFile14AddControlInfoERKNS_11ControlInfoE
00000000 T _ZN6TImageD1Ev
00000000 T _ZN6TImageD0Ev
         U _ZTVN10__cxxabiv117__class_type_infoE

twdNumberBox.o:
00000000 d FLOAT_TEMP.1792
00000004 d FLOAT_TEMP.1793
00000008 d FLOAT_TEMP.1794
         U _ZTVSt9exception
         U _ZTVSt13bad_exception
         U _ZTVSt9bad_alloc
         U _ZTV10TException
         U _ZTV17TChildrenDelegate
00000000 V _ZTV6TImage
         U _ZTV6TArrayIP5TNodeE
         U _ZTV6TArrayI9ColorStopE
         U _ZTI10TException
         U _ZTI17TChildrenDelegate
         U _ZTI6TArrayIP5TNodeE
00000000 V _ZTI6TImage
         U _ZTI6TArrayI9ColorStopE
         U _ZTISt9exception
         U _ZTISt13bad_exception
         U _ZTISt9bad_alloc
         U _ZTS10TException
         U _ZTS17TChildrenDelegate
         U _ZTS6TArrayIP5TNodeE
00000000 V _ZTS6TImage
         U _ZTS6TArrayI9ColorStopE
         U _ZTSSt9exception
         U _ZTSSt13bad_exception
         U _ZTSSt9bad_alloc
00000000 T _ZN7TWDFile15BranchNumberBoxEiPiRNS_18NumberBoxAttributeE
         U __frameinfo_used
         U _ZN7TWDFile11BranchImageEiPiRNS_14ImageAttributeE
00000600 T _ZN7TWDFile14ParseNumberBoxEPhiRNS_18NumberBoxAttributeE
         U _Z10DataLengthiPi
         U _ZN7TWDFile12BranchBorderEiPiRNS_15BorderAttributeE
         U _ZN7TWDFile10BranchFontEiPiRNS_13FontAttributeE
         U _ZN7TWDFile13BranchRealObjEiPiRNS_16RealObjAttributeE
00000000 T _ZN7TWDFile14ImageAttributeD1Ev
         U free
         U __diab_Unwind_Resume
         U __diab_personality_v0
00000704 T _ZN7TWDFile18NumberBoxAttributeC1Ev
         U _ZN7TWDFile16RealObjAttributeC2Ev
         U _ZN7TWDFile15BorderAttributeC1Ev
         U _ZN7TWDFile13FontAttributeC1Ev
         U _ZN7TWDFile14ImageAttributeC1Ev
00000000 T _ZN7TWDFile18NumberBoxAttributeD1Ev
00000000 T _ZN7TWDFile11ControlInfoC1Ev
         U _ZN7TStringC1Ev
00000000 T _ZN7TWDFile11ControlInfoD1Ev
00000000 T _ZNK10TSharedPtrI9ImageDataE5DerefEv
         U _ZN9ImageDataD1Ev
         U _ZdlPv
00000000 T _ZN13TCustomVisualC1Ev
         U _ZN11TCustomFillC1Ev
         U _ZN11TCustomFillD1Ev
00000000 T _ZN13TCustomVisualD1Ev
000008d4 T _ZN7TWDFile22CreateNumberBoxFromAttERKNS_10TwdSegmentE
         U _ZN7TStringC1EPKci
         U _ZN7TStringaSERKS_
         U _Znwj
         U _ZN8TSpinBoxC1Eiiii
         U _ZN7TWDFile21ApplyRealObjAttributeER8TControlRKNS_16RealObjAttributeE
         U _ZN5TNode6UpdateEv
         U _ZN6TImage16defaultImageDataE
         U _ZN7TWDFile9LoadImageEPhiR6TImage
         U _ZN12TPixelBufferC1ERK6TImage
         U _ZN10TImageFillC1ERK12TPixelBuffer
         U _ZN11TCustomFillaSERK10TImageFill
         U _ZN10TImageFillD1Ev
         U _ZN12TPixelBufferD1Ev
         U _ZN7TWDFile14AddControlInfoERKNS_11ControlInfoE
0000156c T _ZN7TWDFile18NumberBoxAttributeC2Ev
00000000 T _ZN6TImageD1Ev
00000000 T _ZN6TImageD0Ev
         U _ZTVN10__cxxabiv117__class_type_infoE

twdLabel.o:
         U _ZTVSt9exception
         U _ZTVSt13bad_exception
         U _ZTVSt9bad_alloc
00000000 V _ZTV10TException
         U _ZTV17TChildrenDelegate
         U _ZTV6TImage
         U _ZTV6TArrayIP5TNodeE
         U _ZTV6TArrayI9ColorStopE
00000000 V _ZTI10TException
         U _ZTI17TChildrenDelegate
         U _ZTI6TArrayIP5TNodeE
         U _ZTI6TImage
         U _ZTI6TArrayI9ColorStopE
         U _ZTISt9exception
         U _ZTISt13bad_exception
         U _ZTISt9bad_alloc
00000000 V _ZTS10TException
         U _ZTS17TChildrenDelegate
         U _ZTS6TArrayIP5TNodeE
         U _ZTS6TImage
         U _ZTS6TArrayI9ColorStopE
         U _ZTSSt9exception
         U _ZTSSt13bad_exception
         U _ZTSSt9bad_alloc
00000000 T _ZN10TExceptionD1Ev
00000000 T _ZN10TExceptionD0Ev
         U _ZdlPv
00000000 T _ZN8TWStringC1EPKw
         U __frameinfo_used
         U __cxa_allocate_exception
         U __cxa_throw
         U _Znaj
         U memcpy
00000000 T _ZN8TWStringaSERKS_
         U _ZdaPv
00000000 T _ZN7TWDFile11BranchLabelEiPiRNS_14LabelAttributeE
00000024 T _ZN7TWDFile10ParseLabelEPhiRNS_14LabelAttributeE
         U _Z10DataLengthiPi
         U _ZN7TWDFile10BranchFontEiPiRNS_13FontAttributeE
         U _ZN7TWDFile13BranchRealObjEiPiRNS_16RealObjAttributeE
00000000 T _ZN7TWDFile11ControlInfoC1Ev
         U _ZN7TStringC1Ev
         U free
         U __diab_Unwind_Resume
         U __diab_personality_v0
00000000 T _ZN7TWDFile11ControlInfoD1Ev
00000104 T _ZN7TWDFile18CreateLabelFromAttERKNS_10TwdSegmentE
         U _ZN7TWDFile14LabelAttributeC1Ev
         U _ZN7TStringC1EPKci
         U _ZN7TStringaSERKS_
         U _Znwj
         U _ZN6TLabelC1EiiiiRK8TWString
         U _ZNK6TLabel11GetPropertyEv
         U _ZN7TWDFile21ApplyRealObjAttributeER8TControlRKNS_16RealObjAttributeE
         U _ZN7TWDFile18ApplyTextAttributeER12TextPropertyRKNS_13FontAttributeE
         U _ZN6TLabel11SetPropertyERKNS_8PropertyE
         U strlen
         U _Z12UCS2FromUTF8PKciR8TWString
         U _ZN5TNode18OnChildBoundChangeEP8TControl
         U _ZN5TNode8OnResizeEv
         U _ZN5TNode6UpdateEv
         U _ZN7TWDFile14AddControlInfoERKNS_11ControlInfoE
         U _ZN6TLabel8PropertyD1Ev
         U _ZTVN10__cxxabiv117__class_type_infoE

tgsMultiStateButton.o:
         U _ZTVSt9exception
         U _ZTVSt13bad_exception
         U _ZTVSt9bad_alloc
00000000 V _ZTV10TException
         U _ZTV17TChildrenDelegate
         U _ZTV6TImage
00000000 V _ZTV17TMultiStateButton
         U _ZTV14TEventDelegate
         U _ZTV6TArrayIP5TNodeE
00000000 V _ZTVN7_TEventI10EventParamE15THandlerAdaptorE
         U _ZTV6TArrayI9ColorStopE
00000000 V _ZTV6TArrayIN17TMultiStateButton5StateEE
00000000 V _ZTVN7_TEventI10EventParamE17MemberFuncHandlerI17TMultiStateButtonEE
00000000 V _ZTI10TException
         U _ZTI14TEventDelegate
         U _ZTI17TChildrenDelegate
         U _ZTI6TArrayIP5TNodeE
00000000 V _ZTIN7_TEventI10EventParamE15THandlerAdaptorE
00000000 V _ZTIN7_TEventI10EventParamE17MemberFuncHandlerI17TMultiStateButtonEE
         U _ZTI6TImage
         U _ZTI6TArrayI9ColorStopE
00000000 V _ZTI6TArrayIN17TMultiStateButton5StateEE
00000000 V _ZTI17TMultiStateButton
         U _ZTISt9exception
         U _ZTISt13bad_exception
         U _ZTISt9bad_alloc
00000000 V _ZTS10TException
         U _ZTS14TEventDelegate
         U _ZTS17TChildrenDelegate
         U _ZTS6TArrayIP5TNodeE
00000000 V _ZTSN7_TEventI10EventParamE15THandlerAdaptorE
00000000 V _ZTSN7_TEventI10EventParamE17MemberFuncHandlerI17TMultiStateButtonEE
         U _ZTS6TImage
         U _ZTS6TArrayI9ColorStopE
00000000 V _ZTS6TArrayIN17TMultiStateButton5StateEE
00000000 V _ZTS17TMultiStateButton
         U _ZTSSt9exception
         U _ZTSSt13bad_exception
         U _ZTSSt9bad_alloc
00000000 T _ZN10TExceptionD1Ev
00000000 T _ZN10TExceptionD0Ev
         U _ZdlPv
00000000 T _ZN6TColorC1Ej
00000000 T _ZN6TColorC1ERKS_
00000000 T _ZN8TWStringaSERKS_
         U __frameinfo_used
         U _Znaj
         U memcpy
         U _ZdaPv
00000000 T _ZNK6_TRectIiE6AdjustERK8_TMarginIiE
00000000 T _ZNK6_TRectIiEmiERK7_TPointIiE
00000000 T _ZN7_TEventI10EventParamE10SetHandlerI17TMultiStateButtonEEvPT_NS1_17MemberFuncHandlerIS4_E8FuncTypeE
         U _Znwj
         U __diab_Unwind_Resume
         U __diab_personality_v0
00000000 T _ZN7_TEventI10EventParamE15THandlerAdaptorD1Ev
00000000 T _ZN7_TEventI10EventParamE15THandlerAdaptorD0Ev
00000000 T _ZN7_TEventI10EventParamE17MemberFuncHandlerI17TMultiStateButtonED1Ev
00000000 T _ZN7_TEventI10EventParamE17MemberFuncHandlerI17TMultiStateButtonED0Ev
00000000 T _ZNK7_TEventI10EventParamE17MemberFuncHandlerI17TMultiStateButtonE6InvokeERS0_
00000000 T _ZN7_TEventI10EventParamE17MemberFuncHandlerI17TMultiStateButtonE3dupEv
00000000 T _ZN13TCustomVisualaSERKS_
         U _ZN11TCustomFillaSERKS_
00000000 T _ZN12TextPropertyC1ERKS_
         U _ZTV5TFont
00000000 T _ZN12TextPropertyaSERKS_
         U _ZN5TFontaSERKS_
00000000 T _ZN8_TMarginIiEC1ERKS0_
00000000 T _ZN6TArrayIN17TMultiStateButton5StateEE13RoundCapacityEi
00000000 T _ZN6TArrayIN17TMultiStateButton5StateEE8ExpandAtEii
00000000 T _ZN17TMultiStateButton5StateD1Ev
         U __cxa_vec_new2
00000000 T _ZN17TMultiStateButton5StateC1Ev
         U __cxa_allocate_exception
         U __cxa_throw
         U __cxa_vec_delete
00000000 T _ZN6TArrayIN17TMultiStateButton5StateEEC1Ei
00000000 T _ZN6TArrayIN17TMultiStateButton5StateEED1Ev
00000000 T _ZN6TArrayIN17TMultiStateButton5StateEED0Ev
00000000 T _ZNK6TArrayIN17TMultiStateButton5StateEEixEi
00000000 T _ZN17TMultiStateButton11SetPropertyERKNS_8PropertyE
         U _ZN5TNode18OnChildBoundChangeEP8TControl
         U _ZN5TNode8OnResizeEv
         U _ZN5TNode6UpdateEv
000000d0 T _ZN17TMultiStateButton8PropertyC1Ev
         U _ZN15ControlPropertyC2E11ControlType
         U _ZN5TFontC1Ev
         U _ZN15ControlPropertyD2Ev
00000180 T _ZN17TMultiStateButton8PropertyD1Ev
         U _ZN5TFontD1Ev
00000000 T _ZN17TMultiStateButton8PropertyC1ERKS0_
000001e0 T _ZN17TMultiStateButtonC1Eiiiii
         U _ZN8TControlC2EiiiiR5TNode
         U _ZTV18TNodeEventDelegate
         U _ZN5TNodeC1EiiiiP14TEventDelegateP17TChildrenDelegate
         U _ZN12TApplication8InstanceEv
         U _ZNK12TApplication11GetPropertyE11ControlType
         U _ZN5TNodeD1Ev
         U _ZN8TControlD2Ev
00000428 T _ZN17TMultiStateButtonC2Eiiiii
00000450 T _ZN17TMultiStateButtonD1Ev
0000058c T _ZN17TMultiStateButtonD0Ev
000005b8 T _ZN17TMultiStateButtonD2Ev
000005d8 T _ZNK17TMultiStateButton11GetPropertyEv
0000067c T _ZN17TMultiStateButton11ChangeStateEi
00000728 T _ZN17TMultiStateButton8SetStateEi
000007a4 T _ZNK17TMultiStateButton8GetStateEv
000007ac T _ZN17TMultiStateButton12SetStateTextEiRK8TWString
000007f8 T _ZNK17TMultiStateButton12GetStateTextEi
0000081c T _ZN17TMultiStateButton14SetStateVisualEiRK13TCustomVisual
0000086c T _ZNK17TMultiStateButton14GetStateVisualEi
00000894 T _ZN17TMultiStateButton12PaintHandlerER10EventParam
         U _ZNK7TVisual4DrawER8TPainterRK11VisualStateRK6_TRectIiE
         U _ZN8TPainter11SetClipRectERK6_TRectIiE
         U _ZN8TPainter12SetTextColorERK6TColor
         U _ZN8TPainter7SetFontERK5TFont
         U _ZN8TPainter11DrawUCSTextERK8TWStringRK6_TRectIiE23TextHorizontalAlignment21TextVerticalAlignment
         U _ZN8TPainter13ClearClipRectEv
000009c4 T _ZN17TMultiStateButton9StepStateEv
         U __rem32
00000a00 T _ZN17TMultiStateButton12MouseHandlerER10EventParam
         U _ZN5TNode9SetActiveEi
00000a94 T _ZN17TMultiStateButton11NodeHandlerER10EventParam
00000adc T _ZN17TMultiStateButton8PropertyC2Ev
00000afc T _ZN17TMultiStateButton8PropertyD2Ev
         U _ZN7TVisualC1E9FrameType
         U _ZN7TVisualD1Ev
         U __cxa_pure_virtual
         U _ZTVN10__cxxabiv117__class_type_infoE
         U _ZTVN10__cxxabiv120__si_class_type_infoE
         U _ZTI8TControl

tgsPushButtonNode.o:
         U _ZTVSt9exception
         U _ZTVSt13bad_exception
         U _ZTVSt9bad_alloc
         U _ZTV10TException
         U _ZTV17TChildrenDelegate
         U _ZTV6TImage
00000000 V _ZTV15TPushButtonNode
         U _ZTV14TEventDelegate
         U _ZTV6TArrayIP5TNodeE
00000000 V _ZTVN7_TEventI10EventParamE15THandlerAdaptorE
         U _ZTV6TArrayI9ColorStopE
00000000 V _ZTVN7_TEventI10EventParamE17MemberFuncHandlerI15TPushButtonNodeEE
         U _ZTI10TException
         U _ZTI14TEventDelegate
         U _ZTI17TChildrenDelegate
         U _ZTI6TArrayIP5TNodeE
00000000 V _ZTIN7_TEventI10EventParamE15THandlerAdaptorE
00000000 V _ZTIN7_TEventI10EventParamE17MemberFuncHandlerI15TPushButtonNodeEE
         U _ZTI6TImage
         U _ZTI6TArrayI9ColorStopE
00000000 V _ZTI15TPushButtonNode
         U _ZTISt9exception
         U _ZTISt13bad_exception
         U _ZTISt9bad_alloc
         U _ZTS10TException
         U _ZTS14TEventDelegate
         U _ZTS17TChildrenDelegate
         U _ZTS6TArrayIP5TNodeE
00000000 V _ZTSN7_TEventI10EventParamE15THandlerAdaptorE
00000000 V _ZTSN7_TEventI10EventParamE17MemberFuncHandlerI15TPushButtonNodeEE
         U _ZTS6TImage
         U _ZTS6TArrayI9ColorStopE
00000000 V _ZTS15TPushButtonNode
         U _ZTSSt9exception
         U _ZTSSt13bad_exception
         U _ZTSSt9bad_alloc
00000000 T _ZNK6_TRectIiE6AdjustERK8_TMarginIiE
00000000 T _ZNK6_TRectIiEmiERK7_TPointIiE
00000000 T _ZNK6_TRectIiE8ContainsERK7_TPointIiE
00000000 T _ZN7_TEventI10EventParamE10SetHandlerI15TPushButtonNodeEEvPT_NS1_17MemberFuncHandlerIS4_E8FuncTypeE
         U __frameinfo_used
         U _Znwj
         U __diab_Unwind_Resume
         U __diab_personality_v0
00000000 T _ZN7_TEventI10EventParamE15THandlerAdaptorD1Ev
00000000 T _ZN7_TEventI10EventParamE15THandlerAdaptorD0Ev
         U _ZdlPv
00000000 T _ZN7_TEventI10EventParamE17MemberFuncHandlerI15TPushButtonNodeED1Ev
00000000 T _ZN7_TEventI10EventParamE17MemberFuncHandlerI15TPushButtonNodeED0Ev
00000000 T _ZNK7_TEventI10EventParamE17MemberFuncHandlerI15TPushButtonNodeE6InvokeERS0_
00000000 T _ZN7_TEventI10EventParamE17MemberFuncHandlerI15TPushButtonNodeE3dupEv
00000000 T _ZN6TTimerC1Ev
00000000 T _ZN15TPushButtonNodeC1EiiiiR7TVisualR12TextProperty
         U _ZN5TNodeC2EiiiiP14TEventDelegateP17TChildrenDelegate
         U _ZTV18TNodeEventDelegate
         U _Znaj
         U _ZN5TNode18SetVisualStateMaskEiiii
         U _ZdaPv
         U _ZN5TNodeD2Ev
000001cc T _ZN15TPushButtonNodeC2EiiiiR7TVisualR12TextProperty
00000204 T _ZN15TPushButtonNodeD1Ev
00000338 T _ZN15TPushButtonNodeD0Ev
00000364 T _ZN15TPushButtonNodeD2Ev
00000384 T _ZN15TPushButtonNode5ClickEv
000003cc T _ZN15TPushButtonNode7OnPaintERN5TNode15PaintEventParamE
         U _ZNK7TVisual4DrawER8TPainterRK11VisualStateRK6_TRectIiE
         U _ZN8TPainter11SetClipRectERK6_TRectIiE
         U _ZN8TPainter12SetTextColorERK6TColor
         U _ZN8TPainter7SetFontERK5TFont
         U _ZN8TPainter11DrawUCSTextERK8TWStringRK6_TRectIiE23TextHorizontalAlignment21TextVerticalAlignment
         U _ZN8TPainter13ClearClipRectEv
000004d8 T _ZN15TPushButtonNode7OnMouseERN5TNode15MouseEventParamE
         U _ZN5TNode9SetActiveEi
         U _ZN6TTimer5StartEv
         U _ZN6TTimer4StopEv
         U _ZN6TTimer6ResumeEv
         U _ZN6TTimer5PauseEv
000006cc T _ZN15TPushButtonNode11NodeHandlerER10EventParam
0000073c T _ZN15TPushButtonNode18RepeatTimerHandlerER10EventParam
00000798 T _ZN15TPushButtonNode8OnDetachER10EventParam
         U __cxa_pure_virtual
         U _ZTVN10__cxxabiv117__class_type_infoE
         U _ZTVN10__cxxabiv120__si_class_type_infoE
         U _ZTI5TNode

tgsPushButton.o:
         U _ZTVSt9exception
         U _ZTVSt13bad_exception
         U _ZTVSt9bad_alloc
         U _ZTV10TException
         U _ZTV17TChildrenDelegate
         U _ZTV6TImage
00000000 V _ZTV11TPushButton
         U _ZTV6TArrayIP5TNodeE
00000000 V _ZTVN7_TEventI10EventParamE15THandlerAdaptorE
         U _ZTV6TArrayI9ColorStopE
00000000 V _ZTVN7_TEventI10EventParamE17MemberFuncHandlerI11TPushButtonEE
         U _ZTI10TException
         U _ZTI17TChildrenDelegate
         U _ZTI6TArrayIP5TNodeE
00000000 V _ZTIN7_TEventI10EventParamE15THandlerAdaptorE
00000000 V _ZTIN7_TEventI10EventParamE17MemberFuncHandlerI11TPushButtonEE
         U _ZTI6TImage
         U _ZTI6TArrayI9ColorStopE
00000000 V _ZTI11TPushButton
         U _ZTISt9exception
         U _ZTISt13bad_exception
         U _ZTISt9bad_alloc
         U _ZTS10TException
         U _ZTS17TChildrenDelegate
         U _ZTS6TArrayIP5TNodeE
00000000 V _ZTSN7_TEventI10EventParamE15THandlerAdaptorE
00000000 V _ZTSN7_TEventI10EventParamE17MemberFuncHandlerI11TPushButtonEE
         U _ZTS6TImage
         U _ZTS6TArrayI9ColorStopE
00000000 V _ZTS11TPushButton
         U _ZTSSt9exception
         U _ZTSSt13bad_exception
         U _ZTSSt9bad_alloc
00000000 T _ZN6TColorC1Ej
00000000 T _ZN6TColorC1ERKS_
00000000 T _ZNK6TColorneERKS_
00000000 T _ZN7_TEventI10EventParamE10SetHandlerI11TPushButtonEEvPT_NS1_17MemberFuncHandlerIS4_E8FuncTypeE
         U __frameinfo_used
         U _Znwj
         U __diab_Unwind_Resume
         U __diab_personality_v0
00000000 T _ZN7_TEventI10EventParamE15THandlerAdaptorD1Ev
00000000 T _ZN7_TEventI10EventParamE15THandlerAdaptorD0Ev
         U _ZdlPv
00000000 T _ZN7_TEventI10EventParamE17MemberFuncHandlerI11TPushButtonED1Ev
00000000 T _ZN7_TEventI10EventParamE17MemberFuncHandlerI11TPushButtonED0Ev
00000000 T _ZNK7_TEventI10EventParamE17MemberFuncHandlerI11TPushButtonE6InvokeERS0_
00000000 T _ZN7_TEventI10EventParamE17MemberFuncHandlerI11TPushButtonE3dupEv
00000000 T _ZN13TCustomVisualC1Ev
         U _ZN11TCustomFillC1Ev
         U _ZN11TCustomFillD1Ev
00000000 T _ZN13TCustomVisualC1ERKS_
         U _ZN11TCustomFillC1ERKS_
00000000 T _ZN13TCustomVisualD1Ev
00000000 T _ZN13TCustomVisualaSERKS_
         U _ZN11TCustomFillaSERKS_
00000000 T _ZNK12TextPropertyneERKS_
         U _ZNK5TFontneERKS_
00000000 T _ZN12TextPropertyC1ERKS_
         U _ZTV5TFont
00000000 T _ZN12TextPropertyaSERKS_
         U _ZN5TFontaSERKS_
00000000 T _ZN8_TMarginIiEC1ERKS0_
00000000 T _ZNK8_TMarginIiEneERKS0_
00000000 T _ZN15TPushButtonNode11SetShowTextEi
         U _ZN5TNode6UpdateEv
00000000 T _ZN11TPushButton11SetPropertyERKNS_8PropertyE
         U _ZN5TNode8OnResizeEv
         U _ZN5TNode18OnChildBoundChangeEP8TControl
00000178 T _ZN11TPushButton8PropertyC1Ev
         U _ZN15ControlPropertyC2E11ControlType
         U _ZN5TFontC1Ev
         U _ZN5TFontD1Ev
         U _ZN15ControlPropertyD2Ev
00000270 T _ZN11TPushButton8PropertyD1Ev
00000000 T _ZN11TPushButton8PropertyC1ERKS0_
000002f8 T _ZN11TPushButtonC1Eiiii
         U _ZN8TControlC2EiiiiR5TNode
         U _ZN7TVisualC1E9FrameType
         U _ZN15TPushButtonNodeC1EiiiiR7TVisualR12TextProperty
         U _ZN12TApplication8InstanceEv
         U _ZNK12TApplication11GetPropertyE11ControlType
         U _ZN15TPushButtonNodeD1Ev
         U _ZN7TVisualD1Ev
         U _ZN8TControlD2Ev
00000504 T _ZN11TPushButtonC2Eiiii
0000052c T _ZN11TPushButtonD1Ev
00000608 T _ZN11TPushButtonD0Ev
00000634 T _ZN11TPushButtonD2Ev
00000654 T _ZN11TPushButton5ClickEv
0000069c T _ZNK11TPushButton11GetPropertyEv
0000077c T _ZN11TPushButton16NodeClickHandlerER10EventParam
000007cc T _ZN11TPushButton8PropertyC2Ev
000007ec T _ZN11TPushButton8PropertyD2Ev
         U __cxa_pure_virtual
         U _ZTVN10__cxxabiv117__class_type_infoE
         U _ZTVN10__cxxabiv120__si_class_type_infoE
         U _ZTI8TControl

tgsToggleButton.o:
         U _ZTVSt9exception
         U _ZTVSt13bad_exception
         U _ZTVSt9bad_alloc
         U _ZTV10TException
         U _ZTV17TChildrenDelegate
         U _ZTV6TImage
00000000 V _ZTV13TToggleButton
         U _ZTV14TEventDelegate
         U _ZTV6TArrayIP5TNodeE
00000000 V _ZTVN7_TEventI10EventParamE15THandlerAdaptorE
         U _ZTV6TArrayI9ColorStopE
00000000 V _ZTVN7_TEventI10EventParamE17MemberFuncHandlerI13TToggleButtonEE
         U _ZTI10TException
         U _ZTI14TEventDelegate
         U _ZTI17TChildrenDelegate
         U _ZTI6TArrayIP5TNodeE
00000000 V _ZTIN7_TEventI10EventParamE15THandlerAdaptorE
00000000 V _ZTIN7_TEventI10EventParamE17MemberFuncHandlerI13TToggleButtonEE
         U _ZTI6TImage
         U _ZTI6TArrayI9ColorStopE
00000000 V _ZTI13TToggleButton
         U _ZTISt9exception
         U _ZTISt13bad_exception
         U _ZTISt9bad_alloc
         U _ZTS10TException
         U _ZTS14TEventDelegate
         U _ZTS17TChildrenDelegate
         U _ZTS6TArrayIP5TNodeE
00000000 V _ZTSN7_TEventI10EventParamE15THandlerAdaptorE
00000000 V _ZTSN7_TEventI10EventParamE17MemberFuncHandlerI13TToggleButtonEE
         U _ZTS6TImage
         U _ZTS6TArrayI9ColorStopE
00000000 V _ZTS13TToggleButton
         U _ZTSSt9exception
         U _ZTSSt13bad_exception
         U _ZTSSt9bad_alloc
00000000 T _ZN6TColorC1Ej
00000000 T _ZN6TColorC1ERKS_
00000000 T _ZNK6_TRectIiE6AdjustERK8_TMarginIiE
00000000 T _ZNK6_TRectIiEmiERK7_TPointIiE
00000000 T _ZNK6_TRectIiE8ContainsERK7_TPointIiE
00000000 T _ZN7_TEventI10EventParamE10SetHandlerI13TToggleButtonEEvPT_NS1_17MemberFuncHandlerIS4_E8FuncTypeE
         U __frameinfo_used
         U _Znwj
         U __diab_Unwind_Resume
         U __diab_personality_v0
00000000 T _ZN7_TEventI10EventParamE15THandlerAdaptorD1Ev
00000000 T _ZN7_TEventI10EventParamE15THandlerAdaptorD0Ev
         U _ZdlPv
00000000 T _ZN7_TEventI10EventParamE17MemberFuncHandlerI13TToggleButtonED1Ev
00000000 T _ZN7_TEventI10EventParamE17MemberFuncHandlerI13TToggleButtonED0Ev
00000000 T _ZNK7_TEventI10EventParamE17MemberFuncHandlerI13TToggleButtonE6InvokeERS0_
00000000 T _ZN7_TEventI10EventParamE17MemberFuncHandlerI13TToggleButtonE3dupEv
00000000 T _ZN13TCustomVisualC1Ev
         U _ZN11TCustomFillC1Ev
         U _ZN11TCustomFillD1Ev
00000000 T _ZN13TCustomVisualC1ERKS_
         U _ZN11TCustomFillC1ERKS_
00000000 T _ZN13TCustomVisualD1Ev
00000000 T _ZN13TCustomVisualaSERKS_
         U _ZN11TCustomFillaSERKS_
00000000 T _ZN12TextPropertyC1ERKS_
         U _ZTV5TFont
00000000 T _ZN12TextPropertyaSERKS_
         U _ZN5TFontaSERKS_
00000000 T _ZN8_TMarginIiEC1ERKS0_
00000000 T _ZN13TToggleButton11SetPropertyERKNS_8PropertyE
         U _ZN5TNode18OnChildBoundChangeEP8TControl
         U _ZN5TNode8OnResizeEv
         U _ZN5TNode6UpdateEv
000000d0 T _ZN13TToggleButton8PropertyC1Ev
         U _ZN15ControlPropertyC2E11ControlType
         U _ZN5TFontC1Ev
         U _ZN5TFontD1Ev
         U _ZN15ControlPropertyD2Ev
000001f8 T _ZN13TToggleButton8PropertyD1Ev
00000000 T _ZN13TToggleButton8PropertyC1ERKS0_
000002d0 T _ZN13TToggleButtonC1Eiiii
         U _ZN8TControlC2EiiiiR5TNode
         U _ZTV18TNodeEventDelegate
         U _ZN5TNodeC1EiiiiP14TEventDelegateP17TChildrenDelegate
         U _Znaj
         U _ZN7TVisualC1E9FrameType
         U _ZN5TNode18SetVisualStateMaskEiiii
         U _ZN12TApplication8InstanceEv
         U _ZNK12TApplication11GetPropertyE11ControlType
         U _ZN7TVisualD1Ev
         U _ZdaPv
         U _ZN5TNodeD1Ev
         U _ZN8TControlD2Ev
00000604 T _ZN13TToggleButtonC2Eiiii
0000062c T _ZN13TToggleButtonD1Ev
000007c0 T _ZN13TToggleButtonD0Ev
000007ec T _ZN13TToggleButtonD2Ev
0000080c T _ZNK13TToggleButton11GetPropertyEv
000008c4 T _ZN13TToggleButton13ChangeToggledEi
00000928 T _ZN13TToggleButton7OnMouseERN5TNode15MouseEventParamE
         U _ZN5TNode9SetActiveEi
00000a68 T _ZN13TToggleButton7OnPaintERN5TNode15PaintEventParamE
         U _ZNK7TVisual4DrawER8TPainterRK11VisualStateRK6_TRectIiE
         U _ZN8TPainter11SetClipRectERK6_TRectIiE
         U _ZN8TPainter12SetTextColorERK6TColor
         U _ZN8TPainter7SetFontERK5TFont
         U _ZN8TPainter11DrawUCSTextERK8TWStringRK6_TRectIiE23TextHorizontalAlignment21TextVerticalAlignment
         U _ZN8TPainter13ClearClipRectEv
00000c2c T _ZN13TToggleButton11NodeHandlerER10EventParam
00000c74 T _ZN13TToggleButton8PropertyC2Ev
00000c94 T _ZN13TToggleButton8PropertyD2Ev
         U __cxa_pure_virtual
         U _ZTVN10__cxxabiv117__class_type_infoE
         U _ZTVN10__cxxabiv120__si_class_type_infoE
         U _ZTI8TControl

tgsLineChart.o:
00000008 d FLOAT_TEMP.2053
0000000c d FLOAT_TEMP.2054
         U _ZTVSt9exception
         U _ZTVSt13bad_exception
         U _ZTVSt9bad_alloc
00000000 V _ZTV10TException
         U _ZTV17TChildrenDelegate
         U _ZTV6TImage
00000000 V _ZTV10TChartBody
00000000 V _ZTV10TLineChart
         U _ZTV14TEventDelegate
         U _ZTV6TArrayIP5TNodeE
00000000 V _ZTVN7_TEventI10EventParamE15THandlerAdaptorE
         U _ZTV6TArrayI9ColorStopE
00000000 V _ZTV6TArrayI8TWStringE
00000000 V _ZTV6TArrayIN10TLineChart11ChannelInfoEE
00000000 V _ZTVN7_TEventI10EventParamE17MemberFuncHandlerI10TLineChartEE
00000000 V _ZTI10TException
         U _ZTI14TEventDelegate
         U _ZTI17TChildrenDelegate
         U _ZTI6TArrayIP5TNodeE
00000000 V _ZTIN7_TEventI10EventParamE15THandlerAdaptorE
00000000 V _ZTIN7_TEventI10EventParamE17MemberFuncHandlerI10TLineChartEE
         U _ZTI6TImage
         U _ZTI6TArrayI9ColorStopE
00000000 V _ZTI6TArrayI8TWStringE
00000000 V _ZTI10TChartBody
00000000 V _ZTI6TArrayIN10TLineChart11ChannelInfoEE
00000000 V _ZTI10TLineChart
         U _ZTISt9exception
         U _ZTISt13bad_exception
         U _ZTISt9bad_alloc
00000000 V _ZTS10TException
         U _ZTS14TEventDelegate
         U _ZTS17TChildrenDelegate
         U _ZTS6TArrayIP5TNodeE
00000000 V _ZTSN7_TEventI10EventParamE15THandlerAdaptorE
00000000 V _ZTSN7_TEventI10EventParamE17MemberFuncHandlerI10TLineChartEE
         U _ZTS6TImage
         U _ZTS6TArrayI9ColorStopE
00000000 V _ZTS6TArrayI8TWStringE
00000000 V _ZTS10TChartBody
00000000 V _ZTS6TArrayIN10TLineChart11ChannelInfoEE
00000000 V _ZTS10TLineChart
         U _ZTSSt9exception
         U _ZTSSt13bad_exception
         U _ZTSSt9bad_alloc
00000000 T _ZN10TExceptionD1Ev
00000000 T _ZN10TExceptionD0Ev
         U _ZdlPv
00000000 T _ZN6TColorC1Ej
00000000 T _ZN6TColorC1ERKS_
00000000 T _ZNK6TColoreqERKS_
00000000 T _ZN8TWStringD1Ev
         U _ZdaPv
00000000 T _ZN6_TRectIiEC1ERKS0_
00000000 T _ZNK6_TRectIiE6AdjustERK8_TMarginIiE
00000000 T _ZNK6_TRectIiEmiERK7_TPointIiE
00000000 T _ZN7_TEventI10EventParamE10SetHandlerI10TLineChartEEvPT_NS1_17MemberFuncHandlerIS4_E8FuncTypeE
         U __frameinfo_used
         U _Znwj
         U __diab_Unwind_Resume
         U __diab_personality_v0
00000000 T _ZN7_TEventI10EventParamE15THandlerAdaptorD1Ev
00000000 T _ZN7_TEventI10EventParamE15THandlerAdaptorD0Ev
00000000 T _ZN7_TEventI10EventParamE17MemberFuncHandlerI10TLineChartED1Ev
00000000 T _ZN7_TEventI10EventParamE17MemberFuncHandlerI10TLineChartED0Ev
00000000 T _ZNK7_TEventI10EventParamE17MemberFuncHandlerI10TLineChartE6InvokeERS0_
00000000 T _ZN7_TEventI10EventParamE17MemberFuncHandlerI10TLineChartE3dupEv
00000000 T _ZN8TPainter8DrawLineEiiii
         U _ZN8TPainter8DrawLineERK7_TPointIiES3_
00000000 T _ZN6TArrayI8TWStringED1Ev
         U __cxa_vec_delete
00000000 T _ZN6TArrayI8TWStringED0Ev
00000000 T _ZN10TChartBody8BodyInfoC1Ev
         U _ZN6TScale9ScaleInfoC1Ev
         U _ZN5TFontD1Ev
00000000 T _ZN10TChartBodyC1Ev
00000074 T _ZN10TChartBodyC2Ev
00000000 T _ZN10TChartBody8BodyInfoD1Ev
00000094 T _ZN10TChartBodyD1Ev
00000128 T _ZN10TChartBodyD0Ev
00000154 T _ZN10TChartBodyD2Ev
00000174 T _ZN10TChartBody14DrawXMajorLineER8TPainterRK6_TRectIiERKNS_8BodyInfoE
         U _ZN8TPainter6SetPenERK4TPen
00000248 T _ZN10TChartBody14DrawXMinorLineER8TPainterRK6_TRectIiERKNS_8BodyInfoE
00000348 T _ZN10TChartBody14DrawYMajorLineER8TPainterRK6_TRectIiERKNS_8BodyInfoE
         U __div32
000003fc T _ZN10TChartBody14DrawYMinorLineER8TPainterRK6_TRectIiERKNS_8BodyInfoE
0000054c T _ZN10TChartBody10DrawXScaleER8TPainterRK6_TRectIiERKNS_8BodyInfoERK6TArrayI8TWStringE
         U _ZN6TScale10DrawXScaleER8TPainteriiiRKNS_9ScaleInfoERK6TArrayI8TWStringE
00000588 T _ZN10TChartBody10DrawYScaleER8TPainterRK6_TRectIiERKNS_8BodyInfoERK6TArrayI8TWStringE
         U _ZN6TScale10DrawYScaleER8TPainteriiiRKNS_9ScaleInfoERK6TArrayI8TWStringE
000005c4 T _ZN10TChartBody15GenerateXLabelsERK8_TLinearIfERKNS_8BodyInfoER6TArrayI8TWStringE
         U _ZN6TScale14GenerateLabelsERK8_TLinearIfERKNS_9ScaleInfoER6TArrayI8TWStringE
000005e8 T _ZN10TChartBody15GenerateYLabelsERK8_TLinearIfERKNS_8BodyInfoER6TArrayI8TWStringE
00000000 T _ZNK10TChartBody16GetCurveAreaRectERK6_TRectIiE
0000060c T _ZN10TChartBody8DrawBodyER8TPainterRK6_TRectIiE
         U _ZN8TPainter11SetClipRectERK6_TRectIiE
         U _ZN8TPainter13ClearClipRectEv
00000000 T _ZN6TArrayIN10TLineChart11ChannelInfoEE13RoundCapacityEi
00000000 T _ZN10TLineChart11ChannelInfoaSERKS0_
         U _ZN12TPixelBufferaSERKS_
00000000 T _ZN6TArrayIN10TLineChart11ChannelInfoEE8ExpandAtEii
         U _Znaj
00000000 T _ZN10TLineChart11ChannelInfoD1Ev
         U __cxa_vec_new2
00000000 T _ZN10TLineChart11ChannelInfoC1Ev
         U __cxa_allocate_exception
         U __cxa_throw
00000000 T _ZN6TArrayIN10TLineChart11ChannelInfoEEC1Ei
00000000 T _ZN6TArrayIN10TLineChart11ChannelInfoEED1Ev
00000000 T _ZN6TArrayIN10TLineChart11ChannelInfoEED0Ev
00000000 T _ZNK6TArrayIN10TLineChart11ChannelInfoEEixEi
00000000 T _ZN10TLineChart10ScrollData6ResizeEj
00000000 T _ZN10TLineChart9SweepData6ResizeEj
0000070c T _ZN10TLineChart11SetDataSizeEj
0000078c T _ZN10TLineChartC1Eiiiijj
         U _ZN8TControlC2EiiiiR5TNode
         U _ZTV18TNodeEventDelegate
         U _ZN5TNodeC1EiiiiP14TEventDelegateP17TChildrenDelegate
         U _ZN5TNode6UpdateEv
         U _ZN5TNodeD1Ev
         U _ZN8TControlD2Ev
0000094c T _ZN10TLineChartC2Eiiiijj
00000984 T _ZN10TLineChartD1Ev
00000aa0 T _ZN10TLineChartD0Ev
00000acc T _ZN10TLineChartD2Ev
00000aec T _ZN10TLineChart17SetChannelVisibleEii
00000b60 T _ZN10TLineChart19SetChannelAmplifierEif
00000bd8 T _ZN10TLineChart16SetChannelOffsetEif
00000c50 T _ZN10TLineChart13SetChannelPenEiRK4TPen
00000cf4 T _ZN10TLineChart15SetChannelBrushEiRK6TBrush
00000d88 T _ZN10TLineChart19DrawScrollLineChartER8TPainterRK6_TRectIiERK8_TLinearIfERKNS_11ChannelInfoE
         U __udiv32
         U __urem32
00001074 T _ZN10TLineChart18DrawSweepLineChartER8TPainterRK6_TRectIiERK8_TLinearIfERKNS_11ChannelInfoE
000014bc T _ZN10TLineChart7OnPaintERN5TNode15PaintEventParamE
         U _ZNK7TVisual4DrawER8TPainterRK11VisualStateRK6_TRectIiE
000016bc T _ZN10TLineChart11NodeHandlerER10EventParam
         U _ZN12TPixelBufferC1Ev
         U _ZN12TPixelBufferD1Ev
         U __cxa_pure_virtual
         U _ZTVN10__cxxabiv117__class_type_infoE
         U _ZTVN10__cxxabiv120__si_class_type_infoE
         U _ZTI8TControl

tgsCheckBox.o:
         U _ZTVSt9exception
         U _ZTVSt13bad_exception
         U _ZTVSt9bad_alloc
         U _ZTV10TException
         U _ZTV17TChildrenDelegate
         U _ZTV6TImage
00000000 V _ZTV9TCheckBox
         U _ZTV14TEventDelegate
         U _ZTV6TArrayIP5TNodeE
00000000 V _ZTVN7_TEventI10EventParamE15THandlerAdaptorE
         U _ZTV6TArrayI9ColorStopE
00000000 V _ZTVN7_TEventI10EventParamE17MemberFuncHandlerI9TCheckBoxEE
         U _ZTI10TException
         U _ZTI14TEventDelegate
         U _ZTI17TChildrenDelegate
         U _ZTI6TArrayIP5TNodeE
00000000 V _ZTIN7_TEventI10EventParamE15THandlerAdaptorE
00000000 V _ZTIN7_TEventI10EventParamE17MemberFuncHandlerI9TCheckBoxEE
         U _ZTI6TImage
         U _ZTI6TArrayI9ColorStopE
00000000 V _ZTI9TCheckBox
         U _ZTISt9exception
         U _ZTISt13bad_exception
         U _ZTISt9bad_alloc
         U _ZTS10TException
         U _ZTS14TEventDelegate
         U _ZTS17TChildrenDelegate
         U _ZTS6TArrayIP5TNodeE
00000000 V _ZTSN7_TEventI10EventParamE15THandlerAdaptorE
00000000 V _ZTSN7_TEventI10EventParamE17MemberFuncHandlerI9TCheckBoxEE
         U _ZTS6TImage
         U _ZTS6TArrayI9ColorStopE
00000000 V _ZTS9TCheckBox
         U _ZTSSt9exception
         U _ZTSSt13bad_exception
         U _ZTSSt9bad_alloc
00000000 T _ZN6TColorC1Ej
00000000 T _ZN6TColorC1ERKS_
00000000 T _ZN8TWStringC1ERKS_
         U __frameinfo_used
         U _Znaj
         U memcpy
00000000 T _ZN6_TRectIiEC1ERKS0_
00000000 T _ZNK6_TRectIiE6AdjustERK8_TMarginIiE
00000000 T _ZNK6_TRectIiEmiERK7_TPointIiE
00000000 T _ZNK6_TRectIiE8ContainsERK7_TPointIiE
00000000 T _ZN7_TEventI10EventParamE10SetHandlerI9TCheckBoxEEvPT_NS1_17MemberFuncHandlerIS4_E8FuncTypeE
         U _Znwj
         U __diab_Unwind_Resume
         U __diab_personality_v0
00000000 T _ZN7_TEventI10EventParamE15THandlerAdaptorD1Ev
00000000 T _ZN7_TEventI10EventParamE15THandlerAdaptorD0Ev
         U _ZdlPv
00000000 T _ZN7_TEventI10EventParamE17MemberFuncHandlerI9TCheckBoxED1Ev
00000000 T _ZN7_TEventI10EventParamE17MemberFuncHandlerI9TCheckBoxED0Ev
00000000 T _ZNK7_TEventI10EventParamE17MemberFuncHandlerI9TCheckBoxE6InvokeERS0_
00000000 T _ZN7_TEventI10EventParamE17MemberFuncHandlerI9TCheckBoxE3dupEv
00000000 T _ZN13TCustomVisualC1Ev
         U _ZN11TCustomFillC1Ev
         U _ZN11TCustomFillD1Ev
00000000 T _ZN13TCustomVisualC1ERKS_
         U _ZN11TCustomFillC1ERKS_
00000000 T _ZN13TCustomVisualD1Ev
00000000 T _ZN13TCustomVisualaSERKS_
         U _ZN11TCustomFillaSERKS_
00000000 T _ZN12TextPropertyC1ERKS_
         U _ZTV5TFont
00000000 T _ZN12TextPropertyaSERKS_
         U _ZN5TFontaSERKS_
00000000 T _ZN8_TMarginIiEC1ERKS0_
00000000 T _ZNK8_TMarginIiEneERKS0_
00000000 T _ZN9TCheckBox11SetPropertyERKNS_8PropertyE
         U _ZN5TNode18OnChildBoundChangeEP8TControl
         U _ZN5TNode8OnResizeEv
         U _ZN5TNode6UpdateEv
00000198 T _ZN9TCheckBox8PropertyC1Ev
         U _ZN15ControlPropertyC2E11ControlType
         U _ZN5TFontC1Ev
         U _ZN5TFontD1Ev
         U _ZN15ControlPropertyD2Ev
000002fc T _ZN9TCheckBox8PropertyD1Ev
00000000 T _ZN9TCheckBox8PropertyC1ERKS0_
000003fc T _ZN9TCheckBoxC1EiiiiRK8TWString
         U _ZN8TControlC2EiiiiR5TNode
         U _ZN7TVisualC1E9FrameType
         U _ZTV18TNodeEventDelegate
         U _ZN5TNodeC1EiiiiP14TEventDelegateP17TChildrenDelegate
         U _ZN5TNode18SetVisualStateMaskEiiii
         U _ZN12TApplication8InstanceEv
         U _ZNK12TApplication11GetPropertyE11ControlType
         U _ZN5TNodeD1Ev
         U _ZN7TVisualD1Ev
         U _ZdaPv
         U _ZN8TControlD2Ev
00000730 T _ZN9TCheckBoxC2EiiiiRK8TWString
00000758 T _ZN9TCheckBoxD1Ev
0000092c T _ZN9TCheckBoxD0Ev
00000958 T _ZN9TCheckBoxD2Ev
00000978 T _ZNK9TCheckBox11GetPropertyEv
00000a88 T _ZN9TCheckBox13ChangeCheckedEi
00000aec T _ZN9TCheckBox7OnMouseERN5TNode15MouseEventParamE
         U _ZN5TNode9SetActiveEi
00000c30 T _ZN9TCheckBox7OnPaintERN5TNode15PaintEventParamE
         U _ZNK7TVisual4DrawER8TPainterRK11VisualStateRK6_TRectIiE
         U _ZN8TPainter11SetClipRectERK6_TRectIiE
         U _ZN8TPainter13ClearClipRectEv
         U _ZN8TPainter7SetFontERK5TFont
         U _ZN8TPainter12SetTextColorERK6TColor
         U _ZN8TPainter11DrawUCSTextERK8TWStringRK6_TRectIiE23TextHorizontalAlignment21TextVerticalAlignment
00000ea0 T _ZN9TCheckBox11NodeHandlerER10EventParam
00000ee8 T _ZN9TCheckBox8PropertyC2Ev
00000f08 T _ZN9TCheckBox8PropertyD2Ev
         U __cxa_pure_virtual
         U _ZTVN10__cxxabiv117__class_type_infoE
         U _ZTVN10__cxxabiv120__si_class_type_infoE
         U _ZTI8TControl

tgsComboBox.o:
         U _ZTVSt9exception
         U _ZTVSt13bad_exception
         U _ZTVSt9bad_alloc
00000000 V _ZTV10TException
00000000 V _ZTV17TChildrenDelegate
         U _ZTV6TImage
00000000 V _ZTV9TComboBox
         U _ZTV14TEventDelegate
         U _ZTV6TArrayIP5TNodeE
00000000 V _ZTVN7_TEventI10EventParamE15THandlerAdaptorE
         U _ZTV6TArrayI9ColorStopE
00000000 V _ZTVN7_TEventI10EventParamE17MemberFuncHandlerI9TComboBoxEE
00000000 V _ZTI10TException
         U _ZTI14TEventDelegate
00000000 V _ZTI17TChildrenDelegate
         U _ZTI6TArrayIP5TNodeE
00000000 V _ZTIN7_TEventI10EventParamE15THandlerAdaptorE
00000000 V _ZTIN7_TEventI10EventParamE17MemberFuncHandlerI9TComboBoxEE
         U _ZTI6TImage
         U _ZTI6TArrayI9ColorStopE
00000000 V _ZTI9TComboBox
         U _ZTISt9exception
         U _ZTISt13bad_exception
         U _ZTISt9bad_alloc
00000000 V _ZTS10TException
         U _ZTS14TEventDelegate
00000000 V _ZTS17TChildrenDelegate
         U _ZTS6TArrayIP5TNodeE
00000000 V _ZTSN7_TEventI10EventParamE15THandlerAdaptorE
00000000 V _ZTSN7_TEventI10EventParamE17MemberFuncHandlerI9TComboBoxEE
         U _ZTS6TImage
         U _ZTS6TArrayI9ColorStopE
00000000 V _ZTS9TComboBox
         U _ZTSSt9exception
         U _ZTSSt13bad_exception
         U _ZTSSt9bad_alloc
00000000 T _ZN10TExceptionD1Ev
00000000 T _ZN10TExceptionD0Ev
         U _ZdlPv
00000000 T _ZN6TColorC1Ej
00000000 T _ZN6TColorC1ERKS_
00000000 T _ZN8TWStringC1EPKw
         U __frameinfo_used
         U __cxa_allocate_exception
         U __cxa_throw
         U _Znaj
         U memcpy
00000000 T _ZN6_TRectIiEC1ERKS0_
00000000 T _ZNK6_TRectIiE6AdjustERK8_TMarginIiE
00000000 T _ZNK6_TRectIiEmiERK7_TPointIiE
00000000 T _ZN10TNodeArrayC1EiiiiP14TEventDelegatei
         U _ZN5TNodeC2EiiiiP14TEventDelegateP17TChildrenDelegate
         U _ZTV10TNodeArray
         U memset
         U _ZN5TNodeD2Ev
         U __diab_Unwind_Resume
         U __diab_personality_v0
00000000 T _ZN7_TEventI10EventParamE10SetHandlerI9TComboBoxEEvPT_NS1_17MemberFuncHandlerIS4_E8FuncTypeE
         U _Znwj
00000000 T _ZN7_TEventI10EventParamE15THandlerAdaptorD1Ev
00000000 T _ZN7_TEventI10EventParamE15THandlerAdaptorD0Ev
00000000 T _ZN7_TEventI10EventParamE17MemberFuncHandlerI9TComboBoxED1Ev
00000000 T _ZN7_TEventI10EventParamE17MemberFuncHandlerI9TComboBoxED0Ev
00000000 T _ZNK7_TEventI10EventParamE17MemberFuncHandlerI9TComboBoxE6InvokeERS0_
00000000 T _ZN7_TEventI10EventParamE17MemberFuncHandlerI9TComboBoxE3dupEv
00000000 T _ZN13TCustomVisualC1Ev
         U _ZN11TCustomFillC1Ev
         U _ZN11TCustomFillD1Ev
00000000 T _ZN13TCustomVisualC1ERKS_
         U _ZN11TCustomFillC1ERKS_
00000000 T _ZN13TCustomVisualD1Ev
00000000 T _ZN13TCustomVisualaSERKS_
         U _ZN11TCustomFillaSERKS_
00000000 T _ZN12TextPropertyC1ERKS_
         U _ZTV5TFont
00000000 T _ZN12TextPropertyaSERKS_
         U _ZN5TFontaSERKS_
00000000 T _ZN8_TMarginIiEC1ERKS0_
00000000 T _ZNK8_TMarginIiEneERKS0_
00000000 T _ZNK6TArrayIN11TGridLayout10LayoutInfoEEixEi
00000000 T _ZN11TGridLayout13SetColumnSizeEiNS_12LayoutMethodEi
00000000 T _ZN9TComboBox11SetPropertyERKNS_8PropertyE
         U _ZNK8TListBox11GetPropertyEv
         U _ZN5TNode18OnChildBoundChangeEP8TControl
         U _ZN5TNode8OnResizeEv
         U _ZN5TNode6UpdateEv
         U _ZN8TListBox11SetPropertyERKNS_8PropertyE
         U _ZN8TListBox8PropertyD1Ev
000002d4 T _ZN9TComboBox8PropertyC1Ev
         U _ZN15ControlPropertyC2E11ControlType
         U _ZN5TFontC1Ev
         U _ZN5TFontD1Ev
         U _ZN15ControlPropertyD2Ev
00000628 T _ZN9TComboBox8PropertyD1Ev
00000000 T _ZN9TComboBox8PropertyC1ERKS0_
000008b8 T _ZN9TComboBoxC1Eiiii
         U _ZN8TControlC2EiiiiR5TNode
         U _ZN8TListBoxC1Eiiiii
         U _ZN7TWindowC1EiiiiPS_NS_12WindowSizingENS_10WindowTypeE
         U _ZN7TVisualC1E9FrameType
         U _ZN11TGridLayoutC1Eii
         U _ZTV18TNodeEventDelegate
         U _ZN9TEditNodeC1EiiiiR8_TMarginIiER7TVisualR12TextPropertyRK8TWString
         U _ZdaPv
         U _ZN15TPushButtonNodeC1EiiiiR7TVisualR12TextProperty
         U _ZN5TNode18SetVisualStateMaskEiiii
         U _ZN5TNode11AddToParentEPS_
         U _ZN8TControl18SetAlignmentPolicyE19HorizontalAlignment17VerticalAlignment
         U _ZN6TGroup10AddControlEP8TControli
         U _ZN12TApplication8InstanceEv
         U _ZNK12TApplication11GetPropertyE11ControlType
         U _ZN15TPushButtonNodeD1Ev
         U _ZN9TEditNodeD1Ev
         U _ZN11TGridLayoutD1Ev
         U _ZN7TVisualD1Ev
         U _ZN7TWindowD1Ev
         U _ZN8TListBoxD1Ev
         U _ZN8TControlD2Ev
00001020 T _ZN9TComboBoxC2Eiiii
00001048 T _ZN9TComboBoxD1Ev
00001318 T _ZN9TComboBoxD0Ev
00001344 T _ZN9TComboBoxD2Ev
00001364 T _ZNK9TComboBox11GetPropertyEv
00001574 T _ZN9TComboBox12SetSelectionEi
         U _ZNK8TListBox11GetItemTextEii
         U _ZN9TEditNode7SetTextERK8TWString
00001610 T _ZN9TComboBox13ResizeHandlerER10EventParam
         U _ZN11TGridLayout8DoLayoutERK6_TRectIiE
         U _ZNK11TGridLayout11GetCellRectERK8GridCell
         U _ZN5TNode12SetBoundRectERK6_TRectIiE
0000171c T _ZN9TComboBox13CloseDropdownEv
         U _ZN7TWindow4HideEv
         U _ZN5TNode19RemoveFromMouseHookEv
0000175c T _ZN9TComboBox12MouseHandlerER10EventParam
00001794 T _ZN9TComboBox13DetachHandlerER10EventParam
         U _ZN7TWindow7DestroyEv
000017cc T _ZN9TComboBox12OpenDropdownEv
         U _ZN7TWindow4ShowEi
         U _ZNK5TNode14OffsetToScreenERK7_TPointIiE
         U _ZN8TListBox19SetFixedColumnWidthEii
         U _ZN8TListBox11ResetScrollEv
         U _ZN7TWindow13SetWindowRectERK6_TRectIiE
         U _ZN5TNode14AddToMouseHookEv
000019bc T _ZN9TComboBox11NodeHandlerER10EventParam
         U _ZNK7TVisual4DrawER8TPainterRK11VisualStateRK6_TRectIiE
00001ae4 T _ZN9TComboBox16ItemClickHandlerER10EventParam
00001b80 T _ZN9TComboBox8PropertyC2Ev
00001ba0 T _ZN9TComboBox8PropertyD2Ev
         U __cxa_pure_virtual
         U _ZTVN10__cxxabiv117__class_type_infoE
         U _ZTVN10__cxxabiv120__si_class_type_infoE
         U _ZTI8TControl

tgsCustomControl.o:
         U _ZTVSt9exception
         U _ZTVSt13bad_exception
         U _ZTVSt9bad_alloc
         U _ZTV10TException
         U _ZTV17TChildrenDelegate
         U _ZTV6TImage
00000000 V _ZTV14TEventDelegate
00000000 V _ZTV14TCustomControl
         U _ZTV6TArrayIP5TNodeE
         U _ZTV6TArrayI9ColorStopE
         U _ZTI10TException
00000000 V _ZTI14TEventDelegate
         U _ZTI17TChildrenDelegate
         U _ZTI6TArrayIP5TNodeE
         U _ZTI6TImage
         U _ZTI6TArrayI9ColorStopE
00000000 V _ZTI14TCustomControl
         U _ZTISt9exception
         U _ZTISt13bad_exception
         U _ZTISt9bad_alloc
         U _ZTS10TException
00000000 V _ZTS14TEventDelegate
         U _ZTS17TChildrenDelegate
         U _ZTS6TArrayIP5TNodeE
         U _ZTS6TImage
         U _ZTS6TArrayI9ColorStopE
00000000 V _ZTS14TCustomControl
         U _ZTSSt9exception
         U _ZTSSt13bad_exception
         U _ZTSSt9bad_alloc
00000000 T _ZN14TCustomControlC1Eiiii
         U __frameinfo_used
         U _ZN8TControlC2EiiiiR5TNode
         U _ZN5TNodeC1EiiiiP14TEventDelegateP17TChildrenDelegate
         U _ZN8TControlD2Ev
         U __diab_Unwind_Resume
         U __diab_personality_v0
0000017c T _ZN14TCustomControlC2Eiiii
000001a4 T _ZN14TCustomControlD1Ev
         U _ZN5TNodeD1Ev
000003c8 T _ZN14TCustomControlD0Ev
         U _ZdlPv
000003f4 T _ZN14TCustomControlD2Ev
00000414 T _ZN14TCustomControl7OnEventER10EventParam
         U memcpy
00000604 T _ZThn144_N14TCustomControl7OnEventER10EventParam
         U __cxa_pure_virtual
         U _ZTVN10__cxxabiv117__class_type_infoE
         U _ZTVN10__cxxabiv121__vmi_class_type_infoE
         U _ZTI8TControl

tgsGroupBox.o:
         U _ZTVSt9exception
         U _ZTVSt13bad_exception
         U _ZTVSt9bad_alloc
         U _ZTV10TException
00000000 V _ZTV17TChildrenDelegate
         U _ZTV6TImage
00000000 V _ZTV9TGroupBox
         U _ZTV14TEventDelegate
         U _ZTV6TArrayIP5TNodeE
00000000 V _ZTVN7_TEventI10EventParamE15THandlerAdaptorE
         U _ZTV6TArrayI9ColorStopE
00000000 V _ZTVN7_TEventI10EventParamE17MemberFuncHandlerI9TGroupBoxEE
         U _ZTI10TException
         U _ZTI14TEventDelegate
00000000 V _ZTI17TChildrenDelegate
         U _ZTI6TArrayIP5TNodeE
00000000 V _ZTIN7_TEventI10EventParamE15THandlerAdaptorE
00000000 V _ZTIN7_TEventI10EventParamE17MemberFuncHandlerI9TGroupBoxEE
         U _ZTI6TImage
         U _ZTI6TArrayI9ColorStopE
00000000 V _ZTI9TGroupBox
         U _ZTISt9exception
         U _ZTISt13bad_exception
         U _ZTISt9bad_alloc
         U _ZTS10TException
         U _ZTS14TEventDelegate
00000000 V _ZTS17TChildrenDelegate
         U _ZTS6TArrayIP5TNodeE
00000000 V _ZTSN7_TEventI10EventParamE15THandlerAdaptorE
00000000 V _ZTSN7_TEventI10EventParamE17MemberFuncHandlerI9TGroupBoxEE
         U _ZTS6TImage
         U _ZTS6TArrayI9ColorStopE
00000000 V _ZTS9TGroupBox
         U _ZTSSt9exception
         U _ZTSSt13bad_exception
         U _ZTSSt9bad_alloc
00000000 T _ZN6TColorC1Ej
00000000 T _ZN6TColorC1ERKS_
00000000 T _ZN8TWStringC1ERKS_
         U __frameinfo_used
         U _Znaj
         U memcpy
00000000 T _ZN6_TRectIiEC1ERKS0_
00000000 T _ZNK6_TRectIiE6AdjustERK8_TMarginIiE
00000000 T _ZNK6_TRectIiEmiERK7_TPointIiE
00000000 T _ZN10TNodeArrayC1EiiiiP14TEventDelegatei
         U _ZN5TNodeC2EiiiiP14TEventDelegateP17TChildrenDelegate
         U _ZTV10TNodeArray
         U memset
         U _ZN5TNodeD2Ev
         U __diab_Unwind_Resume
         U __diab_personality_v0
00000000 T _ZN7_TEventI10EventParamE10SetHandlerI9TGroupBoxEEvPT_NS1_17MemberFuncHandlerIS4_E8FuncTypeE
         U _Znwj
00000000 T _ZN7_TEventI10EventParamE15THandlerAdaptorD1Ev
00000000 T _ZN7_TEventI10EventParamE15THandlerAdaptorD0Ev
         U _ZdlPv
00000000 T _ZN7_TEventI10EventParamE17MemberFuncHandlerI9TGroupBoxED1Ev
00000000 T _ZN7_TEventI10EventParamE17MemberFuncHandlerI9TGroupBoxED0Ev
00000000 T _ZNK7_TEventI10EventParamE17MemberFuncHandlerI9TGroupBoxE6InvokeERS0_
00000000 T _ZN7_TEventI10EventParamE17MemberFuncHandlerI9TGroupBoxE3dupEv
00000000 T _ZN13TCustomVisualC1Ev
         U _ZN11TCustomFillC1Ev
         U _ZN11TCustomFillD1Ev
00000000 T _ZN13TCustomVisualC1ERKS_
         U _ZN11TCustomFillC1ERKS_
00000000 T _ZN13TCustomVisualD1Ev
00000000 T _ZN13TCustomVisualaSERKS_
         U _ZN11TCustomFillaSERKS_
00000000 T _ZN12TextPropertyC1ERKS_
         U _ZTV5TFont
00000000 T _ZN12TextPropertyaSERKS_
         U _ZN5TFontaSERKS_
00000000 T _ZN8_TMarginIiEC1ERKS0_
00000000 T _ZNK8_TMarginIiEneERKS0_
00000000 T _ZN9TGroupBox11SetPropertyERKNS_8PropertyE
         U _ZN5TNode18OnChildBoundChangeEP8TControl
         U _ZN5TNode8OnResizeEv
         U _ZN5TNode6UpdateEv
000001b8 T _ZN9TGroupBox8PropertyC1Ev
         U _ZN15ControlPropertyC2E11ControlType
         U _ZN5TFontC1Ev
         U _ZN15ControlPropertyD2Ev
00000318 T _ZN9TGroupBox8PropertyD1Ev
         U _ZN5TFontD1Ev
00000000 T _ZN9TGroupBox8PropertyC1ERKS0_
000003f0 T _ZN9TGroupBoxC1EiiiiRK8TWString
         U _ZN8TControlC2EiiiiR5TNode
         U _ZN7TVisualC1E9FrameType
         U _ZTV18TNodeEventDelegate
         U _ZN6TGroupC1Eiiii
         U _ZN5TNode11AddToParentEPS_
         U _ZN12TApplication8InstanceEv
         U _ZNK12TApplication11GetPropertyE11ControlType
         U _ZN6TGroupD1Ev
         U _ZN7TVisualD1Ev
         U _ZdaPv
         U _ZN8TControlD2Ev
000007fc T _ZN9TGroupBoxC2EiiiiRK8TWString
00000824 T _ZN9TGroupBoxD1Ev
000009d0 T _ZN9TGroupBoxD0Ev
000009fc T _ZN9TGroupBoxD2Ev
00000a1c T _ZNK9TGroupBox11GetPropertyEv
00000b48 T _ZN9TGroupBox13ResizeHandlerER10EventParam
         U _ZN5TNode12SetBoundRectERK6_TRectIiE
00000be8 T _ZN9TGroupBox11NodeHandlerER10EventParam
         U _ZNK7TVisual4DrawER8TPainterRK11VisualStateRK6_TRectIiE
         U _ZN8TPainter11SetClipRectERK6_TRectIiE
         U _ZN8TPainter13ClearClipRectEv
         U _ZN8TPainter7SetFontERK5TFont
         U _ZN8TPainter12SetTextColorERK6TColor
         U _ZN8TPainter11DrawUCSTextERK8TWStringRK6_TRectIiE23TextHorizontalAlignment21TextVerticalAlignment
00000eb4 T _ZN9TGroupBox8PropertyC2Ev
00000ed4 T _ZN9TGroupBox8PropertyD2Ev
         U __cxa_pure_virtual
         U _ZTVN10__cxxabiv117__class_type_infoE
         U _ZTVN10__cxxabiv120__si_class_type_infoE
         U _ZTI8TControl

tgsRowPanel.o:
         U _ZTVSt9exception
         U _ZTVSt13bad_exception
         U _ZTVSt9bad_alloc
         U _ZTV10TException
         U _ZTV17TChildrenDelegate
         U _ZTV6TImage
00000000 V _ZTVN9TRowPanel19RowChildrenDelegateE
         U _ZTV14TEventDelegate
00000000 V _ZTV9TRowPanel
         U _ZTV6TArrayIP5TNodeE
00000000 V _ZTVN7_TEventI10EventParamE15THandlerAdaptorE
         U _ZTV6TArrayI9ColorStopE
00000000 V _ZTV6TArrayIP8TControlE
00000000 V _ZTVN7_TEventI10EventParamE17MemberFuncHandlerI9TRowPanelEE
         U _ZTI10TException
         U _ZTI14TEventDelegate
00000000 V _ZTI17TChildrenDelegate
         U _ZTI6TArrayIP5TNodeE
00000000 V _ZTIN7_TEventI10EventParamE15THandlerAdaptorE
00000000 V _ZTIN7_TEventI10EventParamE17MemberFuncHandlerI9TRowPanelEE
         U _ZTI6TImage
         U _ZTI6TArrayI9ColorStopE
00000000 V _ZTI6TArrayIP8TControlE
00000000 V _ZTI9TRowPanel
00000000 V _ZTIN9TRowPanel19RowChildrenDelegateE
         U _ZTISt9exception
         U _ZTISt13bad_exception
         U _ZTISt9bad_alloc
         U _ZTS10TException
         U _ZTS14TEventDelegate
00000000 V _ZTS17TChildrenDelegate
         U _ZTS6TArrayIP5TNodeE
00000000 V _ZTSN7_TEventI10EventParamE15THandlerAdaptorE
00000000 V _ZTSN7_TEventI10EventParamE17MemberFuncHandlerI9TRowPanelEE
         U _ZTS6TImage
         U _ZTS6TArrayI9ColorStopE
00000000 V _ZTS6TArrayIP8TControlE
00000000 V _ZTS9TRowPanel
00000000 V _ZTSN9TRowPanel19RowChildrenDelegateE
         U _ZTSSt9exception
         U _ZTSSt13bad_exception
         U _ZTSSt9bad_alloc
00000000 T _ZN6_TRectIiEC1ERKS0_
00000000 T _ZNK6_TRectIiE6AdjustERK8_TMarginIiE
00000000 T _ZNK6_TRectIiEmiERK7_TPointIiE
00000000 T _ZN7_TEventI10EventParamE10SetHandlerI9TRowPanelEEvPT_NS1_17MemberFuncHandlerIS4_E8FuncTypeE
         U __frameinfo_used
         U _Znwj
         U __diab_Unwind_Resume
         U __diab_personality_v0
00000000 T _ZN7_TEventI10EventParamE15THandlerAdaptorD1Ev
00000000 T _ZN7_TEventI10EventParamE15THandlerAdaptorD0Ev
         U _ZdlPv
00000000 T _ZN7_TEventI10EventParamE17MemberFuncHandlerI9TRowPanelED1Ev
00000000 T _ZN7_TEventI10EventParamE17MemberFuncHandlerI9TRowPanelED0Ev
00000000 T _ZNK7_TEventI10EventParamE17MemberFuncHandlerI9TRowPanelE6InvokeERS0_
00000000 T _ZN7_TEventI10EventParamE17MemberFuncHandlerI9TRowPanelE3dupEv
00000000 T _ZN6TArrayIP8TControlED1Ev
         U _ZdaPv
00000000 T _ZN6TArrayIP8TControlED0Ev
00000000 T _ZN9TRowPanelC1Eiiii
         U _ZN8TControlC2EiiiiR5TNode
         U _ZTV18TNodeEventDelegate
         U _ZN5TNodeC1EiiiiP14TEventDelegateP17TChildrenDelegate
         U _ZN5TNodeD1Ev
         U _ZN8TControlD2Ev
00000158 T _ZN9TRowPanelC2Eiiii
00000180 T _ZN9TRowPanelD1Ev
00000278 T _ZN9TRowPanelD0Ev
000002a4 T _ZN9TRowPanelD2Ev
000002c4 T _ZN9TRowPanel10AddControlEP8TControli
         U _ZN13TControlArray10AddControlEP8TControli
         U _ZN5TNode11AddToParentEPS_
         U _ZN5TNode18OnChildBoundChangeEP8TControl
         U _ZN5TNode8OnResizeEv
         U _ZN5TNode6UpdateEv
0000038c T _ZN9TRowPanel15AddControlAtTopEP8TControl
000003b0 T _ZN9TRowPanel18AddControlAtBottomEP8TControl
000003d4 T _ZN9TRowPanel13RemoveControlEP8TControl
         U _ZNK13TControlArray7IndexOfEPK8TControl
         U _ZN5TNode16RemoveFromParentEv
         U _ZN13TControlArray13RemoveControlEP8TControl
00000490 T _ZN9TRowPanel17RemoveAllControlsEv
         U _ZNK13TControlArrayixEi
         U _ZN13TControlArray17RemoveAllControlsEv
00000560 T _ZNK9TRowPanel5CountEv
00000568 T _ZNK9TRowPanelixEi
0000058c T _ZNK9TRowPanel7IndexOfEPK8TControl
000005b0 T _ZN9TRowPanel15UpdateRowLayoutERK6_TRectIiE
         U _ZN8TControl13GetHintedSizeEv
         U _ZN5TNode12SetBoundRectERK6_TRectIiE
00000678 T _ZN9TRowPanel8OnResizeEv
000006f4 T _ZN9TRowPanel18OnChildBoundChangeEP8TControl
000007dc T _ZN9TRowPanel10OnSizeHintERN5TNode18SizeHintEventParamE
00000864 T _ZN9TRowPanel11NodeHandlerER10EventParam
         U _ZNK7TVisual4DrawER8TPainterRK11VisualStateRK6_TRectIiE
00000928 T _ZNK9TRowPanel19RowChildrenDelegate8GetCountEv
00000934 T _ZN9TRowPanel19RowChildrenDelegate7GetNodeEi
         U __cxa_pure_virtual
         U _ZTVN10__cxxabiv117__class_type_infoE
         U _ZTVN10__cxxabiv120__si_class_type_infoE
         U _ZTI8TControl

tgsGridPanel.o:
         U _ZTVSt9exception
         U _ZTVSt13bad_exception
         U _ZTVSt9bad_alloc
00000000 V _ZTV10TException
         U _ZTV17TChildrenDelegate
         U _ZTV6TImage
00000000 V _ZTV10TGridPanel
00000000 V _ZTVN10TGridPanel20GridChildrenDelegateE
         U _ZTV14TEventDelegate
         U _ZTV6TArrayIP5TNodeE
00000000 V _ZTVN7_TEventI10EventParamE15THandlerAdaptorE
         U _ZTV6TArrayI9ColorStopE
00000000 V _ZTV6TArrayIN10TGridPanel8GridUnitEE
00000000 V _ZTVN7_TEventI10EventParamE17MemberFuncHandlerI10TGridPanelEE
00000000 V _ZTI10TException
         U _ZTI14TEventDelegate
00000000 V _ZTI17TChildrenDelegate
         U _ZTI6TArrayIP5TNodeE
00000000 V _ZTIN7_TEventI10EventParamE15THandlerAdaptorE
00000000 V _ZTIN7_TEventI10EventParamE17MemberFuncHandlerI10TGridPanelEE
         U _ZTI6TImage
         U _ZTI6TArrayI9ColorStopE
00000000 V _ZTI6TArrayIN10TGridPanel8GridUnitEE
00000000 V _ZTI10TGridPanel
00000000 V _ZTIN10TGridPanel20GridChildrenDelegateE
         U _ZTISt9exception
         U _ZTISt13bad_exception
         U _ZTISt9bad_alloc
00000000 V _ZTS10TException
         U _ZTS14TEventDelegate
00000000 V _ZTS17TChildrenDelegate
         U _ZTS6TArrayIP5TNodeE
00000000 V _ZTSN7_TEventI10EventParamE15THandlerAdaptorE
00000000 V _ZTSN7_TEventI10EventParamE17MemberFuncHandlerI10TGridPanelEE
         U _ZTS6TImage
         U _ZTS6TArrayI9ColorStopE
00000000 V _ZTS6TArrayIN10TGridPanel8GridUnitEE
00000000 V _ZTS10TGridPanel
00000000 V _ZTSN10TGridPanel20GridChildrenDelegateE
         U _ZTSSt9exception
         U _ZTSSt13bad_exception
         U _ZTSSt9bad_alloc
00000000 T _ZN10TExceptionD1Ev
00000000 T _ZN10TExceptionD0Ev
         U _ZdlPv
00000000 T _ZN6_TRectIiEC1Ev
         U _ZN6_TRectIiE8nullRectE
00000000 T _ZN6_TRectIiEC1ERKS0_
00000000 T _ZNK6_TRectIiE6AdjustERK8_TMarginIiE
00000000 T _ZNK6_TRectIiEmiERK7_TPointIiE
00000000 T _ZN7_TEventI10EventParamE10SetHandlerI10TGridPanelEEvPT_NS1_17MemberFuncHandlerIS4_E8FuncTypeE
         U __frameinfo_used
         U _Znwj
         U __diab_Unwind_Resume
         U __diab_personality_v0
00000000 T _ZN7_TEventI10EventParamE15THandlerAdaptorD1Ev
00000000 T _ZN7_TEventI10EventParamE15THandlerAdaptorD0Ev
00000000 T _ZN7_TEventI10EventParamE17MemberFuncHandlerI10TGridPanelED1Ev
00000000 T _ZN7_TEventI10EventParamE17MemberFuncHandlerI10TGridPanelED0Ev
00000000 T _ZNK7_TEventI10EventParamE17MemberFuncHandlerI10TGridPanelE6InvokeERS0_
00000000 T _ZN7_TEventI10EventParamE17MemberFuncHandlerI10TGridPanelE3dupEv
00000000 T _ZN6TArrayIN10TGridPanel8GridUnitEED1Ev
         U __cxa_vec_delete
00000000 T _ZN10TGridPanel8GridUnitD1Ev
00000000 T _ZN6TArrayIN10TGridPanel8GridUnitEED0Ev
00000000 T _ZN6TArrayIN10TGridPanel8GridUnitEE13RoundCapacityEi
00000000 T _ZN6TArrayIN10TGridPanel8GridUnitEE8ExpandAtEii
         U _Znaj
         U _ZdaPv
         U __cxa_vec_new2
00000000 T _ZN10TGridPanel8GridUnitC1Ev
         U __cxa_allocate_exception
         U __cxa_throw
00000000 T _ZN6TArrayIN10TGridPanel8GridUnitEE8InsertAtEiRKS1_
00000000 T _ZN6TArrayIN10TGridPanel8GridUnitEE8ShrinkAtEii
00000000 T _ZN6TArrayIN10TGridPanel8GridUnitEE8RemoveAtEi
00000000 T _ZN6TArrayIN10TGridPanel8GridUnitEE5ClearEv
00000000 T _ZNK6TArrayIN10TGridPanel8GridUnitEEixEi
00000000 T _ZN10TGridPanelC1Eiiiiii
         U _ZN8TControlC2EiiiiR5TNode
         U _ZTV18TNodeEventDelegate
         U _ZN5TNodeC1EiiiiP14TEventDelegateP17TChildrenDelegate
         U _ZN11TGridLayoutC1Eii
         U _ZN11TGridLayoutD1Ev
         U _ZN5TNodeD1Ev
         U _ZN8TControlD2Ev
0000017c T _ZN10TGridPanelC2Eiiiiii
000001b4 T _ZN10TGridPanelD1Ev
000002d0 T _ZN10TGridPanelD0Ev
000002fc T _ZN10TGridPanelD2Ev
0000031c T _ZN10TGridPanel10AddControlEP8TControliRK8GridCell
         U _ZNK11TGridLayout11GetCellRectERK8GridCell
         U _ZN5TNode11AddToParentEPS_
         U _ZN5TNode12SetBoundRectERK6_TRectIiE
00000418 T _ZN10TGridPanel15AddControlAtTopEP8TControlRK8GridCell
00000440 T _ZN10TGridPanel18AddControlAtBottomEP8TControlRK8GridCell
00000468 T _ZN10TGridPanel13RemoveControlEP8TControl
         U _ZN5TNode16RemoveFromParentEv
000004f4 T _ZN10TGridPanel17RemoveAllControlsEv
00000568 T _ZNK10TGridPanel7IndexOfEPK8TControl
000005c8 T _ZN10TGridPanel16SetChildGridCellEP8TControlRK8GridCell
0000066c T _ZN10TGridPanel8OnResizeEv
         U _ZN11TGridLayout8DoLayoutERK6_TRectIiE
000007b8 T _ZN10TGridPanel11NodeHandlerER10EventParam
         U _ZNK7TVisual4DrawER8TPainterRK11VisualStateRK6_TRectIiE
0000084c T _ZN10TGridPanel18OnChildBoundChangeEP8TControl
00000850 T _ZNK10TGridPanel20GridChildrenDelegate8GetCountEv
0000085c T _ZN10TGridPanel20GridChildrenDelegate7GetNodeEi
         U __cxa_pure_virtual
         U _ZTVN10__cxxabiv117__class_type_infoE
         U _ZTVN10__cxxabiv120__si_class_type_infoE
         U _ZTI8TControl

tgsListBox.o:
         U _ZTVSt9exception
         U _ZTVSt13bad_exception
         U _ZTVSt9bad_alloc
00000000 V _ZTV10TException
00000000 V _ZTV17TChildrenDelegate
         U _ZTV6TImage
00000000 V _ZTV8TListBox
         U _ZTV14TEventDelegate
         U _ZTV6TArrayIP5TNodeE
00000000 V _ZTVN7_TEventI10EventParamE15THandlerAdaptorE
         U _ZTV6TArrayI9ColorStopE
00000000 V _ZTV6TArrayIP8TWStringE
00000000 V _ZTVN7_TEventI10EventParamE17MemberFuncHandlerI8TListBoxEE
00000000 V _ZTI10TException
         U _ZTI14TEventDelegate
00000000 V _ZTI17TChildrenDelegate
         U _ZTI6TArrayIP5TNodeE
00000000 V _ZTIN7_TEventI10EventParamE15THandlerAdaptorE
00000000 V _ZTIN7_TEventI10EventParamE17MemberFuncHandlerI8TListBoxEE
         U _ZTI6TImage
         U _ZTI6TArrayI9ColorStopE
00000000 V _ZTI6TArrayIP8TWStringE
00000000 V _ZTI8TListBox
         U _ZTISt9exception
         U _ZTISt13bad_exception
         U _ZTISt9bad_alloc
00000000 V _ZTS10TException
         U _ZTS14TEventDelegate
00000000 V _ZTS17TChildrenDelegate
         U _ZTS6TArrayIP5TNodeE
00000000 V _ZTSN7_TEventI10EventParamE15THandlerAdaptorE
00000000 V _ZTSN7_TEventI10EventParamE17MemberFuncHandlerI8TListBoxEE
         U _ZTS6TImage
         U _ZTS6TArrayI9ColorStopE
00000000 V _ZTS6TArrayIP8TWStringE
00000000 V _ZTS8TListBox
         U _ZTSSt9exception
         U _ZTSSt13bad_exception
         U _ZTSSt9bad_alloc
00000000 T _ZN10TExceptionD1Ev
00000000 T _ZN10TExceptionD0Ev
         U _ZdlPv
00000000 T _ZN6TColorC1Ej
00000000 T _ZN6TColorC1ERKS_
00000000 T _ZN8TWStringC1Ev
         U __frameinfo_used
         U _Znaj
00000000 T _ZN8TWStringD1Ev
         U _ZdaPv
00000000 T _ZN8TWStringaSERKS_
         U memcpy
00000000 T _ZN6_TRectIiEC1Ev
         U _ZN6_TRectIiE8nullRectE
00000000 T _ZN6_TRectIiEC1ERKS0_
00000000 T _ZNK6_TRectIiE6AdjustERK8_TMarginIiE
00000000 T _ZNK6_TRectIiEmiERK7_TPointIiE
00000000 T _ZN10TNodeArrayC1EiiiiP14TEventDelegatei
         U _ZN5TNodeC2EiiiiP14TEventDelegateP17TChildrenDelegate
         U _ZTV10TNodeArray
         U memset
         U _ZN5TNodeD2Ev
         U __diab_Unwind_Resume
         U __diab_personality_v0
00000000 T _ZN7_TEventI10EventParamE10SetHandlerI8TListBoxEEvPT_NS1_17MemberFuncHandlerIS4_E8FuncTypeE
         U _Znwj
00000000 T _ZN7_TEventI10EventParamE15THandlerAdaptorD1Ev
00000000 T _ZN7_TEventI10EventParamE15THandlerAdaptorD0Ev
00000000 T _ZN7_TEventI10EventParamE17MemberFuncHandlerI8TListBoxED1Ev
00000000 T _ZN7_TEventI10EventParamE17MemberFuncHandlerI8TListBoxED0Ev
00000000 T _ZNK7_TEventI10EventParamE17MemberFuncHandlerI8TListBoxE6InvokeERS0_
00000000 T _ZN7_TEventI10EventParamE17MemberFuncHandlerI8TListBoxE3dupEv
00000000 T _ZN8TPainter8DrawLineEiiii
         U _ZN8TPainter8DrawLineERK7_TPointIiES3_
00000000 T _ZN13TCustomVisualC1Ev
         U _ZN11TCustomFillC1Ev
         U _ZN11TCustomFillD1Ev
00000000 T _ZN13TCustomVisualC1ERKS_
         U _ZN11TCustomFillC1ERKS_
00000000 T _ZN13TCustomVisualD1Ev
00000000 T _ZN13TCustomVisualaSERKS_
         U _ZN11TCustomFillaSERKS_
00000000 T _ZN12TextPropertyC1ERKS_
         U _ZTV5TFont
00000000 T _ZN12TextPropertyaSERKS_
         U _ZN5TFontaSERKS_
00000000 T _ZN8_TMarginIiEC1ERKS0_
00000000 T _ZNK8_TMarginIiEneERKS0_
00000000 T _ZN14TScrollBarPair20SetScrollBarPairDataERK6_TSizeIiES3_RK7_TPointIiE
         U _ZN14TScrollBarNode13SetScrollDataEiii
00000000 T _ZN6TArrayIP8TWStringED1Ev
00000000 T _ZN6TArrayIP8TWStringED0Ev
00000000 T _ZN6TArrayIP8TWStringE13RoundCapacityEi
00000000 T _ZN6TArrayIP8TWStringE8ExpandAtEii
         U __cxa_allocate_exception
         U __cxa_throw
00000000 T _ZN6TArrayIP8TWStringE8InsertAtEiRKS1_
00000000 T _ZN6TArrayIP8TWStringE8ShrinkAtEii
00000000 T _ZN6TArrayIP8TWStringE8RemoveAtEii
00000000 T _ZN6TArrayIP8TWStringE5ClearEv
00000000 T _ZNK6TArrayIP8TWStringEixEi
00000000 T _ZN8TListBox11SetPropertyERKNS_8PropertyE
         U _ZN5TNode18OnChildBoundChangeEP8TControl
         U _ZN5TNode8OnResizeEv
         U _ZN5TNode6UpdateEv
000002dc T _ZN8TListBox8PropertyC1Ev
         U _ZN15ControlPropertyC2E11ControlType
         U _ZN5TFontC1Ev
         U _ZN15ControlPropertyD2Ev
00000548 T _ZN8TListBox8PropertyD1Ev
         U _ZN5TFontD1Ev
00000000 T _ZN8TListBox8PropertyC1ERKS0_
00000738 T _ZN8TListBoxC1Eiiiii
         U _ZN8TControlC2EiiiiR5TNode
         U _ZN13TScrollHelperC1ERK6_TSizeIiES3_
00000000 T _ZN8TListBox13ColHeaderInfoD1Ev
         U __cxa_vec_new2
00000000 T _ZN8TListBox13ColHeaderInfoC1Ev
         U _ZN7TVisualC1E9FrameType
         U _ZTV18TNodeEventDelegate
         U _ZN14TScrollBarPairC1EiiiiR8_TMarginIiER7TVisualR12TextProperty
         U _ZN5TNodeC1EiiiiP14TEventDelegateP17TChildrenDelegate
         U _ZN14TScrollBarNode11SetStepSizeEi
         U _ZN5TNode11AddToParentEPS_
         U _ZN12TApplication8InstanceEv
         U _ZNK12TApplication11GetPropertyE11ControlType
         U _ZN5TNodeD1Ev
         U _ZN14TScrollBarPairD1Ev
         U _ZN7TVisualD1Ev
         U _ZN13TScrollHelperD1Ev
         U _ZN8TControlD2Ev
00000f40 T _ZN8TListBoxC2Eiiiii
00000f68 T _ZN8TListBox9ClearRowsEv
         U __cxa_vec_delete
         U _ZN14TScrollBarPair12UpdateLayoutEv
00000ffc T _ZN8TListBoxD1Ev
000013dc T _ZN8TListBoxD0Ev
00001408 T _ZN8TListBoxD2Ev
00001428 T _ZNK8TListBox11GetPropertyEv
000015bc T _ZN8TListBox11ResetScrollEv
         U _ZN13TScrollHelper9XScrollToEiP7_TEventI10EventParamE
         U _ZN13TScrollHelper9YScrollToEiP7_TEventI10EventParamE
00001604 T _ZN8TListBox11ScrollToRowEi
00001670 T _ZN8TListBox6AddRowERK8TWStringi
00001740 T _ZN8TListBox9RemoveRowEii
000017a4 T _ZN8TListBox11SetItemTextEiiRK8TWString
0000189c T _ZNK8TListBox11GetItemTextEii
00001958 T _ZN8TListBox19SetColumnHeaderTextEiRK8TWString
000019e0 T _ZNK8TListBox19GetColumnHeaderTextEi
00001a4c T _ZN8TListBox19SetFixedColumnWidthEii
00001ae8 T _ZNK8TListBox19GetFixedColumnWidthEi
00001b54 T _ZN8TListBox24SetProportionColumnWidthEij
00001bf4 T _ZNK8TListBox24GetProportionColumnWidthEi
00001c60 T _ZNK8TListBox20GetActualColumnWidthEi
00001ce8 T _ZN8TListBox16UpdateViewLayoutERK6_TSizeIiE
         U _ZNK5TFont10GetMetricsER11FontMetrics
         U __div32
         U _ZNK5TFont12GetTextWidthEPKwj
         U _ZN5TNode12SetBoundRectERK6_TRectIiE
         U _ZN13TScrollHelper7SetInfoERK6_TSizeIiES3_RK7_TPointIiEP7_TEventI10EventParamE
000020b8 T _ZN8TListBox19ClientResizeHandlerER10EventParam
000020dc T _ZN8TListBox8DrawListER8TPainter
         U _ZNK7TVisual4DrawER8TPainterRK11VisualStateRK6_TRectIiE
         U _ZN8TPainter6SetPenERK4TPen
         U _ZN12TPixelBufferC1Ev
         U _ZN8TPainter8SetBrushERK6TBrush
         U _ZN12TPixelBufferD1Ev
         U _ZN8TPainter8FillRectERK6_TRectIiE
         U _ZN8TPainter11SetClipRectERK6_TRectIiE
         U _ZN8TPainter7SetFontERK5TFont
         U _ZN8TPainter12SetTextColorERK6TColor
         U _ZN8TPainter11DrawUCSTextERK8TWStringRK6_TRectIiE23TextHorizontalAlignment21TextVerticalAlignment
         U _ZN8TPainter13ClearClipRectEv
00002614 T _ZN8TListBox16ListPaintHandlerER10EventParam
00002638 T _ZN8TListBox16ListMouseHandlerER10EventParam
000026f8 T _ZN8TListBox10DrawHeaderER8TPainter
0000286c T _ZN8TListBox18HeaderPaintHandlerER10EventParam
00002890 T _ZN8TListBox18HeaderMouseHandlerER10EventParam
00002954 T _ZN8TListBox11NodeHandlerER10EventParam
00002a28 T _ZN8TListBox26ScrollContentChangeHandlerER10EventParam
         U _ZN5TNode16SetBoundPositionERK7_TPointIiE
00002b08 T _ZN8TListBox22ScrollBarChangeHandlerER10EventParam
00002bcc T _ZN8TListBox14HScrollHandlerER10EventParam
00002bf8 T _ZN8TListBox14VScrollHandlerER10EventParam
00002c24 T _ZN8TListBox16GainFocusHandlerER10EventParam
00002c28 T _ZN8TListBox16LoseFocusHandlerER10EventParam
00002c2c T _ZN8TListBox17MouseLeaveHandlerER10EventParam
00002c30 T _ZN8TListBox28TScrollViewportResizeHandlerER10EventParam
00002cc4 T _ZN8TListBox8PropertyC2Ev
00002ce4 T _ZN8TListBox8PropertyD2Ev
         U __cxa_pure_virtual
         U _ZTVN10__cxxabiv117__class_type_infoE
         U _ZTVN10__cxxabiv120__si_class_type_infoE
         U _ZTI8TControl

tgsPicture.o:
         U _ZTVSt9exception
         U _ZTVSt13bad_exception
         U _ZTVSt9bad_alloc
         U _ZTV10TException
         U _ZTV17TChildrenDelegate
00000000 V _ZTV6TImage
         U _ZTV14TEventDelegate
00000000 V _ZTV8TPicture
         U _ZTV6TArrayIP5TNodeE
00000000 V _ZTVN7_TEventI10EventParamE15THandlerAdaptorE
         U _ZTV6TArrayI9ColorStopE
00000000 V _ZTVN7_TEventI10EventParamE17MemberFuncHandlerI8TPictureEE
         U _ZTI10TException
         U _ZTI14TEventDelegate
         U _ZTI17TChildrenDelegate
         U _ZTI6TArrayIP5TNodeE
00000000 V _ZTIN7_TEventI10EventParamE15THandlerAdaptorE
00000000 V _ZTIN7_TEventI10EventParamE17MemberFuncHandlerI8TPictureEE
00000000 V _ZTI6TImage
         U _ZTI6TArrayI9ColorStopE
00000000 V _ZTI8TPicture
         U _ZTISt9exception
         U _ZTISt13bad_exception
         U _ZTISt9bad_alloc
         U _ZTS10TException
         U _ZTS14TEventDelegate
         U _ZTS17TChildrenDelegate
         U _ZTS6TArrayIP5TNodeE
00000000 V _ZTSN7_TEventI10EventParamE15THandlerAdaptorE
00000000 V _ZTSN7_TEventI10EventParamE17MemberFuncHandlerI8TPictureEE
00000000 V _ZTS6TImage
         U _ZTS6TArrayI9ColorStopE
00000000 V _ZTS8TPicture
         U _ZTSSt9exception
         U _ZTSSt13bad_exception
         U _ZTSSt9bad_alloc
00000000 T _ZNK6_TRectIiE6AdjustERK8_TMarginIiE
00000000 T _ZNK6_TRectIiEmiERK7_TPointIiE
00000000 T _ZN7_TEventI10EventParamE10SetHandlerI8TPictureEEvPT_NS1_17MemberFuncHandlerIS4_E8FuncTypeE
         U __frameinfo_used
         U _Znwj
         U __diab_Unwind_Resume
         U __diab_personality_v0
00000000 T _ZN7_TEventI10EventParamE15THandlerAdaptorD1Ev
00000000 T _ZN7_TEventI10EventParamE15THandlerAdaptorD0Ev
         U _ZdlPv
00000000 T _ZN7_TEventI10EventParamE17MemberFuncHandlerI8TPictureED1Ev
00000000 T _ZN7_TEventI10EventParamE17MemberFuncHandlerI8TPictureED0Ev
00000000 T _ZNK7_TEventI10EventParamE17MemberFuncHandlerI8TPictureE6InvokeERS0_
00000000 T _ZN7_TEventI10EventParamE17MemberFuncHandlerI8TPictureE3dupEv
00000000 T _ZNK10TSharedPtrI9ImageDataE5DerefEv
         U _ZN9ImageDataD1Ev
00000000 T _ZN10TSharedPtrI9ImageDataEaSERKS1_
00000000 T _ZN6TImageD1Ev
00000000 T _ZN6TImageD0Ev
00000000 T _ZNK8_TMarginIiEneERKS0_
00000000 T _ZN8TPictureC1EiiiiRK6TImage
         U _ZN8TControlC2EiiiiR5TNode
         U _ZTV18TNodeEventDelegate
         U _ZN5TNodeC1EiiiiP14TEventDelegateP17TChildrenDelegate
         U _ZN5TNode6UpdateEv
         U _ZN5TNode18OnChildBoundChangeEP8TControl
         U _ZN5TNode8OnResizeEv
         U _ZN5TNodeD1Ev
         U _ZN8TControlD2Ev
00000210 T _ZN8TPictureC2EiiiiRK6TImage
00000238 T _ZN8TPictureD1Ev
00000344 T _ZN8TPictureD0Ev
00000370 T _ZN8TPictureD2Ev
00000390 T _ZN8TPicture8SetImageERK6TImage
000003c4 T _ZNK8TPicture8GetImageEv
000003cc T _ZN8TPicture12PaintHandlerER10EventParam
         U _ZNK7TVisual4DrawER8TPainterRK11VisualStateRK6_TRectIiE
         U _ZN8TPainter9DrawImageERK6TImageii
000004e8 T _ZN8TPicture11NodeHandlerER10EventParam
         U __cxa_pure_virtual
         U _ZTVN10__cxxabiv117__class_type_infoE
         U _ZTVN10__cxxabiv120__si_class_type_infoE
         U _ZTI8TControl

tgsProgressBar.o:
00000008 d FLOAT_TEMP.2192
         U _ZTVSt9exception
         U _ZTVSt13bad_exception
         U _ZTVSt9bad_alloc
         U _ZTV10TException
         U _ZTV17TChildrenDelegate
         U _ZTV6TImage
00000000 V _ZTV12TProgressBar
         U _ZTV14TEventDelegate
         U _ZTV6TArrayIP5TNodeE
00000000 V _ZTVN7_TEventI10EventParamE15THandlerAdaptorE
         U _ZTV6TArrayI9ColorStopE
00000000 V _ZTVN7_TEventI10EventParamE17MemberFuncHandlerI12TProgressBarEE
         U _ZTI10TException
         U _ZTI14TEventDelegate
         U _ZTI17TChildrenDelegate
         U _ZTI6TArrayIP5TNodeE
00000000 V _ZTIN7_TEventI10EventParamE15THandlerAdaptorE
00000000 V _ZTIN7_TEventI10EventParamE17MemberFuncHandlerI12TProgressBarEE
         U _ZTI6TImage
         U _ZTI6TArrayI9ColorStopE
00000000 V _ZTI12TProgressBar
         U _ZTISt9exception
         U _ZTISt13bad_exception
         U _ZTISt9bad_alloc
         U _ZTS10TException
         U _ZTS14TEventDelegate
         U _ZTS17TChildrenDelegate
         U _ZTS6TArrayIP5TNodeE
00000000 V _ZTSN7_TEventI10EventParamE15THandlerAdaptorE
00000000 V _ZTSN7_TEventI10EventParamE17MemberFuncHandlerI12TProgressBarEE
         U _ZTS6TImage
         U _ZTS6TArrayI9ColorStopE
00000000 V _ZTS12TProgressBar
         U _ZTSSt9exception
         U _ZTSSt13bad_exception
         U _ZTSSt9bad_alloc
00000000 T _ZN6TColorC1Ej
00000000 T _ZN6TColorC1ERKS_
00000000 T _ZN6_TRectIiEC1Ev
         U _ZN6_TRectIiE8nullRectE
00000000 T _ZN6_TRectIiEC1ERKS0_
00000000 T _ZNK6_TRectIiE6AdjustERK8_TMarginIiE
00000000 T _ZNK6_TRectIiEplERK7_TPointIiE
00000000 T _ZNK6_TRectIiEmiERK7_TPointIiE
00000000 T _ZNK6_TRectIiE9IntersectERKS0_
00000000 T _ZN7_TEventI10EventParamE10SetHandlerI12TProgressBarEEvPT_NS1_17MemberFuncHandlerIS4_E8FuncTypeE
         U __frameinfo_used
         U _Znwj
         U __diab_Unwind_Resume
         U __diab_personality_v0
00000000 T _ZN7_TEventI10EventParamE15THandlerAdaptorD1Ev
00000000 T _ZN7_TEventI10EventParamE15THandlerAdaptorD0Ev
         U _ZdlPv
00000000 T _ZN7_TEventI10EventParamE17MemberFuncHandlerI12TProgressBarED1Ev
00000000 T _ZN7_TEventI10EventParamE17MemberFuncHandlerI12TProgressBarED0Ev
00000000 T _ZNK7_TEventI10EventParamE17MemberFuncHandlerI12TProgressBarE6InvokeERS0_
00000000 T _ZN7_TEventI10EventParamE17MemberFuncHandlerI12TProgressBarE3dupEv
00000000 T _ZN13TCustomVisualC1Ev
         U _ZN11TCustomFillC1Ev
         U _ZN11TCustomFillD1Ev
00000000 T _ZN13TCustomVisualC1ERKS_
         U _ZN11TCustomFillC1ERKS_
00000000 T _ZN13TCustomVisualD1Ev
00000000 T _ZN13TCustomVisualaSERKS_
         U _ZN11TCustomFillaSERKS_
00000000 T _ZN12TextPropertyC1ERKS_
         U _ZTV5TFont
00000000 T _ZN12TextPropertyaSERKS_
         U _ZN5TFontaSERKS_
00000000 T _ZN8_TMarginIiEC1ERKS0_
00000000 T _ZNK8_TMarginIiEneERKS0_
00000000 T _ZN12TProgressBar11SetPropertyERKNS_8PropertyE
         U _ZN5TNode18OnChildBoundChangeEP8TControl
         U _ZN5TNode8OnResizeEv
         U _ZN5TNode6UpdateEv
000001b4 T _ZN12TProgressBar8PropertyC1Ev
         U _ZN15ControlPropertyC2E11ControlType
         U _ZN5TFontC1Ev
         U _ZN5TFontD1Ev
         U _ZN15ControlPropertyD2Ev
00000340 T _ZN12TProgressBar8PropertyD1Ev
00000000 T _ZN12TProgressBar8PropertyC1ERKS0_
00000440 T _ZN12TProgressBarC1Eiiii15OrientationTypeiii
         U _ZN8TControlC2EiiiiR5TNode
         U _ZTV18TNodeEventDelegate
         U _ZN5TNodeC1EiiiiP14TEventDelegateP17TChildrenDelegate
         U _ZN7TVisualC1E9FrameType
         U _ZN12TApplication8InstanceEv
         U _ZNK12TApplication11GetPropertyE11ControlType
         U _ZN7TVisualD1Ev
         U _ZN5TNodeD1Ev
         U _ZN8TControlD2Ev
00000810 T _ZN12TProgressBarC2Eiiii15OrientationTypeiii
00000858 T _ZN12TProgressBarD1Ev
000009e4 T _ZN12TProgressBarD0Ev
00000a10 T _ZN12TProgressBarD2Ev
00000a30 T _ZNK12TProgressBar11GetPropertyEv
00000b78 T _ZN12TProgressBar14SetOrientationE15OrientationType
00000000 T _ZNK8_TLinearIiE5ClampEi
00000bf4 T _ZN12TProgressBar8SetRangeEii
00000c58 T _ZN12TProgressBar14ChangeProgressEi
00000cd4 T _ZN12TProgressBar11SetProgressEi
00000d24 T _ZN12TProgressBar15DrawProgressBarER8TPainter
         U _ZNK7TVisual4DrawER8TPainterRK11VisualStateRK6_TRectIiE
         U __div32
         U _ZN8TPainter11SetClipRectERK6_TRectIiE
         U _ZN8TPainter13ClearClipRectEv
         U snprintf
         U _Z10AnsiToWidePwPKci
         U _ZN8TPainter12SetTextColorERK6TColor
         U _ZN8TPainter7SetFontERK5TFont
         U _ZN8TPainter11DrawUCSTextEPKwiRK6_TRectIiE23TextHorizontalAlignment21TextVerticalAlignment
000012e0 T _ZN12TProgressBar12PaintHandlerER10EventParam
00001304 T _ZN12TProgressBar11NodeHandlerER10EventParam
00001330 T _ZN12TProgressBar8PropertyC2Ev
00001350 T _ZN12TProgressBar8PropertyD2Ev
         U __cxa_pure_virtual
         U _ZTVN10__cxxabiv117__class_type_infoE
         U _ZTVN10__cxxabiv120__si_class_type_infoE
         U _ZTI8TControl

tgsRadioButton.o:
         U _ZTVSt9exception
         U _ZTVSt13bad_exception
         U _ZTVSt9bad_alloc
00000000 V _ZTV10TException
00000000 V _ZTV17TChildrenDelegate
         U _ZTV6TImage
00000000 V _ZTV12TRadioButton
00000000 V _ZTVN12TRadioButton10TRadioItemE
         U _ZTV14TEventDelegate
00000000 V _ZTV6TArrayIP5TNodeE
00000000 V _ZTVN7_TEventI10EventParamE15THandlerAdaptorE
         U _ZTV6TArrayI9ColorStopE
00000000 V _ZTVN7_TEventI10EventParamE17MemberFuncHandlerI12TRadioButtonEE
00000000 V _ZTI10TException
         U _ZTI14TEventDelegate
00000000 V _ZTI17TChildrenDelegate
00000000 V _ZTI6TArrayIP5TNodeE
00000000 V _ZTIN7_TEventI10EventParamE15THandlerAdaptorE
00000000 V _ZTIN7_TEventI10EventParamE17MemberFuncHandlerI12TRadioButtonEE
         U _ZTI6TImage
         U _ZTI6TArrayI9ColorStopE
00000000 V _ZTI12TRadioButton
00000000 V _ZTIN12TRadioButton10TRadioItemE
         U _ZTISt9exception
         U _ZTISt13bad_exception
         U _ZTISt9bad_alloc
00000000 V _ZTS10TException
         U _ZTS14TEventDelegate
00000000 V _ZTS17TChildrenDelegate
00000000 V _ZTS6TArrayIP5TNodeE
00000000 V _ZTSN7_TEventI10EventParamE15THandlerAdaptorE
00000000 V _ZTSN7_TEventI10EventParamE17MemberFuncHandlerI12TRadioButtonEE
         U _ZTS6TImage
         U _ZTS6TArrayI9ColorStopE
00000000 V _ZTS12TRadioButton
00000000 V _ZTSN12TRadioButton10TRadioItemE
         U _ZTSSt9exception
         U _ZTSSt13bad_exception
         U _ZTSSt9bad_alloc
00000000 T _ZN10TExceptionD1Ev
00000000 T _ZN10TExceptionD0Ev
         U _ZdlPv
00000000 T _ZN6TColorC1Ej
00000000 T _ZN6TColorC1ERKS_
00000000 T _ZN8TWStringC1ERKS_
         U __frameinfo_used
         U _Znaj
         U memcpy
00000000 T _ZN8TWStringaSERKS_
         U _ZdaPv
00000000 T _ZN6_TRectIiEC1Ev
         U _ZN6_TRectIiE8nullRectE
00000000 T _ZN6_TRectIiEC1ERKS0_
00000000 T _ZNK6_TRectIiE6AdjustERK8_TMarginIiE
00000000 T _ZNK6_TRectIiEmiERK7_TPointIiE
00000000 T _ZN6_TRectIiEpLERK7_TPointIiE
00000000 T _ZN6TArrayIP5TNodeED1Ev
00000000 T _ZN6TArrayIP5TNodeED0Ev
00000000 T _ZN14TNodeContainerC1EiiiiP14TEventDelegate
         U _ZN5TNodeC2EiiiiP14TEventDelegateP17TChildrenDelegate
         U _ZTV14TNodeContainer
00000000 T _ZN7_TEventI10EventParamE10SetHandlerI12TRadioButtonEEvPT_NS1_17MemberFuncHandlerIS4_E8FuncTypeE
         U _Znwj
         U __diab_Unwind_Resume
         U __diab_personality_v0
00000000 T _ZN7_TEventI10EventParamE15THandlerAdaptorD1Ev
00000000 T _ZN7_TEventI10EventParamE15THandlerAdaptorD0Ev
00000000 T _ZN7_TEventI10EventParamE17MemberFuncHandlerI12TRadioButtonED1Ev
00000000 T _ZN7_TEventI10EventParamE17MemberFuncHandlerI12TRadioButtonED0Ev
00000000 T _ZNK7_TEventI10EventParamE17MemberFuncHandlerI12TRadioButtonE6InvokeERS0_
00000000 T _ZN7_TEventI10EventParamE17MemberFuncHandlerI12TRadioButtonE3dupEv
00000000 T _ZN13TCustomVisualC1Ev
         U _ZN11TCustomFillC1Ev
         U _ZN11TCustomFillD1Ev
00000000 T _ZN13TCustomVisualC1ERKS_
         U _ZN11TCustomFillC1ERKS_
00000000 T _ZN13TCustomVisualD1Ev
00000000 T _ZN13TCustomVisualaSERKS_
         U _ZN11TCustomFillaSERKS_
00000000 T _ZN12TextPropertyC1ERKS_
         U _ZTV5TFont
00000000 T _ZN12TextPropertyaSERKS_
         U _ZN5TFontaSERKS_
00000000 T _ZN8_TMarginIiEC1ERKS0_
00000000 T _ZNK8_TMarginIiEneERKS0_
00000000 T _ZN12TRadioButton37SetUncheckedIndicatorVisualToAllItemsERK13TCustomVisual
         U _ZNK14TNodeContainerixEi
         U _ZN5TNode6UpdateEv
0000006c T _ZN12TRadioButton35SetCheckedIndicatorVisualToAllItemsERK13TCustomVisual
000000d8 T _ZN12TRadioButton33SetUncheckedFrameVisualToAllItemsERK13TCustomVisual
00000144 T _ZN12TRadioButton31SetCheckedFrameVisualToAllItemsERK13TCustomVisual
000001b0 T _ZN12TRadioButton11SetPropertyERKNS_8PropertyE
         U _ZN5TNode18OnChildBoundChangeEP8TControl
         U _ZN5TNode8OnResizeEv
00000398 T _ZN12TRadioButton8PropertyC1Ev
         U _ZN15ControlPropertyC2E11ControlType
         U _ZN5TFontC1Ev
         U _ZN15ControlPropertyD2Ev
00000538 T _ZN12TRadioButton8PropertyD1Ev
         U _ZN5TFontD1Ev
00000000 T _ZN12TRadioButton8PropertyC1ERKS0_
00000660 T _ZN12TRadioButtonC1Eiiii
         U _ZN8TControlC2EiiiiR5TNode
         U _ZTV18TNodeEventDelegate
         U _ZN12TApplication8InstanceEv
         U _ZNK12TApplication11GetPropertyE11ControlType
         U _ZN5TNodeD2Ev
         U _ZN8TControlD2Ev
000008f4 T _ZN12TRadioButtonC2Eiiii
0000091c T _ZN12TRadioButton10ClearItemsEv
         U _ZN14TNodeContainer11RemoveChildEP5TNode
00000998 T _ZN12TRadioButtonD1Ev
00000b50 T _ZN12TRadioButtonD0Ev
00000b7c T _ZN12TRadioButtonD2Ev
00000b9c T _ZNK12TRadioButton11GetPropertyEv
00000c80 T _ZN12TRadioButton10TRadioItemC1EP14TEventDelegateRK8TWString
         U _ZN7TVisualC1E9FrameType
         U _ZN5TNode18SetVisualStateMaskEiiii
         U _ZN7TVisualD1Ev
00000e74 T _ZN12TRadioButton7AddItemERK8TWString
         U _ZN14TNodeContainer8AddChildEP5TNodei
00000f80 T _ZNK12TRadioButton12GetItemCountEv
00000f88 T _ZNK12TRadioButton12GetSelectionEv
00000ffc T _ZN12TRadioButton18ChangeSelectedItemEPNS_10TRadioItemE
000010a0 T _ZN12TRadioButton15ChangeSelectionEi
         U __cxa_allocate_exception
         U __cxa_throw
00001124 T _ZN12TRadioButton15SetSelectedItemEPNS_10TRadioItemE
00001194 T _ZN12TRadioButton12SetSelectionEi
00001218 T _ZN12TRadioButton14SetItemsPerRowEi
000012bc T _ZN12TRadioButton27SetUncheckedIndicatorVisualEiRK13TCustomVisual
0000134c T _ZN12TRadioButton25SetCheckedIndicatorVisualEiRK13TCustomVisual
000013dc T _ZN12TRadioButton23SetUncheckedFrameVisualEiRK13TCustomVisual
00001488 T _ZN12TRadioButton21SetCheckedFrameVisualEiRK13TCustomVisual
00001518 T _ZN12TRadioButton11OnItemMouseERN5TNode15MouseEventParamE
         U _ZN5TNode9SetActiveEi
000015e4 T _ZN12TRadioButton8OnResizeERN5TNode16ResizeEventParamE
         U __div32
         U _ZN5TNode12SetBoundRectERK6_TRectIiE
000018f8 T _ZN12TRadioButton13DrawRadioItemER8TPainterPNS_10TRadioItemE
         U _ZNK7TVisual4DrawER8TPainterRK11VisualStateRK6_TRectIiE
         U _ZN8TPainter11SetClipRectERK6_TRectIiE
         U _ZN8TPainter12SetTextColorERK6TColor
         U _ZN8TPainter7SetFontERK5TFont
         U _ZN8TPainter11DrawUCSTextERK8TWStringRK6_TRectIiE23TextHorizontalAlignment21TextVerticalAlignment
         U _ZN8TPainter13ClearClipRectEv
00001af4 T _ZN12TRadioButton11NodeHandlerER10EventParam
         U _ZNK14TNodeContainer7IndexOfEPK5TNode
00001c3c T _ZN12TRadioButton8PropertyC2Ev
00001c5c T _ZN12TRadioButton8PropertyD2Ev
00001c7c T _ZN12TRadioButton10TRadioItemC2EP14TEventDelegateRK8TWString
00001c9c T _ZN12TRadioButton10TRadioItemD1Ev
00001db0 T _ZN12TRadioButton10TRadioItemD0Ev
00001ddc T _ZN12TRadioButton10TRadioItemD2Ev
00001e04 T _ZN12TRadioButton10TRadioItemaSERKS0_
         U __cxa_pure_virtual
         U _ZTVN10__cxxabiv117__class_type_infoE
         U _ZTVN10__cxxabiv120__si_class_type_infoE
         U _ZTI8TControl
         U _ZTI5TNode

tgsScale.o:
         U _ZTVSt9exception
         U _ZTVSt13bad_exception
         U _ZTVSt9bad_alloc
00000000 V _ZTV10TException
         U _ZTV17TChildrenDelegate
         U _ZTV6TImage
00000000 V _ZTV6TScale
         U _ZTV14TEventDelegate
         U _ZTV6TArrayIP5TNodeE
00000000 V _ZTVN7_TEventI10EventParamE15THandlerAdaptorE
         U _ZTV6TArrayI9ColorStopE
00000000 V _ZTV6TArrayI8TWStringE
00000000 V _ZTVN7_TEventI10EventParamE17MemberFuncHandlerI6TScaleEE
00000000 V _ZTI10TException
         U _ZTI14TEventDelegate
         U _ZTI17TChildrenDelegate
         U _ZTI6TArrayIP5TNodeE
00000000 V _ZTIN7_TEventI10EventParamE15THandlerAdaptorE
00000000 V _ZTIN7_TEventI10EventParamE17MemberFuncHandlerI6TScaleEE
         U _ZTI6TImage
         U _ZTI6TArrayI9ColorStopE
00000000 V _ZTI6TArrayI8TWStringE
00000000 V _ZTI6TScale
         U _ZTISt9exception
         U _ZTISt13bad_exception
         U _ZTISt9bad_alloc
00000000 V _ZTS10TException
         U _ZTS14TEventDelegate
         U _ZTS17TChildrenDelegate
         U _ZTS6TArrayIP5TNodeE
00000000 V _ZTSN7_TEventI10EventParamE15THandlerAdaptorE
00000000 V _ZTSN7_TEventI10EventParamE17MemberFuncHandlerI6TScaleEE
         U _ZTS6TImage
         U _ZTS6TArrayI9ColorStopE
00000000 V _ZTS6TArrayI8TWStringE
00000000 V _ZTS6TScale
         U _ZTSSt9exception
         U _ZTSSt13bad_exception
         U _ZTSSt9bad_alloc
00000000 T _ZN10TExceptionD1Ev
00000000 T _ZN10TExceptionD0Ev
         U _ZdlPv
00000000 T _ZN6TColorC1Ej
00000000 T _ZN6TColorC1ERKS_
00000000 T _ZN8TWStringC1Ev
         U __frameinfo_used
         U _Znaj
00000000 T _ZN8TWStringC1ERK7TString
00000000 T _ZN8TWStringD1Ev
         U _ZdaPv
00000000 T _ZN8TWStringaSERKS_
         U memcpy
00000000 T _ZN7_TEventI10EventParamE10SetHandlerI6TScaleEEvPT_NS1_17MemberFuncHandlerIS4_E8FuncTypeE
         U _Znwj
         U __diab_Unwind_Resume
         U __diab_personality_v0
00000000 T _ZN7_TEventI10EventParamE15THandlerAdaptorD1Ev
00000000 T _ZN7_TEventI10EventParamE15THandlerAdaptorD0Ev
00000000 T _ZN7_TEventI10EventParamE17MemberFuncHandlerI6TScaleED1Ev
00000000 T _ZN7_TEventI10EventParamE17MemberFuncHandlerI6TScaleED0Ev
00000000 T _ZNK7_TEventI10EventParamE17MemberFuncHandlerI6TScaleE6InvokeERS0_
00000000 T _ZN7_TEventI10EventParamE17MemberFuncHandlerI6TScaleE3dupEv
00000000 T _ZN8TPainter8DrawLineEiiii
         U _ZN8TPainter8DrawLineERK7_TPointIiES3_
00000000 T _ZN12TextPropertyaSERKS_
         U _ZN5TFontaSERKS_
00000000 T _ZN6TArrayI8TWStringED1Ev
         U __cxa_vec_delete
00000000 T _ZN6TArrayI8TWStringED0Ev
00000000 T _ZN6TArrayI8TWStringE13RoundCapacityEi
00000000 T _ZN6TArrayI8TWStringE8ExpandAtEii
         U __cxa_vec_new2
         U __cxa_allocate_exception
         U __cxa_throw
00000000 T _ZN6TArrayI8TWStringE8InsertAtEiRKS0_
00000000 T _ZN6TArrayI8TWStringE5ClearEv
00000000 T _ZNK6TArrayI8TWStringEixEi
00000000 T _ZN6TScale14GenerateLabelsERK8_TLinearIiERKNS_9ScaleInfoER6TArrayI8TWStringE
         U _ZN7TStringC1Ev
         U __div32
         U _ZN7TString6FormatEiPKcz
         U free
00000000 T _ZN6TScale9ScaleInfoaSERKS0_
00000148 T _ZN6TScale12SetScaleInfoERKNS_9ScaleInfoE
00000180 T _ZN6TScale8SetRangeERK8_TLinearIiE
000001e8 T _ZN6TScale9ScaleInfoC1Ev
         U _ZN5TFontC1Ev
000002ec T _ZN6TScaleC1Eiiii15OrientationType
         U _ZN8TControlC2EiiiiR5TNode
         U _ZTV18TNodeEventDelegate
         U _ZN5TNodeC1EiiiiP14TEventDelegateP17TChildrenDelegate
         U _ZN5TFontD1Ev
         U _ZN5TNodeD1Ev
         U _ZN8TControlD2Ev
000004cc T _ZN6TScaleC2Eiiii15OrientationType
000004f4 T _ZN6TScaleD1Ev
00000610 T _ZN6TScaleD0Ev
0000063c T _ZN6TScaleD2Ev
0000065c T _ZN6TScale14GenerateLabelsERK8_TLinearIfERKNS_9ScaleInfoER6TArrayI8TWStringE
000007b8 T _ZN6TScale10DrawXScaleER8TPainteriiiRKNS_9ScaleInfoERK6TArrayI8TWStringE
         U _ZNK5TFont10GetMetricsER11FontMetrics
         U _ZN8TPainter6SetPenERK4TPen
         U _ZN8TPainter12SetTextColorERK6TColor
         U _ZN8TPainter7SetFontERK5TFont
         U _ZN8TPainter11DrawUCSTextERK8TWStringRK6_TRectIiE23TextHorizontalAlignment21TextVerticalAlignment
00000a4c T _ZN6TScale10DrawYScaleER8TPainteriiiRKNS_9ScaleInfoERK6TArrayI8TWStringE
00000d20 T _ZN6TScale8OnResizeERN5TNode16ResizeEventParamE
00000d94 T _ZN6TScale7OnPaintERN5TNode15PaintEventParamE
00000df4 T _ZN6TScale11NodeHandlerER10EventParam
00000e3c T _ZN6TScale9ScaleInfoC2Ev
         U __cxa_pure_virtual
         U _ZTVN10__cxxabiv117__class_type_infoE
         U _ZTVN10__cxxabiv120__si_class_type_infoE
         U _ZTI8TControl

tgsScrollArea.o:
         U _ZTVSt9exception
         U _ZTVSt13bad_exception
         U _ZTVSt9bad_alloc
         U _ZTV10TException
00000000 V _ZTV17TChildrenDelegate
         U _ZTV6TImage
00000000 V _ZTV11TScrollArea
         U _ZTV14TEventDelegate
         U _ZTV6TArrayIP5TNodeE
00000000 V _ZTVN7_TEventI10EventParamE15THandlerAdaptorE
         U _ZTV6TArrayI9ColorStopE
00000000 V _ZTVN7_TEventI10EventParamE17MemberFuncHandlerI11TScrollAreaEE
         U _ZTI10TException
         U _ZTI14TEventDelegate
00000000 V _ZTI17TChildrenDelegate
         U _ZTI6TArrayIP5TNodeE
00000000 V _ZTIN7_TEventI10EventParamE15THandlerAdaptorE
00000000 V _ZTIN7_TEventI10EventParamE17MemberFuncHandlerI11TScrollAreaEE
         U _ZTI6TImage
         U _ZTI6TArrayI9ColorStopE
00000000 V _ZTI11TScrollArea
         U _ZTISt9exception
         U _ZTISt13bad_exception
         U _ZTISt9bad_alloc
         U _ZTS10TException
         U _ZTS14TEventDelegate
00000000 V _ZTS17TChildrenDelegate
         U _ZTS6TArrayIP5TNodeE
00000000 V _ZTSN7_TEventI10EventParamE15THandlerAdaptorE
00000000 V _ZTSN7_TEventI10EventParamE17MemberFuncHandlerI11TScrollAreaEE
         U _ZTS6TImage
         U _ZTS6TArrayI9ColorStopE
00000000 V _ZTS11TScrollArea
         U _ZTSSt9exception
         U _ZTSSt13bad_exception
         U _ZTSSt9bad_alloc
00000000 T _ZN6_TRectIiEC1ERKS0_
00000000 T _ZN10TNodeArrayC1EiiiiP14TEventDelegatei
         U __frameinfo_used
         U _ZN5TNodeC2EiiiiP14TEventDelegateP17TChildrenDelegate
         U _ZTV10TNodeArray
         U _Znaj
         U memset
         U _ZN5TNodeD2Ev
         U __diab_Unwind_Resume
         U __diab_personality_v0
00000000 T _ZN7_TEventI10EventParamE10SetHandlerI11TScrollAreaEEvPT_NS1_17MemberFuncHandlerIS4_E8FuncTypeE
         U _Znwj
00000000 T _ZN7_TEventI10EventParamE15THandlerAdaptorD1Ev
00000000 T _ZN7_TEventI10EventParamE15THandlerAdaptorD0Ev
         U _ZdlPv
00000000 T _ZN7_TEventI10EventParamE17MemberFuncHandlerI11TScrollAreaED1Ev
00000000 T _ZN7_TEventI10EventParamE17MemberFuncHandlerI11TScrollAreaED0Ev
00000000 T _ZNK7_TEventI10EventParamE17MemberFuncHandlerI11TScrollAreaE6InvokeERS0_
00000000 T _ZN7_TEventI10EventParamE17MemberFuncHandlerI11TScrollAreaE3dupEv
00000000 T _ZN13TCustomVisualC1Ev
         U _ZN11TCustomFillC1Ev
         U _ZN11TCustomFillD1Ev
00000000 T _ZN13TCustomVisualC1ERKS_
         U _ZN11TCustomFillC1ERKS_
00000000 T _ZN13TCustomVisualD1Ev
00000000 T _ZN13TCustomVisualaSERKS_
         U _ZN11TCustomFillaSERKS_
00000000 T _ZNK8_TMarginIiEneERKS0_
00000000 T _ZN14TScrollBarPair20SetScrollBarPairDataERK6_TSizeIiES3_RK7_TPointIiE
         U _ZN14TScrollBarNode13SetScrollDataEiii
00000000 T _ZN11TScrollArea11SetPropertyERKNS_8PropertyE
         U _ZN5TNode8OnResizeEv
         U _ZN5TNode6UpdateEv
         U _ZN5TNode18OnChildBoundChangeEP8TControl
00000318 T _ZN11TScrollArea8PropertyC1Ev
         U _ZN15ControlPropertyC2E11ControlType
         U _ZN15ControlPropertyD2Ev
000004d8 T _ZN11TScrollArea8PropertyD1Ev
00000000 T _ZN11TScrollArea8PropertyC1ERKS0_
00000678 T _ZN11TScrollAreaC1Eiiiiii
         U _ZN8TControlC2EiiiiR5TNode
         U _ZN7TVisualC1E9FrameType
         U _ZTV18TNodeEventDelegate
         U _ZN6TPanelC1Eiiii
         U _ZN14TScrollBarPairC1EiiiiR8_TMarginIiER7TVisualR12TextProperty
         U _ZN5TNode12SetBoundRectERK6_TRectIiE
         U _ZN5TNode11AddToParentEPS_
         U _ZN14TScrollBarNode11SetStepSizeEi
         U _ZN12TApplication8InstanceEv
         U _ZNK12TApplication11GetPropertyE11ControlType
         U _ZN14TScrollBarPairD1Ev
         U _ZN6TPanelD1Ev
         U _ZN7TVisualD1Ev
         U _ZN8TControlD2Ev
00000c7c T _ZN11TScrollAreaC2Eiiiiii
00000cb4 T _ZN11TScrollAreaD1Ev
00000e44 T _ZN11TScrollAreaD0Ev
00000e70 T _ZN11TScrollAreaD2Ev
00000e90 T _ZNK11TScrollArea11GetPropertyEv
00000f90 T _ZN11TScrollArea17SetScrollAreaSizeERK6_TSizeIiE
         U _ZN5TNode12SetBoundSizeERK6_TSizeIiE
00000fe8 T _ZNK11TScrollArea17GetScrollAreaSizeEv
00001028 T _ZN11TScrollArea16SetScrollAreaPosERK7_TPointIiE
         U _ZN14TScrollBarNode12SetScrollPosEi
         U _ZN5TNode16SetBoundPositionERK7_TPointIiE
000010b0 T _ZNK11TScrollArea16GetScrollAreaPosEv
000010d0 T _ZN11TScrollArea21UpdateAfterSizeChangeEv
000011f4 T _ZN11TScrollArea14HScrollHandlerER10EventParam
0000127c T _ZN11TScrollArea14VScrollHandlerER10EventParam
000012f8 T _ZN11TScrollArea28TScrollViewportResizeHandlerER10EventParam
000013d4 T _ZN11TScrollArea8PropertyC2Ev
000013f4 T _ZN11TScrollArea8PropertyD2Ev
         U __cxa_pure_virtual
         U _ZTVN10__cxxabiv117__class_type_infoE
         U _ZTVN10__cxxabiv120__si_class_type_infoE
         U _ZTI8TControl

tgsScrollBarPair.o:
         U _ZTVSt9exception
         U _ZTVSt13bad_exception
         U _ZTVSt9bad_alloc
         U _ZTV10TException
00000000 V _ZTV17TChildrenDelegate
         U _ZTV6TImage
00000000 V _ZTV14TScrollBarPair
         U _ZTV14TEventDelegate
         U _ZTV6TArrayIP5TNodeE
00000000 V _ZTVN7_TEventI10EventParamE15THandlerAdaptorE
         U _ZTV6TArrayI9ColorStopE
00000000 V _ZTVN7_TEventI10EventParamE17MemberFuncHandlerI14TScrollBarPairEE
         U _ZTI10TException
         U _ZTI14TEventDelegate
00000000 V _ZTI17TChildrenDelegate
         U _ZTI6TArrayIP5TNodeE
00000000 V _ZTIN7_TEventI10EventParamE15THandlerAdaptorE
00000000 V _ZTIN7_TEventI10EventParamE17MemberFuncHandlerI14TScrollBarPairEE
         U _ZTI6TImage
         U _ZTI6TArrayI9ColorStopE
00000000 V _ZTI14TScrollBarPair
         U _ZTISt9exception
         U _ZTISt13bad_exception
         U _ZTISt9bad_alloc
         U _ZTS10TException
         U _ZTS14TEventDelegate
00000000 V _ZTS17TChildrenDelegate
         U _ZTS6TArrayIP5TNodeE
00000000 V _ZTSN7_TEventI10EventParamE15THandlerAdaptorE
00000000 V _ZTSN7_TEventI10EventParamE17MemberFuncHandlerI14TScrollBarPairEE
         U _ZTS6TImage
         U _ZTS6TArrayI9ColorStopE
00000000 V _ZTS14TScrollBarPair
         U _ZTSSt9exception
         U _ZTSSt13bad_exception
         U _ZTSSt9bad_alloc
00000000 T _ZN6_TRectIiEC1Ev
         U _ZN6_TRectIiE8nullRectE
00000000 T _ZN6_TRectIiEC1ERKS0_
00000000 T _ZNK6_TRectIiE6AdjustERK8_TMarginIiE
00000000 T _ZNK6_TRectIiEmiERK7_TPointIiE
00000000 T _ZN10TNodeArrayC1EiiiiP14TEventDelegatei
         U __frameinfo_used
         U _ZN5TNodeC2EiiiiP14TEventDelegateP17TChildrenDelegate
         U _ZTV10TNodeArray
         U _Znaj
         U memset
         U _ZN5TNodeD2Ev
         U __diab_Unwind_Resume
         U __diab_personality_v0
00000000 T _ZN7_TEventI10EventParamE10SetHandlerI14TScrollBarPairEEvPT_NS1_17MemberFuncHandlerIS4_E8FuncTypeE
         U _Znwj
00000000 T _ZN7_TEventI10EventParamE15THandlerAdaptorD1Ev
00000000 T _ZN7_TEventI10EventParamE15THandlerAdaptorD0Ev
         U _ZdlPv
00000000 T _ZN7_TEventI10EventParamE17MemberFuncHandlerI14TScrollBarPairED1Ev
00000000 T _ZN7_TEventI10EventParamE17MemberFuncHandlerI14TScrollBarPairED0Ev
00000000 T _ZNK7_TEventI10EventParamE17MemberFuncHandlerI14TScrollBarPairE6InvokeERS0_
00000000 T _ZN7_TEventI10EventParamE17MemberFuncHandlerI14TScrollBarPairE3dupEv
00000000 T _ZN14TScrollBarPairC1EiiiiR8_TMarginIiER7TVisualR12TextProperty
         U _ZN7TVisualC1E9FrameType
         U _ZTV18TNodeEventDelegate
         U _ZN14TScrollBarNodeC1Eiiii15OrientationTypeiiiR7TVisualS2_S2_S2_R12TextProperty
         U _ZN14TScrollBarNode12SetScrollPosEi
         U _ZN5TNode11AddToParentEPS_
         U _ZN14TScrollBarNodeD1Ev
         U _ZN7TVisualD1Ev
00000438 T _ZN14TScrollBarPairC2EiiiiR8_TMarginIiER7TVisualR12TextProperty
00000478 T _ZN14TScrollBarPairD1Ev
00000748 T _ZN14TScrollBarPairD0Ev
00000774 T _ZN14TScrollBarPairD2Ev
00000794 T _ZN14TScrollBarPair25UpdateScrollBarShowPolicyEv
000007f8 T _ZN14TScrollBarPair12UpdateLayoutERK6_TSizeIiE
         U _ZN5TNode8OnResizeEv
         U _ZN5TNode6UpdateEv
         U _ZN5TNode12SetBoundRectERK6_TRectIiE
00000b70 T _ZN14TScrollBarPair12UpdateLayoutEv
00000c0c T _ZN14TScrollBarPair13ResizeHandlerER10EventParam
00000c30 T _ZN14TScrollBarPair11NodeHandlerER10EventParam
         U _ZNK7TVisual4DrawER8TPainterRK11VisualStateRK6_TRectIiE
         U __cxa_pure_virtual
         U _ZNK10TNodeArray8GetCountEv
         U _ZN10TNodeArray7GetNodeEi
         U _ZThn40_NK10TNodeArray8GetCountEv
         U _ZThn40_N10TNodeArray7GetNodeEi
         U _ZTVN10__cxxabiv117__class_type_infoE
         U _ZTVN10__cxxabiv120__si_class_type_infoE
         U _ZTI10TNodeArray

tgsScrollHelper.o:
         U _ZTVSt9exception
         U _ZTVSt13bad_exception
         U _ZTVSt9bad_alloc
         U _ZTV10TException
         U _ZTV17TChildrenDelegate
         U _ZTV6TImage
00000000 V _ZTV13TScrollHelper
         U _ZTV6TArrayIP5TNodeE
         U _ZTV6TArrayI9ColorStopE
         U _ZTI10TException
         U _ZTI17TChildrenDelegate
         U _ZTI6TArrayIP5TNodeE
         U _ZTI6TImage
         U _ZTI6TArrayI9ColorStopE
00000000 V _ZTI13TScrollHelper
         U _ZTISt9exception
         U _ZTISt13bad_exception
         U _ZTISt9bad_alloc
         U _ZTS10TException
         U _ZTS17TChildrenDelegate
         U _ZTS6TArrayIP5TNodeE
         U _ZTS6TImage
         U _ZTS6TArrayI9ColorStopE
00000000 V _ZTS13TScrollHelper
         U _ZTSSt9exception
         U _ZTSSt13bad_exception
         U _ZTSSt9bad_alloc
00000000 T _Z17GetValidScrollPosiii
00000034 T _ZN13TScrollHelperC1ERK6_TSizeIiES3_
00000080 T _ZN13TScrollHelperC2ERK6_TSizeIiES3_
000000a0 T _ZN13TScrollHelperD1Ev
000000b0 T _ZN13TScrollHelperD0Ev
         U _ZdlPv
000000dc T _ZN13TScrollHelperD2Ev
000000fc T _ZN13TScrollHelper6AdjustEP7_TEventI10EventParamE
         U __frameinfo_used
         U __diab_Unwind_Resume
         U __diab_personality_v0
000001d0 T _ZN13TScrollHelper12SetTotalSizeERK6_TSizeIiEP7_TEventI10EventParamE
0000022c T _ZN13TScrollHelper11SetPageSizeERK6_TSizeIiEP7_TEventI10EventParamE
00000288 T _ZN13TScrollHelper7SetInfoERK6_TSizeIiES3_P7_TEventI10EventParamE
00000310 T _ZN13TScrollHelper7SetInfoERK6_TSizeIiES3_RK7_TPointIiEP7_TEventI10EventParamE
000003c8 T _ZN13TScrollHelper9XScrollToEiP7_TEventI10EventParamE
000003fc T _ZN13TScrollHelper9YScrollToEiP7_TEventI10EventParamE
00000430 T _ZN13TScrollHelper8ScrollToERK7_TPointIiEP7_TEventI10EventParamE
         U _ZTVN10__cxxabiv117__class_type_infoE

tgsScrollBarNode.o:
00000018 d FLOAT_TEMP.1634
         U _ZTVSt9exception
         U _ZTVSt13bad_exception
         U _ZTVSt9bad_alloc
         U _ZTV10TException
00000000 V _ZTV17TChildrenDelegate
         U _ZTV6TImage
00000000 V _ZTV12TScrollThumb
00000000 V _ZTV14TScrollBarNode
         U _ZTV14TEventDelegate
         U _ZTV6TArrayIP5TNodeE
00000000 V _ZTVN7_TEventI10EventParamE15THandlerAdaptorE
         U _ZTV6TArrayI9ColorStopE
00000000 V _ZTVN7_TEventI10EventParamE17MemberFuncHandlerI14TScrollBarNodeEE
         U _ZTI10TException
         U _ZTI14TEventDelegate
00000000 V _ZTI17TChildrenDelegate
         U _ZTI6TArrayIP5TNodeE
00000000 V _ZTIN7_TEventI10EventParamE15THandlerAdaptorE
00000000 V _ZTIN7_TEventI10EventParamE17MemberFuncHandlerI14TScrollBarNodeEE
         U _ZTI6TImage
         U _ZTI6TArrayI9ColorStopE
00000000 V _ZTI12TScrollThumb
00000000 V _ZTI14TScrollBarNode
         U _ZTISt9exception
         U _ZTISt13bad_exception
         U _ZTISt9bad_alloc
         U _ZTS10TException
         U _ZTS14TEventDelegate
00000000 V _ZTS17TChildrenDelegate
         U _ZTS6TArrayIP5TNodeE
00000000 V _ZTSN7_TEventI10EventParamE15THandlerAdaptorE
00000000 V _ZTSN7_TEventI10EventParamE17MemberFuncHandlerI14TScrollBarNodeEE
         U _ZTS6TImage
         U _ZTS6TArrayI9ColorStopE
00000000 V _ZTS12TScrollThumb
00000000 V _ZTS14TScrollBarNode
         U _ZTSSt9exception
         U _ZTSSt13bad_exception
         U _ZTSSt9bad_alloc
00000000 T _ZN6_TRectIiEC1Ev
         U _ZN6_TRectIiE8nullRectE
00000000 T _ZN6_TRectIiEC1ERKS0_
00000000 T _ZNK6_TRectIiEmiERK7_TPointIiE
00000000 T _ZN5TNode10SetEnabledEi
         U __frameinfo_used
         U _ZN5TNode24RouteDimStateChangeEventEv
00000000 T _ZN10TNodeArrayC1EiiiiP14TEventDelegatei
         U _ZN5TNodeC2EiiiiP14TEventDelegateP17TChildrenDelegate
         U _ZTV10TNodeArray
         U _Znaj
         U memset
         U _ZN5TNodeD2Ev
         U __diab_Unwind_Resume
         U __diab_personality_v0
00000000 T _ZN7_TEventI10EventParamE10SetHandlerI14TScrollBarNodeEEvPT_NS1_17MemberFuncHandlerIS4_E8FuncTypeE
         U _Znwj
00000000 T _ZN7_TEventI10EventParamE15THandlerAdaptorD1Ev
00000000 T _ZN7_TEventI10EventParamE15THandlerAdaptorD0Ev
         U _ZdlPv
00000000 T _ZN7_TEventI10EventParamE17MemberFuncHandlerI14TScrollBarNodeED1Ev
00000000 T _ZN7_TEventI10EventParamE17MemberFuncHandlerI14TScrollBarNodeED0Ev
00000000 T _ZNK7_TEventI10EventParamE17MemberFuncHandlerI14TScrollBarNodeE6InvokeERS0_
00000000 T _ZN7_TEventI10EventParamE17MemberFuncHandlerI14TScrollBarNodeE3dupEv
00000000 T _ZNK8_TLinearIiE5ClampEi
00000000 T _ZN12TScrollThumbC1ER5TNodeR7_TEventI10EventParamE
00000058 T _ZN12TScrollThumbC2ER5TNodeR7_TEventI10EventParamE
00000078 T _ZN12TScrollThumbD1Ev
00000088 T _ZN12TScrollThumbD0Ev
000000b4 T _ZN12TScrollThumbD2Ev
000000d4 T _ZN12TScrollThumb9BeginDragEi
000000ec T _ZN12TScrollThumb4DragEi
         U __div32
000001b0 T _ZN12TScrollThumb11AdjustThumbEv
         U _Z9round_intf
0000023c T _ZN12TScrollThumb7EndDragEi
00000268 T _ZNK12TScrollThumb11GetThumbLenEv
00000270 T _ZNK12TScrollThumb11GetThumbPosEv
00000278 T _ZN12TScrollThumb22SetTrackAndThumbLengthEii
000002b0 T _ZN12TScrollThumb12SetScrollPosEi
000002e4 T _ZN12TScrollThumb13SetScrollDataEiii
00000360 T _ZN12TScrollThumb8ScrollToEi
000003dc T _ZN12TScrollThumb8ScrollByEi
0000045c T _ZN14TScrollBarNode11UpdateThumbEv
         U _ZN5TNode12SetBoundRectERK6_TRectIiE
0000058c T _ZN14TScrollBarNode13SetScrollDataEiii
000005e0 T _ZN14TScrollBarNodeC1Eiiii15OrientationTypeiiiR7TVisualS2_S2_S2_R12TextProperty
         U _ZTV18TNodeEventDelegate
         U _ZN5TNodeC1EiiiiP14TEventDelegateP17TChildrenDelegate
         U _ZN15TPushButtonNodeC1EiiiiR7TVisualR12TextProperty
         U _ZN5TNode18SetVisualStateMaskEiiii
         U _ZN5TNode11AddToParentEPS_
         U _ZN15TPushButtonNodeD1Ev
         U _ZN5TNodeD1Ev
00000974 T _ZN14TScrollBarNodeC2Eiiii15OrientationTypeiiiR7TVisualS2_S2_S2_R12TextProperty
000009ec T _ZN14TScrollBarNodeD1Ev
00000bb0 T _ZN14TScrollBarNodeD0Ev
00000bdc T _ZN14TScrollBarNodeD2Ev
00000bfc T _ZN14TScrollBarNode11SetStepSizeEi
00000c04 T _ZN14TScrollBarNode14SetOrientationE15OrientationType
         U _ZN5TNode8OnResizeEv
         U _ZN5TNode6UpdateEv
00000c4c T _ZN14TScrollBarNode12SetScrollPosEi
00000c7c T _ZN14TScrollBarNode8ScrollToEi
00000cac T _ZN14TScrollBarNode8ScrollByEi
00000cdc T _ZN14TScrollBarNode23UpdateArrowAndTrackSizeERK6_TSizeIiE
00000e70 T _ZN14TScrollBarNode13ResizeHandlerER10EventParam
00000e94 T _ZN14TScrollBarNode17ThumbMouseHandlerER10EventParam
00001004 T _ZN14TScrollBarNode11NodeHandlerER10EventParam
         U _ZNK7TVisual4DrawER8TPainterRK11VisualStateRK6_TRectIiE
00001108 T _ZN14TScrollBarNode20NegativeClickHandlerER10EventParam
00001140 T _ZN14TScrollBarNode20PositiveClickHandlerER10EventParam
         U __cxa_pure_virtual
         U _ZNK10TNodeArray8GetCountEv
         U _ZN10TNodeArray7GetNodeEi
         U _ZThn40_NK10TNodeArray8GetCountEv
         U _ZThn40_N10TNodeArray7GetNodeEi
         U _ZTVN10__cxxabiv117__class_type_infoE
         U _ZTVN10__cxxabiv120__si_class_type_infoE
         U _ZTI10TNodeArray

tgsScrollBar.o:
         U _ZTVSt9exception
         U _ZTVSt13bad_exception
         U _ZTVSt9bad_alloc
         U _ZTV10TException
         U _ZTV17TChildrenDelegate
         U _ZTV6TImage
00000000 V _ZTV10TScrollBar
         U _ZTV6TArrayIP5TNodeE
00000000 V _ZTVN7_TEventI10EventParamE15THandlerAdaptorE
         U _ZTV6TArrayI9ColorStopE
00000000 V _ZTVN7_TEventI10EventParamE17MemberFuncHandlerI10TScrollBarEE
         U _ZTI10TException
         U _ZTI17TChildrenDelegate
         U _ZTI6TArrayIP5TNodeE
00000000 V _ZTIN7_TEventI10EventParamE15THandlerAdaptorE
00000000 V _ZTIN7_TEventI10EventParamE17MemberFuncHandlerI10TScrollBarEE
         U _ZTI6TImage
         U _ZTI6TArrayI9ColorStopE
00000000 V _ZTI10TScrollBar
         U _ZTISt9exception
         U _ZTISt13bad_exception
         U _ZTISt9bad_alloc
         U _ZTS10TException
         U _ZTS17TChildrenDelegate
         U _ZTS6TArrayIP5TNodeE
00000000 V _ZTSN7_TEventI10EventParamE15THandlerAdaptorE
00000000 V _ZTSN7_TEventI10EventParamE17MemberFuncHandlerI10TScrollBarEE
         U _ZTS6TImage
         U _ZTS6TArrayI9ColorStopE
00000000 V _ZTS10TScrollBar
         U _ZTSSt9exception
         U _ZTSSt13bad_exception
         U _ZTSSt9bad_alloc
00000000 T _ZN7_TEventI10EventParamE10SetHandlerI10TScrollBarEEvPT_NS1_17MemberFuncHandlerIS4_E8FuncTypeE
         U __frameinfo_used
         U _Znwj
         U __diab_Unwind_Resume
         U __diab_personality_v0
00000000 T _ZN7_TEventI10EventParamE15THandlerAdaptorD1Ev
00000000 T _ZN7_TEventI10EventParamE15THandlerAdaptorD0Ev
         U _ZdlPv
00000000 T _ZN7_TEventI10EventParamE17MemberFuncHandlerI10TScrollBarED1Ev
00000000 T _ZN7_TEventI10EventParamE17MemberFuncHandlerI10TScrollBarED0Ev
00000000 T _ZNK7_TEventI10EventParamE17MemberFuncHandlerI10TScrollBarE6InvokeERS0_
00000000 T _ZN7_TEventI10EventParamE17MemberFuncHandlerI10TScrollBarE3dupEv
00000000 T _ZN13TCustomVisualC1Ev
         U _ZN11TCustomFillC1Ev
         U _ZN11TCustomFillD1Ev
00000000 T _ZN13TCustomVisualC1ERKS_
         U _ZN11TCustomFillC1ERKS_
00000000 T _ZN13TCustomVisualD1Ev
00000000 T _ZN13TCustomVisualaSERKS_
         U _ZN11TCustomFillaSERKS_
00000000 T _ZN10TScrollBar11SetPropertyERKNS_8PropertyE
         U _ZN5TNode8OnResizeEv
         U _ZN5TNode6UpdateEv
00000110 T _ZN10TScrollBar8PropertyC1Ev
         U _ZN15ControlPropertyC2E11ControlType
         U _ZN15ControlPropertyD2Ev
000001f8 T _ZN10TScrollBar8PropertyD1Ev
00000000 T _ZN10TScrollBar8PropertyC1ERKS0_
000002d0 T _ZN10TScrollBarC1Eiiii15OrientationTypeiii
         U _ZN8TControlC2EiiiiR5TNode
         U _ZN7TVisualC1E9FrameType
         U _ZN14TScrollBarNodeC1Eiiii15OrientationTypeiiiR7TVisualS2_S2_S2_R12TextProperty
         U _ZN14TScrollBarNode13SetScrollDataEiii
         U _ZN12TApplication8InstanceEv
         U _ZNK12TApplication11GetPropertyE11ControlType
         U _ZN14TScrollBarNodeD1Ev
         U _ZN7TVisualD1Ev
         U _ZN8TControlD2Ev
000005d4 T _ZN10TScrollBarC2Eiiii15OrientationTypeiii
0000061c T _ZN10TScrollBarD1Ev
00000770 T _ZN10TScrollBarD0Ev
0000079c T _ZN10TScrollBarD2Ev
000007bc T _ZNK10TScrollBar11GetPropertyEv
00000870 T _ZN10TScrollBar14SetOrientationE15OrientationType
         U _ZN14TScrollBarNode14SetOrientationE15OrientationType
000008d4 T _ZN10TScrollBar13ScrollHandlerER10EventParam
00000914 T _ZN10TScrollBar8PropertyC2Ev
00000934 T _ZN10TScrollBar8PropertyD2Ev
         U __cxa_pure_virtual
         U _ZTVN10__cxxabiv117__class_type_infoE
         U _ZTVN10__cxxabiv120__si_class_type_infoE
         U _ZTI8TControl

tgsSlider.o:
00000008 d FLOAT_TEMP.2178
         U _ZTVSt9exception
         U _ZTVSt13bad_exception
         U _ZTVSt9bad_alloc
         U _ZTV10TException
00000000 V _ZTV17TChildrenDelegate
         U _ZTV6TImage
00000000 V _ZTV7TSlider
         U _ZTV14TEventDelegate
         U _ZTV6TArrayIP5TNodeE
00000000 V _ZTVN7_TEventI10EventParamE15THandlerAdaptorE
         U _ZTV6TArrayI9ColorStopE
00000000 V _ZTVN7_TEventI10EventParamE17MemberFuncHandlerI7TSliderEE
         U _ZTI10TException
         U _ZTI14TEventDelegate
00000000 V _ZTI17TChildrenDelegate
         U _ZTI6TArrayIP5TNodeE
00000000 V _ZTIN7_TEventI10EventParamE15THandlerAdaptorE
00000000 V _ZTIN7_TEventI10EventParamE17MemberFuncHandlerI7TSliderEE
         U _ZTI6TImage
         U _ZTI6TArrayI9ColorStopE
00000000 V _ZTI7TSlider
         U _ZTISt9exception
         U _ZTISt13bad_exception
         U _ZTISt9bad_alloc
         U _ZTS10TException
         U _ZTS14TEventDelegate
00000000 V _ZTS17TChildrenDelegate
         U _ZTS6TArrayIP5TNodeE
00000000 V _ZTSN7_TEventI10EventParamE15THandlerAdaptorE
00000000 V _ZTSN7_TEventI10EventParamE17MemberFuncHandlerI7TSliderEE
         U _ZTS6TImage
         U _ZTS6TArrayI9ColorStopE
00000000 V _ZTS7TSlider
         U _ZTSSt9exception
         U _ZTSSt13bad_exception
         U _ZTSSt9bad_alloc
00000000 T _ZN6_TRectIiEC1Ev
         U _ZN6_TRectIiE8nullRectE
00000000 T _ZNK6_TRectIiE6AdjustERK8_TMarginIiE
00000000 T _ZNK6_TRectIiEmiERK7_TPointIiE
00000000 T _ZN10TNodeArrayC1EiiiiP14TEventDelegatei
         U __frameinfo_used
         U _ZN5TNodeC2EiiiiP14TEventDelegateP17TChildrenDelegate
         U _ZTV10TNodeArray
         U _Znaj
         U memset
         U _ZN5TNodeD2Ev
         U __diab_Unwind_Resume
         U __diab_personality_v0
00000000 T _ZN7_TEventI10EventParamE10SetHandlerI7TSliderEEvPT_NS1_17MemberFuncHandlerIS4_E8FuncTypeE
         U _Znwj
00000000 T _ZN7_TEventI10EventParamE15THandlerAdaptorD1Ev
00000000 T _ZN7_TEventI10EventParamE15THandlerAdaptorD0Ev
         U _ZdlPv
00000000 T _ZN7_TEventI10EventParamE17MemberFuncHandlerI7TSliderED1Ev
00000000 T _ZN7_TEventI10EventParamE17MemberFuncHandlerI7TSliderED0Ev
00000000 T _ZNK7_TEventI10EventParamE17MemberFuncHandlerI7TSliderE6InvokeERS0_
00000000 T _ZN7_TEventI10EventParamE17MemberFuncHandlerI7TSliderE3dupEv
00000000 T _ZN13TCustomVisualC1Ev
         U _ZN11TCustomFillC1Ev
         U _ZN11TCustomFillD1Ev
00000000 T _ZN13TCustomVisualC1ERKS_
         U _ZN11TCustomFillC1ERKS_
00000000 T _ZN13TCustomVisualD1Ev
00000000 T _ZN13TCustomVisualaSERKS_
         U _ZN11TCustomFillaSERKS_
00000000 T _ZNK8_TMarginIiEneERKS0_
00000000 T _ZNK8_TLinearIiE5ClampEi
00000000 T _ZN7TSlider11SetPropertyERKNS_8PropertyE
         U _ZN5TNode18OnChildBoundChangeEP8TControl
         U _ZN5TNode8OnResizeEv
         U _ZN5TNode6UpdateEv
0000022c T _ZN7TSlider8PropertyC1Ev
         U _ZN15ControlPropertyC2E11ControlType
         U _ZN15ControlPropertyD2Ev
00000300 T _ZN7TSlider8PropertyD1Ev
00000000 T _ZN7TSlider8PropertyC1ERKS0_
000003b0 T _ZN7TSliderC1Eiiii15OrientationTypeiii
         U _ZN8TControlC2EiiiiR5TNode
         U _ZN7TVisualC1E9FrameType
         U _ZTV18TNodeEventDelegate
         U _ZN5TNodeC1EiiiiP14TEventDelegateP17TChildrenDelegate
         U _ZN5TNode18SetVisualStateMaskEiiii
         U _ZN5TNode11AddToParentEPS_
         U _ZN12TApplication8InstanceEv
         U _ZNK12TApplication11GetPropertyE11ControlType
         U _ZN5TNodeD1Ev
         U _ZN7TVisualD1Ev
         U _ZN8TControlD2Ev
00000800 T _ZN7TSliderC2Eiiii15OrientationTypeiii
00000848 T _ZN7TSliderD1Ev
00000a1c T _ZN7TSliderD0Ev
00000a48 T _ZN7TSliderD2Ev
00000a68 T _ZNK7TSlider11GetPropertyEv
00000b04 T _ZN7TSlider14SetOrientationE15OrientationType
00000b80 T _ZN7TSlider11AdjustThumbEv
         U _Z9round_intf
         U _ZN5TNode16SetBoundPositionERK7_TPointIiE
00000c70 T _ZN7TSlider8SetRangeEii
00000c98 T _ZN7TSlider8SetValueEi
00000ccc T _ZN7TSlider7SlideToEi
00000d50 T _ZN7TSlider7SlideByEi
00000dd8 T _ZN7TSlider12UpdateLayoutERK6_TSizeIiE
         U _ZN5TNode12SetBoundRectERK6_TRectIiE
000010e0 T _ZN7TSlider13ResizeHandlerER10EventParam
00001104 T _ZN7TSlider17ThumbMouseHandlerER10EventParam
         U __div32
000012d0 T _ZN7TSlider17TrackPaintHandlerER10EventParam
         U _ZNK7TVisual4DrawER8TPainterRK11VisualStateRK6_TRectIiE
00001374 T _ZN7TSlider17ThumbPaintHandlerER10EventParam
000013e0 T _ZN7TSlider11NodeHandlerER10EventParam
00001494 T _ZN7TSlider8PropertyC2Ev
000014b4 T _ZN7TSlider8PropertyD2Ev
         U __cxa_pure_virtual
         U _ZTVN10__cxxabiv117__class_type_infoE
         U _ZTVN10__cxxabiv120__si_class_type_infoE
         U _ZTI8TControl

tgsSpinBox.o:
         U _ZTVSt9exception
         U _ZTVSt13bad_exception
         U _ZTVSt9bad_alloc
00000000 V _ZTV10TException
         U _ZTV17TChildrenDelegate
         U _ZTV6TImage
00000000 V _ZTV8TSpinBox
         U _ZTV6TArrayIP5TNodeE
00000000 V _ZTVN7_TEventI10EventParamE15THandlerAdaptorE
         U _ZTV6TArrayI9ColorStopE
00000000 V _ZTVN7_TEventI10EventParamE17MemberFuncHandlerI8TSpinBoxEE
00000000 V _ZTI10TException
         U _ZTI17TChildrenDelegate
         U _ZTI6TArrayIP5TNodeE
00000000 V _ZTIN7_TEventI10EventParamE15THandlerAdaptorE
00000000 V _ZTIN7_TEventI10EventParamE17MemberFuncHandlerI8TSpinBoxEE
         U _ZTI6TImage
         U _ZTI6TArrayI9ColorStopE
00000000 V _ZTI8TSpinBox
         U _ZTISt9exception
         U _ZTISt13bad_exception
         U _ZTISt9bad_alloc
00000000 V _ZTS10TException
         U _ZTS17TChildrenDelegate
         U _ZTS6TArrayIP5TNodeE
00000000 V _ZTSN7_TEventI10EventParamE15THandlerAdaptorE
00000000 V _ZTSN7_TEventI10EventParamE17MemberFuncHandlerI8TSpinBoxEE
         U _ZTS6TImage
         U _ZTS6TArrayI9ColorStopE
00000000 V _ZTS8TSpinBox
         U _ZTSSt9exception
         U _ZTSSt13bad_exception
         U _ZTSSt9bad_alloc
00000000 T _ZN10TExceptionD1Ev
00000000 T _ZN10TExceptionD0Ev
         U _ZdlPv
00000000 T _ZN6TColorC1Ej
00000000 T _ZN6TColorC1ERKS_
00000000 T _ZN8TWStringC1EPKw
         U __frameinfo_used
         U __cxa_allocate_exception
         U __cxa_throw
         U _Znaj
         U memcpy
00000000 T _ZN8TWStringC1ERK7TString
00000000 T _ZN7_TEventI10EventParamE10SetHandlerI8TSpinBoxEEvPT_NS1_17MemberFuncHandlerIS4_E8FuncTypeE
         U _Znwj
         U __diab_Unwind_Resume
         U __diab_personality_v0
00000000 T _ZN7_TEventI10EventParamE15THandlerAdaptorD1Ev
00000000 T _ZN7_TEventI10EventParamE15THandlerAdaptorD0Ev
00000000 T _ZN7_TEventI10EventParamE17MemberFuncHandlerI8TSpinBoxED1Ev
00000000 T _ZN7_TEventI10EventParamE17MemberFuncHandlerI8TSpinBoxED0Ev
00000000 T _ZNK7_TEventI10EventParamE17MemberFuncHandlerI8TSpinBoxE6InvokeERS0_
00000000 T _ZN7_TEventI10EventParamE17MemberFuncHandlerI8TSpinBoxE3dupEv
00000000 T _ZN13TCustomVisualC1Ev
         U _ZN11TCustomFillC1Ev
         U _ZN11TCustomFillD1Ev
00000000 T _ZN13TCustomVisualC1ERKS_
         U _ZN11TCustomFillC1ERKS_
00000000 T _ZN13TCustomVisualD1Ev
00000000 T _ZN13TCustomVisualaSERKS_
         U _ZN11TCustomFillaSERKS_
00000000 T _ZN12TextPropertyC1ERKS_
         U _ZTV5TFont
00000000 T _ZN12TextPropertyaSERKS_
         U _ZN5TFontaSERKS_
00000000 T _ZN8_TMarginIiEC1ERKS0_
00000000 T _ZNK8_TMarginIiEneERKS0_
00000000 T _ZN8TSpinBox11SetPropertyERKNS_8PropertyE
         U _ZN5TNode18OnChildBoundChangeEP8TControl
         U _ZN5TNode8OnResizeEv
         U _ZN5TNode6UpdateEv
00000170 T _ZN8TSpinBox11UpdateValueEv
         U _ZN7TStringC1Ev
         U _ZN7TString6FormatEiPKcz
         U _ZN9TEditNode7SetTextERK8TWString
         U _ZdaPv
         U free
00000284 T _ZN8TSpinBox8PropertyC1Ev
         U _ZN15ControlPropertyC2E11ControlType
         U _ZN5TFontC1Ev
         U _ZN5TFontD1Ev
         U _ZN15ControlPropertyD2Ev
000003d0 T _ZN8TSpinBox8PropertyD1Ev
00000000 T _ZN8TSpinBox8PropertyC1ERKS0_
000004d0 T _ZN8TSpinBoxC1Eiiii
         U _ZN11TSpinLayoutC2EiiiiR5TNodeS1_S1_
         U _ZN7TVisualC1E9FrameType
         U _ZN9TEditNodeC1EiiiiR8_TMarginIiER7TVisualR12TextPropertyRK8TWString
         U _ZN15TPushButtonNodeC1EiiiiR7TVisualR12TextProperty
         U _ZN5TNode11AddToParentEPS_
         U _ZN12TApplication8InstanceEv
         U _ZNK12TApplication11GetPropertyE11ControlType
         U _ZN15TPushButtonNodeD1Ev
         U _ZN9TEditNodeD1Ev
         U _ZN7TVisualD1Ev
         U _ZN11TSpinLayoutD2Ev
00000918 T _ZN8TSpinBoxC2Eiiii
00000940 T _ZN8TSpinBoxD1Ev
00000abc T _ZN8TSpinBoxD0Ev
00000ae8 T _ZN8TSpinBoxD2Ev
00000b08 T _ZNK8TSpinBox11GetPropertyEv
00000bf0 T _ZN8TSpinBox11SetMaxValueEi
00000c20 T _ZN8TSpinBox11SetMinValueEi
00000c50 T _ZN8TSpinBox12SetIncrementEi
00000c80 T _ZN8TSpinBox11ChangeValueEi
00000ce0 T _ZN8TSpinBox8SetValueEi
00000d10 T _ZN8TSpinBox17ArrowClickHandlerER10EventParam
00000dd8 T _ZN8TSpinBox8PropertyC2Ev
00000df8 T _ZN8TSpinBox8PropertyD2Ev
         U __cxa_pure_virtual
         U _ZTVN10__cxxabiv117__class_type_infoE
         U _ZTVN10__cxxabiv120__si_class_type_infoE
         U _ZTI11TSpinLayout

tgsSpinLayout.o:
         U _ZTVSt9exception
         U _ZTVSt13bad_exception
         U _ZTVSt9bad_alloc
00000000 V _ZTV10TException
00000000 V _ZTV17TChildrenDelegate
         U _ZTV6TImage
         U _ZTV14TEventDelegate
00000000 V _ZTV11TSpinLayout
         U _ZTV6TArrayIP5TNodeE
00000000 V _ZTVN7_TEventI10EventParamE15THandlerAdaptorE
         U _ZTV6TArrayI9ColorStopE
00000000 V _ZTVN7_TEventI10EventParamE17MemberFuncHandlerI11TSpinLayoutEE
00000000 V _ZTI10TException
         U _ZTI14TEventDelegate
00000000 V _ZTI17TChildrenDelegate
         U _ZTI6TArrayIP5TNodeE
00000000 V _ZTIN7_TEventI10EventParamE15THandlerAdaptorE
00000000 V _ZTIN7_TEventI10EventParamE17MemberFuncHandlerI11TSpinLayoutEE
         U _ZTI6TImage
         U _ZTI6TArrayI9ColorStopE
00000000 V _ZTI11TSpinLayout
         U _ZTISt9exception
         U _ZTISt13bad_exception
         U _ZTISt9bad_alloc
00000000 V _ZTS10TException
         U _ZTS14TEventDelegate
00000000 V _ZTS17TChildrenDelegate
         U _ZTS6TArrayIP5TNodeE
00000000 V _ZTSN7_TEventI10EventParamE15THandlerAdaptorE
00000000 V _ZTSN7_TEventI10EventParamE17MemberFuncHandlerI11TSpinLayoutEE
         U _ZTS6TImage
         U _ZTS6TArrayI9ColorStopE
00000000 V _ZTS11TSpinLayout
         U _ZTSSt9exception
         U _ZTSSt13bad_exception
         U _ZTSSt9bad_alloc
00000000 T _ZN10TExceptionD1Ev
00000000 T _ZN10TExceptionD0Ev
         U _ZdlPv
00000000 T _ZN6_TRectIiEC1Ev
         U _ZN6_TRectIiE8nullRectE
00000000 T _ZNK6_TRectIiE6AdjustERK8_TMarginIiE
00000000 T _ZNK6_TRectIiEmiERK7_TPointIiE
00000000 T _ZN10TNodeArrayC1EiiiiP14TEventDelegatei
         U __frameinfo_used
         U _ZN5TNodeC2EiiiiP14TEventDelegateP17TChildrenDelegate
         U _ZTV10TNodeArray
         U _Znaj
         U memset
         U _ZN5TNodeD2Ev
         U __diab_Unwind_Resume
         U __diab_personality_v0
00000000 T _ZN7_TEventI10EventParamE10SetHandlerI11TSpinLayoutEEvPT_NS1_17MemberFuncHandlerIS4_E8FuncTypeE
         U _Znwj
00000000 T _ZN7_TEventI10EventParamE15THandlerAdaptorD1Ev
00000000 T _ZN7_TEventI10EventParamE15THandlerAdaptorD0Ev
00000000 T _ZN7_TEventI10EventParamE17MemberFuncHandlerI11TSpinLayoutED1Ev
00000000 T _ZN7_TEventI10EventParamE17MemberFuncHandlerI11TSpinLayoutED0Ev
00000000 T _ZNK7_TEventI10EventParamE17MemberFuncHandlerI11TSpinLayoutE6InvokeERS0_
00000000 T _ZN7_TEventI10EventParamE17MemberFuncHandlerI11TSpinLayoutE3dupEv
00000000 T _ZNK8_TMarginIiEneERKS0_
00000000 T _ZNK6TArrayIN11TGridLayout10LayoutInfoEEixEi
         U __cxa_allocate_exception
         U __cxa_throw
00000000 T _ZN11TGridLayout13SetColumnSizeEiNS_12LayoutMethodEi
00000000 T _ZN11TSpinLayoutC1EiiiiR5TNodeS1_S1_
         U _ZN8TControlC2EiiiiR5TNode
         U _ZTV18TNodeEventDelegate
         U _ZN11TGridLayoutC1Eii
         U _ZN5TNode6UpdateEv
         U _ZN5TNode18OnChildBoundChangeEP8TControl
         U _ZN5TNode8OnResizeEv
         U _ZN5TNode11AddToParentEPS_
         U _ZN11TGridLayoutD1Ev
         U _ZN8TControlD2Ev
00000314 T _ZN11TSpinLayoutC2EiiiiR5TNodeS1_S1_
00000354 T _ZN11TSpinLayoutD1Ev
000004c4 T _ZN11TSpinLayoutD0Ev
000004f0 T _ZN11TSpinLayoutD2Ev
00000510 T _ZN11TSpinLayout13ResizeHandlerER10EventParam
         U _ZN11TGridLayout8DoLayoutERK6_TRectIiE
         U _ZNK11TGridLayout11GetCellRectERK8GridCell
         U _ZN5TNode12SetBoundRectERK6_TRectIiE
000008b4 T _ZN11TSpinLayout11NodeHandlerER10EventParam
         U _ZNK7TVisual4DrawER8TPainterRK11VisualStateRK6_TRectIiE
         U __cxa_pure_virtual
         U _ZTVN10__cxxabiv117__class_type_infoE
         U _ZTVN10__cxxabiv120__si_class_type_infoE
         U _ZTI8TControl

tgsTextSpinBox.o:
         U _ZTVSt9exception
         U _ZTVSt13bad_exception
         U _ZTVSt9bad_alloc
00000000 V _ZTV10TException
         U _ZTV17TChildrenDelegate
         U _ZTV6TImage
00000000 V _ZTV12TTextSpinBox
         U _ZTV6TArrayIP5TNodeE
00000000 V _ZTVN7_TEventI10EventParamE15THandlerAdaptorE
         U _ZTV6TArrayI9ColorStopE
00000000 V _ZTV6TArrayI8TWStringE
00000000 V _ZTVN7_TEventI10EventParamE17MemberFuncHandlerI12TTextSpinBoxEE
00000000 V _ZTI10TException
         U _ZTI17TChildrenDelegate
         U _ZTI6TArrayIP5TNodeE
00000000 V _ZTIN7_TEventI10EventParamE15THandlerAdaptorE
00000000 V _ZTIN7_TEventI10EventParamE17MemberFuncHandlerI12TTextSpinBoxEE
         U _ZTI6TImage
         U _ZTI6TArrayI9ColorStopE
00000000 V _ZTI6TArrayI8TWStringE
00000000 V _ZTI12TTextSpinBox
         U _ZTISt9exception
         U _ZTISt13bad_exception
         U _ZTISt9bad_alloc
00000000 V _ZTS10TException
         U _ZTS17TChildrenDelegate
         U _ZTS6TArrayIP5TNodeE
00000000 V _ZTSN7_TEventI10EventParamE15THandlerAdaptorE
00000000 V _ZTSN7_TEventI10EventParamE17MemberFuncHandlerI12TTextSpinBoxEE
         U _ZTS6TImage
         U _ZTS6TArrayI9ColorStopE
00000000 V _ZTS6TArrayI8TWStringE
00000000 V _ZTS12TTextSpinBox
         U _ZTSSt9exception
         U _ZTSSt13bad_exception
         U _ZTSSt9bad_alloc
00000000 T _ZN10TExceptionD1Ev
00000000 T _ZN10TExceptionD0Ev
         U _ZdlPv
00000000 T _ZN6TColorC1Ej
00000000 T _ZN6TColorC1ERKS_
00000000 T _ZN8TWStringC1Ev
         U __frameinfo_used
         U _Znaj
00000000 T _ZN8TWStringC1ERKS_
         U memcpy
00000000 T _ZN8TWStringD1Ev
         U _ZdaPv
00000000 T _ZN8TWStringaSERKS_
00000000 T _ZN7_TEventI10EventParamE10SetHandlerI12TTextSpinBoxEEvPT_NS1_17MemberFuncHandlerIS4_E8FuncTypeE
         U _Znwj
         U __diab_Unwind_Resume
         U __diab_personality_v0
00000000 T _ZN7_TEventI10EventParamE15THandlerAdaptorD1Ev
00000000 T _ZN7_TEventI10EventParamE15THandlerAdaptorD0Ev
00000000 T _ZN7_TEventI10EventParamE17MemberFuncHandlerI12TTextSpinBoxED1Ev
00000000 T _ZN7_TEventI10EventParamE17MemberFuncHandlerI12TTextSpinBoxED0Ev
00000000 T _ZNK7_TEventI10EventParamE17MemberFuncHandlerI12TTextSpinBoxE6InvokeERS0_
00000000 T _ZN7_TEventI10EventParamE17MemberFuncHandlerI12TTextSpinBoxE3dupEv
00000000 T _ZN13TCustomVisualC1Ev
         U _ZN11TCustomFillC1Ev
         U _ZN11TCustomFillD1Ev
00000000 T _ZN13TCustomVisualC1ERKS_
         U _ZN11TCustomFillC1ERKS_
00000000 T _ZN13TCustomVisualD1Ev
00000000 T _ZN13TCustomVisualaSERKS_
         U _ZN11TCustomFillaSERKS_
00000000 T _ZN12TextPropertyC1ERKS_
         U _ZTV5TFont
00000000 T _ZN12TextPropertyaSERKS_
         U _ZN5TFontaSERKS_
00000000 T _ZN8_TMarginIiEC1ERKS0_
00000000 T _ZNK8_TMarginIiEneERKS0_
00000000 T _ZN6TArrayI8TWStringED1Ev
         U __cxa_vec_delete
00000000 T _ZN6TArrayI8TWStringED0Ev
00000000 T _ZN6TArrayI8TWStringE13RoundCapacityEi
00000000 T _ZN6TArrayI8TWStringE8ExpandAtEii
         U __cxa_vec_new2
         U __cxa_allocate_exception
         U __cxa_throw
00000000 T _ZN6TArrayI8TWStringE8InsertAtEiRKS0_
00000000 T _ZN6TArrayI8TWStringE5ClearEv
00000000 T _ZNK6TArrayI8TWStringEixEi
00000000 T _ZN12TTextSpinBox11SetPropertyERKNS_8PropertyE
         U _ZN5TNode18OnChildBoundChangeEP8TControl
         U _ZN5TNode8OnResizeEv
         U _ZN5TNode6UpdateEv
00000170 T _ZN12TTextSpinBox8PropertyC1Ev
         U _ZN15ControlPropertyC2E11ControlType
         U _ZN5TFontC1Ev
         U _ZN5TFontD1Ev
         U _ZN15ControlPropertyD2Ev
000002bc T _ZN12TTextSpinBox8PropertyD1Ev
00000000 T _ZN12TTextSpinBox8PropertyC1ERKS0_
000003bc T _ZN12TTextSpinBoxC1Eiiii
         U _ZN11TSpinLayoutC2EiiiiR5TNodeS1_S1_
         U _ZN7TVisualC1E9FrameType
         U _ZN10TLabelNodeC1EiiiiRK8TWStringR8_TMarginIiER7TVisualR12TextProperty
         U _ZN15TPushButtonNodeC1EiiiiR7TVisualR12TextProperty
         U _ZN5TNode11AddToParentEPS_
         U _ZN12TApplication8InstanceEv
         U _ZNK12TApplication11GetPropertyE11ControlType
         U _ZN15TPushButtonNodeD1Ev
         U _ZN10TLabelNodeD1Ev
         U _ZN7TVisualD1Ev
         U _ZN11TSpinLayoutD2Ev
0000085c T _ZN12TTextSpinBoxC2Eiiii
00000884 T _ZN12TTextSpinBoxD1Ev
00000a48 T _ZN12TTextSpinBoxD0Ev
00000a74 T _ZN12TTextSpinBoxD2Ev
00000a94 T _ZNK12TTextSpinBox11GetPropertyEv
00000b7c T _ZN12TTextSpinBox7AddItemERK8TWString
00000ba8 T _ZN12TTextSpinBox10ClearItemsEv
00000c54 T _ZNK12TTextSpinBox12GetItemCountEv
00000c5c T _ZNK12TTextSpinBox16GetSelectionTextEv
00000ca4 T _ZN12TTextSpinBox15ChangeSelectionEi
00000dd8 T _ZN12TTextSpinBox12SetSelectionEi
00000ec8 T _ZNK12TTextSpinBox12GetSelectionEv
00000ed0 T _ZN12TTextSpinBox17ArrowClickHandlerER10EventParam
00000f60 T _ZN12TTextSpinBox8PropertyC2Ev
00000f80 T _ZN12TTextSpinBox8PropertyD2Ev
         U __cxa_pure_virtual
         U _ZTVN10__cxxabiv117__class_type_infoE
         U _ZTVN10__cxxabiv120__si_class_type_infoE
         U _ZTI11TSpinLayout

tgsTab.o:
         U _ZTVSt9exception
         U _ZTVSt13bad_exception
         U _ZTVSt9bad_alloc
00000000 V _ZTV10TException
00000000 V _ZTV17TChildrenDelegate
         U _ZTV6TImage
00000000 V _ZTV4TTab
         U _ZTV14TEventDelegate
00000000 V _ZTV6TArrayIP5TNodeE
00000000 V _ZTVN7_TEventI10EventParamE15THandlerAdaptorE
         U _ZTV6TArrayI9ColorStopE
00000000 V _ZTV6TArrayIN4TTab7TabInfoEE
00000000 V _ZTVN7_TEventI10EventParamE17MemberFuncHandlerI4TTabEE
00000000 V _ZTI10TException
         U _ZTI14TEventDelegate
00000000 V _ZTI17TChildrenDelegate
00000000 V _ZTI6TArrayIP5TNodeE
00000000 V _ZTIN7_TEventI10EventParamE15THandlerAdaptorE
00000000 V _ZTIN7_TEventI10EventParamE17MemberFuncHandlerI4TTabEE
         U _ZTI6TImage
         U _ZTI6TArrayI9ColorStopE
00000000 V _ZTI6TArrayIN4TTab7TabInfoEE
00000000 V _ZTI4TTab
         U _ZTISt9exception
         U _ZTISt13bad_exception
         U _ZTISt9bad_alloc
00000000 V _ZTS10TException
         U _ZTS14TEventDelegate
00000000 V _ZTS17TChildrenDelegate
00000000 V _ZTS6TArrayIP5TNodeE
00000000 V _ZTSN7_TEventI10EventParamE15THandlerAdaptorE
00000000 V _ZTSN7_TEventI10EventParamE17MemberFuncHandlerI4TTabEE
         U _ZTS6TImage
         U _ZTS6TArrayI9ColorStopE
00000000 V _ZTS6TArrayIN4TTab7TabInfoEE
00000000 V _ZTS4TTab
         U _ZTSSt9exception
         U _ZTSSt13bad_exception
         U _ZTSSt9bad_alloc
00000000 T _ZN10TExceptionD1Ev
00000000 T _ZN10TExceptionD0Ev
         U _ZdlPv
00000000 T _ZN6TColorC1Ej
00000000 T _ZN6TColorC1ERKS_
00000000 T _ZN8TWStringC1EPKw
         U __frameinfo_used
         U __cxa_allocate_exception
         U __cxa_throw
         U _Znaj
         U memcpy
00000000 T _ZN8TWStringC1ERKS_
00000000 T _ZN8TWStringaSERKS_
         U _ZdaPv
00000000 T _ZN6_TRectIiEC1Ev
         U _ZN6_TRectIiE8nullRectE
00000000 T _ZNK6_TRectIiE6AdjustERK8_TMarginIiE
00000000 T _ZNK6_TRectIiEmiERK7_TPointIiE
00000000 T _ZNK6_TRectIiE8ContainsERK7_TPointIiE
00000000 T _ZN5TNode10SetVisibleEi
         U _ZN5TNode6UpdateEv
00000000 T _ZN6TArrayIP5TNodeED1Ev
00000000 T _ZN6TArrayIP5TNodeED0Ev
00000000 T _ZN14TNodeContainerC1EiiiiP14TEventDelegate
         U _ZN5TNodeC2EiiiiP14TEventDelegateP17TChildrenDelegate
         U _ZTV14TNodeContainer
00000000 T _ZN10TNodeArrayC1EiiiiP14TEventDelegatei
         U _ZTV10TNodeArray
         U memset
         U _ZN5TNodeD2Ev
         U __diab_Unwind_Resume
         U __diab_personality_v0
00000000 T _ZN7_TEventI10EventParamE10SetHandlerI4TTabEEvPT_NS1_17MemberFuncHandlerIS4_E8FuncTypeE
         U _Znwj
00000000 T _ZN7_TEventI10EventParamE15THandlerAdaptorD1Ev
00000000 T _ZN7_TEventI10EventParamE15THandlerAdaptorD0Ev
00000000 T _ZN7_TEventI10EventParamE17MemberFuncHandlerI4TTabED1Ev
00000000 T _ZN7_TEventI10EventParamE17MemberFuncHandlerI4TTabED0Ev
00000000 T _ZNK7_TEventI10EventParamE17MemberFuncHandlerI4TTabE6InvokeERS0_
00000000 T _ZN7_TEventI10EventParamE17MemberFuncHandlerI4TTabE3dupEv
00000000 T _ZN13TCustomVisualC1Ev
         U _ZN11TCustomFillC1Ev
         U _ZN11TCustomFillD1Ev
00000000 T _ZN13TCustomVisualC1ERKS_
         U _ZN11TCustomFillC1ERKS_
00000000 T _ZN13TCustomVisualD1Ev
00000000 T _ZN13TCustomVisualaSERKS_
         U _ZN11TCustomFillaSERKS_
00000000 T _ZN12TextPropertyC1ERKS_
         U _ZTV5TFont
00000000 T _ZN12TextPropertyaSERKS_
         U _ZN5TFontaSERKS_
00000000 T _ZN8_TMarginIiEC1ERKS0_
00000000 T _ZNK8_TMarginIiEneERKS0_
00000000 T _ZNK6TArrayIN11TGridLayout10LayoutInfoEEixEi
00000000 T _ZN11TGridLayout10SetRowSizeEiNS_12LayoutMethodEi
00000000 T _ZN6TArrayIN4TTab7TabInfoEED1Ev
         U __cxa_vec_delete
00000000 T _ZN4TTab7TabInfoD1Ev
00000000 T _ZN6TArrayIN4TTab7TabInfoEED0Ev
00000000 T _ZN6TArrayIN4TTab7TabInfoEE13RoundCapacityEi
00000000 T _ZN4TTab7TabInfoaSERKS0_
00000000 T _ZN6TArrayIN4TTab7TabInfoEE8ExpandAtEii
         U __cxa_vec_new2
00000000 T _ZN4TTab7TabInfoC1Ev
00000000 T _ZN6TArrayIN4TTab7TabInfoEE8InsertAtEiRKS1_
00000000 T _ZN6TArrayIN4TTab7TabInfoEE8ShrinkAtEii
00000000 T _ZN6TArrayIN4TTab7TabInfoEE8RemoveAtEi
00000000 T _ZNK6TArrayIN4TTab7TabInfoEEixEi
00000000 T _ZN4TTab11SetPropertyERKNS_8PropertyE
         U _ZN5TNode18OnChildBoundChangeEP8TControl
         U _ZN5TNode8OnResizeEv
000000e8 T _ZN4TTab8SwitchToEi
000001d0 T _ZN4TTab6AddTabERK8TWStringi
         U _ZN6TGroupC1Eiiii
         U _ZN14TNodeContainer8AddChildEP5TNodei
00000000 T _ZN4TTab7TabInfoC1ERKS0_
000003a8 T _ZN4TTab9RemoveTabEi
         U _ZN6TGroup17RemoveAllControlsEv
         U _ZN14TNodeContainer11RemoveChildEP5TNode
00000510 T _ZN4TTab11SetTabCountEi
000005c8 T _ZN4TTab8PropertyC1Ev
         U _ZN15ControlPropertyC2E11ControlType
         U _ZN5TFontC1Ev
         U _ZN15ControlPropertyD2Ev
000006b0 T _ZN4TTab8PropertyD1Ev
         U _ZN5TFontD1Ev
00000000 T _ZN4TTab8PropertyC1ERKS0_
00000000 T _ZNK8_TLinearIiE5ClampEi
00000738 T _ZN4TTabC1Eiiiii
         U _ZN8TControlC2EiiiiR5TNode
         U _ZN7TVisualC1E9FrameType
         U _ZTV18TNodeEventDelegate
         U _ZN11TGridLayoutC1Eii
         U _ZN5TNode11AddToParentEPS_
         U _ZN12TApplication8InstanceEv
         U _ZNK12TApplication11GetPropertyE11ControlType
         U _ZN11TGridLayoutD1Ev
         U _ZN7TVisualD1Ev
         U _ZN8TControlD2Ev
00000cac T _ZN4TTabC2Eiiiii
00000cd4 T _ZN4TTabD1Ev
00001074 T _ZN4TTabD0Ev
000010a0 T _ZN4TTabD2Ev
000010c0 T _ZNK4TTab11GetPropertyEv
000011a0 T _ZN4TTab10AddControlEiP8TControli
         U _ZN6TGroup10AddControlEP8TControli
000011e4 T _ZN4TTab13RemoveControlEiP8TControl
         U _ZN6TGroup13RemoveControlEP8TControl
00001218 T _ZN4TTab10SetTabTextEiRK8TWString
00001284 T _ZN4TTab11SetTabWidthEii
000012c4 T _ZN4TTab13ResizeHandlerER10EventParam
         U _ZN11TGridLayout8DoLayoutERK6_TRectIiE
         U _ZNK11TGridLayout11GetCellRectERK8GridCell
         U _ZN5TNode12SetBoundRectERK6_TRectIiE
         U __div32
000015e8 T _ZN4TTab18HeaderPaintHandlerER10EventParam
         U _ZN12TPixelBufferC1Ev
         U _ZN8TPainter8SetBrushERK6TBrush
         U _ZN12TPixelBufferD1Ev
         U _ZN8TPainter8FillRectERK6_TRectIiE
         U _ZN8TPainter8DrawLineERK7_TPointIiES3_
         U _ZN8TPainter12SetTextColorERK6TColor
         U _ZN8TPainter7SetFontERK5TFont
         U _ZN8TPainter11DrawUCSTextERK8TWStringRK6_TRectIiE23TextHorizontalAlignment21TextVerticalAlignment
00001cc8 T _ZN4TTab18HeaderMouseHandlerER10EventParam
00001e64 T _ZN4TTab11NodeHandlerER10EventParam
         U _ZNK7TVisual4DrawER8TPainterRK11VisualStateRK6_TRectIiE
00001f5c T _ZN4TTab8PropertyC2Ev
00001f7c T _ZN4TTab8PropertyD2Ev
         U __cxa_pure_virtual
         U _ZTVN10__cxxabiv117__class_type_infoE
         U _ZTVN10__cxxabiv120__si_class_type_infoE
         U _ZTI8TControl

tgsTextTable.o:
         U _ZTVSt9exception
         U _ZTVSt13bad_exception
         U _ZTVSt9bad_alloc
00000000 V _ZTV10TException
00000000 V _ZTV17TChildrenDelegate
         U _ZTV6TImage
00000000 V _ZTV10TTextTable
         U _ZTV14TEventDelegate
         U _ZTV6TArrayIP5TNodeE
00000000 V _ZTVN7_TEventI10EventParamE15THandlerAdaptorE
         U _ZTV6TArrayI9ColorStopE
00000000 V _ZTV6TArrayI8TWStringE
00000000 V _ZTV6TArrayIN10TTextTable9ColHeaderEE
00000000 V _ZTVN7_TEventI10EventParamE17MemberFuncHandlerI10TTextTableEE
00000000 V _ZTI10TException
         U _ZTI14TEventDelegate
00000000 V _ZTI17TChildrenDelegate
         U _ZTI6TArrayIP5TNodeE
00000000 V _ZTIN7_TEventI10EventParamE15THandlerAdaptorE
00000000 V _ZTIN7_TEventI10EventParamE17MemberFuncHandlerI10TTextTableEE
         U _ZTI6TImage
         U _ZTI6TArrayI9ColorStopE
00000000 V _ZTI6TArrayI8TWStringE
00000000 V _ZTI6TArrayIN10TTextTable9ColHeaderEE
00000000 V _ZTI10TTextTable
         U _ZTISt9exception
         U _ZTISt13bad_exception
         U _ZTISt9bad_alloc
00000000 V _ZTS10TException
         U _ZTS14TEventDelegate
00000000 V _ZTS17TChildrenDelegate
         U _ZTS6TArrayIP5TNodeE
00000000 V _ZTSN7_TEventI10EventParamE15THandlerAdaptorE
00000000 V _ZTSN7_TEventI10EventParamE17MemberFuncHandlerI10TTextTableEE
         U _ZTS6TImage
         U _ZTS6TArrayI9ColorStopE
00000000 V _ZTS6TArrayI8TWStringE
00000000 V _ZTS6TArrayIN10TTextTable9ColHeaderEE
00000000 V _ZTS10TTextTable
         U _ZTSSt9exception
         U _ZTSSt13bad_exception
         U _ZTSSt9bad_alloc
00000000 T _ZN10TExceptionD1Ev
00000000 T _ZN10TExceptionD0Ev
         U _ZdlPv
00000000 T _ZN6TColorC1Ej
00000000 T _ZN6TColorC1ERKS_
00000000 T _ZN8TWStringC1Ev
         U __frameinfo_used
         U _Znaj
00000000 T _ZN8TWStringC1ERK7TString
00000000 T _ZN8TWStringD1Ev
         U _ZdaPv
00000000 T _ZN8TWStringaSERKS_
         U memcpy
00000000 T _ZNK6TArrayIN11TGridLayout10LayoutInfoEEixEi
         U __cxa_allocate_exception
         U __cxa_throw
00000000 T _ZN8_TMarginIiEC1ERKS0_
00000000 T _ZNK8_TMarginIiEneERKS0_
00000000 T _ZN11TGridLayout10SetRowSizeEiNS_12LayoutMethodEi
00000000 T _ZN11TGridLayout13SetColumnSizeEiNS_12LayoutMethodEi
00000000 T _ZN6_TRectIiEC1Ev
         U _ZN6_TRectIiE8nullRectE
00000000 T _ZN6_TRectIiEC1ERKS0_
00000000 T _ZNK6_TRectIiEmiERK7_TPointIiE
00000000 T _ZN10TNodeArrayC1EiiiiP14TEventDelegatei
         U _ZN5TNodeC2EiiiiP14TEventDelegateP17TChildrenDelegate
         U _ZTV10TNodeArray
         U memset
         U _ZN5TNodeD2Ev
         U __diab_Unwind_Resume
         U __diab_personality_v0
00000000 T _ZN7_TEventI10EventParamE10SetHandlerI10TTextTableEEvPT_NS1_17MemberFuncHandlerIS4_E8FuncTypeE
         U _Znwj
00000000 T _ZN7_TEventI10EventParamE15THandlerAdaptorD1Ev
00000000 T _ZN7_TEventI10EventParamE15THandlerAdaptorD0Ev
00000000 T _ZN7_TEventI10EventParamE17MemberFuncHandlerI10TTextTableED1Ev
00000000 T _ZN7_TEventI10EventParamE17MemberFuncHandlerI10TTextTableED0Ev
00000000 T _ZNK7_TEventI10EventParamE17MemberFuncHandlerI10TTextTableE6InvokeERS0_
00000000 T _ZN7_TEventI10EventParamE17MemberFuncHandlerI10TTextTableE3dupEv
00000000 T _ZN8TPainter8DrawLineEiiii
         U _ZN8TPainter8DrawLineERK7_TPointIiES3_
00000000 T _ZN13TCustomVisualC1Ev
         U _ZN11TCustomFillC1Ev
         U _ZN11TCustomFillD1Ev
00000000 T _ZN13TCustomVisualC1ERKS_
         U _ZN11TCustomFillC1ERKS_
00000000 T _ZN13TCustomVisualD1Ev
00000000 T _ZN13TCustomVisualaSERKS_
         U _ZN11TCustomFillaSERKS_
00000000 T _ZN12TextPropertyC1ERKS_
         U _ZTV5TFont
00000000 T _ZN12TextPropertyaSERKS_
         U _ZN5TFontaSERKS_
00000000 T _ZN14TScrollBarPair20SetScrollBarPairDataERK6_TSizeIiES3_RK7_TPointIiE
         U _ZN14TScrollBarNode13SetScrollDataEiii
00000000 T _ZN6TArrayI8TWStringE13RoundCapacityEi
00000000 T _ZN6TArrayI8TWStringE8ExpandAtEii
         U __cxa_vec_new2
         U __cxa_vec_delete
00000000 T _ZN6TArrayI8TWStringEC1Ei
00000000 T _ZN6TArrayI8TWStringED1Ev
00000000 T _ZN6TArrayI8TWStringED0Ev
00000000 T _ZNK6TArrayI8TWStringEixEi
00000000 T _ZN6TArrayIN10TTextTable9ColHeaderEE13RoundCapacityEi
00000000 T _ZN10TTextTable9ColHeaderaSERKS0_
00000000 T _ZN6TArrayIN10TTextTable9ColHeaderEE8ExpandAtEii
00000000 T _ZN10TTextTable9ColHeaderD1Ev
00000000 T _ZN10TTextTable9ColHeaderC1Ev
00000000 T _ZN6TArrayIN10TTextTable9ColHeaderEEC1Ei
00000000 T _ZN6TArrayIN10TTextTable9ColHeaderEED1Ev
00000000 T _ZN6TArrayIN10TTextTable9ColHeaderEED0Ev
00000000 T _ZNK6TArrayIN10TTextTable9ColHeaderEEixEi
00000000 T _ZN10TTextTable11SetPropertyERKNS_8PropertyE
         U _ZN5TNode18OnChildBoundChangeEP8TControl
         U _ZN5TNode8OnResizeEv
         U _ZN5TNode6UpdateEv
000002e4 T _ZN10TTextTable8PropertyC1Ev
         U _ZN15ControlPropertyC2E11ControlType
         U _ZN5TFontC1Ev
         U _ZN15ControlPropertyD2Ev
00000578 T _ZN10TTextTable8PropertyD1Ev
         U _ZN5TFontD1Ev
00000000 T _ZN10TTextTable8PropertyC1ERKS0_
00000790 T _ZN10TTextTableC1Eiiiiii
         U _ZN8TControlC2EiiiiR5TNode
         U _ZN7TVisualC1E9FrameType
         U _ZTV18TNodeEventDelegate
         U _ZN11TGridLayoutC1Eii
         U _ZN14TScrollBarPairC1EiiiiR8_TMarginIiER7TVisualR12TextProperty
         U _ZN5TNodeC1EiiiiP14TEventDelegateP17TChildrenDelegate
         U _ZN13TScrollHelperC1ERK6_TSizeIiES3_
         U _ZN7TStringC1Ev
         U _ZN7TString6FormatEiPKcz
         U free
         U _ZN14TScrollBarNode11SetStepSizeEi
         U _ZN5TNode11AddToParentEPS_
         U _ZN12TApplication8InstanceEv
         U _ZNK12TApplication11GetPropertyE11ControlType
         U _ZN13TScrollHelperD1Ev
         U _ZN5TNodeD1Ev
         U _ZN14TScrollBarPairD1Ev
         U _ZN11TGridLayoutD1Ev
         U _ZN7TVisualD1Ev
         U _ZN8TControlD2Ev
000012e0 T _ZN10TTextTableC2Eiiiiii
00001328 T _ZN10TTextTableD1Ev
000017c0 T _ZN10TTextTableD0Ev
000017ec T _ZN10TTextTableD2Ev
0000180c T _ZNK10TTextTable11GetPropertyEv
000019ec T _ZN10TTextTable11SetCellTextEiiRK8TWString
00001ac4 T _ZNK10TTextTable11GetCellTextEii
00001b90 T _ZN10TTextTable16SetRowHeaderTextEiRK8TWString
00001c2c T _ZNK10TTextTable16GetRowHeaderTextEi
00001c9c T _ZN10TTextTable19SetColumnHeaderTextEiRK8TWString
00001d28 T _ZNK10TTextTable19GetColumnHeaderTextEi
00001dcc T _ZN10TTextTable19SetFixedColumnWidthEii
00001ea8 T _ZNK10TTextTable19GetFixedColumnWidthEi
00001f1c T _ZN10TTextTable24SetProportionColumnWidthEij
00002000 T _ZNK10TTextTable24GetProportionColumnWidthEi
00002074 T _ZN10TTextTable12UpdateLayoutERK6_TSizeIiE
         U _ZN11TGridLayout8DoLayoutERK6_TRectIiE
         U _ZNK11TGridLayout11GetCellRectERK8GridCell
         U _ZN5TNode12SetBoundRectERK6_TRectIiE
00002234 T _ZN10TTextTable19ClientResizeHandlerER10EventParam
00002258 T _ZN10TTextTable21ColHeaderPaintHandlerER10EventParam
         U _ZN8TPainter11SetClipRectERK6_TRectIiE
         U _ZNK7TVisual4DrawER8TPainterRK11VisualStateRK6_TRectIiE
         U _ZN8TPainter12SetTextColorERK6TColor
         U _ZN8TPainter7SetFontERK5TFont
         U _ZN8TPainter11DrawUCSTextERK8TWStringRK6_TRectIiE23TextHorizontalAlignment21TextVerticalAlignment
         U _ZN8TPainter13ClearClipRectEv
000023e0 T _ZN10TTextTable21RowHeaderPaintHandlerER10EventParam
00002554 T _ZN10TTextTable20CellAreaPaintHandlerER10EventParam
000027ec T _ZN10TTextTable11NodeHandlerER10EventParam
00002894 T _ZN10TTextTable22ScrollBarChangeHandlerER10EventParam
         U _ZN5TNode16SetBoundPositionERK7_TPointIiE
00002974 T _ZN10TTextTable26ScrollContentChangeHandlerER10EventParam
00002a54 T _ZN10TTextTable14HScrollHandlerER10EventParam
         U _ZN13TScrollHelper9XScrollToEiP7_TEventI10EventParamE
00002a84 T _ZN10TTextTable14VScrollHandlerER10EventParam
         U _ZN13TScrollHelper9YScrollToEiP7_TEventI10EventParamE
00002abc T _ZN10TTextTable21ViewportResizeHandlerER10EventParam
         U __div32
         U _ZN5TNode12SetBoundSizeERK6_TSizeIiE
         U _ZN13TScrollHelper7SetInfoERK6_TSizeIiES3_RK7_TPointIiEP7_TEventI10EventParamE
00002ddc T _ZN10TTextTable8PropertyC2Ev
00002dfc T _ZN10TTextTable8PropertyD2Ev
         U __cxa_pure_virtual
         U _ZTVN10__cxxabiv117__class_type_infoE
         U _ZTVN10__cxxabiv120__si_class_type_infoE
         U _ZTI8TControl

tgsMultiLineEdit.o:
         U _ZTVSt9exception
         U _ZTVSt13bad_exception
         U _ZTVSt9bad_alloc
00000000 V _ZTV10TException
         U _ZTV17TChildrenDelegate
         U _ZTV6TImage
00000000 V _ZTV16TTextDataAdaptor
00000000 V _ZTV14TMultiLineEdit
00000000 V _ZTVN14TMultiLineEdit14TMultiLineDataE
         U _ZTV6TArrayIP5TNodeE
         U _ZTV6TArrayI9ColorStopE
00000000 V _ZTV6TArrayI8TWStringE
00000000 V _ZTI10TException
         U _ZTI17TChildrenDelegate
         U _ZTI6TArrayIP5TNodeE
         U _ZTI6TImage
         U _ZTI6TArrayI9ColorStopE
00000000 V _ZTI16TTextDataAdaptor
00000000 V _ZTI6TArrayI8TWStringE
00000000 V _ZTI14TMultiLineEdit
00000000 V _ZTIN14TMultiLineEdit14TMultiLineDataE
         U _ZTISt9exception
         U _ZTISt13bad_exception
         U _ZTISt9bad_alloc
00000000 V _ZTS10TException
         U _ZTS17TChildrenDelegate
         U _ZTS6TArrayIP5TNodeE
         U _ZTS6TImage
         U _ZTS6TArrayI9ColorStopE
00000000 V _ZTS16TTextDataAdaptor
00000000 V _ZTS6TArrayI8TWStringE
00000000 V _ZTS14TMultiLineEdit
00000000 V _ZTSN14TMultiLineEdit14TMultiLineDataE
         U _ZTSSt9exception
         U _ZTSSt13bad_exception
         U _ZTSSt9bad_alloc
00000000 T _ZN10TExceptionD1Ev
00000000 T _ZN10TExceptionD0Ev
         U _ZdlPv
00000000 T _ZN8TWStringC1Ev
         U __frameinfo_used
         U _Znaj
00000000 T _ZN8TWStringC1EPKw
         U __cxa_allocate_exception
         U __cxa_throw
         U memcpy
00000000 T _ZN8TWStringD1Ev
         U _ZdaPv
00000000 T _ZN8TWStringaSERKS_
00000000 T _ZNK8_TMarginIiEneERKS0_
00000000 T _ZN16TTextDataAdaptorD1Ev
00000000 T _ZN16TTextDataAdaptorD0Ev
00000000 T _ZN6TArrayI8TWStringED1Ev
         U __cxa_vec_delete
00000000 T _ZN6TArrayI8TWStringED0Ev
00000000 T _ZN6TArrayI8TWStringE13RoundCapacityEi
00000000 T _ZN6TArrayI8TWStringE8ExpandAtEii
         U __cxa_vec_new2
00000000 T _ZN6TArrayI8TWStringE8InsertAtEiRKS0_
00000000 T _ZN6TArrayI8TWStringE5ClearEv
00000000 T _ZNK6TArrayI8TWStringEixEi
00000000 T _ZN14TMultiLineEdit14TMultiLineDataC1Ev
0000002c T _ZN14TMultiLineEdit14TMultiLineDataD1Ev
         U __diab_Unwind_Resume
         U __diab_personality_v0
00000080 T _ZN14TMultiLineEditC1Eiiii
         U _ZN8TControlC2EiiiiR5TNode
         U _ZN14TMultiLineViewC1EiiiiR8_TMarginIiER7TVisualR12TextPropertyP16TTextDataAdaptor
         U _ZN5TNode6UpdateEv
         U _ZN5TNode18OnChildBoundChangeEP8TControl
         U _ZN5TNode8OnResizeEv
         U _ZN14TMultiLineViewD1Ev
         U _ZN8TControlD2Ev
00000224 T _ZN14TMultiLineEditC2Eiiii
0000024c T _ZN14TMultiLineEditD1Ev
000002e4 T _ZN14TMultiLineEditD0Ev
00000310 T _ZN14TMultiLineEditD2Ev
00000330 T _ZN14TMultiLineEdit7AddLineERK8TWString
         U _ZN14TMultiLineView13UpdateContentEv
0000036c T _ZN14TMultiLineEdit10SetContentEPKc
         U _Z10AnsiToWidePwPKci
00000458 T _ZN14TMultiLineEdit12ClearContentEv
0000048c T _ZN14TMultiLineEdit13UpdateContentEv
000004b0 T _ZN14TMultiLineEdit14TMultiLineDataC2Ev
000004d0 T _ZN14TMultiLineEdit14TMultiLineDataD0Ev
000004fc T _ZN14TMultiLineEdit14TMultiLineDataD2Ev
0000051c T _ZNK14TMultiLineEdit14TMultiLineData5CountEv
00000524 T _ZNK14TMultiLineEdit14TMultiLineData4ItemEi
         U __cxa_pure_virtual
         U _ZTVN10__cxxabiv117__class_type_infoE
         U _ZTVN10__cxxabiv120__si_class_type_infoE
         U _ZTI8TControl

tgsSingleLineEditNode.o:
         U _ZTVSt9exception
         U _ZTVSt13bad_exception
         U _ZTVSt9bad_alloc
00000000 V _ZTV10TException
00000000 V _ZTV17TChildrenDelegate
         U _ZTV6TImage
00000000 V _ZTV9TEditNode
         U _ZTV14TEventDelegate
00000000 V _ZTV6TArrayIP5TNodeE
00000000 V _ZTVN7_TEventI10EventParamE15THandlerAdaptorE
         U _ZTV6TArrayI9ColorStopE
00000000 V _ZTVN7_TEventI10EventParamE17MemberFuncHandlerI9TEditNodeEE
00000000 V _ZTI10TException
         U _ZTI14TEventDelegate
00000000 V _ZTI17TChildrenDelegate
00000000 V _ZTI6TArrayIP5TNodeE
00000000 V _ZTIN7_TEventI10EventParamE15THandlerAdaptorE
00000000 V _ZTIN7_TEventI10EventParamE17MemberFuncHandlerI9TEditNodeEE
         U _ZTI6TImage
         U _ZTI6TArrayI9ColorStopE
00000000 V _ZTI9TEditNode
         U _ZTISt9exception
         U _ZTISt13bad_exception
         U _ZTISt9bad_alloc
00000000 V _ZTS10TException
         U _ZTS14TEventDelegate
00000000 V _ZTS17TChildrenDelegate
00000000 V _ZTS6TArrayIP5TNodeE
00000000 V _ZTSN7_TEventI10EventParamE15THandlerAdaptorE
00000000 V _ZTSN7_TEventI10EventParamE17MemberFuncHandlerI9TEditNodeEE
         U _ZTS6TImage
         U _ZTS6TArrayI9ColorStopE
00000000 V _ZTS9TEditNode
         U _ZTSSt9exception
         U _ZTSSt13bad_exception
         U _ZTSSt9bad_alloc
00000000 T _ZN10TExceptionD1Ev
00000000 T _ZN10TExceptionD0Ev
         U _ZdlPv
00000000 T _ZN6TColorC1Ej
00000000 T _ZN6TColorC1ERKS_
00000000 T _ZN8TWStringC1EPKw
         U __frameinfo_used
         U __cxa_allocate_exception
         U __cxa_throw
         U _Znaj
         U memcpy
00000000 T _ZN8TWStringC1EPKwi
00000000 T _ZN8TWStringC1ERKS_
00000000 T _ZN8TWStringaSERKS_
         U _ZdaPv
00000000 T _ZNK8TWString4LeftEi
00000000 T _ZN8TWString7ReplaceEiiRKS_
00000000 T _ZN6_TRectIiEC1Ev
         U _ZN6_TRectIiE8nullRectE
00000000 T _ZN6_TRectIiEC1ERKS0_
00000000 T _ZN6_TRectIiEC1ERK7_TPointIiERK6_TSizeIiE
00000000 T _ZNK6_TRectIiE6AdjustERK8_TMarginIiE
00000000 T _ZNK6_TRectIiEmiERK7_TPointIiE
00000000 T _ZNK6_TRectIiE8ContainsERK7_TPointIiE
00000000 T _ZN6TArrayIP5TNodeED1Ev
00000000 T _ZN6TArrayIP5TNodeED0Ev
00000000 T _ZN14TNodeContainerC1EiiiiP14TEventDelegate
         U _ZN5TNodeC2EiiiiP14TEventDelegateP17TChildrenDelegate
         U _ZTV14TNodeContainer
00000000 T _ZN7_TEventI10EventParamE10SetHandlerI9TEditNodeEEvPT_NS1_17MemberFuncHandlerIS4_E8FuncTypeE
         U _Znwj
         U __diab_Unwind_Resume
         U __diab_personality_v0
00000000 T _ZN7_TEventI10EventParamE15THandlerAdaptorD1Ev
00000000 T _ZN7_TEventI10EventParamE15THandlerAdaptorD0Ev
00000000 T _ZN7_TEventI10EventParamE17MemberFuncHandlerI9TEditNodeED1Ev
00000000 T _ZN7_TEventI10EventParamE17MemberFuncHandlerI9TEditNodeED0Ev
00000000 T _ZNK7_TEventI10EventParamE17MemberFuncHandlerI9TEditNodeE6InvokeERS0_
00000000 T _ZN7_TEventI10EventParamE17MemberFuncHandlerI9TEditNodeE3dupEv
00000000 T _ZN8TPainter8DrawLineEiiii
         U _ZN8TPainter8DrawLineERK7_TPointIiES3_
00000000 T _ZN6TTimerC1Ev
00000000 T _ZN9TEditNode12ResetSelInfoEv
00000000 T _ZNK8_TLinearIiE5ClampEi
0000001c T _ZN9TEditNode18MoveCursorIntoViewEv
         U _ZNK5TFont10GetMetricsER11FontMetrics
         U _ZNK5TFont12GetTextWidthEPKwj
         U _ZN5TFont18CalculateTextBoundERK6_TRectIiERK6_TSizeIiE23TextHorizontalAlignment21TextVerticalAlignment
         U _ZN5TNode12SetBoundRectERK6_TRectIiE
000001b8 T _ZN9TEditNode10LayoutTextEv
         U _ZN5TNode6UpdateEv
000002bc T _ZN9TEditNode7SetTextERK8TWString
00000350 T _ZN9TEditNodeC1EiiiiR8_TMarginIiER7TVisualR12TextPropertyRK8TWString
         U _ZTV18TNodeEventDelegate
         U _ZN5TNodeC1EiiiiP14TEventDelegateP17TChildrenDelegate
         U _ZN5TNode18SetVisualStateMaskEiiii
         U _ZN14TNodeContainer8AddChildEP5TNodei
         U _ZN5TNodeD1Ev
         U _ZN5TNodeD2Ev
00000704 T _ZN9TEditNodeC2EiiiiR8_TMarginIiER7TVisualR12TextPropertyRK8TWString
0000074c T _ZN9TEditNodeD1Ev
000009fc T _ZN9TEditNodeD0Ev
00000a28 T _ZN9TEditNodeD2Ev
00000a48 T _ZNK9TEditNode7GetTextEv
00000a50 T _ZN9TEditNode9ClearTextEv
00000af0 T _ZN9TEditNode16SetMaxTextLengthEi
00000b78 T _ZN9TEditNode17TextResizeHandlerER10EventParam
00000c88 T _ZNK9TEditNode18DrawBlinkingCursorER8TPainter
         U _ZN8TPainter6SetPenERK4TPen
00000d54 T _ZN9TEditNode16TextPaintHandlerER10EventParam
         U _ZN8TPainter12SetTextColorERK6TColor
         U _ZN8TPainter7SetFontERK5TFont
         U _ZN8TPainter11DrawUCSTextERK8TWStringRK6_TRectIiE23TextHorizontalAlignment21TextVerticalAlignment
         U _ZN8TPainter11SetClipRectERK6_TRectIiE
         U _ZN12TPixelBufferC1Ev
         U _ZN8TPainter8SetBrushERK6TBrush
         U _ZN12TPixelBufferD1Ev
         U _ZN8TPainter8FillRectERK6_TRectIiE
         U _ZN8TPainter13ClearClipRectEv
00001028 T _ZN9TEditNode16TextMouseHandlerER10EventParam
         U _ZN6TTimer5StartEv
         U _ZNK5TFont12WidthToIndexEiRiPKwi
         U _ZN6TTimer4StopEv
00001258 T _ZN9TEditNode7AddCharEw
00001360 T _ZN9TEditNode9BackspaceEv
000014ac T _ZN9TEditNode6DeleteEv
00001614 T _ZN9TEditNode14MoveCursorHomeEv
0000164c T _ZN9TEditNode13MoveCursorEndEv
0000168c T _ZN9TEditNode14MoveCursorLeftEv
000016cc T _ZN9TEditNode15MoveCursorRightEv
00001714 T _ZN9TEditNode15KeyboardHandlerER10EventParam
00001820 T _ZN9TEditNode9SelectAllEv
00001860 T _ZN9TEditNode16GainFocusHandlerER10EventParam
000018a4 T _ZN9TEditNode16LoseFocusHandlerER10EventParam
000018dc T _ZN9TEditNode11NodeHandlerER10EventParam
         U _ZNK7TVisual4DrawER8TPainterRK11VisualStateRK6_TRectIiE
00001b04 T _ZN9TEditNode18CursorTimerHandlerER10EventParam
00001b1c T _ZN9TEditNode16DragTimerHandlerER10EventParam
         U __cxa_pure_virtual
         U _ZNK14TNodeContainer8GetCountEv
         U _ZN14TNodeContainer7GetNodeEi
         U _ZThn40_NK14TNodeContainer8GetCountEv
         U _ZThn40_N14TNodeContainer7GetNodeEi
         U _ZTVN10__cxxabiv117__class_type_infoE
         U _ZTVN10__cxxabiv120__si_class_type_infoE
         U _ZTI14TNodeContainer

tgsLabelNode.o:
         U _ZTVSt9exception
         U _ZTVSt13bad_exception
         U _ZTVSt9bad_alloc
         U _ZTV10TException
         U _ZTV17TChildrenDelegate
         U _ZTV6TImage
00000000 V _ZTV10TLabelNode
         U _ZTV14TEventDelegate
         U _ZTV6TArrayIP5TNodeE
00000000 V _ZTVN7_TEventI10EventParamE15THandlerAdaptorE
         U _ZTV6TArrayI9ColorStopE
00000000 V _ZTVN7_TEventI10EventParamE17MemberFuncHandlerI10TLabelNodeEE
         U _ZTI10TException
         U _ZTI14TEventDelegate
         U _ZTI17TChildrenDelegate
         U _ZTI6TArrayIP5TNodeE
00000000 V _ZTIN7_TEventI10EventParamE15THandlerAdaptorE
00000000 V _ZTIN7_TEventI10EventParamE17MemberFuncHandlerI10TLabelNodeEE
         U _ZTI6TImage
         U _ZTI6TArrayI9ColorStopE
00000000 V _ZTI10TLabelNode
         U _ZTISt9exception
         U _ZTISt13bad_exception
         U _ZTISt9bad_alloc
         U _ZTS10TException
         U _ZTS14TEventDelegate
         U _ZTS17TChildrenDelegate
         U _ZTS6TArrayIP5TNodeE
00000000 V _ZTSN7_TEventI10EventParamE15THandlerAdaptorE
00000000 V _ZTSN7_TEventI10EventParamE17MemberFuncHandlerI10TLabelNodeEE
         U _ZTS6TImage
         U _ZTS6TArrayI9ColorStopE
00000000 V _ZTS10TLabelNode
         U _ZTSSt9exception
         U _ZTSSt13bad_exception
         U _ZTSSt9bad_alloc
00000000 T _ZN8TWStringC1ERKS_
         U __frameinfo_used
         U _Znaj
         U memcpy
00000000 T _ZNK6_TRectIiE6AdjustERK8_TMarginIiE
00000000 T _ZNK6_TRectIiEmiERK7_TPointIiE
00000000 T _ZN7_TEventI10EventParamE10SetHandlerI10TLabelNodeEEvPT_NS1_17MemberFuncHandlerIS4_E8FuncTypeE
         U _Znwj
         U __diab_Unwind_Resume
         U __diab_personality_v0
00000000 T _ZN7_TEventI10EventParamE15THandlerAdaptorD1Ev
00000000 T _ZN7_TEventI10EventParamE15THandlerAdaptorD0Ev
         U _ZdlPv
00000000 T _ZN7_TEventI10EventParamE17MemberFuncHandlerI10TLabelNodeED1Ev
00000000 T _ZN7_TEventI10EventParamE17MemberFuncHandlerI10TLabelNodeED0Ev
00000000 T _ZNK7_TEventI10EventParamE17MemberFuncHandlerI10TLabelNodeE6InvokeERS0_
00000000 T _ZN7_TEventI10EventParamE17MemberFuncHandlerI10TLabelNodeE3dupEv
00000000 T _ZN10TLabelNodeC1EiiiiRK8TWStringR8_TMarginIiER7TVisualR12TextProperty
         U _ZN5TNodeC2EiiiiP14TEventDelegateP17TChildrenDelegate
         U _ZTV18TNodeEventDelegate
         U _ZdaPv
         U _ZN5TNodeD2Ev
00000100 T _ZN10TLabelNodeC2EiiiiRK8TWStringR8_TMarginIiER7TVisualR12TextProperty
00000148 T _ZN10TLabelNodeD1Ev
000001e0 T _ZN10TLabelNodeD0Ev
0000020c T _ZN10TLabelNodeD2Ev
0000022c T _ZN10TLabelNode11NodeHandlerER10EventParam
         U _ZNK7TVisual4DrawER8TPainterRK11VisualStateRK6_TRectIiE
         U _ZN8TPainter7SetFontERK5TFont
         U _ZN8TPainter12SetTextColorERK6TColor
         U _ZN8TPainter11DrawUCSTextERK8TWStringRK6_TRectIiE23TextHorizontalAlignment21TextVerticalAlignment
         U __cxa_pure_virtual
         U _ZTVN10__cxxabiv117__class_type_infoE
         U _ZTVN10__cxxabiv120__si_class_type_infoE
         U _ZTI5TNode

tgsSingleLineEdit.o:
         U _ZTVSt9exception
         U _ZTVSt13bad_exception
         U _ZTVSt9bad_alloc
00000000 V _ZTV10TException
         U _ZTV17TChildrenDelegate
         U _ZTV6TImage
00000000 V _ZTV15TSingleLineEdit
         U _ZTV6TArrayIP5TNodeE
         U _ZTV6TArrayI9ColorStopE
00000000 V _ZTI10TException
         U _ZTI17TChildrenDelegate
         U _ZTI6TArrayIP5TNodeE
         U _ZTI6TImage
         U _ZTI6TArrayI9ColorStopE
00000000 V _ZTI15TSingleLineEdit
         U _ZTISt9exception
         U _ZTISt13bad_exception
         U _ZTISt9bad_alloc
00000000 V _ZTS10TException
         U _ZTS17TChildrenDelegate
         U _ZTS6TArrayIP5TNodeE
         U _ZTS6TImage
         U _ZTS6TArrayI9ColorStopE
00000000 V _ZTS15TSingleLineEdit
         U _ZTSSt9exception
         U _ZTSSt13bad_exception
         U _ZTSSt9bad_alloc
00000000 T _ZN10TExceptionD1Ev
00000000 T _ZN10TExceptionD0Ev
         U _ZdlPv
00000000 T _ZN6TColorC1Ej
00000000 T _ZN6TColorC1ERKS_
00000000 T _ZN8TWStringC1EPKw
         U __frameinfo_used
         U __cxa_allocate_exception
         U __cxa_throw
         U _Znaj
         U memcpy
00000000 T _ZN13TCustomVisualC1Ev
         U _ZN11TCustomFillC1Ev
         U _ZN11TCustomFillD1Ev
         U __diab_Unwind_Resume
         U __diab_personality_v0
00000000 T _ZN13TCustomVisualC1ERKS_
         U _ZN11TCustomFillC1ERKS_
00000000 T _ZN13TCustomVisualD1Ev
00000000 T _ZN13TCustomVisualaSERKS_
         U _ZN11TCustomFillaSERKS_
00000000 T _ZN12TextPropertyC1ERKS_
         U _ZTV5TFont
00000000 T _ZN12TextPropertyaSERKS_
         U _ZN5TFontaSERKS_
00000000 T _ZN8_TMarginIiEC1ERKS0_
00000000 T _ZNK8_TMarginIiEneERKS0_
00000000 T _ZN15TSingleLineEdit11SetPropertyERKNS_8PropertyE
         U _ZN9TEditNode16SetMaxTextLengthEi
         U _ZN5TNode18OnChildBoundChangeEP8TControl
         U _ZN5TNode8OnResizeEv
         U _ZN5TNode6UpdateEv
00000144 T _ZN15TSingleLineEdit8PropertyC1Ev
         U _ZN15ControlPropertyC2E11ControlType
         U _ZN5TFontC1Ev
         U _ZN15ControlPropertyD2Ev
00000214 T _ZN15TSingleLineEdit8PropertyD1Ev
         U _ZN5TFontD1Ev
00000000 T _ZN15TSingleLineEdit8PropertyC1ERKS0_
0000029c T _ZN15TSingleLineEditC1EiiiiRK8TWString
         U _ZN8TControlC2EiiiiR5TNode
         U _ZN9TEditNodeC1EiiiiR8_TMarginIiER7TVisualR12TextPropertyRK8TWString
         U _ZN12TApplication8InstanceEv
         U _ZNK12TApplication11GetPropertyE11ControlType
         U _ZN9TEditNodeD1Ev
         U _ZN8TControlD2Ev
00000450 T _ZN15TSingleLineEditC2EiiiiRK8TWString
00000478 T _ZN15TSingleLineEditD1Ev
000004e4 T _ZN15TSingleLineEditD0Ev
00000510 T _ZN15TSingleLineEditD2Ev
00000530 T _ZNK15TSingleLineEdit11GetPropertyEv
000005d4 T _ZN15TSingleLineEdit16SetTextFromFloatEf
         U snprintf
         U strlen
         U _ZN9TEditNode7SetTextERK8TWString
         U _ZdaPv
000006b8 T _ZN15TSingleLineEdit8PropertyC2Ev
000006d8 T _ZN15TSingleLineEdit8PropertyD2Ev
         U _ZTVN10__cxxabiv117__class_type_infoE
         U _ZTVN10__cxxabiv120__si_class_type_infoE
         U _ZTI8TControl

tgsLabel.o:
         U _ZTVSt9exception
         U _ZTVSt13bad_exception
         U _ZTVSt9bad_alloc
         U _ZTV10TException
         U _ZTV17TChildrenDelegate
         U _ZTV6TImage
00000000 V _ZTV6TLabel
         U _ZTV14TEventDelegate
         U _ZTV6TArrayIP5TNodeE
00000000 V _ZTVN7_TEventI10EventParamE15THandlerAdaptorE
         U _ZTV6TArrayI9ColorStopE
00000000 V _ZTVN7_TEventI10EventParamE17MemberFuncHandlerI6TLabelEE
         U _ZTI10TException
         U _ZTI14TEventDelegate
         U _ZTI17TChildrenDelegate
         U _ZTI6TArrayIP5TNodeE
00000000 V _ZTIN7_TEventI10EventParamE15THandlerAdaptorE
00000000 V _ZTIN7_TEventI10EventParamE17MemberFuncHandlerI6TLabelEE
         U _ZTI6TImage
         U _ZTI6TArrayI9ColorStopE
00000000 V _ZTI6TLabel
         U _ZTISt9exception
         U _ZTISt13bad_exception
         U _ZTISt9bad_alloc
         U _ZTS10TException
         U _ZTS14TEventDelegate
         U _ZTS17TChildrenDelegate
         U _ZTS6TArrayIP5TNodeE
00000000 V _ZTSN7_TEventI10EventParamE15THandlerAdaptorE
00000000 V _ZTSN7_TEventI10EventParamE17MemberFuncHandlerI6TLabelEE
         U _ZTS6TImage
         U _ZTS6TArrayI9ColorStopE
00000000 V _ZTS6TLabel
         U _ZTSSt9exception
         U _ZTSSt13bad_exception
         U _ZTSSt9bad_alloc
00000000 T _ZN6TColorC1Ej
00000000 T _ZN6TColorC1ERKS_
00000000 T _ZN8TWStringC1ERKS_
         U __frameinfo_used
         U _Znaj
         U memcpy
00000000 T _ZNK6_TRectIiE6AdjustERK8_TMarginIiE
00000000 T _ZNK6_TRectIiEmiERK7_TPointIiE
00000000 T _ZN7_TEventI10EventParamE10SetHandlerI6TLabelEEvPT_NS1_17MemberFuncHandlerIS4_E8FuncTypeE
         U _Znwj
         U __diab_Unwind_Resume
         U __diab_personality_v0
00000000 T _ZN7_TEventI10EventParamE15THandlerAdaptorD1Ev
00000000 T _ZN7_TEventI10EventParamE15THandlerAdaptorD0Ev
         U _ZdlPv
00000000 T _ZN7_TEventI10EventParamE17MemberFuncHandlerI6TLabelED1Ev
00000000 T _ZN7_TEventI10EventParamE17MemberFuncHandlerI6TLabelED0Ev
00000000 T _ZNK7_TEventI10EventParamE17MemberFuncHandlerI6TLabelE6InvokeERS0_
00000000 T _ZN7_TEventI10EventParamE17MemberFuncHandlerI6TLabelE3dupEv
00000000 T _ZN13TCustomVisualC1Ev
         U _ZN11TCustomFillC1Ev
         U _ZN11TCustomFillD1Ev
00000000 T _ZN13TCustomVisualC1ERKS_
         U _ZN11TCustomFillC1ERKS_
00000000 T _ZN13TCustomVisualD1Ev
00000000 T _ZN13TCustomVisualaSERKS_
         U _ZN11TCustomFillaSERKS_
00000000 T _ZN12TextPropertyC1ERKS_
         U _ZTV5TFont
00000000 T _ZN12TextPropertyaSERKS_
         U _ZN5TFontaSERKS_
00000000 T _ZN8_TMarginIiEC1ERKS0_
00000000 T _ZNK8_TMarginIiEneERKS0_
00000000 T _ZN6TLabel11SetPropertyERKNS_8PropertyE
         U _ZN5TNode18OnChildBoundChangeEP8TControl
         U _ZN5TNode8OnResizeEv
         U _ZN5TNode6UpdateEv
00000130 T _ZN6TLabel8PropertyC1Ev
         U _ZN15ControlPropertyC2E11ControlType
         U _ZN5TFontC1Ev
         U _ZN15ControlPropertyD2Ev
000001f8 T _ZN6TLabel8PropertyD1Ev
         U _ZN5TFontD1Ev
00000000 T _ZN6TLabel8PropertyC1ERKS0_
00000280 T _ZN6TLabelC1EiiiiRK8TWString
         U _ZN8TControlC2EiiiiR5TNode
         U _ZTV18TNodeEventDelegate
         U _ZN5TNodeC1EiiiiP14TEventDelegateP17TChildrenDelegate
         U _ZN12TApplication8InstanceEv
         U _ZNK12TApplication11GetPropertyE11ControlType
         U _ZdaPv
         U _ZN5TNodeD1Ev
         U _ZN8TControlD2Ev
000004b0 T _ZN6TLabelC2EiiiiRK8TWString
000004d8 T _ZN6TLabelD1Ev
000005b4 T _ZN6TLabelD0Ev
000005e0 T _ZN6TLabelD2Ev
00000600 T _ZNK6TLabel11GetPropertyEv
0000069c T _ZN6TLabel7OnPaintERN5TNode15PaintEventParamE
         U _ZNK7TVisual4DrawER8TPainterRK11VisualStateRK6_TRectIiE
         U _ZN8TPainter7SetFontERK5TFont
         U _ZN8TPainter12SetTextColorERK6TColor
         U _ZN8TPainter11DrawUCSTextERK8TWStringRK6_TRectIiE23TextHorizontalAlignment21TextVerticalAlignment
0000079c T _ZN6TLabel11NodeHandlerER10EventParam
000007c8 T _ZN6TLabel8PropertyC2Ev
000007e8 T _ZN6TLabel8PropertyD2Ev
         U __cxa_pure_virtual
         U _ZTVN10__cxxabiv117__class_type_infoE
         U _ZTVN10__cxxabiv120__si_class_type_infoE
         U _ZTI8TControl

tgsMultiLineView.o:
         U _ZTVSt9exception
         U _ZTVSt13bad_exception
         U _ZTVSt9bad_alloc
00000000 V _ZTV10TException
00000000 V _ZTV17TChildrenDelegate
         U _ZTV6TImage
         U _ZTV16TTextDataAdaptor
00000000 V _ZTV14TMultiLineView
         U _ZTV14TEventDelegate
         U _ZTV6TArrayIP5TNodeE
00000000 V _ZTVN7_TEventI10EventParamE15THandlerAdaptorE
         U _ZTV6TArrayI9ColorStopE
00000000 V _ZTV6TArrayIN14TMultiLineView8LineInfoEE
00000000 V _ZTV6TArrayIN14TMultiLineView7RowInfoEE
00000000 V _ZTVN7_TEventI10EventParamE17MemberFuncHandlerI14TMultiLineViewEE
00000000 V _ZTI10TException
         U _ZTI14TEventDelegate
00000000 V _ZTI17TChildrenDelegate
         U _ZTI6TArrayIP5TNodeE
00000000 V _ZTIN7_TEventI10EventParamE15THandlerAdaptorE
00000000 V _ZTIN7_TEventI10EventParamE17MemberFuncHandlerI14TMultiLineViewEE
         U _ZTI6TImage
         U _ZTI6TArrayI9ColorStopE
         U _ZTI16TTextDataAdaptor
00000000 V _ZTI6TArrayIN14TMultiLineView8LineInfoEE
00000000 V _ZTI6TArrayIN14TMultiLineView7RowInfoEE
00000000 V _ZTI14TMultiLineView
         U _ZTISt9exception
         U _ZTISt13bad_exception
         U _ZTISt9bad_alloc
00000000 V _ZTS10TException
         U _ZTS14TEventDelegate
00000000 V _ZTS17TChildrenDelegate
         U _ZTS6TArrayIP5TNodeE
00000000 V _ZTSN7_TEventI10EventParamE15THandlerAdaptorE
00000000 V _ZTSN7_TEventI10EventParamE17MemberFuncHandlerI14TMultiLineViewEE
         U _ZTS6TImage
         U _ZTS6TArrayI9ColorStopE
         U _ZTS16TTextDataAdaptor
00000000 V _ZTS6TArrayIN14TMultiLineView8LineInfoEE
00000000 V _ZTS6TArrayIN14TMultiLineView7RowInfoEE
00000000 V _ZTS14TMultiLineView
         U _ZTSSt9exception
         U _ZTSSt13bad_exception
         U _ZTSSt9bad_alloc
00000000 T _ZN10TExceptionD1Ev
00000000 T _ZN10TExceptionD0Ev
         U _ZdlPv
00000000 T _ZN6_TRectIiEC1ERKS0_
00000000 T _ZNK6_TRectIiEmiERK7_TPointIiE
00000000 T _ZNK6_TRectIiE8ContainsERK7_TPointIiE
00000000 T _ZN10TNodeArrayC1EiiiiP14TEventDelegatei
         U __frameinfo_used
         U _ZN5TNodeC2EiiiiP14TEventDelegateP17TChildrenDelegate
         U _ZTV10TNodeArray
         U _Znaj
         U memset
         U _ZN5TNodeD2Ev
         U __diab_Unwind_Resume
         U __diab_personality_v0
00000000 T _ZN7_TEventI10EventParamE10SetHandlerI14TMultiLineViewEEvPT_NS1_17MemberFuncHandlerIS4_E8FuncTypeE
         U _Znwj
00000000 T _ZN7_TEventI10EventParamE15THandlerAdaptorD1Ev
00000000 T _ZN7_TEventI10EventParamE15THandlerAdaptorD0Ev
00000000 T _ZN7_TEventI10EventParamE17MemberFuncHandlerI14TMultiLineViewED1Ev
00000000 T _ZN7_TEventI10EventParamE17MemberFuncHandlerI14TMultiLineViewED0Ev
00000000 T _ZNK7_TEventI10EventParamE17MemberFuncHandlerI14TMultiLineViewE6InvokeERS0_
00000000 T _ZN7_TEventI10EventParamE17MemberFuncHandlerI14TMultiLineViewE3dupEv
00000000 T _ZN6TTimerC1Ev
00000000 T _ZN14TScrollBarPair20SetScrollBarPairDataERK6_TSizeIiES3_RK7_TPointIiE
         U _ZN14TScrollBarNode13SetScrollDataEiii
00000000 T _ZN6TArrayIN14TMultiLineView8LineInfoEED1Ev
         U _ZdaPv
00000000 T _ZN6TArrayIN14TMultiLineView8LineInfoEED0Ev
00000000 T _ZN6TArrayIN14TMultiLineView8LineInfoEE13RoundCapacityEi
00000000 T _ZN6TArrayIN14TMultiLineView8LineInfoEE8ExpandAtEii
         U __cxa_allocate_exception
         U __cxa_throw
00000000 T _ZN6TArrayIN14TMultiLineView8LineInfoEE8InsertAtEiRKS1_
00000000 T _ZNK6TArrayIN14TMultiLineView8LineInfoEEixEi
00000000 T _ZN6TArrayIN14TMultiLineView8LineInfoEE8InsertAtEiRKS2_
00000000 T _ZN6TArrayIN14TMultiLineView8LineInfoEE8ShrinkAtEii
00000000 T _ZN6TArrayIN14TMultiLineView8LineInfoEE8RemoveAtEii
00000000 T _ZN6TArrayIN14TMultiLineView8LineInfoEE5ClearEv
00000000 T _ZN6TArrayIN14TMultiLineView7RowInfoEED1Ev
00000000 T _ZN6TArrayIN14TMultiLineView7RowInfoEED0Ev
00000000 T _ZN6TArrayIN14TMultiLineView7RowInfoEE13RoundCapacityEi
00000000 T _ZN6TArrayIN14TMultiLineView7RowInfoEE8ExpandAtEii
00000000 T _ZN6TArrayIN14TMultiLineView7RowInfoEE8InsertAtEiRKS1_
00000000 T _ZNK6TArrayIN14TMultiLineView7RowInfoEEixEi
00000000 T _ZN6TArrayIN14TMultiLineView7RowInfoEE8InsertAtEiRKS2_
00000000 T _ZN6TArrayIN14TMultiLineView7RowInfoEE8ShrinkAtEii
00000000 T _ZN6TArrayIN14TMultiLineView7RowInfoEE8RemoveAtEii
00000000 T _ZN6TArrayIN14TMultiLineView7RowInfoEE5ClearEv
00000000 T _ZN14TMultiLineViewC1EiiiiR8_TMarginIiER7TVisualR12TextPropertyP16TTextDataAdaptor
         U _ZN14TScrollBarPairC2EiiiiR8_TMarginIiER7TVisualR12TextProperty
         U _ZTV18TNodeEventDelegate
         U _ZN5TNodeC1EiiiiP14TEventDelegateP17TChildrenDelegate
         U _ZN13TScrollHelperC1ERK6_TSizeIiES3_
         U _ZN5TNode11AddToParentEPS_
         U _ZN5TNode8OnResizeEv
         U _ZN5TNode6UpdateEv
         U _ZN14TScrollBarNode11SetStepSizeEi
         U _ZN13TScrollHelperD1Ev
         U _ZN5TNodeD1Ev
         U _ZN14TScrollBarPairD2Ev
000005ac T _ZN14TMultiLineViewC2EiiiiR8_TMarginIiER7TVisualR12TextPropertyP16TTextDataAdaptor
000005f4 T _ZN14TMultiLineViewD1Ev
0000096c T _ZN14TMultiLineViewD0Ev
00000998 T _ZN14TMultiLineViewD2Ev
000009b8 T _ZN14TMultiLineView17AddLineAndRowInfoEiRK6TArrayINS_8LineInfoEERKS0_INS_7RowInfoEE
00000b10 T _ZN14TMultiLineView17ParseLineIntoRowsERK8TWStringRNS_8LineInfoER6TArrayINS_7RowInfoEE
         U _ZNK5TFont12GetTextWidthEPKwj
         U _ZNK5TFont12GetPointSizeEv
         U __div32
         U _Z15GetLineEndIndexRK5TFontRK8TWStringiii
00000c30 T _ZN14TMultiLineView11OnLineAddedEii
00000e24 T _ZN14TMultiLineView8ParseAllEv
00000e88 T _ZN14TMultiLineView11SetWrapModeENS_8WrapModeE
00000eb8 T _ZN14TMultiLineView16EditPaintHandlerER10EventParam
         U _ZN8TPainter12SetTextColorERK6TColor
         U _ZN8TPainter7SetFontERK5TFont
         U _ZN8TPainter11DrawUCSTextEPKwiRK6_TRectIiE23TextHorizontalAlignment21TextVerticalAlignment
0000108c T _ZN14TMultiLineView16ConvertRowToLineEiiRiS0_
000010ec T _ZN14TMultiLineView18ConvertPosToRowColERK7_TPointIiERiS4_S4_
         U _Z16TextWidthToIndexRK5TFontPKwiiRi
00001218 T _ZN14TMultiLineView19EditMouseMsgHandlerER10EventParam
         U _ZN6TTimer5StartEv
         U _ZN6TTimer4StopEv
00001558 T _ZN14TMultiLineView16GainFocusHandlerER10EventParam
00001594 T _ZN14TMultiLineView16LoseFocusHandlerER10EventParam
000015d0 T _ZN14TMultiLineView11NodeHandlerER10EventParam
00001648 T _ZN14TMultiLineView14HScrollHandlerER10EventParam
         U _ZN13TScrollHelper9XScrollToEiP7_TEventI10EventParamE
00001680 T _ZN14TMultiLineView14VScrollHandlerER10EventParam
         U _ZN13TScrollHelper9YScrollToEiP7_TEventI10EventParamE
000016b8 T _ZN14TMultiLineView18CursorTimerHandlerER10EventParam
000016f4 T _ZN14TMultiLineView16DragTimerHandlerER10EventParam
000016f8 T _ZN14TMultiLineView16ConvertLineToRowEiiRiS0_
000017e4 T _ZN14TMultiLineView11SetEditSizeERK6_TSizeIiE
         U _ZN5TNode12SetBoundRectERK6_TRectIiE
         U _ZN13TScrollHelper7SetInfoERK6_TSizeIiES3_P7_TEventI10EventParamE
000019c4 T _ZN14TMultiLineView28TScrollViewportResizeHandlerER10EventParam
00001ab0 T _ZN14TMultiLineView26ScrollContentChangeHandlerER10EventParam
         U _ZN5TNode16SetBoundPositionERK7_TPointIiE
00001b48 T _ZN14TMultiLineView22ScrollBarChangeHandlerER10EventParam
00001bd0 T _ZN14TMultiLineView19ListMouseMsgHandlerER10EventParam
00001c38 T _ZN14TMultiLineView17MouseLeaveHandlerER10EventParam
00001c60 T _ZN14TMultiLineView13UpdateContentEv
         U _ZNK5TFont10GetMetricsER11FontMetrics
         U _ZN14TScrollBarPair12UpdateLayoutEv
00001cb8 T _ZN14TMultiLineView20RemoveLineAndRowInfoEii
00001e08 T _ZN14TMultiLineView13OnLineRemovedEii
00001e28 T _ZN14TMultiLineView14ScrollTextViewEii
00001e2c T _ZN14TMultiLineView18MoveCursorIntoViewEv
00001e30 T _ZNK14TMultiLineView18DrawBlinkingCursorER8TPainter
         U __cxa_pure_virtual
         U _ZNK10TNodeArray8GetCountEv
         U _ZN10TNodeArray7GetNodeEi
         U _ZThn40_NK10TNodeArray8GetCountEv
         U _ZThn40_N10TNodeArray7GetNodeEi
         U _ZTVN10__cxxabiv117__class_type_infoE
         U _ZTVN10__cxxabiv120__si_class_type_infoE
         U _ZTI14TScrollBarPair

libtilcon.a:

ufhbr24.o:
00000000 d page0Data
00001cb4 d pageArray
         U _ZTVSt9exception
         U _ZTVSt13bad_exception
         U _ZTVSt9bad_alloc
         U _ZTV10TException
         U _ZTI10TException
         U _ZTISt9exception
         U _ZTISt13bad_exception
         U _ZTISt9bad_alloc
         U _ZTS10TException
         U _ZTSSt9exception
         U _ZTSSt13bad_exception
         U _ZTSSt9bad_alloc
00001cbc D uglBMFFont_Helvetica_Bold_24

ufcni14.o:
00000000 d page0Data
00000d40 d pageArray
         U _ZTVSt9exception
         U _ZTVSt13bad_exception
         U _ZTVSt9bad_alloc
         U _ZTV10TException
         U _ZTI10TException
         U _ZTISt9exception
         U _ZTISt13bad_exception
         U _ZTISt9bad_alloc
         U _ZTS10TException
         U _ZTSSt9exception
         U _ZTSSt13bad_exception
         U _ZTSSt9bad_alloc
00000d48 D uglBMFFont_Courier_Oblique_14

uflbi08.o:
00000000 d page0Data
00000830 d pageArray
         U _ZTVSt9exception
         U _ZTVSt13bad_exception
         U _ZTVSt9bad_alloc
         U _ZTV10TException
         U _ZTI10TException
         U _ZTISt9exception
         U _ZTISt13bad_exception
         U _ZTISt9bad_alloc
         U _ZTS10TException
         U _ZTSSt9exception
         U _ZTSSt13bad_exception
         U _ZTSSt9bad_alloc
00000838 D uglBMFFont_Lucida_Sans_Bold_Italic_8

uftbi08.o:
00000000 d page0Data
00000804 d pageArray
         U _ZTVSt9exception
         U _ZTVSt13bad_exception
         U _ZTVSt9bad_alloc
         U _ZTV10TException
         U _ZTI10TException
         U _ZTISt9exception
         U _ZTISt13bad_exception
         U _ZTISt9bad_alloc
         U _ZTS10TException
         U _ZTSSt9exception
         U _ZTSSt13bad_exception
         U _ZTSSt9bad_alloc
0000080c D uglBMFFont_Times_Bold_Italic_8

ufhbr14.o:
00000000 d page0Data
00000d68 d pageArray
         U _ZTVSt9exception
         U _ZTVSt13bad_exception
         U _ZTVSt9bad_alloc
         U _ZTV10TException
         U _ZTI10TException
         U _ZTISt9exception
         U _ZTISt13bad_exception
         U _ZTISt9bad_alloc
         U _ZTS10TException
         U _ZTSSt9exception
         U _ZTSSt13bad_exception
         U _ZTSSt9bad_alloc
00000d70 D uglBMFFont_Helvetica_Bold_14

uftnr18.o:
00000000 d page0Data
00001098 d pageArray
         U _ZTVSt9exception
         U _ZTVSt13bad_exception
         U _ZTVSt9bad_alloc
         U _ZTV10TException
         U _ZTI10TException
         U _ZTISt9exception
         U _ZTISt13bad_exception
         U _ZTISt9bad_alloc
         U _ZTS10TException
         U _ZTSSt9exception
         U _ZTSSt13bad_exception
         U _ZTSSt9bad_alloc
000010a0 D uglBMFFont_Times_Roman_18

uftbi10.o:
00000000 d page0Data
000009a4 d pageArray
         U _ZTVSt9exception
         U _ZTVSt13bad_exception
         U _ZTVSt9bad_alloc
         U _ZTV10TException
         U _ZTI10TException
         U _ZTISt9exception
         U _ZTISt13bad_exception
         U _ZTISt9bad_alloc
         U _ZTS10TException
         U _ZTSSt9exception
         U _ZTSSt13bad_exception
         U _ZTSSt9bad_alloc
000009ac D uglBMFFont_Times_Bold_Italic_10

uflbr24.o:
00000000 d page0Data
00001cd4 d pageArray
         U _ZTVSt9exception
         U _ZTVSt13bad_exception
         U _ZTVSt9bad_alloc
         U _ZTV10TException
         U _ZTI10TException
         U _ZTISt9exception
         U _ZTISt13bad_exception
         U _ZTISt9bad_alloc
         U _ZTS10TException
         U _ZTSSt9exception
         U _ZTSSt13bad_exception
         U _ZTSSt9bad_alloc
00001cdc D uglBMFFont_Lucida_Sans_Bold_24

ufhbi14.o:
00000000 d page0Data
00000de4 d pageArray
         U _ZTVSt9exception
         U _ZTVSt13bad_exception
         U _ZTVSt9bad_alloc
         U _ZTV10TException
         U _ZTI10TException
         U _ZTISt9exception
         U _ZTISt13bad_exception
         U _ZTISt9bad_alloc
         U _ZTS10TException
         U _ZTSSt9exception
         U _ZTSSt13bad_exception
         U _ZTSSt9bad_alloc
00000dec D uglBMFFont_Helvetica_Bold_Oblique_14

uflbi12.o:
00000000 d page0Data
00000be8 d pageArray
         U _ZTVSt9exception
         U _ZTVSt13bad_exception
         U _ZTVSt9bad_alloc
         U _ZTV10TException
         U _ZTI10TException
         U _ZTISt9exception
         U _ZTISt13bad_exception
         U _ZTISt9bad_alloc
         U _ZTS10TException
         U _ZTSSt9exception
         U _ZTSSt13bad_exception
         U _ZTSSt9bad_alloc
00000bf0 D uglBMFFont_Lucida_Sans_Bold_Italic_12

uftni24.o:
00000000 d page0Data
00001954 d pageArray
         U _ZTVSt9exception
         U _ZTVSt13bad_exception
         U _ZTVSt9bad_alloc
         U _ZTV10TException
         U _ZTI10TException
         U _ZTISt9exception
         U _ZTISt13bad_exception
         U _ZTISt9bad_alloc
         U _ZTS10TException
         U _ZTSSt9exception
         U _ZTSSt13bad_exception
         U _ZTSSt9bad_alloc
0000195c D uglBMFFont_Times_Italic_24

ufcbi08.o:
00000000 d page0Data
0000083c d pageArray
         U _ZTVSt9exception
         U _ZTVSt13bad_exception
         U _ZTVSt9bad_alloc
         U _ZTV10TException
         U _ZTI10TException
         U _ZTISt9exception
         U _ZTISt13bad_exception
         U _ZTISt9bad_alloc
         U _ZTS10TException
         U _ZTSSt9exception
         U _ZTSSt13bad_exception
         U _ZTSSt9bad_alloc
00000844 D uglBMFFont_Courier_Bold_Oblique_8

ufcbr18.o:
00000000 d page0Data
00001140 d pageArray
         U _ZTVSt9exception
         U _ZTVSt13bad_exception
         U _ZTVSt9bad_alloc
         U _ZTV10TException
         U _ZTI10TException
         U _ZTISt9exception
         U _ZTISt13bad_exception
         U _ZTISt9bad_alloc
         U _ZTS10TException
         U _ZTSSt9exception
         U _ZTSSt13bad_exception
         U _ZTSSt9bad_alloc
00001148 D uglBMFFont_Courier_Bold_18

ufhnr08.o:
00000000 d page0Data
00000844 d pageArray
         U _ZTVSt9exception
         U _ZTVSt13bad_exception
         U _ZTVSt9bad_alloc
         U _ZTV10TException
         U _ZTI10TException
         U _ZTISt9exception
         U _ZTISt13bad_exception
         U _ZTISt9bad_alloc
         U _ZTS10TException
         U _ZTSSt9exception
         U _ZTSSt13bad_exception
         U _ZTSSt9bad_alloc
0000084c D uglBMFFont_Helvetica_8

uflbr14.o:
00000000 d page0Data
00000dc8 d pageArray
         U _ZTVSt9exception
         U _ZTVSt13bad_exception
         U _ZTVSt9bad_alloc
         U _ZTV10TException
         U _ZTI10TException
         U _ZTISt9exception
         U _ZTISt13bad_exception
         U _ZTISt9bad_alloc
         U _ZTS10TException
         U _ZTSSt9exception
         U _ZTSSt13bad_exception
         U _ZTSSt9bad_alloc
00000dd0 D uglBMFFont_Lucida_Sans_Bold_14

uflbr19.o:
00000000 d page0Data
00001464 d pageArray
         U _ZTVSt9exception
         U _ZTVSt13bad_exception
         U _ZTVSt9bad_alloc
         U _ZTV10TException
         U _ZTI10TException
         U _ZTISt9exception
         U _ZTISt13bad_exception
         U _ZTISt9bad_alloc
         U _ZTS10TException
         U _ZTSSt9exception
         U _ZTSSt13bad_exception
         U _ZTSSt9bad_alloc
0000146c D uglBMFFont_Lucida_Sans_Bold_19

uflbbr08.o:
00000000 d page0Data
0000080c d pageArray
         U _ZTVSt9exception
         U _ZTVSt13bad_exception
         U _ZTVSt9bad_alloc
         U _ZTV10TException
         U _ZTI10TException
         U _ZTISt9exception
         U _ZTISt13bad_exception
         U _ZTISt9bad_alloc
         U _ZTS10TException
         U _ZTSSt9exception
         U _ZTSSt13bad_exception
         U _ZTSSt9bad_alloc
00000814 D uglBMFFont_Lucida_Bright_Demibold_8

ufcni10.o:
00000000 d page0Data
00000934 d pageArray
         U _ZTVSt9exception
         U _ZTVSt13bad_exception
         U _ZTVSt9bad_alloc
         U _ZTV10TException
         U _ZTI10TException
         U _ZTISt9exception
         U _ZTISt13bad_exception
         U _ZTISt9bad_alloc
         U _ZTS10TException
         U _ZTSSt9exception
         U _ZTSSt13bad_exception
         U _ZTSSt9bad_alloc
0000093c D uglBMFFont_Courier_Oblique_10

ufhbi12.o:
00000000 d page0Data
00000bd4 d pageArray
         U _ZTVSt9exception
         U _ZTVSt13bad_exception
         U _ZTVSt9bad_alloc
         U _ZTV10TException
         U _ZTI10TException
         U _ZTISt9exception
         U _ZTISt13bad_exception
         U _ZTISt9bad_alloc
         U _ZTS10TException
         U _ZTSSt9exception
         U _ZTSSt13bad_exception
         U _ZTSSt9bad_alloc
00000bdc D uglBMFFont_Helvetica_Bold_Oblique_12

ufcbr14.o:
00000000 d page0Data
00000d38 d pageArray
         U _ZTVSt9exception
         U _ZTVSt13bad_exception
         U _ZTVSt9bad_alloc
         U _ZTV10TException
         U _ZTI10TException
         U _ZTISt9exception
         U _ZTISt13bad_exception
         U _ZTISt9bad_alloc
         U _ZTS10TException
         U _ZTSSt9exception
         U _ZTSSt13bad_exception
         U _ZTSSt9bad_alloc
00000d40 D uglBMFFont_Courier_Bold_14

ufhni10.o:
00000000 d page0Data
000009c0 d pageArray
         U _ZTVSt9exception
         U _ZTVSt13bad_exception
         U _ZTVSt9bad_alloc
         U _ZTV10TException
         U _ZTI10TException
         U _ZTISt9exception
         U _ZTISt13bad_exception
         U _ZTISt9bad_alloc
         U _ZTS10TException
         U _ZTSSt9exception
         U _ZTSSt13bad_exception
         U _ZTSSt9bad_alloc
000009c8 D uglBMFFont_Helvetica_Oblique_10

ufhbr10.o:
00000000 d page0Data
000009cc d pageArray
         U _ZTVSt9exception
         U _ZTVSt13bad_exception
         U _ZTVSt9bad_alloc
         U _ZTV10TException
         U _ZTI10TException
         U _ZTISt9exception
         U _ZTISt13bad_exception
         U _ZTISt9bad_alloc
         U _ZTS10TException
         U _ZTSSt9exception
         U _ZTSSt13bad_exception
         U _ZTSSt9bad_alloc
000009d4 D uglBMFFont_Helvetica_Bold_10

uftni14.o:
00000000 d page0Data
00000c7c d pageArray
         U _ZTVSt9exception
         U _ZTVSt13bad_exception
         U _ZTVSt9bad_alloc
         U _ZTV10TException
         U _ZTI10TException
         U _ZTISt9exception
         U _ZTISt13bad_exception
         U _ZTISt9bad_alloc
         U _ZTS10TException
         U _ZTSSt9exception
         U _ZTSSt13bad_exception
         U _ZTSSt9bad_alloc
00000c84 D uglBMFFont_Times_Italic_14

ufhni18.o:
00000000 d page0Data
00001210 d pageArray
         U _ZTVSt9exception
         U _ZTVSt13bad_exception
         U _ZTVSt9bad_alloc
         U _ZTV10TException
         U _ZTI10TException
         U _ZTISt9exception
         U _ZTISt13bad_exception
         U _ZTISt9bad_alloc
         U _ZTS10TException
         U _ZTSSt9exception
         U _ZTSSt13bad_exception
         U _ZTSSt9bad_alloc
00001218 D uglBMFFont_Helvetica_Oblique_18

uflbni12.o:
00000000 d page0Data
00000b14 d pageArray
         U _ZTVSt9exception
         U _ZTVSt13bad_exception
         U _ZTVSt9bad_alloc
         U _ZTV10TException
         U _ZTI10TException
         U _ZTISt9exception
         U _ZTISt13bad_exception
         U _ZTISt9bad_alloc
         U _ZTS10TException
         U _ZTSSt9exception
         U _ZTSSt13bad_exception
         U _ZTSSt9bad_alloc
00000b1c D uglBMFFont_Lucida_Bright_Italic_12

ufcbr24.o:
00000000 d page0Data
000019f0 d pageArray
         U _ZTVSt9exception
         U _ZTVSt13bad_exception
         U _ZTVSt9bad_alloc
         U _ZTV10TException
         U _ZTI10TException
         U _ZTISt9exception
         U _ZTISt13bad_exception
         U _ZTISt9bad_alloc
         U _ZTS10TException
         U _ZTSSt9exception
         U _ZTSSt13bad_exception
         U _ZTSSt9bad_alloc
000019f8 D uglBMFFont_Courier_Bold_24

uflbnr19.o:
00000000 d page0Data
00001304 d pageArray
         U _ZTVSt9exception
         U _ZTVSt13bad_exception
         U _ZTVSt9bad_alloc
         U _ZTV10TException
         U _ZTI10TException
         U _ZTISt9exception
         U _ZTISt13bad_exception
         U _ZTISt9bad_alloc
         U _ZTS10TException
         U _ZTSSt9exception
         U _ZTSSt13bad_exception
         U _ZTSSt9bad_alloc
0000130c D uglBMFFont_Lucida_Bright_19

uflbr10.o:
00000000 d page0Data
000009fc d pageArray
         U _ZTVSt9exception
         U _ZTVSt13bad_exception
         U _ZTVSt9bad_alloc
         U _ZTV10TException
         U _ZTI10TException
         U _ZTISt9exception
         U _ZTISt13bad_exception
         U _ZTISt9bad_alloc
         U _ZTS10TException
         U _ZTSSt9exception
         U _ZTSSt13bad_exception
         U _ZTSSt9bad_alloc
00000a04 D uglBMFFont_Lucida_Sans_Bold_10

uftnr10.o:
00000000 d page0Data
0000090c d pageArray
         U _ZTVSt9exception
         U _ZTVSt13bad_exception
         U _ZTVSt9bad_alloc
         U _ZTV10TException
         U _ZTI10TException
         U _ZTISt9exception
         U _ZTISt13bad_exception
         U _ZTISt9bad_alloc
         U _ZTS10TException
         U _ZTSSt9exception
         U _ZTSSt13bad_exception
         U _ZTSSt9bad_alloc
00000914 D uglBMFFont_Times_Roman_10

uftbr10.o:
00000000 d page0Data
00000954 d pageArray
         U _ZTVSt9exception
         U _ZTVSt13bad_exception
         U _ZTVSt9bad_alloc
         U _ZTV10TException
         U _ZTI10TException
         U _ZTISt9exception
         U _ZTISt13bad_exception
         U _ZTISt9bad_alloc
         U _ZTS10TException
         U _ZTSSt9exception
         U _ZTSSt13bad_exception
         U _ZTSSt9bad_alloc
0000095c D uglBMFFont_Times_Bold_10

uflbnr24.o:
00000000 d page0Data
00001a1c d pageArray
         U _ZTVSt9exception
         U _ZTVSt13bad_exception
         U _ZTVSt9bad_alloc
         U _ZTV10TException
         U _ZTI10TException
         U _ZTISt9exception
         U _ZTISt13bad_exception
         U _ZTISt9bad_alloc
         U _ZTS10TException
         U _ZTSSt9exception
         U _ZTSSt13bad_exception
         U _ZTSSt9bad_alloc
00001a24 D uglBMFFont_Lucida_Bright_24

ufcbi12.o:
00000000 d page0Data
00000afc d pageArray
         U _ZTVSt9exception
         U _ZTVSt13bad_exception
         U _ZTVSt9bad_alloc
         U _ZTV10TException
         U _ZTI10TException
         U _ZTISt9exception
         U _ZTISt13bad_exception
         U _ZTISt9bad_alloc
         U _ZTS10TException
         U _ZTSSt9exception
         U _ZTSSt13bad_exception
         U _ZTSSt9bad_alloc
00000b04 D uglBMFFont_Courier_Bold_Oblique_12

uflbni19.o:
00000000 d page0Data
00001384 d pageArray
         U _ZTVSt9exception
         U _ZTVSt13bad_exception
         U _ZTVSt9bad_alloc
         U _ZTV10TException
         U _ZTI10TException
         U _ZTISt9exception
         U _ZTISt13bad_exception
         U _ZTISt9bad_alloc
         U _ZTS10TException
         U _ZTSSt9exception
         U _ZTSSt13bad_exception
         U _ZTSSt9bad_alloc
0000138c D uglBMFFont_Lucida_Bright_Italic_19

uftbr24.o:
00000000 d page0Data
00001a08 d pageArray
         U _ZTVSt9exception
         U _ZTVSt13bad_exception
         U _ZTVSt9bad_alloc
         U _ZTV10TException
         U _ZTI10TException
         U _ZTISt9exception
         U _ZTISt13bad_exception
         U _ZTISt9bad_alloc
         U _ZTS10TException
         U _ZTSSt9exception
         U _ZTSSt13bad_exception
         U _ZTSSt9bad_alloc
00001a10 D uglBMFFont_Times_Bold_24

ufcnr08.o:
00000000 d page0Data
00000838 d pageArray
         U _ZTVSt9exception
         U _ZTVSt13bad_exception
         U _ZTVSt9bad_alloc
         U _ZTV10TException
         U _ZTI10TException
         U _ZTISt9exception
         U _ZTISt13bad_exception
         U _ZTISt9bad_alloc
         U _ZTS10TException
         U _ZTSSt9exception
         U _ZTSSt13bad_exception
         U _ZTSSt9bad_alloc
00000840 D uglBMFFont_Courier_8

uflbnr14.o:
00000000 d page0Data
00000c7c d pageArray
         U _ZTVSt9exception
         U _ZTVSt13bad_exception
         U _ZTVSt9bad_alloc
         U _ZTV10TException
         U _ZTI10TException
         U _ZTISt9exception
         U _ZTISt13bad_exception
         U _ZTISt9bad_alloc
         U _ZTS10TException
         U _ZTSSt9exception
         U _ZTSSt13bad_exception
         U _ZTSSt9bad_alloc
00000c84 D uglBMFFont_Lucida_Bright_14

uflbbi18.o:
00000000 d page0Data
00001238 d pageArray
         U _ZTVSt9exception
         U _ZTVSt13bad_exception
         U _ZTVSt9bad_alloc
         U _ZTV10TException
         U _ZTI10TException
         U _ZTISt9exception
         U _ZTISt13bad_exception
         U _ZTISt9bad_alloc
         U _ZTS10TException
         U _ZTSSt9exception
         U _ZTSSt13bad_exception
         U _ZTSSt9bad_alloc
00001240 D uglBMFFont_Lucida_Bright_Demibold_Italic_18

uflnr12.o:
00000000 d page0Data
00000b34 d pageArray
         U _ZTVSt9exception
         U _ZTVSt13bad_exception
         U _ZTVSt9bad_alloc
         U _ZTV10TException
         U _ZTI10TException
         U _ZTISt9exception
         U _ZTISt13bad_exception
         U _ZTISt9bad_alloc
         U _ZTS10TException
         U _ZTSSt9exception
         U _ZTSSt13bad_exception
         U _ZTSSt9bad_alloc
00000b3c D uglBMFFont_Lucida_Sans_12

uftni10.o:
00000000 d page0Data
0000095c d pageArray
         U _ZTVSt9exception
         U _ZTVSt13bad_exception
         U _ZTVSt9bad_alloc
         U _ZTV10TException
         U _ZTI10TException
         U _ZTISt9exception
         U _ZTISt13bad_exception
         U _ZTISt9bad_alloc
         U _ZTS10TException
         U _ZTSSt9exception
         U _ZTSSt13bad_exception
         U _ZTSSt9bad_alloc
00000964 D uglBMFFont_Times_Italic_10

ufhbi24.o:
00000000 d page0Data
00001d2c d pageArray
         U _ZTVSt9exception
         U _ZTVSt13bad_exception
         U _ZTVSt9bad_alloc
         U _ZTV10TException
         U _ZTI10TException
         U _ZTISt9exception
         U _ZTISt13bad_exception
         U _ZTISt9bad_alloc
         U _ZTS10TException
         U _ZTSSt9exception
         U _ZTSSt13bad_exception
         U _ZTSSt9bad_alloc
00001d34 D uglBMFFont_Helvetica_Bold_Oblique_24

uftni18.o:
00000000 d page0Data
00001090 d pageArray
         U _ZTVSt9exception
         U _ZTVSt13bad_exception
         U _ZTVSt9bad_alloc
         U _ZTV10TException
         U _ZTI10TException
         U _ZTISt9exception
         U _ZTISt13bad_exception
         U _ZTISt9bad_alloc
         U _ZTS10TException
         U _ZTSSt9exception
         U _ZTSSt13bad_exception
         U _ZTSSt9bad_alloc
00001098 D uglBMFFont_Times_Italic_18

uflbbr12.o:
00000000 d page0Data
00000b2c d pageArray
         U _ZTVSt9exception
         U _ZTVSt13bad_exception
         U _ZTVSt9bad_alloc
         U _ZTV10TException
         U _ZTI10TException
         U _ZTISt9exception
         U _ZTISt13bad_exception
         U _ZTISt9bad_alloc
         U _ZTS10TException
         U _ZTSSt9exception
         U _ZTSSt13bad_exception
         U _ZTSSt9bad_alloc
00000b34 D uglBMFFont_Lucida_Bright_Demibold_12

uflni08.o:
00000000 d page0Data
000007ec d pageArray
         U _ZTVSt9exception
         U _ZTVSt13bad_exception
         U _ZTVSt9bad_alloc
         U _ZTV10TException
         U _ZTI10TException
         U _ZTISt9exception
         U _ZTISt13bad_exception
         U _ZTISt9bad_alloc
         U _ZTS10TException
         U _ZTSSt9exception
         U _ZTSSt13bad_exception
         U _ZTSSt9bad_alloc
000007f4 D uglBMFFont_Lucida_Sans_Italic_8

uftbi14.o:
00000000 d page0Data
00000d04 d pageArray
         U _ZTVSt9exception
         U _ZTVSt13bad_exception
         U _ZTVSt9bad_alloc
         U _ZTV10TException
         U _ZTI10TException
         U _ZTISt9exception
         U _ZTISt13bad_exception
         U _ZTISt9bad_alloc
         U _ZTS10TException
         U _ZTSSt9exception
         U _ZTSSt13bad_exception
         U _ZTSSt9bad_alloc
00000d0c D uglBMFFont_Times_Bold_Italic_14

ufhbi18.o:
00000000 d page0Data
000012d8 d pageArray
         U _ZTVSt9exception
         U _ZTVSt13bad_exception
         U _ZTVSt9bad_alloc
         U _ZTV10TException
         U _ZTI10TException
         U _ZTISt9exception
         U _ZTISt13bad_exception
         U _ZTISt9bad_alloc
         U _ZTS10TException
         U _ZTSSt9exception
         U _ZTSSt13bad_exception
         U _ZTSSt9bad_alloc
000012e0 D uglBMFFont_Helvetica_Bold_Oblique_18

uflbnr12.o:
00000000 d page0Data
00000abc d pageArray
         U _ZTVSt9exception
         U _ZTVSt13bad_exception
         U _ZTVSt9bad_alloc
         U _ZTV10TException
         U _ZTI10TException
         U _ZTISt9exception
         U _ZTISt13bad_exception
         U _ZTISt9bad_alloc
         U _ZTS10TException
         U _ZTSSt9exception
         U _ZTSSt13bad_exception
         U _ZTSSt9bad_alloc
00000ac4 D uglBMFFont_Lucida_Bright_12

uflbni24.o:
00000000 d page0Data
00001b00 d pageArray
         U _ZTVSt9exception
         U _ZTVSt13bad_exception
         U _ZTVSt9bad_alloc
         U _ZTV10TException
         U _ZTI10TException
         U _ZTISt9exception
         U _ZTISt13bad_exception
         U _ZTISt9bad_alloc
         U _ZTS10TException
         U _ZTSSt9exception
         U _ZTSSt13bad_exception
         U _ZTSSt9bad_alloc
00001b08 D uglBMFFont_Lucida_Bright_Italic_24

uflni19.o:
00000000 d page0Data
0000131c d pageArray
         U _ZTVSt9exception
         U _ZTVSt13bad_exception
         U _ZTVSt9bad_alloc
         U _ZTV10TException
         U _ZTI10TException
         U _ZTISt9exception
         U _ZTISt13bad_exception
         U _ZTISt9bad_alloc
         U _ZTS10TException
         U _ZTSSt9exception
         U _ZTSSt13bad_exception
         U _ZTSSt9bad_alloc
00001324 D uglBMFFont_Lucida_Sans_Italic_19

uftbr08.o:
00000000 d page0Data
000007fc d pageArray
         U _ZTVSt9exception
         U _ZTVSt13bad_exception
         U _ZTVSt9bad_alloc
         U _ZTV10TException
         U _ZTI10TException
         U _ZTISt9exception
         U _ZTISt13bad_exception
         U _ZTISt9bad_alloc
         U _ZTS10TException
         U _ZTSSt9exception
         U _ZTSSt13bad_exception
         U _ZTSSt9bad_alloc
00000804 D uglBMFFont_Times_Bold_8

ufhbr12.o:
00000000 d page0Data
00000b50 d pageArray
         U _ZTVSt9exception
         U _ZTVSt13bad_exception
         U _ZTVSt9bad_alloc
         U _ZTV10TException
         U _ZTI10TException
         U _ZTISt9exception
         U _ZTISt13bad_exception
         U _ZTISt9bad_alloc
         U _ZTS10TException
         U _ZTSSt9exception
         U _ZTSSt13bad_exception
         U _ZTSSt9bad_alloc
00000b58 D uglBMFFont_Helvetica_Bold_12

uflbbi14.o:
00000000 d page0Data
00000d58 d pageArray
         U _ZTVSt9exception
         U _ZTVSt13bad_exception
         U _ZTVSt9bad_alloc
         U _ZTV10TException
         U _ZTI10TException
         U _ZTISt9exception
         U _ZTISt13bad_exception
         U _ZTISt9bad_alloc
         U _ZTS10TException
         U _ZTSSt9exception
         U _ZTSSt13bad_exception
         U _ZTSSt9bad_alloc
00000d60 D uglBMFFont_Lucida_Bright_Demibold_Italic_14

uflbnr10.o:
00000000 d page0Data
0000092c d pageArray
         U _ZTVSt9exception
         U _ZTVSt13bad_exception
         U _ZTVSt9bad_alloc
         U _ZTV10TException
         U _ZTI10TException
         U _ZTISt9exception
         U _ZTISt13bad_exception
         U _ZTISt9bad_alloc
         U _ZTS10TException
         U _ZTSSt9exception
         U _ZTSSt13bad_exception
         U _ZTSSt9bad_alloc
00000934 D uglBMFFont_Lucida_Bright_10

uflbi10.o:
00000000 d page0Data
00000a10 d pageArray
         U _ZTVSt9exception
         U _ZTVSt13bad_exception
         U _ZTVSt9bad_alloc
         U _ZTV10TException
         U _ZTI10TException
         U _ZTISt9exception
         U _ZTISt13bad_exception
         U _ZTISt9bad_alloc
         U _ZTS10TException
         U _ZTSSt9exception
         U _ZTSSt13bad_exception
         U _ZTSSt9bad_alloc
00000a18 D uglBMFFont_Lucida_Sans_Bold_Italic_10

ufcbi24.o:
00000000 d page0Data
00001a14 d pageArray
         U _ZTVSt9exception
         U _ZTVSt13bad_exception
         U _ZTVSt9bad_alloc
         U _ZTV10TException
         U _ZTI10TException
         U _ZTISt9exception
         U _ZTISt13bad_exception
         U _ZTISt9bad_alloc
         U _ZTS10TException
         U _ZTSSt9exception
         U _ZTSSt13bad_exception
         U _ZTSSt9bad_alloc
00001a1c D uglBMFFont_Courier_Bold_Oblique_24

uflbi18.o:
00000000 d page0Data
0000136c d pageArray
         U _ZTVSt9exception
         U _ZTVSt13bad_exception
         U _ZTVSt9bad_alloc
         U _ZTV10TException
         U _ZTI10TException
         U _ZTISt9exception
         U _ZTISt13bad_exception
         U _ZTISt9bad_alloc
         U _ZTS10TException
         U _ZTSSt9exception
         U _ZTSSt13bad_exception
         U _ZTSSt9bad_alloc
00001374 D uglBMFFont_Lucida_Sans_Bold_Italic_18

uftnr08.o:
00000000 d page0Data
000007c0 d pageArray
         U _ZTVSt9exception
         U _ZTVSt13bad_exception
         U _ZTVSt9bad_alloc
         U _ZTV10TException
         U _ZTI10TException
         U _ZTISt9exception
         U _ZTISt13bad_exception
         U _ZTISt9bad_alloc
         U _ZTS10TException
         U _ZTSSt9exception
         U _ZTSSt13bad_exception
         U _ZTSSt9bad_alloc
000007c8 D uglBMFFont_Times_Roman_8

ufcbi18.o:
00000000 d page0Data
00001174 d pageArray
         U _ZTVSt9exception
         U _ZTVSt13bad_exception
         U _ZTVSt9bad_alloc
         U _ZTV10TException
         U _ZTI10TException
         U _ZTISt9exception
         U _ZTISt13bad_exception
         U _ZTISt9bad_alloc
         U _ZTS10TException
         U _ZTSSt9exception
         U _ZTSSt13bad_exception
         U _ZTSSt9bad_alloc
0000117c D uglBMFFont_Courier_Bold_Oblique_18

ufcnr12.o:
00000000 d page0Data
00000aa0 d pageArray
         U _ZTVSt9exception
         U _ZTVSt13bad_exception
         U _ZTVSt9bad_alloc
         U _ZTV10TException
         U _ZTI10TException
         U _ZTISt9exception
         U _ZTISt13bad_exception
         U _ZTISt9bad_alloc
         U _ZTS10TException
         U _ZTSSt9exception
         U _ZTSSt13bad_exception
         U _ZTSSt9bad_alloc
00000aa8 D uglBMFFont_Courier_12

uflbi14.o:
00000000 d page0Data
00000dd4 d pageArray
         U _ZTVSt9exception
         U _ZTVSt13bad_exception
         U _ZTVSt9bad_alloc
         U _ZTV10TException
         U _ZTI10TException
         U _ZTISt9exception
         U _ZTISt13bad_exception
         U _ZTISt9bad_alloc
         U _ZTS10TException
         U _ZTSSt9exception
         U _ZTSSt13bad_exception
         U _ZTSSt9bad_alloc
00000ddc D uglBMFFont_Lucida_Sans_Bold_Italic_14

uflnr24.o:
00000000 d page0Data
00001a0c d pageArray
         U _ZTVSt9exception
         U _ZTVSt13bad_exception
         U _ZTVSt9bad_alloc
         U _ZTV10TException
         U _ZTI10TException
         U _ZTISt9exception
         U _ZTISt13bad_exception
         U _ZTISt9bad_alloc
         U _ZTS10TException
         U _ZTSSt9exception
         U _ZTSSt13bad_exception
         U _ZTSSt9bad_alloc
00001a14 D uglBMFFont_Lucida_Sans_24

ufhni12.o:
00000000 d page0Data
00000b60 d pageArray
         U _ZTVSt9exception
         U _ZTVSt13bad_exception
         U _ZTVSt9bad_alloc
         U _ZTV10TException
         U _ZTI10TException
         U _ZTISt9exception
         U _ZTISt13bad_exception
         U _ZTISt9bad_alloc
         U _ZTS10TException
         U _ZTSSt9exception
         U _ZTSSt13bad_exception
         U _ZTSSt9bad_alloc
00000b68 D uglBMFFont_Helvetica_Oblique_12

ufcni08.o:
00000000 d page0Data
00000830 d pageArray
         U _ZTVSt9exception
         U _ZTVSt13bad_exception
         U _ZTVSt9bad_alloc
         U _ZTV10TException
         U _ZTI10TException
         U _ZTISt9exception
         U _ZTISt13bad_exception
         U _ZTISt9bad_alloc
         U _ZTS10TException
         U _ZTSSt9exception
         U _ZTSSt13bad_exception
         U _ZTSSt9bad_alloc
00000838 D uglBMFFont_Courier_Oblique_8

ufhbr08.o:
00000000 d page0Data
00000868 d pageArray
         U _ZTVSt9exception
         U _ZTVSt13bad_exception
         U _ZTVSt9bad_alloc
         U _ZTV10TException
         U _ZTI10TException
         U _ZTISt9exception
         U _ZTISt13bad_exception
         U _ZTISt9bad_alloc
         U _ZTS10TException
         U _ZTSSt9exception
         U _ZTSSt13bad_exception
         U _ZTSSt9bad_alloc
00000870 D uglBMFFont_Helvetica_Bold_8

ufcni12.o:
00000000 d page0Data
00000ad8 d pageArray
         U _ZTVSt9exception
         U _ZTVSt13bad_exception
         U _ZTVSt9bad_alloc
         U _ZTV10TException
         U _ZTI10TException
         U _ZTISt9exception
         U _ZTISt13bad_exception
         U _ZTISt9bad_alloc
         U _ZTS10TException
         U _ZTSSt9exception
         U _ZTSSt13bad_exception
         U _ZTSSt9bad_alloc
00000ae0 D uglBMFFont_Courier_Oblique_12

uflnr19.o:
00000000 d page0Data
000012b8 d pageArray
         U _ZTVSt9exception
         U _ZTVSt13bad_exception
         U _ZTVSt9bad_alloc
         U _ZTV10TException
         U _ZTI10TException
         U _ZTISt9exception
         U _ZTISt13bad_exception
         U _ZTISt9bad_alloc
         U _ZTS10TException
         U _ZTSSt9exception
         U _ZTSSt13bad_exception
         U _ZTSSt9bad_alloc
000012c0 D uglBMFFont_Lucida_Sans_19

uflbnr18.o:
00000000 d page0Data
00001154 d pageArray
         U _ZTVSt9exception
         U _ZTVSt13bad_exception
         U _ZTVSt9bad_alloc
         U _ZTV10TException
         U _ZTI10TException
         U _ZTISt9exception
         U _ZTISt13bad_exception
         U _ZTISt9bad_alloc
         U _ZTS10TException
         U _ZTSSt9exception
         U _ZTSSt13bad_exception
         U _ZTSSt9bad_alloc
0000115c D uglBMFFont_Lucida_Bright_18

ufcbi14.o:
00000000 d page0Data
00000d78 d pageArray
         U _ZTVSt9exception
         U _ZTVSt13bad_exception
         U _ZTVSt9bad_alloc
         U _ZTV10TException
         U _ZTI10TException
         U _ZTISt9exception
         U _ZTISt13bad_exception
         U _ZTISt9bad_alloc
         U _ZTS10TException
         U _ZTSSt9exception
         U _ZTSSt13bad_exception
         U _ZTSSt9bad_alloc
00000d80 D uglBMFFont_Courier_Bold_Oblique_14

uftbi24.o:
00000000 d page0Data
000019f4 d pageArray
         U _ZTVSt9exception
         U _ZTVSt13bad_exception
         U _ZTVSt9bad_alloc
         U _ZTV10TException
         U _ZTI10TException
         U _ZTISt9exception
         U _ZTISt13bad_exception
         U _ZTISt9bad_alloc
         U _ZTS10TException
         U _ZTSSt9exception
         U _ZTSSt13bad_exception
         U _ZTSSt9bad_alloc
000019fc D uglBMFFont_Times_Bold_Italic_24

ufhnr24.o:
00000000 d page0Data
00001b6c d pageArray
         U _ZTVSt9exception
         U _ZTVSt13bad_exception
         U _ZTVSt9bad_alloc
         U _ZTV10TException
         U _ZTI10TException
         U _ZTISt9exception
         U _ZTISt13bad_exception
         U _ZTISt9bad_alloc
         U _ZTS10TException
         U _ZTSSt9exception
         U _ZTSSt13bad_exception
         U _ZTSSt9bad_alloc
00001b74 D uglBMFFont_Helvetica_24

uflbbi08.o:
00000000 d page0Data
00000818 d pageArray
         U _ZTVSt9exception
         U _ZTVSt13bad_exception
         U _ZTVSt9bad_alloc
         U _ZTV10TException
         U _ZTI10TException
         U _ZTISt9exception
         U _ZTISt13bad_exception
         U _ZTISt9bad_alloc
         U _ZTS10TException
         U _ZTSSt9exception
         U _ZTSSt13bad_exception
         U _ZTSSt9bad_alloc
00000820 D uglBMFFont_Lucida_Bright_Demibold_Italic_8

ufhbi10.o:
00000000 d page0Data
00000a10 d pageArray
         U _ZTVSt9exception
         U _ZTVSt13bad_exception
         U _ZTVSt9bad_alloc
         U _ZTV10TException
         U _ZTI10TException
         U _ZTISt9exception
         U _ZTISt13bad_exception
         U _ZTISt9bad_alloc
         U _ZTS10TException
         U _ZTSSt9exception
         U _ZTSSt13bad_exception
         U _ZTSSt9bad_alloc
00000a18 D uglBMFFont_Helvetica_Bold_Oblique_10

uflbbr18.o:
00000000 d page0Data
000011cc d pageArray
         U _ZTVSt9exception
         U _ZTVSt13bad_exception
         U _ZTVSt9bad_alloc
         U _ZTV10TException
         U _ZTI10TException
         U _ZTISt9exception
         U _ZTISt13bad_exception
         U _ZTISt9bad_alloc
         U _ZTS10TException
         U _ZTSSt9exception
         U _ZTSSt13bad_exception
         U _ZTSSt9bad_alloc
000011d4 D uglBMFFont_Lucida_Bright_Demibold_18

ufcbr10.o:
00000000 d page0Data
00000954 d pageArray
         U _ZTVSt9exception
         U _ZTVSt13bad_exception
         U _ZTVSt9bad_alloc
         U _ZTV10TException
         U _ZTI10TException
         U _ZTISt9exception
         U _ZTISt13bad_exception
         U _ZTISt9bad_alloc
         U _ZTS10TException
         U _ZTSSt9exception
         U _ZTSSt13bad_exception
         U _ZTSSt9bad_alloc
0000095c D uglBMFFont_Courier_Bold_10

uflbbr24.o:
00000000 d page0Data
00001bb4 d pageArray
         U _ZTVSt9exception
         U _ZTVSt13bad_exception
         U _ZTVSt9bad_alloc
         U _ZTV10TException
         U _ZTI10TException
         U _ZTISt9exception
         U _ZTISt13bad_exception
         U _ZTISt9bad_alloc
         U _ZTS10TException
         U _ZTSSt9exception
         U _ZTSSt13bad_exception
         U _ZTSSt9bad_alloc
00001bbc D uglBMFFont_Lucida_Bright_Demibold_24

uflbr08.o:
00000000 d page0Data
0000082c d pageArray
         U _ZTVSt9exception
         U _ZTVSt13bad_exception
         U _ZTVSt9bad_alloc
         U _ZTV10TException
         U _ZTI10TException
         U _ZTISt9exception
         U _ZTISt13bad_exception
         U _ZTISt9bad_alloc
         U _ZTS10TException
         U _ZTSSt9exception
         U _ZTSSt13bad_exception
         U _ZTSSt9bad_alloc
00000834 D uglBMFFont_Lucida_Sans_Bold_8

uflnr14.o:
00000000 d page0Data
00000ce4 d pageArray
         U _ZTVSt9exception
         U _ZTVSt13bad_exception
         U _ZTVSt9bad_alloc
         U _ZTV10TException
         U _ZTI10TException
         U _ZTISt9exception
         U _ZTISt13bad_exception
         U _ZTISt9bad_alloc
         U _ZTS10TException
         U _ZTSSt9exception
         U _ZTSSt13bad_exception
         U _ZTSSt9bad_alloc
00000cec D uglBMFFont_Lucida_Sans_14

ufhnr14.o:
00000000 d page0Data
00000cf8 d pageArray
         U _ZTVSt9exception
         U _ZTVSt13bad_exception
         U _ZTVSt9bad_alloc
         U _ZTV10TException
         U _ZTI10TException
         U _ZTISt9exception
         U _ZTISt13bad_exception
         U _ZTISt9bad_alloc
         U _ZTS10TException
         U _ZTSSt9exception
         U _ZTSSt13bad_exception
         U _ZTSSt9bad_alloc
00000d00 D uglBMFFont_Helvetica_14

uflbni10.o:
00000000 d page0Data
00000954 d pageArray
         U _ZTVSt9exception
         U _ZTVSt13bad_exception
         U _ZTVSt9bad_alloc
         U _ZTV10TException
         U _ZTI10TException
         U _ZTISt9exception
         U _ZTISt13bad_exception
         U _ZTISt9bad_alloc
         U _ZTS10TException
         U _ZTSSt9exception
         U _ZTSSt13bad_exception
         U _ZTSSt9bad_alloc
0000095c D uglBMFFont_Lucida_Bright_Italic_10

uflbbr14.o:
00000000 d page0Data
00000d10 d pageArray
         U _ZTVSt9exception
         U _ZTVSt13bad_exception
         U _ZTVSt9bad_alloc
         U _ZTV10TException
         U _ZTI10TException
         U _ZTISt9exception
         U _ZTISt13bad_exception
         U _ZTISt9bad_alloc
         U _ZTS10TException
         U _ZTSSt9exception
         U _ZTSSt13bad_exception
         U _ZTSSt9bad_alloc
00000d18 D uglBMFFont_Lucida_Bright_Demibold_14

ufcbr08.o:
00000000 d page0Data
00000834 d pageArray
         U _ZTVSt9exception
         U _ZTVSt13bad_exception
         U _ZTVSt9bad_alloc
         U _ZTV10TException
         U _ZTI10TException
         U _ZTISt9exception
         U _ZTISt13bad_exception
         U _ZTISt9bad_alloc
         U _ZTS10TException
         U _ZTSSt9exception
         U _ZTSSt13bad_exception
         U _ZTSSt9bad_alloc
0000083c D uglBMFFont_Courier_Bold_8

uflni24.o:
00000000 d page0Data
00001a68 d pageArray
         U _ZTVSt9exception
         U _ZTVSt13bad_exception
         U _ZTVSt9bad_alloc
         U _ZTV10TException
         U _ZTI10TException
         U _ZTISt9exception
         U _ZTISt13bad_exception
         U _ZTISt9bad_alloc
         U _ZTS10TException
         U _ZTSSt9exception
         U _ZTSSt13bad_exception
         U _ZTSSt9bad_alloc
00001a70 D uglBMFFont_Lucida_Sans_Italic_24

uflbr18.o:
00000000 d page0Data
00001354 d pageArray
         U _ZTVSt9exception
         U _ZTVSt13bad_exception
         U _ZTVSt9bad_alloc
         U _ZTV10TException
         U _ZTI10TException
         U _ZTISt9exception
         U _ZTISt13bad_exception
         U _ZTISt9bad_alloc
         U _ZTS10TException
         U _ZTSSt9exception
         U _ZTSSt13bad_exception
         U _ZTSSt9bad_alloc
0000135c D uglBMFFont_Lucida_Sans_Bold_18

ufcbi10.o:
00000000 d page0Data
00000968 d pageArray
         U _ZTVSt9exception
         U _ZTVSt13bad_exception
         U _ZTVSt9bad_alloc
         U _ZTV10TException
         U _ZTI10TException
         U _ZTISt9exception
         U _ZTISt13bad_exception
         U _ZTISt9bad_alloc
         U _ZTS10TException
         U _ZTSSt9exception
         U _ZTSSt13bad_exception
         U _ZTSSt9bad_alloc
00000970 D uglBMFFont_Courier_Bold_Oblique_10

uftnr12.o:
00000000 d page0Data
00000ab0 d pageArray
         U _ZTVSt9exception
         U _ZTVSt13bad_exception
         U _ZTVSt9bad_alloc
         U _ZTV10TException
         U _ZTI10TException
         U _ZTISt9exception
         U _ZTISt13bad_exception
         U _ZTISt9bad_alloc
         U _ZTS10TException
         U _ZTSSt9exception
         U _ZTSSt13bad_exception
         U _ZTSSt9bad_alloc
00000ab8 D uglBMFFont_Times_Roman_12

ufhnr18.o:
00000000 d page0Data
000011e0 d pageArray
         U _ZTVSt9exception
         U _ZTVSt13bad_exception
         U _ZTVSt9bad_alloc
         U _ZTV10TException
         U _ZTI10TException
         U _ZTISt9exception
         U _ZTISt13bad_exception
         U _ZTISt9bad_alloc
         U _ZTS10TException
         U _ZTSSt9exception
         U _ZTSSt13bad_exception
         U _ZTSSt9bad_alloc
000011e8 D uglBMFFont_Helvetica_18

ufhni24.o:
00000000 d page0Data
00001be0 d pageArray
         U _ZTVSt9exception
         U _ZTVSt13bad_exception
         U _ZTVSt9bad_alloc
         U _ZTV10TException
         U _ZTI10TException
         U _ZTISt9exception
         U _ZTISt13bad_exception
         U _ZTISt9bad_alloc
         U _ZTS10TException
         U _ZTSSt9exception
         U _ZTSSt13bad_exception
         U _ZTSSt9bad_alloc
00001be8 D uglBMFFont_Helvetica_Oblique_24

ufcni18.o:
00000000 d page0Data
000010b4 d pageArray
         U _ZTVSt9exception
         U _ZTVSt13bad_exception
         U _ZTVSt9bad_alloc
         U _ZTV10TException
         U _ZTI10TException
         U _ZTISt9exception
         U _ZTISt13bad_exception
         U _ZTISt9bad_alloc
         U _ZTS10TException
         U _ZTSSt9exception
         U _ZTSSt13bad_exception
         U _ZTSSt9bad_alloc
000010bc D uglBMFFont_Courier_Oblique_18

uftbi12.o:
00000000 d page0Data
00000b5c d pageArray
         U _ZTVSt9exception
         U _ZTVSt13bad_exception
         U _ZTVSt9bad_alloc
         U _ZTV10TException
         U _ZTI10TException
         U _ZTISt9exception
         U _ZTISt13bad_exception
         U _ZTISt9bad_alloc
         U _ZTS10TException
         U _ZTSSt9exception
         U _ZTSSt13bad_exception
         U _ZTSSt9bad_alloc
00000b64 D uglBMFFont_Times_Bold_Italic_12

uftni08.o:
00000000 d page0Data
000007d8 d pageArray
         U _ZTVSt9exception
         U _ZTVSt13bad_exception
         U _ZTVSt9bad_alloc
         U _ZTV10TException
         U _ZTI10TException
         U _ZTISt9exception
         U _ZTISt13bad_exception
         U _ZTISt9bad_alloc
         U _ZTS10TException
         U _ZTSSt9exception
         U _ZTSSt13bad_exception
         U _ZTSSt9bad_alloc
000007e0 D uglBMFFont_Times_Italic_8

ufcnr18.o:
00000000 d page0Data
000010bc d pageArray
         U _ZTVSt9exception
         U _ZTVSt13bad_exception
         U _ZTVSt9bad_alloc
         U _ZTV10TException
         U _ZTI10TException
         U _ZTISt9exception
         U _ZTISt13bad_exception
         U _ZTISt9bad_alloc
         U _ZTS10TException
         U _ZTSSt9exception
         U _ZTSSt13bad_exception
         U _ZTSSt9bad_alloc
000010c4 D uglBMFFont_Courier_18

uflnr10.o:
00000000 d page0Data
00000958 d pageArray
         U _ZTVSt9exception
         U _ZTVSt13bad_exception
         U _ZTVSt9bad_alloc
         U _ZTV10TException
         U _ZTI10TException
         U _ZTISt9exception
         U _ZTISt13bad_exception
         U _ZTISt9bad_alloc
         U _ZTS10TException
         U _ZTSSt9exception
         U _ZTSSt13bad_exception
         U _ZTSSt9bad_alloc
00000960 D uglBMFFont_Lucida_Sans_10

uflbbi12.o:
00000000 d page0Data
00000b60 d pageArray
         U _ZTVSt9exception
         U _ZTVSt13bad_exception
         U _ZTVSt9bad_alloc
         U _ZTV10TException
         U _ZTI10TException
         U _ZTISt9exception
         U _ZTISt13bad_exception
         U _ZTISt9bad_alloc
         U _ZTS10TException
         U _ZTSSt9exception
         U _ZTSSt13bad_exception
         U _ZTSSt9bad_alloc
00000b68 D uglBMFFont_Lucida_Bright_Demibold_Italic_12

ufcnr24.o:
00000000 d page0Data
0000190c d pageArray
         U _ZTVSt9exception
         U _ZTVSt13bad_exception
         U _ZTVSt9bad_alloc
         U _ZTV10TException
         U _ZTI10TException
         U _ZTISt9exception
         U _ZTISt13bad_exception
         U _ZTISt9bad_alloc
         U _ZTS10TException
         U _ZTSSt9exception
         U _ZTSSt13bad_exception
         U _ZTSSt9bad_alloc
00001914 D uglBMFFont_Courier_24

ufhnr12.o:
00000000 d page0Data
00000b1c d pageArray
         U _ZTVSt9exception
         U _ZTVSt13bad_exception
         U _ZTVSt9bad_alloc
         U _ZTV10TException
         U _ZTI10TException
         U _ZTISt9exception
         U _ZTISt13bad_exception
         U _ZTISt9bad_alloc
         U _ZTS10TException
         U _ZTSSt9exception
         U _ZTSSt13bad_exception
         U _ZTSSt9bad_alloc
00000b24 D uglBMFFont_Helvetica_12

uflbni14.o:
00000000 d page0Data
00000cf0 d pageArray
         U _ZTVSt9exception
         U _ZTVSt13bad_exception
         U _ZTVSt9bad_alloc
         U _ZTV10TException
         U _ZTI10TException
         U _ZTISt9exception
         U _ZTISt13bad_exception
         U _ZTISt9bad_alloc
         U _ZTS10TException
         U _ZTSSt9exception
         U _ZTSSt13bad_exception
         U _ZTSSt9bad_alloc
00000cf8 D uglBMFFont_Lucida_Bright_Italic_14

uflbbr10.o:
00000000 d page0Data
00000968 d pageArray
         U _ZTVSt9exception
         U _ZTVSt13bad_exception
         U _ZTVSt9bad_alloc
         U _ZTV10TException
         U _ZTI10TException
         U _ZTISt9exception
         U _ZTISt13bad_exception
         U _ZTISt9bad_alloc
         U _ZTS10TException
         U _ZTSSt9exception
         U _ZTSSt13bad_exception
         U _ZTSSt9bad_alloc
00000970 D uglBMFFont_Lucida_Bright_Demibold_10

uflbbr19.o:
00000000 d page0Data
00001390 d pageArray
         U _ZTVSt9exception
         U _ZTVSt13bad_exception
         U _ZTVSt9bad_alloc
         U _ZTV10TException
         U _ZTI10TException
         U _ZTISt9exception
         U _ZTISt13bad_exception
         U _ZTISt9bad_alloc
         U _ZTS10TException
         U _ZTSSt9exception
         U _ZTSSt13bad_exception
         U _ZTSSt9bad_alloc
00001398 D uglBMFFont_Lucida_Bright_Demibold_19

uflnr08.o:
00000000 d page0Data
000007e0 d pageArray
         U _ZTVSt9exception
         U _ZTVSt13bad_exception
         U _ZTVSt9bad_alloc
         U _ZTV10TException
         U _ZTI10TException
         U _ZTISt9exception
         U _ZTISt13bad_exception
         U _ZTISt9bad_alloc
         U _ZTS10TException
         U _ZTSSt9exception
         U _ZTSSt13bad_exception
         U _ZTSSt9bad_alloc
000007e8 D uglBMFFont_Lucida_Sans_8

uflbnr08.o:
00000000 d page0Data
000007e8 d pageArray
         U _ZTVSt9exception
         U _ZTVSt13bad_exception
         U _ZTVSt9bad_alloc
         U _ZTV10TException
         U _ZTI10TException
         U _ZTISt9exception
         U _ZTISt13bad_exception
         U _ZTISt9bad_alloc
         U _ZTS10TException
         U _ZTSSt9exception
         U _ZTSSt13bad_exception
         U _ZTSSt9bad_alloc
000007f0 D uglBMFFont_Lucida_Bright_8

uflni12.o:
00000000 d page0Data
00000b2c d pageArray
         U _ZTVSt9exception
         U _ZTVSt13bad_exception
         U _ZTVSt9bad_alloc
         U _ZTV10TException
         U _ZTI10TException
         U _ZTISt9exception
         U _ZTISt13bad_exception
         U _ZTISt9bad_alloc
         U _ZTS10TException
         U _ZTSSt9exception
         U _ZTSSt13bad_exception
         U _ZTSSt9bad_alloc
00000b34 D uglBMFFont_Lucida_Sans_Italic_12

ufcnr14.o:
00000000 d page0Data
00000d2c d pageArray
         U _ZTVSt9exception
         U _ZTVSt13bad_exception
         U _ZTVSt9bad_alloc
         U _ZTV10TException
         U _ZTI10TException
         U _ZTISt9exception
         U _ZTISt13bad_exception
         U _ZTISt9bad_alloc
         U _ZTS10TException
         U _ZTSSt9exception
         U _ZTSSt13bad_exception
         U _ZTSSt9bad_alloc
00000d34 D uglBMFFont_Courier_14

uflnr18.o:
00000000 d page0Data
00001180 d pageArray
         U _ZTVSt9exception
         U _ZTVSt13bad_exception
         U _ZTVSt9bad_alloc
         U _ZTV10TException
         U _ZTI10TException
         U _ZTISt9exception
         U _ZTISt13bad_exception
         U _ZTISt9bad_alloc
         U _ZTS10TException
         U _ZTSSt9exception
         U _ZTSSt13bad_exception
         U _ZTSSt9bad_alloc
00001188 D uglBMFFont_Lucida_Sans_18

uftbr18.o:
00000000 d page0Data
00001160 d pageArray
         U _ZTVSt9exception
         U _ZTVSt13bad_exception
         U _ZTVSt9bad_alloc
         U _ZTV10TException
         U _ZTI10TException
         U _ZTISt9exception
         U _ZTISt13bad_exception
         U _ZTISt9bad_alloc
         U _ZTS10TException
         U _ZTSSt9exception
         U _ZTSSt13bad_exception
         U _ZTSSt9bad_alloc
00001168 D uglBMFFont_Times_Bold_18

uflbr12.o:
00000000 d page0Data
00000be4 d pageArray
         U _ZTVSt9exception
         U _ZTVSt13bad_exception
         U _ZTVSt9bad_alloc
         U _ZTV10TException
         U _ZTI10TException
         U _ZTISt9exception
         U _ZTISt13bad_exception
         U _ZTISt9bad_alloc
         U _ZTS10TException
         U _ZTSSt9exception
         U _ZTSSt13bad_exception
         U _ZTSSt9bad_alloc
00000bec D uglBMFFont_Lucida_Sans_Bold_12

uflbbi10.o:
00000000 d page0Data
00000988 d pageArray
         U _ZTVSt9exception
         U _ZTVSt13bad_exception
         U _ZTVSt9bad_alloc
         U _ZTV10TException
         U _ZTI10TException
         U _ZTISt9exception
         U _ZTISt13bad_exception
         U _ZTISt9bad_alloc
         U _ZTS10TException
         U _ZTSSt9exception
         U _ZTSSt13bad_exception
         U _ZTSSt9bad_alloc
00000990 D uglBMFFont_Lucida_Bright_Demibold_Italic_10

uflni14.o:
00000000 d page0Data
00000cfc d pageArray
         U _ZTVSt9exception
         U _ZTVSt13bad_exception
         U _ZTVSt9bad_alloc
         U _ZTV10TException
         U _ZTI10TException
         U _ZTISt9exception
         U _ZTISt13bad_exception
         U _ZTISt9bad_alloc
         U _ZTS10TException
         U _ZTSSt9exception
         U _ZTSSt13bad_exception
         U _ZTSSt9bad_alloc
00000d04 D uglBMFFont_Lucida_Sans_Italic_14

uflbni18.o:
00000000 d page0Data
00001198 d pageArray
         U _ZTVSt9exception
         U _ZTVSt13bad_exception
         U _ZTVSt9bad_alloc
         U _ZTV10TException
         U _ZTI10TException
         U _ZTISt9exception
         U _ZTISt13bad_exception
         U _ZTISt9bad_alloc
         U _ZTS10TException
         U _ZTSSt9exception
         U _ZTSSt13bad_exception
         U _ZTSSt9bad_alloc
000011a0 D uglBMFFont_Lucida_Bright_Italic_18

uftbr14.o:
00000000 d page0Data
00000cb0 d pageArray
         U _ZTVSt9exception
         U _ZTVSt13bad_exception
         U _ZTVSt9bad_alloc
         U _ZTV10TException
         U _ZTI10TException
         U _ZTISt9exception
         U _ZTISt13bad_exception
         U _ZTISt9bad_alloc
         U _ZTS10TException
         U _ZTSSt9exception
         U _ZTSSt13bad_exception
         U _ZTSSt9bad_alloc
00000cb8 D uglBMFFont_Times_Bold_14

ufcbr12.o:
00000000 d page0Data
00000ac4 d pageArray
         U _ZTVSt9exception
         U _ZTVSt13bad_exception
         U _ZTVSt9bad_alloc
         U _ZTV10TException
         U _ZTI10TException
         U _ZTISt9exception
         U _ZTISt13bad_exception
         U _ZTISt9bad_alloc
         U _ZTS10TException
         U _ZTSSt9exception
         U _ZTSSt13bad_exception
         U _ZTSSt9bad_alloc
00000acc D uglBMFFont_Courier_Bold_12

ufhnr10.o:
00000000 d page0Data
0000098c d pageArray
         U _ZTVSt9exception
         U _ZTVSt13bad_exception
         U _ZTVSt9bad_alloc
         U _ZTV10TException
         U _ZTI10TException
         U _ZTISt9exception
         U _ZTISt13bad_exception
         U _ZTISt9bad_alloc
         U _ZTS10TException
         U _ZTSSt9exception
         U _ZTSSt13bad_exception
         U _ZTSSt9bad_alloc
00000994 D uglBMFFont_Helvetica_10

uftni12.o:
00000000 d page0Data
00000ac8 d pageArray
         U _ZTVSt9exception
         U _ZTVSt13bad_exception
         U _ZTVSt9bad_alloc
         U _ZTV10TException
         U _ZTI10TException
         U _ZTISt9exception
         U _ZTISt13bad_exception
         U _ZTISt9bad_alloc
         U _ZTS10TException
         U _ZTSSt9exception
         U _ZTSSt13bad_exception
         U _ZTSSt9bad_alloc
00000ad0 D uglBMFFont_Times_Italic_12

uflbi19.o:
00000000 d page0Data
0000141c d pageArray
         U _ZTVSt9exception
         U _ZTVSt13bad_exception
         U _ZTVSt9bad_alloc
         U _ZTV10TException
         U _ZTI10TException
         U _ZTISt9exception
         U _ZTISt13bad_exception
         U _ZTISt9bad_alloc
         U _ZTS10TException
         U _ZTSSt9exception
         U _ZTSSt13bad_exception
         U _ZTSSt9bad_alloc
00001424 D uglBMFFont_Lucida_Sans_Bold_Italic_19

ufhni14.o:
00000000 d page0Data
00000d54 d pageArray
         U _ZTVSt9exception
         U _ZTVSt13bad_exception
         U _ZTVSt9bad_alloc
         U _ZTV10TException
         U _ZTI10TException
         U _ZTISt9exception
         U _ZTISt13bad_exception
         U _ZTISt9bad_alloc
         U _ZTS10TException
         U _ZTSSt9exception
         U _ZTSSt13bad_exception
         U _ZTSSt9bad_alloc
00000d5c D uglBMFFont_Helvetica_Oblique_14

ufcni24.o:
00000000 d page0Data
00001910 d pageArray
         U _ZTVSt9exception
         U _ZTVSt13bad_exception
         U _ZTVSt9bad_alloc
         U _ZTV10TException
         U _ZTI10TException
         U _ZTISt9exception
         U _ZTISt13bad_exception
         U _ZTISt9bad_alloc
         U _ZTS10TException
         U _ZTSSt9exception
         U _ZTSSt13bad_exception
         U _ZTSSt9bad_alloc
00001918 D uglBMFFont_Courier_Oblique_24

uflbbi24.o:
00000000 d page0Data
00001c10 d pageArray
         U _ZTVSt9exception
         U _ZTVSt13bad_exception
         U _ZTVSt9bad_alloc
         U _ZTV10TException
         U _ZTI10TException
         U _ZTISt9exception
         U _ZTISt13bad_exception
         U _ZTISt9bad_alloc
         U _ZTS10TException
         U _ZTSSt9exception
         U _ZTSSt13bad_exception
         U _ZTSSt9bad_alloc
00001c18 D uglBMFFont_Lucida_Bright_Demibold_Italic_24

ufcnr10.o:
00000000 d page0Data
0000092c d pageArray
         U _ZTVSt9exception
         U _ZTVSt13bad_exception
         U _ZTVSt9bad_alloc
         U _ZTV10TException
         U _ZTI10TException
         U _ZTISt9exception
         U _ZTISt13bad_exception
         U _ZTISt9bad_alloc
         U _ZTS10TException
         U _ZTSSt9exception
         U _ZTSSt13bad_exception
         U _ZTSSt9bad_alloc
00000934 D uglBMFFont_Courier_10

uflbi24.o:
00000000 d page0Data
00001d1c d pageArray
         U _ZTVSt9exception
         U _ZTVSt13bad_exception
         U _ZTVSt9bad_alloc
         U _ZTV10TException
         U _ZTI10TException
         U _ZTISt9exception
         U _ZTISt13bad_exception
         U _ZTISt9bad_alloc
         U _ZTS10TException
         U _ZTSSt9exception
         U _ZTSSt13bad_exception
         U _ZTSSt9bad_alloc
00001d24 D uglBMFFont_Lucida_Sans_Bold_Italic_24

uftnr24.o:
00000000 d page0Data
00001894 d pageArray
         U _ZTVSt9exception
         U _ZTVSt13bad_exception
         U _ZTVSt9bad_alloc
         U _ZTV10TException
         U _ZTI10TException
         U _ZTISt9exception
         U _ZTISt13bad_exception
         U _ZTISt9bad_alloc
         U _ZTS10TException
         U _ZTSSt9exception
         U _ZTSSt13bad_exception
         U _ZTSSt9bad_alloc
0000189c D uglBMFFont_Times_Roman_24

uftbi18.o:
00000000 d page0Data
00001128 d pageArray
         U _ZTVSt9exception
         U _ZTVSt13bad_exception
         U _ZTVSt9bad_alloc
         U _ZTV10TException
         U _ZTI10TException
         U _ZTISt9exception
         U _ZTISt13bad_exception
         U _ZTISt9bad_alloc
         U _ZTS10TException
         U _ZTSSt9exception
         U _ZTSSt13bad_exception
         U _ZTSSt9bad_alloc
00001130 D uglBMFFont_Times_Bold_Italic_18

uflni10.o:
00000000 d page0Data
0000097c d pageArray
         U _ZTVSt9exception
         U _ZTVSt13bad_exception
         U _ZTVSt9bad_alloc
         U _ZTV10TException
         U _ZTI10TException
         U _ZTISt9exception
         U _ZTISt13bad_exception
         U _ZTISt9bad_alloc
         U _ZTS10TException
         U _ZTSSt9exception
         U _ZTSSt13bad_exception
         U _ZTSSt9bad_alloc
00000984 D uglBMFFont_Lucida_Sans_Italic_10

uflbni08.o:
00000000 d page0Data
00000800 d pageArray
         U _ZTVSt9exception
         U _ZTVSt13bad_exception
         U _ZTVSt9bad_alloc
         U _ZTV10TException
         U _ZTI10TException
         U _ZTISt9exception
         U _ZTISt13bad_exception
         U _ZTISt9bad_alloc
         U _ZTS10TException
         U _ZTSSt9exception
         U _ZTSSt13bad_exception
         U _ZTSSt9bad_alloc
00000808 D uglBMFFont_Lucida_Bright_Italic_8

uflni18.o:
00000000 d page0Data
00001194 d pageArray
         U _ZTVSt9exception
         U _ZTVSt13bad_exception
         U _ZTVSt9bad_alloc
         U _ZTV10TException
         U _ZTI10TException
         U _ZTISt9exception
         U _ZTISt13bad_exception
         U _ZTISt9bad_alloc
         U _ZTS10TException
         U _ZTSSt9exception
         U _ZTSSt13bad_exception
         U _ZTSSt9bad_alloc
0000119c D uglBMFFont_Lucida_Sans_Italic_18

uftbr12.o:
00000000 d page0Data
00000b18 d pageArray
         U _ZTVSt9exception
         U _ZTVSt13bad_exception
         U _ZTVSt9bad_alloc
         U _ZTV10TException
         U _ZTI10TException
         U _ZTISt9exception
         U _ZTISt13bad_exception
         U _ZTISt9bad_alloc
         U _ZTS10TException
         U _ZTSSt9exception
         U _ZTSSt13bad_exception
         U _ZTSSt9bad_alloc
00000b20 D uglBMFFont_Times_Bold_12

ufhni08.o:
00000000 d page0Data
0000085c d pageArray
         U _ZTVSt9exception
         U _ZTVSt13bad_exception
         U _ZTVSt9bad_alloc
         U _ZTV10TException
         U _ZTI10TException
         U _ZTISt9exception
         U _ZTISt13bad_exception
         U _ZTISt9bad_alloc
         U _ZTS10TException
         U _ZTSSt9exception
         U _ZTSSt13bad_exception
         U _ZTSSt9bad_alloc
00000864 D uglBMFFont_Helvetica_Oblique_8

uftnr14.o:
00000000 d page0Data
00000c60 d pageArray
         U _ZTVSt9exception
         U _ZTVSt13bad_exception
         U _ZTVSt9bad_alloc
         U _ZTV10TException
         U _ZTI10TException
         U _ZTISt9exception
         U _ZTISt13bad_exception
         U _ZTISt9bad_alloc
         U _ZTS10TException
         U _ZTSSt9exception
         U _ZTSSt13bad_exception
         U _ZTSSt9bad_alloc
00000c68 D uglBMFFont_Times_Roman_14

ufhbi08.o:
00000000 d page0Data
00000884 d pageArray
         U _ZTVSt9exception
         U _ZTVSt13bad_exception
         U _ZTVSt9bad_alloc
         U _ZTV10TException
         U _ZTI10TException
         U _ZTISt9exception
         U _ZTISt13bad_exception
         U _ZTISt9bad_alloc
         U _ZTS10TException
         U _ZTSSt9exception
         U _ZTSSt13bad_exception
         U _ZTSSt9bad_alloc
0000088c D uglBMFFont_Helvetica_Bold_Oblique_8

uflbbi19.o:
00000000 d page0Data
00001418 d pageArray
         U _ZTVSt9exception
         U _ZTVSt13bad_exception
         U _ZTVSt9bad_alloc
         U _ZTV10TException
         U _ZTI10TException
         U _ZTISt9exception
         U _ZTISt13bad_exception
         U _ZTISt9bad_alloc
         U _ZTS10TException
         U _ZTSSt9exception
         U _ZTSSt13bad_exception
         U _ZTSSt9bad_alloc
00001420 D uglBMFFont_Lucida_Bright_Demibold_Italic_19

ufhbr18.o:
00000000 d page0Data
00001270 d pageArray
         U _ZTVSt9exception
         U _ZTVSt13bad_exception
         U _ZTVSt9bad_alloc
         U _ZTV10TException
         U _ZTI10TException
         U _ZTISt9exception
         U _ZTISt13bad_exception
         U _ZTISt9bad_alloc
         U _ZTS10TException
         U _ZTSSt9exception
         U _ZTSSt13bad_exception
         U _ZTSSt9bad_alloc
00001278 D uglBMFFont_Helvetica_Bold_18

BuiltInTtfFont.o:
00000000 T startLuxirr
00015a9c T endLuxirr
00015a9c T startLuxisr
00026278 T endLuxisr
00026278 T startLuximr
00037ae0 T endLuximr

vxfbPlatformSupport.o:
0000002c t _Z15InitInputDevicePKc
00000000 b _ZZN20TVXFBPlatformSupport13VXFBInputTaskEvE11lastMousePt
         U _ZTVSt9exception
         U _ZTVSt13bad_exception
         U _ZTVSt9bad_alloc
00000000 V _ZTV10TException
         U _ZTV17TChildrenDelegate
         U _ZTV6TImage
         U _ZTV9TPlatform
00000000 V _ZTV20TVXFBPlatformSupport
         U _ZTV6TArrayIP5TNodeE
         U _ZTV6TArrayI9ColorStopE
00000000 V _ZTI10TException
         U _ZTI17TChildrenDelegate
         U _ZTI6TArrayIP5TNodeE
         U _ZTI6TImage
         U _ZTI6TArrayI9ColorStopE
00000000 V _ZTI9TPlatform
00000000 V _ZTI20TVXFBPlatformSupport
         U _ZTISt9exception
         U _ZTISt13bad_exception
         U _ZTISt9bad_alloc
00000000 V _ZTS10TException
00000000 V _ZTIN10TException4TypeE
00000000 V _ZTSN10TException4TypeE
         U _ZTS17TChildrenDelegate
         U _ZTS6TArrayIP5TNodeE
         U _ZTS6TImage
         U _ZTS6TArrayI9ColorStopE
00000000 V _ZTS9TPlatform
00000000 V _ZTS20TVXFBPlatformSupport
         U _ZTSSt9exception
         U _ZTSSt13bad_exception
         U _ZTSSt9bad_alloc
00000000 T _Z26DestroyVXFBPlatformSupportP9TPlatform
         U __frameinfo_used
00000000 T _ZN6_TRectIiEC1Ev
         U _ZN6_TRectIiE8nullRectE
         U open
         U printf
         U ioctl
         U close
         U read
000000fc T _ZN20TVXFBPlatformSupport8InstanceEv
00000000 D _ZN20TVXFBPlatformSupport19vxfbPlatformSupportE
         U __cxa_allocate_exception
         U __cxa_throw
00000000 T _ZN10TExceptionD1Ev
0000015c T _ZN20TVXFBPlatformSupport12VXFBTimerSetEv
         U clock_gettime
         U __div32
00000bc0 T _ZN20TVXFBPlatformSupport23VXFBTimerSignalCallbackEiP7siginfoPv
         U sigemptyset
         U sigaction
         U memset
         U timer_create
         U timer_settime
000002cc T _ZN20TVXFBPlatformSupport4InitEv
         U msgQCreate
         U _ZN7TStringC1EPKc
         U _ZNK7TStringeqERKS_
         U free
         U memcpy
00000c48 T _ZN20TVXFBPlatformSupport13VXFBInputTaskEv
         U taskSpawn
         U __diab_Unwind_Resume
         U __diab_personality_v0
000005f4 T _ZN20TVXFBPlatformSupport6DeinitEv
         U taskWait
         U timer_delete
         U msgQDelete
00000674 T _ZN20TVXFBPlatformSupportC1ERK9TAppParam
         U _ZN7TStringC1Ev
         U _ZN7TStringaSERKS_
         U _Z17InitDisplaySystemPhiii
         U __cxa_end_catch
         U __cxa_begin_catch
         U _Z19DeinitDisplaySystemP8TDisplay
         U __cxa_rethrow
00000870 T _Z25CreateVXFBPlatformSupportRK9TAppParam
         U _Znwj
         U _ZdlPv
00000000 T _ZN10TExceptionD0Ev
00000000 T _ZN7_TPointIiED1Ev
000008fc T _ZN20TVXFBPlatformSupportC2ERK9TAppParam
0000091c T _ZN20TVXFBPlatformSupportD1Ev
000009e8 T _ZN20TVXFBPlatformSupportD2Ev
00000a08 T _ZN20TVXFBPlatformSupportD0Ev
00000a34 T _ZN20TVXFBPlatformSupport13GetScreenInfoER11TScreenInfo
00000a78 T _ZN20TVXFBPlatformSupport11SaveSurfaceEPvRK7_TPointIiES4_RK6_TSizeIiE
00000ac4 T _ZN20TVXFBPlatformSupport11BlitSurfaceEPvRK7_TPointIiES4_RK6_TSizeIiE
00000b10 T _ZN20TVXFBPlatformSupport10PostScreenEiPKi
00000b14 T _ZN20TVXFBPlatformSupport10SwapScreenEv
00000b18 T _ZN20TVXFBPlatformSupport11WaitMessageER8_app_msgi
         U msgQReceive
00000b64 T _ZN20TVXFBPlatformSupport11SendMessageERK8_app_msgi
         U msgQSend
00000bb8 T _ZN20TVXFBPlatformSupport10GetDisplayEv
         U __cxa_guard_acquire
         U __cxa_atexit
         U __dso_handle
         U __cxa_guard_release
         U sigaddset
         U sigprocmask
         U errnoGet
         U __cxa_guard_abort
         U _ZTVN10__cxxabiv117__class_type_infoE
         U _ZTVN10__cxxabiv120__si_class_type_infoE
         U _ZTVN10__cxxabiv116__enum_type_infoE

tilconConfig.o:
         U _ZTVSt9exception
         U _ZTVSt13bad_exception
         U _ZTVSt9bad_alloc
         U _ZTV10TException
         U _ZTV17TChildrenDelegate
         U _ZTV6TImage
         U _ZTV6TArrayIP5TNodeE
         U _ZTV6TArrayI9ColorStopE
         U _ZTI10TException
         U _ZTI17TChildrenDelegate
         U _ZTI6TArrayIP5TNodeE
         U _ZTI6TImage
         U _ZTI6TArrayI9ColorStopE
         U _ZTISt9exception
         U _ZTISt13bad_exception
         U _ZTISt9bad_alloc
         U _ZTS10TException
         U _ZTS17TChildrenDelegate
         U _ZTS6TArrayIP5TNodeE
         U _ZTS6TImage
         U _ZTS6TArrayI9ColorStopE
         U _ZTSSt9exception
         U _ZTSSt13bad_exception
         U _ZTSSt9bad_alloc
00000000 T _Z22DestroyPlatformSupportP9TPlatform
         U __frameinfo_used
         U _Z26DestroyVXFBPlatformSupportP9TPlatform
00000020 T _Z21CreatePlatformSupportRK9TAppParam
         U _Z25CreateVXFBPlatformSupportRK9TAppParam
00000040 T _STI___16_tilconConfig_cpp_d31d4a20
         U endLuxirr
         U startLuxirr
00000000 D luxirrFontDesc
         U endLuxisr
         U startLuxisr
0000000c D luxisrFontDesc
         U endLuximr
00000018 D luximrFontDesc
         U startLuximr
00000024 D bmfFontDescs
         U uglBMFFont_Courier_10
         U uglBMFFont_Courier_12
         U uglBMFFont_Courier_14
         U uglBMFFont_Courier_18
         U uglBMFFont_Courier_24
         U uglBMFFont_Courier_8
         U uglBMFFont_Courier_Bold_10
         U uglBMFFont_Courier_Bold_12
         U uglBMFFont_Courier_Bold_14
         U uglBMFFont_Courier_Bold_18
         U uglBMFFont_Courier_Bold_24
         U uglBMFFont_Courier_Bold_8
         U uglBMFFont_Courier_Bold_Oblique_10
         U uglBMFFont_Courier_Bold_Oblique_12
         U uglBMFFont_Courier_Bold_Oblique_14
         U uglBMFFont_Courier_Bold_Oblique_18
         U uglBMFFont_Courier_Bold_Oblique_24
         U uglBMFFont_Courier_Bold_Oblique_8
         U uglBMFFont_Courier_Oblique_10
         U uglBMFFont_Courier_Oblique_12
         U uglBMFFont_Courier_Oblique_14
         U uglBMFFont_Courier_Oblique_18
         U uglBMFFont_Courier_Oblique_24
         U uglBMFFont_Courier_Oblique_8
         U uglBMFFont_Helvetica_10
         U uglBMFFont_Helvetica_12
         U uglBMFFont_Helvetica_14
         U uglBMFFont_Helvetica_18
         U uglBMFFont_Helvetica_24
         U uglBMFFont_Helvetica_8
         U uglBMFFont_Helvetica_Bold_10
         U uglBMFFont_Helvetica_Bold_12
         U uglBMFFont_Helvetica_Bold_14
         U uglBMFFont_Helvetica_Bold_18
         U uglBMFFont_Helvetica_Bold_24
         U uglBMFFont_Helvetica_Bold_8
         U uglBMFFont_Helvetica_Bold_Oblique_10
         U uglBMFFont_Helvetica_Bold_Oblique_12
         U uglBMFFont_Helvetica_Bold_Oblique_14
         U uglBMFFont_Helvetica_Bold_Oblique_18
         U uglBMFFont_Helvetica_Bold_Oblique_24
         U uglBMFFont_Helvetica_Bold_Oblique_8
         U uglBMFFont_Helvetica_Oblique_10
         U uglBMFFont_Helvetica_Oblique_12
         U uglBMFFont_Helvetica_Oblique_14
         U uglBMFFont_Helvetica_Oblique_18
         U uglBMFFont_Helvetica_Oblique_24
         U uglBMFFont_Helvetica_Oblique_8
         U uglBMFFont_Lucida_Bright_10
         U uglBMFFont_Lucida_Bright_12
         U uglBMFFont_Lucida_Bright_14
         U uglBMFFont_Lucida_Bright_18
         U uglBMFFont_Lucida_Bright_19
         U uglBMFFont_Lucida_Bright_24
         U uglBMFFont_Lucida_Bright_8
         U uglBMFFont_Lucida_Bright_Demibold_10
         U uglBMFFont_Lucida_Bright_Demibold_12
         U uglBMFFont_Lucida_Bright_Demibold_14
         U uglBMFFont_Lucida_Bright_Demibold_18
         U uglBMFFont_Lucida_Bright_Demibold_19
         U uglBMFFont_Lucida_Bright_Demibold_24
         U uglBMFFont_Lucida_Bright_Demibold_8
         U uglBMFFont_Lucida_Bright_Demibold_Italic_10
         U uglBMFFont_Lucida_Bright_Demibold_Italic_12
         U uglBMFFont_Lucida_Bright_Demibold_Italic_14
         U uglBMFFont_Lucida_Bright_Demibold_Italic_18
         U uglBMFFont_Lucida_Bright_Demibold_Italic_19
         U uglBMFFont_Lucida_Bright_Demibold_Italic_24
         U uglBMFFont_Lucida_Bright_Demibold_Italic_8
         U uglBMFFont_Lucida_Bright_Italic_10
         U uglBMFFont_Lucida_Bright_Italic_12
         U uglBMFFont_Lucida_Bright_Italic_14
         U uglBMFFont_Lucida_Bright_Italic_18
         U uglBMFFont_Lucida_Bright_Italic_19
         U uglBMFFont_Lucida_Bright_Italic_24
         U uglBMFFont_Lucida_Bright_Italic_8
         U uglBMFFont_Lucida_Sans_10
         U uglBMFFont_Lucida_Sans_12
         U uglBMFFont_Lucida_Sans_14
         U uglBMFFont_Lucida_Sans_18
         U uglBMFFont_Lucida_Sans_19
         U uglBMFFont_Lucida_Sans_24
         U uglBMFFont_Lucida_Sans_8
         U uglBMFFont_Lucida_Sans_Bold_10
         U uglBMFFont_Lucida_Sans_Bold_12
         U uglBMFFont_Lucida_Sans_Bold_14
         U uglBMFFont_Lucida_Sans_Bold_18
         U uglBMFFont_Lucida_Sans_Bold_19
         U uglBMFFont_Lucida_Sans_Bold_24
         U uglBMFFont_Lucida_Sans_Bold_8
         U uglBMFFont_Lucida_Sans_Bold_Italic_10
         U uglBMFFont_Lucida_Sans_Bold_Italic_12
         U uglBMFFont_Lucida_Sans_Bold_Italic_14
         U uglBMFFont_Lucida_Sans_Bold_Italic_18
         U uglBMFFont_Lucida_Sans_Bold_Italic_19
         U uglBMFFont_Lucida_Sans_Bold_Italic_24
         U uglBMFFont_Lucida_Sans_Bold_Italic_8
         U uglBMFFont_Lucida_Sans_Italic_10
         U uglBMFFont_Lucida_Sans_Italic_12
         U uglBMFFont_Lucida_Sans_Italic_14
         U uglBMFFont_Lucida_Sans_Italic_18
         U uglBMFFont_Lucida_Sans_Italic_19
         U uglBMFFont_Lucida_Sans_Italic_24
         U uglBMFFont_Lucida_Sans_Italic_8
         U uglBMFFont_Times_Bold_10
         U uglBMFFont_Times_Bold_12
         U uglBMFFont_Times_Bold_14
         U uglBMFFont_Times_Bold_18
         U uglBMFFont_Times_Bold_24
         U uglBMFFont_Times_Bold_8
         U uglBMFFont_Times_Bold_Italic_10
         U uglBMFFont_Times_Bold_Italic_12
         U uglBMFFont_Times_Bold_Italic_14
         U uglBMFFont_Times_Bold_Italic_18
         U uglBMFFont_Times_Bold_Italic_24
         U uglBMFFont_Times_Bold_Italic_8
         U uglBMFFont_Times_Italic_10
         U uglBMFFont_Times_Italic_12
         U uglBMFFont_Times_Italic_14
         U uglBMFFont_Times_Italic_18
         U uglBMFFont_Times_Italic_24
         U uglBMFFont_Times_Italic_8
         U uglBMFFont_Times_Roman_10
         U uglBMFFont_Times_Roman_12
         U uglBMFFont_Times_Roman_14
         U uglBMFFont_Times_Roman_18
         U uglBMFFont_Times_Roman_24
         U uglBMFFont_Times_Roman_8
00000228 D ttfFontDescs

trPainter.o:
00000000 d FLOAT_TEMP.2606
00000004 d FLOAT_TEMP.2607
00000008 d FLOAT_TEMP.2668
0000000c d FLOAT_TEMP.2675
00000010 d FLOAT_TEMP.2713
00000014 d FLOAT_TEMP.2722
00000018 d FLOAT_TEMP.3293
0000001c d FLOAT_TEMP.3299
00000020 d FLOAT_TEMP.3321
00000028 d FLOAT_TEMP.3322
0000002c d FLOAT_TEMP.3323
         U _ZTVSt9exception
         U _ZTVSt13bad_exception
         U _ZTVSt9bad_alloc
00000000 V _ZTV10TException
         U _ZTV6TImage
         U _ZTV6TArrayIN3tds4Path7SegmentEE
         U _ZTV6TArrayI9ColorStopE
00000000 V _ZTI10TException
         U _ZTI6TImage
         U _ZTI6TArrayIN3tds4Path7SegmentEE
         U _ZTI6TArrayI9ColorStopE
         U _ZTISt9exception
         U _ZTISt13bad_exception
         U _ZTISt9bad_alloc
00000000 V _ZTS10TException
         U _ZTS6TImage
         U _ZTS6TArrayIN3tds4Path7SegmentEE
         U _ZTS6TArrayI9ColorStopE
         U _ZTSSt9exception
         U _ZTSSt13bad_exception
         U _ZTSSt9bad_alloc
00000000 T _ZN10TExceptionD1Ev
00000000 T _ZN10TExceptionD0Ev
         U _ZdlPv
00000000 T _ZN10TMatrix3x3C1Ev
00000000 T _ZN10TMatrix3x3C1ERKS_
00000000 T _ZN10TMatrix3x3C1Efffffffff
00000000 T _ZN10TMatrix3x3aSERKS_
00000000 T _ZNK10TMatrix3x3mlERK8TVector2
00000000 T _ZNK10TMatrix3x3mlERKS_
00000000 T _ZN10TMatrix3x39TranslateEff
00000000 T _ZN10TMatrix3x35ScaleEff
00000000 T _ZN6TColorC1ERKS_
00000000 T _ZN6_TRectIiEC1Ev
         U _ZN6_TRectIiE8nullRectE
00000000 T _ZN6_TRectIiEC1ERKS0_
00000000 T _ZN6_TRectIiEC1ERK7_TPointIiERK6_TSizeIiE
00000000 T _ZN6_TRectIiEC1ERK7_TPointIiES4_
00000000 T _ZNK6_TRectIiEplERK7_TPointIiE
00000000 T _ZNK6_TRectIiEmiERK7_TPointIiE
00000000 T _ZNK6_TRectIiE9IntersectERKS0_
00000000 T _ZN6_TRectIiEpLERK7_TPointIiE
00000000 T _ZNK6TArrayIN3tds4Path7SegmentEEixEi
         U __frameinfo_used
         U __cxa_allocate_exception
         U __cxa_throw
00000000 T _ZNK6TArrayI9ColorStopEixEi
00000000 T _ZN7_TPointIiEC1Ev
00000000 T _ZN7_TPointIiED1Ev
00000000 T _ZN3tds7Context13ClearClipRectEv
         U _ZN6_TRectIiE7maxRectE
0000006c T _ZN3tds7Context13SetRenderAreaERK7_TPointIiERK6_TRectIiE
00000148 T _ZN3tds7Context15ResetRenderAreaEv
00000178 T _ZN3tds7Context11SetClipRectERK6_TRectIiE
000001e8 T _ZN3tds7PainterC1Eii
         U _Znwj
         U _ZN3tds10RasterizerC1Eii
         U __diab_Unwind_Resume
         U __diab_personality_v0
00000288 T _ZN3tds7PainterC2Eii
000002a8 T _ZN3tds7PainterD1Ev
         U _ZN3tds10RasterizerD1Ev
000002e0 T _ZN3tds7PainterD2Ev
00000300 T _ZN3tds7Painter10BeginPaintERNS_7ContextERNS_11ColorBufferE
00000360 T _ZN3tds7Painter8EndPaintERNS_7ContextE
0000037c T _ZN3tds7Painter13RasterSegmentERK8TVector2S3_
         U _ZN3tds10Rasterizer11TessSegmentEiiii
0000040c T _ZN3tds7Painter8TessLineERK8TVector2S3_
00000498 T _ZN3tds7Painter18TessStrokeInternalENS0_11TessCommandERK8TVector2RNS0_13StrokePainterE
         U _ZN8TVector29NormalizeEv
00000000 T _ZN3tds7Painter13StrokePainterC1Ev
0000097c T _ZN3tds7Painter14TessStrokePathEPK7_TPointIfEji
         U _ZN3tds10Rasterizer5BeginEPNS_7ContextE
         U _ZN3tds10Rasterizer8ScanlineEv
00000aa0 T _ZN3tds7Painter10StrokePathERNS_7ContextEPK7_TPointIfEji
00000af8 T _ZN3tds7Painter12TessFillPathEPK7_TPointIfEj
00000bf4 T _ZN3tds7Painter8FillPathERNS_7ContextEPK7_TPointIfEj
00000c3c T _ZN3tds7Painter10SplitCurveEPi
00000cf8 T _ZN3tds7Painter21TessStrokeCubicBezierERK8TVector2S3_S3_S3_RNS0_13StrokePainterE
         U labs
00000edc T _ZN3tds7Painter14TessStrokePathERKNS_4PathE
000011b4 T _ZN3tds7Painter10StrokePathERNS_7ContextERKNS_4PathE
0000121c T _ZN3tds7Painter15TessCubicBezierERK8TVector2S3_S3_S3_
         U abs
000014b0 T _ZN3tds7Painter12TessFillPathERKNS_4PathE
0000177c T _ZN3tds7Painter8FillPathERNS_7ContextERKNS_4PathE
000017c8 T _ZN3tds7Painter13FillSolidRectERNS_7ContextERK6_TRectIiERK6TColor
         U _ZN3tds11ColorBuffer8SetColorERK6TColorii
         U _ZN3tds11ColorBuffer10BlendColorERK6TColorii
0000190c T _ZN3tds7Painter9DrawVLineERNS_7ContextEiii
00002834 T _ZN3tds7Painter12DrawDashLineERNS_7ContextERK7_TPointIiES6_
         U __div32
00001b08 T _ZN3tds7Painter28BresenhanLineBoundaryDataGetER7_TPointIiES3_PPS2_iPj
00001c80 T _ZN3tds7Painter16DrawScanLineDataERNS_7ContextEPPiii
00001e24 T _ZN3tds7Painter11DrawPolygonERNS_7ContextEPK7_TPointIiEi
         U malloc
         U memmove
         U free
000024e4 T _ZN3tds7Painter11DrawLineExeERNS_7ContextERK7_TPointIiES6_
         U __cxa_vec_ctor
         U __cxa_vec_dtor
00002668 T _ZN3tds7Painter20BresenhanLineDataGetERK7_TPointIiES4_PPS2_iPj
00002b48 T _ZN3tds7Painter9DrawHLineERNS_7ContextEiii
00002d40 T _ZN3tds7Painter17DrawBresenhanLineERNS_7ContextERK7_TPointIiES6_
000031e0 T _ZN3tds7Painter8DrawLineERNS_7ContextERK7_TPointIiES6_
0000359c T _ZN3tds7Painter8DrawRectERNS_7ContextERK6_TRectIiEi
00003950 T _ZN3tds7Painter9DrawImageERNS_7ContextERK6TImageii
         U _ZNK6TImage9GetHeightEv
         U _ZNK6TImage8GetWidthEv
         U _ZNK6TImage9GetBufferEii
         U _ZNK6TImage9GetStrideEv
         U _ZNK6TImage9GetFormatEv
         U _ZN3tds11ColorBuffer9BlendFromEPKh11ColorFormatiRK7_TPointIiERK6_TSizeIiE
00003b50 T _ZN3tds7Painter15DrawPixelBufferERNS_7ContextERKNS_11ColorBufferEii
         U _ZN3tds11ColorBuffer9BlendFromERKS0_iiiiii
00003cd0 T _ZN3tds7Painter10DrawCircleERNS_7ContextERK6_TRectIiE
         U _ZN3tds8TEllipseC1ERNS_7ContextERK6_TRectIiERK7_TPointIiESA_b
         U _ZN3tds8TEllipse11EllipseDrawEv
         U _ZN3tds8TEllipseD1Ev
00003ef8 T _ZN3tds7Painter11DrawEllipseERNS_7ContextERK6_TRectIiE
00003fbc T _ZN3tds7Painter7DrawArcERNS_7ContextERK6_TRectIiERK7_TPointIiESA_
00004058 T _ZN3tds7Painter7DrawPieERNS_7ContextERK6_TRectIiERK7_TPointIiESA_
000040f4 T _ZN3tds7Painter14DrawVectorTextERNS_7ContextERKNS_10VectorFontEfffPKwi
         U _ZNK3tds10VectorFont8GetGlyphEj
00004200 T _ZN3tds7Painter11DrawBmfTextERNS_7ContextERKNS_7BmfFontEffPKwi
         U _ZNK8TBmfFont10GetMetricsER11FontMetrics
         U _ZNK8TBmfFont8GetGlyphEw
000043d8 T _ZN3tds7Painter11DrawUCSTextERNS_7ContextEffPKwi
         U _ZNK5TFont7GetTypeEv
         U _ZNK5TFont12GetPointSizeEv
000044dc T _ZN3tds7Painter14MeasureUCSTextERNS_7ContextEPKwi
         U _ZNK8TTtfFont9GetHeightEv
         U _ZNK3tds10VectorFont16MeasureTextWidthEPKwi
0000461c T _ZN3tds7Painter6CopyToERNS_7ContextERNS_11ColorBufferEiiiiii
         U _ZNK3tds11ColorBuffer6CopyToERS0_iiiiii
00004670 T _ZN3tds7Painter8CopyFromERNS_7ContextERKNS_11ColorBufferEiiiiii
         U _ZN3tds11ColorBuffer8CopyFromERKS0_iiiiii
000046c4 T _ZN3tds7Painter17TessPathByCommandEiPKNS_4Path7SegmentE
00004928 T _ZN3tds16GetGradientColorERK9TGradientff10TMatrix3x3
         U _ZNK9TGradient12GetColorStopEv
         U _ZNK9TGradient13GetLinearDataEv
         U _ZNK9TGradient13GetRadialDataEv
         U sqrt
         U floor
         U _ZN6TColor11InterpolateEfRKS_
         U _ZTVN10__cxxabiv117__class_type_infoE

trEllipse.o:
         U _ZTVSt9exception
         U _ZTVSt13bad_exception
         U _ZTVSt9bad_alloc
         U _ZTV10TException
         U _ZTV6TImage
         U _ZTV6TArrayIN3tds4Path7SegmentEE
         U _ZTV6TArrayI9ColorStopE
         U _ZTI10TException
         U _ZTI6TImage
         U _ZTI6TArrayIN3tds4Path7SegmentEE
         U _ZTI6TArrayI9ColorStopE
         U _ZTISt9exception
         U _ZTISt13bad_exception
         U _ZTISt9bad_alloc
         U _ZTS10TException
         U _ZTS6TImage
         U _ZTS6TArrayIN3tds4Path7SegmentEE
         U _ZTS6TArrayI9ColorStopE
         U _ZTSSt9exception
         U _ZTSSt13bad_exception
         U _ZTSSt9bad_alloc
00000000 T _ZN10TMatrix3x3C1ERKS_
00000000 T _ZN10TMatrix3x3C1Efffffffff
00000000 T _ZNK10TMatrix3x3mlERKS_
00000000 T _ZN6TColorC1ERKS_
00000000 T _ZN6_TRectIiEC1Ev
         U _ZN6_TRectIiE8nullRectE
00000000 T _ZN6_TRectIiEC1ERKS0_
00000000 T _ZNK6_TRectIiEplERK7_TPointIiE
00000000 T _ZN6_TRectIiEpLERK7_TPointIiE
00000000 T _ZN3tds8TEllipseC1ERNS_7ContextERK6_TRectIiERK7_TPointIiESA_b
0000006c T _ZN3tds8TEllipseC2ERNS_7ContextERK6_TRectIiERK7_TPointIiESA_b
00000094 T _ZN3tds8TEllipseD1Ev
00000098 T _ZN3tds8TEllipseD2Ev
000000b8 T _ZN3tds8TEllipse15GeneralScanLineEiiii
         U __frameinfo_used
         U _ZN10TMatrix3x36InvertEv
         U _ZNK3tds11ColorBuffer15GetPatternColorEff10TMatrix3x3
         U _ZN3tds11ColorBuffer8SetColorERK6TColorii
         U _ZN3tds11ColorBuffer10BlendColorERK6TColorii
00000474 T _ZN3tds8TEllipse11GenericFillEPPiiii
         U __div32
00000590 T _ZN3tds8TEllipse19LineDataGetBoundaryEP7_TPointIiES3_PS3_iPi
         U abs
00000704 T _ZN3tds8TEllipse11GenericLineER7_TPointIiES3_R6TColor
00000a08 T _ZN3tds8TEllipse12GenericPointER7_TPointIiER6TColor
00000ac0 T _ZN3tds8TEllipse16EllipseDataGetSCEPiii
         U __mul64
00000f8c T _ZN3tds8TEllipse17AngleReferenceGetEiiii
00000ff8 T _ZN3tds8TEllipse16EllipseDataAllocEv
         U malloc
         U memset
         U free
0000122c T _ZN3tds8TEllipse15EllipseDataFreeEv
000012e4 T _ZN3tds8TEllipse18SpecialEllipseDrawEv
         U __rem32
         U memmove
         U __diab_Unwind_Resume
         U __diab_personality_v0
000022c0 T _ZN3tds8TEllipse14intersectStartEiiii
00002394 T _ZN3tds8TEllipse12intersectEndEiiii
00002470 T _ZN3tds8TEllipse14EllipseDataGetEi
00002b18 T _ZN3tds8TEllipse7fixFlatEv
00002c10 T _ZN3tds8TEllipse12EllipseFGGetEv
00002cfc T _ZN3tds8TEllipse8goAroundEv
00002db0 T _ZN3tds8TEllipse16intersectTogglesEi
00003138 T _ZN3tds8TEllipse16EllipseBGGetPartEi
0000343c T _ZN3tds8TEllipse16EllipseFGGetPartEv
0000391c T _ZN3tds8TEllipse8fixLinesEv
000039cc T _ZN3tds8TEllipse11EllipseDrawEv
00003dcc T _ZN3tds8TEllipse18EllipseFGDrawPart2Ev

trRasterizer.o:
         U _ZTVSt9exception
         U _ZTVSt13bad_exception
         U _ZTVSt9bad_alloc
         U _ZTV10TException
         U _ZTV6TImage
         U _ZTV6TArrayIN3tds4Path7SegmentEE
         U _ZTV6TArrayI9ColorStopE
         U _ZTI10TException
         U _ZTI6TImage
         U _ZTI6TArrayIN3tds4Path7SegmentEE
         U _ZTI6TArrayI9ColorStopE
         U _ZTISt9exception
         U _ZTISt13bad_exception
         U _ZTISt9bad_alloc
         U _ZTS10TException
         U _ZTS6TImage
         U _ZTS6TArrayIN3tds4Path7SegmentEE
         U _ZTS6TArrayI9ColorStopE
         U _ZTSSt9exception
         U _ZTSSt13bad_exception
         U _ZTSSt9bad_alloc
00000000 T _ZN10TMatrix3x3C1ERKS_
00000000 T _ZN10TMatrix3x3C1Efffffffff
00000000 T _ZNK10TMatrix3x3mlERKS_
00000000 T _ZN6_TRectIiEC1ERKS0_
00000000 T _ZN3tds10RasterizerC1Eii
         U __frameinfo_used
         U _Znaj
         U _ZdaPv
         U memset
0000015c T _ZN3tds10RasterizerC2Eii
0000017c T _ZN3tds10RasterizerD1Ev
000001cc T _ZN3tds10RasterizerD2Ev
000001ec T _ZN3tds10Rasterizer5BeginEPNS_7ContextE
000002ec T _ZN3tds10Rasterizer5tessHEiiiiRKNS0_7segmentE
         U abs
0000062c T _ZN3tds10Rasterizer5tessVEiiiii
000009dc T _ZN3tds10Rasterizer11TessSegmentEiiii
         U __mul64
         U __div64
000012b8 T _ZN3tds10Rasterizer13SolidScanlineERK6TColor
         U __div32
         U _ZN6TColor7Fade256EiRKS_
         U _ZN3tds11ColorBuffer8SetColorERK6TColorii
         U _ZN3tds11ColorBuffer10BlendColorERK6TColorii
00001538 T _ZN3tds10Rasterizer15GeneralScanlineEv
         U _ZN10TMatrix3x36InvertEv
         U _ZN3tds16GetGradientColorERK9TGradientff10TMatrix3x3
         U _ZNK3tds11ColorBuffer15GetPatternColorEff10TMatrix3x3
00001a4c T _ZN3tds10Rasterizer8ScanlineEv

trPath.o:
00000000 d FLOAT_TEMP.776
         U _ZTVSt9exception
         U _ZTVSt13bad_exception
         U _ZTVSt9bad_alloc
00000000 V _ZTV10TException
00000000 V _ZTV6TArrayIN3tds4Path7SegmentEE
00000000 V _ZTI10TException
00000000 V _ZTI6TArrayIN3tds4Path7SegmentEE
         U _ZTISt9exception
         U _ZTISt13bad_exception
         U _ZTISt9bad_alloc
00000000 V _ZTS10TException
00000000 V _ZTS6TArrayIN3tds4Path7SegmentEE
         U _ZTSSt9exception
         U _ZTSSt13bad_exception
         U _ZTSSt9bad_alloc
00000000 T _ZN10TExceptionD1Ev
00000000 T _ZN10TExceptionD0Ev
         U _ZdlPv
00000000 T _ZNK10TMatrix3x3mlERK8TVector2
00000000 T _ZN6TArrayIN3tds4Path7SegmentEED1Ev
         U _ZdaPv
00000000 T _ZN6TArrayIN3tds4Path7SegmentEED0Ev
00000000 T _ZN6TArrayIN3tds4Path7SegmentEE13RoundCapacityEi
00000000 T _ZN6TArrayIN3tds4Path7SegmentEE8ExpandAtEii
         U __frameinfo_used
         U _Znaj
         U __cxa_vec_new2
00000000 T _ZN3tds4Path7SegmentC1Ev
         U __cxa_allocate_exception
         U __cxa_throw
00000000 T _ZN6TArrayIN3tds4Path7SegmentEE8InsertAtEiRKS2_
00000000 T _ZNK6TArrayIN3tds4Path7SegmentEEixEi
00000000 T _ZN6TArrayIN3tds4Path7SegmentEE8InsertAtEiRKS3_
00000000 T _ZN6TArrayIN3tds4Path7SegmentEE5ClearEv
00000000 T _ZN6_TRectIfEC1Ev
         U _ZN6_TRectIfE8nullRectE
00000000 T _ZN6_TRectIfEC1ERK7_TPointIfES4_
00000000 T _ZNK6_TRectIfE7CombineERKS0_
00000000 T _ZN3tds4PathC1Ev
00000024 T _ZN3tds4PathC2Ev
00000048 T _ZN3tds4PathD1Ev
00000088 T _ZN3tds4PathD2Ev
000000c8 T _ZN3tds4Path5ClearEv
000000ec T _ZN3tds4Path10AppendDataEjPKhPKf
         U __diab_Unwind_Resume
         U __diab_personality_v0
000005e8 T _ZN3tds4Path10AppendPathERKS0_
00000614 T _ZN3tds4Path9TransformERK10TMatrix3x3
000006b8 T _ZNK3tds4Path12GetBoundRectEv
         U _ZTVN10__cxxabiv117__class_type_infoE

trVectorFont.o:
00000000 d FLOAT_TEMP.1498
         U _ZTVSt9exception
         U _ZTVSt13bad_exception
         U _ZTVSt9bad_alloc
00000000 V _ZTV10TException
         U _ZTV6TImage
00000000 V _ZTVN3tds10VectorFontE
         U _ZTV17TChildrenDelegate
00000000 V _ZTV6TArrayIN3tds4Path7SegmentEE
         U _ZTV6TArrayIP5TNodeE
         U _ZTV6TArrayI9ColorStopE
00000000 V _ZTV6TArrayIhE
00000000 V _ZTV6TArrayIfE
00000000 V _ZTI10TException
         U _ZTI6TImage
00000000 V _ZTI6TArrayIN3tds4Path7SegmentEE
         U _ZTI17TChildrenDelegate
         U _ZTI6TArrayIP5TNodeE
         U _ZTI6TArrayI9ColorStopE
00000000 V _ZTI6TArrayIhE
00000000 V _ZTI6TArrayIfE
         U _ZTISt9exception
         U _ZTISt13bad_exception
         U _ZTISt9bad_alloc
00000000 V _ZTIN3tds10VectorFontE
00000000 V _ZTS10TException
00000000 V _ZTIN10TException4TypeE
00000000 V _ZTSN10TException4TypeE
         U _ZTS6TImage
00000000 V _ZTS6TArrayIN3tds4Path7SegmentEE
         U _ZTS17TChildrenDelegate
         U _ZTS6TArrayIP5TNodeE
         U _ZTS6TArrayI9ColorStopE
00000000 V _ZTS6TArrayIhE
00000000 V _ZTS6TArrayIfE
         U _ZTSSt9exception
         U _ZTSSt13bad_exception
         U _ZTSSt9bad_alloc
00000000 V _ZTSN3tds10VectorFontE
00000000 T _ZN10TExceptionD1Ev
00000000 T _ZN10TExceptionD0Ev
         U _ZdlPv
00000000 T _ZNK6TArrayIN3tds4Path7SegmentEEixEi
         U __frameinfo_used
         U __cxa_allocate_exception
         U __cxa_throw
00000000 T _ZN6TArrayIN3tds4Path7SegmentEE8CopyFromERKS3_
         U _Znaj
         U _ZdaPv
         U __cxa_vec_new2
00000000 T _ZN3tds4Path7SegmentC1Ev
00000000 T _ZN6TArrayIN3tds4Path7SegmentEEC1ERKS3_
00000000 T _ZN6TArrayIN3tds4Path7SegmentEED1Ev
00000000 T _ZN6TArrayIN3tds4Path7SegmentEED0Ev
00000000 T _ZN6TArrayIhED1Ev
00000000 T _ZN6TArrayIhED0Ev
00000000 T _ZNK6TArrayIhEixEi
00000000 T _ZN6TArrayIfED1Ev
00000000 T _ZN6TArrayIfED0Ev
00000000 T _ZNK6TArrayIfEixEi
00000000 T _ZN3tds4PathaSERKS0_
         U __diab_Unwind_Resume
         U __diab_personality_v0
00000000 T _ZN3tds10VectorFont5GlyphC1Ev
         U _ZN3tds4PathC1Ev
00000000 T _ZN3tds10VectorFont5GlyphC1ERK7_TPointIfERKNS_4PathE
00000000 T _ZN3tds10VectorFont5GlyphD1Ev
         U _ZN3tds4PathD1Ev
00000000 T _ZN3tds10VectorFontC1ERK8TTtfFont
         U _ZNK8TTtfFont6IsNullEv
         U memset
         U _ZNK8TTtfFont12GetGlyphPathEwR6TArrayIhERS0_IfER7_TPointIfE
         U _Znwj
         U __cxa_vec_ctor
         U _ZN3tds4Path10AppendDataEjPKhPKf
         U _ZN8TTtfFontD1Ev
000003ec T _ZN3tds10VectorFontC2ERK8TTtfFont
0000040c T _ZN3tds10VectorFontD1Ev
         U __cxa_vec_dtor
000004e0 T _ZN3tds10VectorFontD0Ev
0000050c T _ZN3tds10VectorFontD2Ev
0000052c T _ZNK3tds10VectorFont8GetGlyphEj
00000570 T _ZNK3tds10VectorFont16MeasureTextWidthEPKwi
         U _ZTVN10__cxxabiv117__class_type_infoE
         U _ZTVN10__cxxabiv116__enum_type_infoE

trColorBuffer.o:
00000000 d FLOAT_TEMP.1303
00000410 t _ZN3tds10BlendColorERjRKj
         U _ZTVSt9exception
         U _ZTVSt13bad_exception
         U _ZTVSt9bad_alloc
         U _ZTV10TException
         U _ZTV6TImage
         U _ZTV6TArrayI9ColorStopE
         U _ZTI10TException
         U _ZTI6TImage
         U _ZTI6TArrayI9ColorStopE
         U _ZTISt9exception
         U _ZTISt13bad_exception
         U _ZTISt9bad_alloc
         U _ZTS10TException
         U _ZTS6TImage
         U _ZTS6TArrayI9ColorStopE
         U _ZTSSt9exception
         U _ZTSSt13bad_exception
         U _ZTSSt9bad_alloc
00000000 T _ZNK10TMatrix3x3mlERK8TVector2
00000000 T _ZN6TColorC1Ej
00000000 T _ZN6_TRectIiEC1Ev
         U _ZN6_TRectIiE8nullRectE
00000000 T _ZN6_TRectIiEC1ERKS0_
00000000 T _ZN6_TRectIiEC1ERK7_TPointIiERK6_TSizeIiE
00000000 T _ZNK6_TRectIiEmiERK7_TPointIiE
00000000 T _ZNK6_TRectIiE9IntersectERKS0_
00000000 T _ZN3tds11ColorBufferC1Eii
         U __frameinfo_used
         U _Znaj
00000028 T _ZN3tds11ColorBufferC2Eii
00000048 T _ZN3tds11ColorBufferD1Ev
         U _ZdaPv
00000078 T _ZN3tds11ColorBufferD2Ev
00000098 T _ZNK3tds11ColorBuffer15GetPatternColorEff
         U __div32
00000198 T _ZNK3tds11ColorBuffer15GetPatternColorEff10TMatrix3x3
000002cc T _ZNK3tds11ColorBuffer17GetTransformColorEff10TMatrix3x3
0000038c T _ZNK3tds11ColorBuffer8GetColorEii
000003f4 T _ZN3tds11ColorBuffer8SetColorERK6TColorii
         U __udiv32
000004dc T _ZN3tds11ColorBuffer10BlendColorERK6TColorii
0000050c T _ZN3tds11ColorBuffer16GetBlockCopyRectERK6_TSizeIiERK7_TPointIiES4_S8_S4_
00000670 T _ZNK3tds11ColorBuffer6CopyToERS0_iiiiii
00000790 T _ZN3tds11ColorBuffer8CopyFromERKS0_iiiiii
000008b0 T _ZN3tds11ColorBuffer9BlendFromERKS0_iiiiii
000009e0 T _ZNK3tds11ColorBuffer6CopyToEPh11ColorFormatiRK7_TPointIiERK6_TSizeIiE
00000b14 T _ZN3tds11ColorBuffer8CopyFromEPKh11ColorFormatiRK7_TPointIiERK6_TSizeIiE
00000c48 T _ZN3tds11ColorBuffer9BlendFromEPKh11ColorFormatiRK7_TPointIiERK6_TSizeIiE
00000d80 T _ZN3tds11ColorBuffer9CopyColorERK6TColorRK6_TRectIiE
00000e34 T _ZN3tds11ColorBuffer16GetBlockCopyRectERK6_TRectIiEiiiiS4_ii

trBmfFont.o:
         U _ZTVSt9exception
         U _ZTVSt13bad_exception
         U _ZTVSt9bad_alloc
         U _ZTV10TException
00000000 V _ZTVN3tds7BmfFontE
         U _ZTI10TException
         U _ZTISt9exception
         U _ZTISt13bad_exception
         U _ZTISt9bad_alloc
00000000 V _ZTIN3tds7BmfFontE
         U _ZTS10TException
         U _ZTSSt9exception
         U _ZTSSt13bad_exception
         U _ZTSSt9bad_alloc
00000000 V _ZTSN3tds7BmfFontE
00000000 T _ZN3tds7BmfFontC1ERK8TBmfFont
00000018 T _ZN3tds7BmfFontC2ERK8TBmfFont
00000038 T _ZN3tds7BmfFontD1Ev
         U __frameinfo_used
         U _ZN8TBmfFontD1Ev
00000068 T _ZN3tds7BmfFontD0Ev
         U _ZdlPv
00000094 T _ZN3tds7BmfFontD2Ev
         U _ZTVN10__cxxabiv117__class_type_infoE

trDisplaySystem.o:
00000000 d FLOAT_TEMP.3014
00000004 d FLOAT_TEMP.3015
00000008 d FLOAT_TEMP.3510
         U _ZTVSt9exception
         U _ZTVSt13bad_exception
         U _ZTVSt9bad_alloc
00000000 V _ZTV10TException
         U _ZTV17TChildrenDelegate
         U _ZTV6TImage
         U _ZTVSt11logic_error
         U _ZTVSt12domain_error
         U _ZTVSt16invalid_argument
         U _ZTVSt12length_error
         U _ZTVSt12out_of_range
         U _ZTVSt13runtime_error
         U _ZTVSt14overflow_error
         U _ZTVSt15underflow_error
         U _ZTVSt11range_error
         U _ZTV8TDisplay
00000000 V _ZTVN3tds13DisplaySystemE
         U _ZTV6TArrayIP5TNodeE
00000000 V _ZTV6TArrayI9ColorStopE
         U _ZTV6TArrayIN3tds4Path7SegmentEE
00000000 V _ZTV6TArrayIPN3tds10VectorFontEE
00000000 V _ZTV6TArrayIPN3tds7BmfFontEE
00000000 V _ZTV6TArrayI10TSharedPtrIN3tds11ColorBufferEEE
00000000 V _ZTV6TArrayI10TSharedPtrIN3tds7ContextEEE
00000000 V _ZTI10TException
         U _ZTI17TChildrenDelegate
         U _ZTI6TArrayIP5TNodeE
         U _ZTI6TImage
00000000 V _ZTI6TArrayI9ColorStopE
00000000 V _ZTI8TDisplay
         U _ZTI6TArrayIN3tds4Path7SegmentEE
00000000 V _ZTI6TArrayIPN3tds10VectorFontEE
00000000 V _ZTI6TArrayIPN3tds7BmfFontEE
00000000 V _ZTI6TArrayI10TSharedPtrIN3tds11ColorBufferEEE
00000000 V _ZTI6TArrayI10TSharedPtrIN3tds7ContextEEE
         U _ZTISt9exception
         U _ZTISt13bad_exception
         U _ZTISt9bad_alloc
         U _ZTISt11logic_error
         U _ZTISt12domain_error
         U _ZTISt16invalid_argument
         U _ZTISt12length_error
         U _ZTISt12out_of_range
         U _ZTISt13runtime_error
         U _ZTISt14overflow_error
         U _ZTISt15underflow_error
         U _ZTISt11range_error
00000000 V _ZTIN3tds13DisplaySystemE
00000000 V _ZTS10TException
         U _ZTS17TChildrenDelegate
         U _ZTS6TArrayIP5TNodeE
         U _ZTS6TImage
00000000 V _ZTS6TArrayI9ColorStopE
00000000 V _ZTS8TDisplay
         U _ZTS6TArrayIN3tds4Path7SegmentEE
00000000 V _ZTS6TArrayIPN3tds10VectorFontEE
00000000 V _ZTS6TArrayIPN3tds7BmfFontEE
00000000 V _ZTS6TArrayI10TSharedPtrIN3tds11ColorBufferEEE
00000000 V _ZTS6TArrayI10TSharedPtrIN3tds7ContextEEE
         U _ZTSSt9exception
         U _ZTSSt13bad_exception
         U _ZTSSt9bad_alloc
         U _ZTSSt11logic_error
         U _ZTSSt12domain_error
         U _ZTSSt16invalid_argument
         U _ZTSSt12length_error
         U _ZTSSt12out_of_range
         U _ZTSSt13runtime_error
         U _ZTSSt14overflow_error
         U _ZTSSt15underflow_error
         U _ZTSSt11range_error
00000000 V _ZTSN3tds13DisplaySystemE
00000000 T _ZN6TArrayI10TSharedPtrIN3tds11ColorBufferEEED1Ev
         U __frameinfo_used
         U __cxa_vec_delete
00000000 T _ZN10TSharedPtrIN3tds11ColorBufferEED1Ev
00000000 T _ZN6TArrayI10TSharedPtrIN3tds7ContextEEED1Ev
00000000 T _ZN10TSharedPtrIN3tds7ContextEED1Ev
00000000 T _ZN3tds13DisplaySystemC1EPhiii
         U _Znwj
         U _ZN3tds7PainterC1Eii
         U _ZdlPv
         U _ZdaPv
         U __diab_Unwind_Resume
         U __diab_personality_v0
00000170 T _Z17InitDisplaySystemPhiii
00000214 T _Z19DeinitDisplaySystemP8TDisplay
00000000 T _ZN10TExceptionD1Ev
00000000 T _ZN10TExceptionD0Ev
00000000 T _ZN10TMatrix3x3C1Ev
00000000 T _ZN10TMatrix3x3aSERKS_
00000000 T _ZN6TColorC1Ej
00000000 T _ZN6_TRectIiEC1Ev
         U _ZN6_TRectIiE8nullRectE
00000000 T _ZN10TSharedPtrI18LinearGradientDataEaSERKS1_
00000000 T _ZN10TSharedPtrI18RadialGradientDataEaSERKS1_
00000000 T _ZN6TArrayI9ColorStopED1Ev
00000000 T _ZNK10TSharedPtrI13ColorStopDataE5DerefEv
00000000 T _ZN10TSharedPtrI13ColorStopDataEaSERKS1_
00000000 T _ZN9TGradientaSERKS_
00000000 T _ZN6TArrayI9ColorStopED0Ev
00000000 T _ZN6TPaintC1Ev
         U _ZN9TGradientC1Ev
         U _ZN12TPixelBufferC1Ev
         U _ZN9TGradientD1Ev
00000000 T _ZN6TPaintD1Ev
         U _ZN12TPixelBufferD1Ev
00000000 T _ZN6TPaintaSERKS_
         U _ZN12TPixelBufferaSERKS_
00000000 T _ZN6TArrayIPN3tds10VectorFontEED1Ev
00000000 T _ZN6TArrayIPN3tds10VectorFontEED0Ev
00000000 T _ZN6TArrayIPN3tds10VectorFontEE13RoundCapacityEi
00000000 T _ZN6TArrayIPN3tds10VectorFontEE8ExpandAtEii
         U _Znaj
         U __cxa_allocate_exception
         U __cxa_throw
00000000 T _ZN6TArrayIPN3tds10VectorFontEE8InsertAtEiRKS2_
00000000 T _ZNK6TArrayIPN3tds10VectorFontEEixEi
00000000 T _ZN6TArrayIPN3tds7BmfFontEED1Ev
00000000 T _ZN6TArrayIPN3tds7BmfFontEED0Ev
00000000 T _ZN6TArrayIPN3tds7BmfFontEE13RoundCapacityEi
00000000 T _ZN6TArrayIPN3tds7BmfFontEE8ExpandAtEii
00000000 T _ZN6TArrayIPN3tds7BmfFontEE8InsertAtEiRKS2_
00000000 T _ZNK6TArrayIPN3tds7BmfFontEEixEi
00000000 T _ZN6TArrayI10TSharedPtrIN3tds11ColorBufferEEED0Ev
00000000 T _ZN6TArrayI10TSharedPtrIN3tds11ColorBufferEEE13RoundCapacityEi
00000000 T _ZNK10TSharedPtrIN3tds11ColorBufferEE5DerefEv
         U _ZN3tds11ColorBufferD1Ev
00000000 T _ZN10TSharedPtrIN3tds11ColorBufferEEaSERKS2_
00000000 T _ZN6TArrayI10TSharedPtrIN3tds11ColorBufferEEE8ExpandAtEii
         U __cxa_vec_new2
00000000 T _ZN10TSharedPtrIN3tds11ColorBufferEEC1Ev
00000000 T _ZN6TArrayI10TSharedPtrIN3tds11ColorBufferEEE8InsertAtEiRKS3_
00000000 T _ZN6TArrayI10TSharedPtrIN3tds11ColorBufferEEE8ShrinkAtEii
00000000 T _ZN6TArrayI10TSharedPtrIN3tds11ColorBufferEEE8RemoveAtEi
00000000 T _ZNK6TArrayI10TSharedPtrIN3tds11ColorBufferEEE7IndexOfERKS3_
00000000 T _ZN6TArrayI10TSharedPtrIN3tds11ColorBufferEEE6RemoveERKS3_
00000000 T _ZNK6TArrayI10TSharedPtrIN3tds11ColorBufferEEEixEi
00000000 T _ZN6TArrayI10TSharedPtrIN3tds7ContextEEED0Ev
00000000 T _ZN6TArrayI10TSharedPtrIN3tds7ContextEEE13RoundCapacityEi
00000000 T _ZN3tds7ContextD1Ev
         U _ZN5TFontD1Ev
00000000 T _ZNK10TSharedPtrIN3tds7ContextEE5DerefEv
00000000 T _ZN10TSharedPtrIN3tds7ContextEEaSERKS2_
00000000 T _ZN6TArrayI10TSharedPtrIN3tds7ContextEEE8ExpandAtEii
00000000 T _ZN10TSharedPtrIN3tds7ContextEEC1Ev
00000000 T _ZN6TArrayI10TSharedPtrIN3tds7ContextEEE8InsertAtEiRKS3_
00000000 T _ZN6TArrayI10TSharedPtrIN3tds7ContextEEE8ShrinkAtEii
00000000 T _ZN6TArrayI10TSharedPtrIN3tds7ContextEEE8RemoveAtEi
00000000 T _ZNK6TArrayI10TSharedPtrIN3tds7ContextEEE7IndexOfERKS3_
00000000 T _ZN6TArrayI10TSharedPtrIN3tds7ContextEEE6RemoveERKS3_
00000000 T _ZNK6TArrayI10TSharedPtrIN3tds7ContextEEEixEi
00000000 T _ZN10TSharedPtrIN3tds11ColorBufferEEC1EPS1_
00000000 T _ZN10TSharedPtrIN3tds7ContextEEC1EPS1_
00000000 T _ZN3tds7ContextC1Ev
         U _ZN5TFontC1Ev
00000240 T _ZN3tds13DisplaySystem15ValidateContextEPv
000002dc T _ZN3tds13DisplaySystem19ValidateColorBufferEPv
00000378 T _ZN3tds13DisplaySystemC2EPhiii
000003a0 T _ZN3tds13DisplaySystemD1Ev
         U _ZN3tds7PainterD1Ev
000005b8 T _ZN3tds13DisplaySystemD2Ev
000005d8 T _ZN3tds13DisplaySystemD0Ev
00000604 T _ZN3tds13DisplaySystem17CreatePixelBufferEii
         U _ZN3tds11ColorBufferC1Eii
00000718 T _ZN3tds13DisplaySystem18DestroyPixelBufferEPv
000007ec T _ZN3tds13DisplaySystem18GetPixelBufferSizeEPv
0000085c T _ZN3tds13DisplaySystem15CopyPixelBufferEPvRK7_TPointIiES1_S5_RK6_TSizeIiE
         U _ZN3tds11ColorBuffer8CopyFromERKS0_iiiiii
0000099c T _ZN3tds13DisplaySystem15ReadPixelBufferEPvRK7_TPointIiERK6_TSizeIiEPh11ColorFormati
         U _ZNK3tds11ColorBuffer6CopyToEPh11ColorFormatiRK7_TPointIiERK6_TSizeIiE
00000a68 T _ZN3tds13DisplaySystem16WritePixelBufferEPvRK7_TPointIiERK6_TSizeIiEPKh11ColorFormati
         U _ZN3tds11ColorBuffer8CopyFromEPKh11ColorFormatiRK7_TPointIiERK6_TSizeIiE
00000b34 T _ZN3tds13DisplaySystem10CreatePathEv
         U _ZN3tds4PathC1Ev
00000bbc T _ZN3tds13DisplaySystem11DestroyPathEPv
         U _ZN3tds4PathD1Ev
00000c00 T _ZN3tds13DisplaySystem9ClearPathEPv
         U _ZN3tds4Path5ClearEv
00000c24 T _ZN3tds13DisplaySystem16AppendDataToPathEPvjPKhPKf
         U _ZN3tds4Path10AppendDataEjPKhPKf
00000c4c T _ZN3tds13DisplaySystem16AppendPathToPathEPvS1_
         U _ZN3tds4Path10AppendPathERKS0_
00000c74 T _ZN3tds13DisplaySystem13TransformPathEPvRK10TMatrix3x3
         U _ZN3tds4Path9TransformERK10TMatrix3x3
00000c9c T _ZN3tds13DisplaySystem16GetPathBoundRectEPv
         U _ZNK3tds4Path12GetBoundRectEv
00000cc0 T _ZN3tds13DisplaySystem15RegisterTtfFontERK8TTtfFont
         U _ZN3tds10VectorFontC1ERK8TTtfFont
         U __cxa_end_catch
         U __cxa_begin_catch
00000dc4 T _ZN3tds13DisplaySystem13CreateTtfFontERK8TTtfFont
         U _ZNK8TTtfFonteqERKS_
00000e50 T _ZN3tds13DisplaySystem14DestroyTtfFontEPv
00000e54 T _ZN3tds13DisplaySystem13GetTtfMetricsEPvRK5TFontR11FontMetrics
         U _ZNK5TFont12GetPointSizeEv
         U _ZNK8TTtfFont10GetMetricsER11FontMetrics
         U __div32
00000f3c T _ZN3tds13DisplaySystem15MeasureTtfWidthEPvRK5TFontPKwi
         U _ZNK3tds10VectorFont16MeasureTextWidthEPKwi
00000fe0 T _ZN3tds13DisplaySystem15RegisterBmfFontERK8TBmfFont
         U _ZN3tds7BmfFontC1ERK8TBmfFont
000010ec T _ZN3tds13DisplaySystem13CreateBmfFontERK8TBmfFont
         U _ZNK8TBmfFonteqERKS_
00001178 T _ZN3tds13DisplaySystem14DestroyBmfFontEPv
0000117c T _ZN3tds13DisplaySystem13GetBmfMetricsEPvRK5TFontR11FontMetrics
         U _ZNK8TBmfFont10GetMetricsER11FontMetrics
0000120c T _ZN3tds13DisplaySystem15MeasureBmfWidthEPvRK5TFontPKwi
         U _ZNK8TBmfFont15GetGlyphAdvanceEwR7_TPointIiE
000012ec T _ZN3tds13DisplaySystem18CreatePaintContextEv
000013f0 T _ZN3tds13DisplaySystem19DestroyPaintContextEPv
000014c4 T _ZN3tds13DisplaySystem10BeginPaintEPvS1_
         U _ZN3tds7Painter10BeginPaintERNS_7ContextERNS_11ColorBufferE
0000163c T _ZN3tds13DisplaySystem8EndPaintEPv
         U _ZN3tds7Painter8EndPaintERNS_7ContextE
000016ec T _ZN3tds13DisplaySystem11SetViewportEPvRK7_TPointIiERK6_TRectIiE
         U _ZN3tds7Context13SetRenderAreaERK7_TPointIiERK6_TRectIiE
00001730 T _ZN3tds13DisplaySystem11SetClipRectEPvRK6_TRectIiE
         U _ZN3tds7Context11SetClipRectERK6_TRectIiE
00001770 T _ZN3tds13DisplaySystem13ClearClipRectEPv
         U _ZN3tds7Context13ClearClipRectEv
000017ac T _ZN3tds13DisplaySystem6SetPenEPvRK4TPen
000017dc T _ZN3tds13DisplaySystem8SetBrushEPvRK6TBrush
00001858 T _ZN3tds13DisplaySystem12SetTextColorEPvRK6TColor
00001890 T _ZN3tds13DisplaySystem7SetFontEPvRK5TFont
         U _ZNK5TFont7GetTypeEv
         U _ZN5TFontaSERKS_
00001938 T _ZN3tds13DisplaySystem13SetRasterModeEPv10RasterMode
00001954 T _ZN3tds13DisplaySystem12SetPathWidthEPvf
00001978 T _ZN3tds13DisplaySystem11SetFillRuleEPv8FillRule
00001994 T _ZN3tds13DisplaySystem12SetBlendModeEPv9BlendMode
000019b0 T _ZN3tds13DisplaySystem12SetDashStyleEPv9DashStyle
000019cc T _ZN3tds13DisplaySystem13SetJointStyleEPv10JointStyle
000019e8 T _ZN3tds13DisplaySystem11SetCapStyleEPv8CapStyle
00001a10 T _ZN3tds13DisplaySystem12SetFillPaintEPvRK6TPaint
00001a5c T _ZN3tds13DisplaySystem14SetStrokePaintEPvRK6TPaint
00001aa8 T _ZN3tds13DisplaySystem9SetMatrixEPvRK10TMatrix3x3
00001ae8 T _ZN3tds13DisplaySystem14SetPaintMatrixEPvRK10TMatrix3x3
00001b48 T _ZN3tds13DisplaySystem8DrawLineEPvRK7_TPointIiES5_
         U _ZN3tds7Painter9DrawHLineERNS_7ContextEiii
         U _ZN3tds7Painter9DrawVLineERNS_7ContextEiii
         U _ZN3tds7Painter8DrawLineERNS_7ContextERK7_TPointIiES6_
00001be8 T _ZN3tds13DisplaySystem8DrawRectEPvRK6_TRectIiEi
         U _ZN3tds7Painter8DrawRectERNS_7ContextERK6_TRectIiEi
00001c20 T _ZN3tds13DisplaySystem11DrawUCSTextEPvPKwiii
         U _ZN3tds7Painter11DrawUCSTextERNS_7ContextEffPKwi
00001c78 T _ZN3tds13DisplaySystem14MeasureUCSTextEPvPKwi
         U _ZN3tds7Painter14MeasureUCSTextERNS_7ContextEPKwi
00001ce8 T _ZN3tds13DisplaySystem9DrawImageEPvRK6TImageii
         U _ZNK6TImage6IsNullEv
         U _ZN3tds7Painter9DrawImageERNS_7ContextERK6TImageii
00001d5c T _ZN3tds13DisplaySystem15DrawPixelBufferEPvS1_ii
         U _ZN3tds7Painter15DrawPixelBufferERNS_7ContextERKNS_11ColorBufferEii
00001da4 T _ZN3tds13DisplaySystem10DrawCircleEPvRK6_TRectIiE
         U _ZN3tds7Painter10DrawCircleERNS_7ContextERK6_TRectIiE
00001de8 T _ZN3tds13DisplaySystem11DrawEllipseEPvRK6_TRectIiE
         U _ZN3tds7Painter11DrawEllipseERNS_7ContextERK6_TRectIiE
00001e20 T _ZN3tds13DisplaySystem7DrawArcEPvRK6_TRectIiERK7_TPointIiES9_
         U _ZN3tds7Painter7DrawArcERNS_7ContextERK6_TRectIiERK7_TPointIiESA_
00001e60 T _ZN3tds13DisplaySystem7DrawPieEPvRK6_TRectIiERK7_TPointIiES9_
         U _ZN3tds7Painter7DrawPieERNS_7ContextERK6_TRectIiERK7_TPointIiESA_
00001ea0 T _ZN3tds13DisplaySystem10StrokePathEPvS1_
         U _ZN3tds7Painter10StrokePathERNS_7ContextERKNS_4PathE
00001ee0 T _ZN3tds13DisplaySystem10StrokePathEPvPK7_TPointIfEji
         U _ZN3tds7Painter10StrokePathERNS_7ContextEPK7_TPointIfEji
00001f34 T _ZN3tds13DisplaySystem8FillPathEPvS1_
         U _ZN3tds7Painter8FillPathERNS_7ContextERKNS_4PathE
00001f74 T _ZN3tds13DisplaySystem8FillPathEPvPK7_TPointIfEj
         U _ZN3tds7Painter8FillPathERNS_7ContextEPK7_TPointIfEj
00001fac T _ZN3tds13DisplaySystem17CopyToPixelBufferEPvS1_iiiiii
         U _ZN3tds7Painter6CopyToERNS_7ContextERNS_11ColorBufferEiiiiii
00002014 T _ZN3tds13DisplaySystem19CopyFromPixelBufferEPvS1_iiiiii
         U _ZN3tds7Painter8CopyFromERNS_7ContextERKNS_11ColorBufferEiiiiii
         U _ZTVN10__cxxabiv117__class_type_infoE
         U _ZTVN10__cxxabiv120__si_class_type_infoE

tgsClassicVisual.o:
00000000 d FLOAT_TEMP.1998
00000004 d FLOAT_TEMP.1999
         U _ZTVSt9exception
         U _ZTVSt13bad_exception
         U _ZTVSt9bad_alloc
         U _ZTV10TException
         U _ZTV17TChildrenDelegate
         U _ZTV6TImage
00000000 V _ZTV20TClassicVisualEngine
         U _ZTV6TArrayIP5TNodeE
00000000 V _ZTV6TArrayI9ColorStopE
         U _ZTI10TException
         U _ZTI17TChildrenDelegate
         U _ZTI6TArrayIP5TNodeE
         U _ZTI6TImage
00000000 V _ZTI6TArrayI9ColorStopE
00000000 V _ZTI20TClassicVisualEngine
         U _ZTISt9exception
         U _ZTISt13bad_exception
         U _ZTISt9bad_alloc
         U _ZTS10TException
         U _ZTS17TChildrenDelegate
         U _ZTS6TArrayIP5TNodeE
         U _ZTS6TImage
00000000 V _ZTS6TArrayI9ColorStopE
         U _ZTI13TVisualEngine
         U _ZTS13TVisualEngine
00000000 V _ZTS20TClassicVisualEngine
         U _ZTSSt9exception
         U _ZTSSt13bad_exception
         U _ZTSSt9bad_alloc
00000000 T _ZN6TColorC1Ev
00000000 T _ZN6TColorC1Ej
00000000 T _ZN6TColorC1ERKS_
00000000 T _ZN7_TPointIiEC1Ev
00000000 T _ZN7_TPointIiED1Ev
00000000 T _ZN10TSharedPtrI18LinearGradientDataEaSERKS1_
         U _ZdlPv
00000000 T _ZN10TSharedPtrI18RadialGradientDataEaSERKS1_
00000000 T _ZN6TArrayI9ColorStopED1Ev
         U __frameinfo_used
         U __cxa_vec_delete
00000000 T _ZNK10TSharedPtrI13ColorStopDataE5DerefEv
00000000 T _ZN10TSharedPtrI13ColorStopDataEaSERKS1_
00000000 T _ZN9TGradientC1ERKS_
00000000 T _ZN9TGradientaSERKS_
00000000 T _ZN6TArrayI9ColorStopED0Ev
00000000 T _ZN6TPaintC1Ev
         U _ZN9TGradientC1Ev
         U _ZN12TPixelBufferC1Ev
         U _ZN9TGradientD1Ev
         U __diab_Unwind_Resume
         U __diab_personality_v0
00000000 T _ZN6TPaintC1ERK6TColor
00000000 T _ZN6TPaintC1ERK9TGradient
00000000 T _ZN6TPaintD1Ev
         U _ZN12TPixelBufferD1Ev
00000000 T _ZN6TPaintaSERKS_
         U _ZN12TPixelBufferaSERKS_
00000000 T _ZN20TClassicVisualEngineC1Ev
         U _ZN20TDefaultVisualEngineC2Ev
         U __cxa_vec_ctor
         U _ZN9TGradientC1EffffjPK6TColorPKf
         U _ZN20TDefaultVisualEngineD2Ev
00000e0c T _ZN20TClassicVisualEngineC2Ev
00000e2c T _ZN20TClassicVisualEngineD1Ev
000010d4 T _ZN20TClassicVisualEngineD0Ev
00001100 T _ZN20TClassicVisualEngineD2Ev
00001120 T _ZN20TClassicVisualEngine11DrawHorRectER8TPainterRK11VisualStateRK6_TRectIiE
         U _ZN14TVectorPainter15TranslateMatrixEff
         U _ZN14TVectorPainter11ScaleMatrixEff
         U _ZN14TVectorPainter12SetFillPaintERK6TPaint
         U _ZN5TPathC1ERK6_TRectIiE
         U _ZN14TVectorPainter8FillPathERK5TPath
         U _ZN5TPathD1Ev
         U _ZN14TVectorPainter16ResetPaintMatrixEv
000012d4 T _ZN20TClassicVisualEngine16DrawToggleButtonER8TPainterRK11VisualStateRK6_TRectIiEi
         U _ZNK20TDefaultVisualEngine12Draw3DBorderER8TPainterRK6_TRectIiEii
000013a8 T _ZN20TClassicVisualEngine15DrawProgressBarER8TPainterRK11VisualStateRK6_TRectIiE15OrientationType
000014cc T _ZN20TClassicVisualEngine11DrawVerRectER8TPainterRK11VisualStateRK6_TRectIiE
00001648 T _ZN20TClassicVisualEngine9DrawFrameE9FrameTypeR8TPainterRK11VisualStateRK6_TRectIiE
         U _ZN20TDefaultVisualEngine9DrawFrameE9FrameTypeR8TPainterRK11VisualStateRK6_TRectIiE
         U _ZNK20TDefaultVisualEngine13DrawDownArrowER8TPainterRK6_TRectIiERK6TColor
         U _ZNK20TDefaultVisualEngine11DrawUpArrowER8TPainterRK6_TRectIiERK6TColor
         U _ZNK20TDefaultVisualEngine13DrawLeftArrowER8TPainterRK6_TRectIiERK6TColor
         U _ZNK20TDefaultVisualEngine14DrawRightArrowER8TPainterRK6_TRectIiERK6TColor
         U _ZN20TDefaultVisualEngine15DrawScrollTrackER8TPainterRK11VisualStateRK6_TRectIiE15OrientationType
         U _ZN20TDefaultVisualEngine15DrawSliderTrackER8TPainterRK11VisualStateRK6_TRectIiE15OrientationType
         U _ZNK20TDefaultVisualEngine13DrawSolidRectER8TPainterRK6_TRectIiERK6TColor
000021c0 T _ZNK20TClassicVisualEngine15DrawRoundBorderER8TPainterRK11VisualStateRK6_TRectIiE
         U _ZN8TPainter6SetPenERK4TPen
         U _ZN8TPainter8DrawLineERK7_TPointIiES3_
         U __cxa_vec_dtor
         U _ZTVN10__cxxabiv117__class_type_infoE
         U _ZTVN10__cxxabiv120__si_class_type_infoE
         U _ZTI20TDefaultVisualEngine

tgsDefaultVisual.o:
         U _ZTVSt9exception
         U _ZTVSt13bad_exception
         U _ZTVSt9bad_alloc
         U _ZTV10TException
00000000 V _ZTV6TImage
         U _ZTV17TChildrenDelegate
         U _ZTV13TVisualEngine
00000000 V _ZTV20TDefaultVisualEngine
         U _ZTV6TArrayI9ColorStopE
         U _ZTV6TArrayIP5TNodeE
         U _ZTI10TException
00000000 V _ZTI6TImage
         U _ZTI6TArrayI9ColorStopE
         U _ZTI17TChildrenDelegate
         U _ZTI6TArrayIP5TNodeE
00000000 V _ZTI13TVisualEngine
00000000 V _ZTI20TDefaultVisualEngine
         U _ZTISt9exception
         U _ZTISt13bad_exception
         U _ZTISt9bad_alloc
         U _ZTS10TException
00000000 V _ZTS6TImage
         U _ZTS6TArrayI9ColorStopE
         U _ZTS17TChildrenDelegate
         U _ZTS6TArrayIP5TNodeE
00000000 V _ZTS13TVisualEngine
00000000 V _ZTS20TDefaultVisualEngine
         U _ZTSSt9exception
         U _ZTSSt13bad_exception
         U _ZTSSt9bad_alloc
00000000 T _ZN6TColorC1Ej
00000000 T _ZN6TColorC1ERKS_
00000000 T _ZN6_TRectIiEC1Ev
         U _ZN6_TRectIiE8nullRectE
00000000 T _ZNK10TSharedPtrI9ImageDataE5DerefEv
         U __frameinfo_used
         U _ZN9ImageDataD1Ev
         U _ZdlPv
00000000 T _ZN6TImageD1Ev
00000000 T _ZN6TImageD0Ev
00000000 T _ZN8TPainter8DrawLineEiiii
         U _ZN8TPainter8DrawLineERK7_TPointIiES3_
         U __diab_Unwind_Resume
         U __diab_personality_v0
00000000 T _ZN7_TPointIiEC1Ev
00000000 T _ZN7_TPointIiED1Ev
00000000 T _ZN20TDefaultVisualEngineC1Ev
         U _ZN6TImageC1EPhiii11ColorFormatS1_
00000000 D _ZN20TDefaultVisualEngine13bufferCheck_dE
         U _ZN12TPixelBufferC1ERK6TImage
000002a4 D _ZN20TDefaultVisualEngine13bufferCheck_hE
00000548 D _ZN20TDefaultVisualEngine13bufferCheck_pE
000007ec D _ZN20TDefaultVisualEngine14bufferCheck_cnE
00000a90 D _ZN20TDefaultVisualEngine14bufferCheck_cdE
00000d34 D _ZN20TDefaultVisualEngine14bufferCheck_chE
00000fd8 D _ZN20TDefaultVisualEngine14bufferCheck_cpE
0000127c D _ZN20TDefaultVisualEngine13bufferRadio_nE
00001600 D _ZN20TDefaultVisualEngine13bufferRadio_dE
00001984 D _ZN20TDefaultVisualEngine13bufferRadio_hE
00001d08 D _ZN20TDefaultVisualEngine13bufferRadio_pE
0000208c D _ZN20TDefaultVisualEngine14bufferRadio_cnE
00002410 D _ZN20TDefaultVisualEngine14bufferRadio_cdE
00002794 D _ZN20TDefaultVisualEngine14bufferRadio_chE
00002b18 D _ZN20TDefaultVisualEngine14bufferRadio_cpE
         U _ZN12TPixelBufferD1Ev
00001024 T _ZN20TDefaultVisualEngineC2Ev
00001044 T _ZN20TDefaultVisualEngineD1Ev
000012e0 T _ZN20TDefaultVisualEngineD0Ev
0000130c T _ZN20TDefaultVisualEngineD2Ev
